 idraw

 Timestamp is 62e6b9ee (Sun Jul 31 13:20:46 2022)

 Preferred load address is 10000000

 Start         Length     Name                   Class
 0001:00000000 000002e0H .text$di                CODE
 0001:000002e0 00081e60H .text$mn                CODE
 0001:00082140 00001293H .text$x                 CODE
 0002:00000000 00000284H .idata$5                DATA
 0002:00000284 0000000cH .00cfg                  DATA
 0002:00000290 00000004H .CRT$XCA                DATA
 0002:00000294 0000005cH .CRT$XCU                DATA
 0002:000002f0 00000004H .CRT$XCZ                DATA
 0002:000002f4 00000004H .CRT$XIA                DATA
 0002:000002f8 00000010H .CRT$XIC                DATA
 0002:00000308 00000004H .CRT$XIZ                DATA
 0002:0000030c 00000004H .CRT$XPA                DATA
 0002:00000310 00000008H .CRT$XPX                DATA
 0002:00000318 00000004H .CRT$XPXA               DATA
 0002:0000031c 00000004H .CRT$XPZ                DATA
 0002:00000320 00000004H .CRT$XTA                DATA
 0002:00000324 0000000cH .CRT$XTZ                DATA
 0002:00000328 00000000H .gfids$y                DATA
 0002:00000330 0000b090H .rdata                  DATA
 0002:0000b3c0 00000040H .rdata$CastGuardVftablesA DATA
 0002:0000b400 00000040H .rdata$CastGuardVftablesC DATA
 0002:0000b440 00000a28H .rdata$r                DATA
 0002:0000be68 000001e8H .rdata$sxdata           DATA
 0002:0000c050 00000164H .rdata$voltmd           DATA
 0002:0000c1b4 000003a0H .rdata$zzzdbg           DATA
 0002:0000c554 00000004H .rtc$IAA                DATA
 0002:0000c558 00000004H .rtc$IZZ                DATA
 0002:0000c55c 00000004H .rtc$TAA                DATA
 0002:0000c560 00000008H .rtc$TZZ                DATA
 0002:0000c568 00002628H .xdata$x                DATA
 0002:0000eb90 000002bcH .edata                  DATA
 0002:0000ee4c 00000064H .idata$2                DATA
 0002:0000eeb0 00000014H .idata$3                DATA
 0002:0000eec4 00000284H .idata$4                DATA
 0002:0000f148 00000b78H .idata$6                DATA
 0003:00000000 00003540H .data                   DATA
 0003:00003540 000001acH .data$r                 DATA
 0003:000036ec 0000028cH .data$rs                DATA
 0003:00003978 00001d68H .bss                    DATA
 0004:00000000 00000360H .rsrc$01                DATA
 0004:00000360 0001da08H .rsrc$02                DATA

  Address         Publics by Value              Rva+Base       Lib:Object

 0000:00000000       ___AbsoluteZero            00000000     <absolute>
 0000:00000000       ___arm64x_extra_rfe_table  00000000     <absolute>
 0000:00000000       ___arm64x_extra_rfe_table_size 00000000     <absolute>
 0000:00000000       ___arm64x_native_entrypoint 00000000     <absolute>
 0000:00000000       ___arm64x_redirection_metadata 00000000     <absolute>
 0000:00000000       ___arm64x_redirection_metadata_count 00000000     <absolute>
 0000:00000000       ___dynamic_value_reloc_table 00000000     <absolute>
 0000:00000000       ___enclave_config          00000000     <absolute>
 0000:00000000       ___guard_check_icall_a64n_fptr 00000000     <absolute>
 0000:00000000       ___guard_eh_cont_count     00000000     <absolute>
 0000:00000000       ___guard_eh_cont_table     00000000     <absolute>
 0000:00000000       ___guard_fids_count        00000000     <absolute>
 0000:00000000       ___guard_fids_table        00000000     <absolute>
 0000:00000000       ___guard_iat_count         00000000     <absolute>
 0000:00000000       ___guard_iat_table         00000000     <absolute>
 0000:00000000       ___guard_longjmp_count     00000000     <absolute>
 0000:00000000       ___guard_longjmp_table     00000000     <absolute>
 0000:00000000       ___hybrid_auxiliary_iat    00000000     <absolute>
 0000:00000000       ___hybrid_auxiliary_iat_copy 00000000     <absolute>
 0000:00000000       ___hybrid_code_map         00000000     <absolute>
 0000:00000000       ___hybrid_code_map_count   00000000     <absolute>
 0000:00000000       ___x64_code_ranges_to_entry_points 00000000     <absolute>
 0000:00000000       ___x64_code_ranges_to_entry_points_count 00000000     <absolute>
 0000:00000000       __except_list              00000000     <absolute>
 0000:0000007a       ___safe_se_handler_count   0000007a     <absolute>
 0000:00000100       ___guard_flags             00000100     <absolute>
 0000:00000000       ___ImageBase               10000000     <linker-defined>
 0001:000002e0       ??0MappedMap@@QAE@HH@Z     100012e0 f   MappedMAP.obj
 0001:00000340       ??1MappedMap@@QAE@XZ       10001340 f   MappedMAP.obj
 0001:00000390       ?NowDrawMapped@MappedMap@@QAEHPAEPAUtagPOINT@@@Z 10001390 f   MappedMAP.obj
 0001:00000a70       ?PictureInfo@MappedMap@@QAEPAEPAPAEPAUtagPOINT@@@Z 10001a70 f   MappedMAP.obj
 0001:00000aa0       ??0MegaMapControl@@QAE@PAVFullScreenMinimap@@PAUtagRECT@@11HHHHHH@Z 10001aa0 f   MegamapControl.obj
 0001:00000c60       ??1MegaMapControl@@QAE@XZ  10001c60 f   MegamapControl.obj
 0001:00000d00       ??_GInlineSingleHook@@QAEPAXI@Z 10001d00 f i MegamapControl.obj
 0001:00000d30       ?CheckInControl@MegaMapControl@@AAEHHH@Z 10001d30 f   MegamapControl.obj
 0001:00000e40       ?CheckInMap@MegaMapControl@@AAEHHH@Z 10001e40 f   MegamapControl.obj
 0001:00000e90       ?DoubleClick@MegaMapControl@@AAEHHH_N@Z 10001e90 f   MegamapControl.obj
 0001:00000fe0       ?EnterMegaMap@MegaMapControl@@QAEXXZ 10001fe0 f   MegamapControl.obj
 0001:000010d0       ?FindMouseUnitRounte@@YGHPAUtagInlineX86StackBuffer@@@Z 100020d0 f   MegamapControl.obj
 0001:00001110       ?GetGridPosFeatureRounte@@YGHPAUtagInlineX86StackBuffer@@@Z 10002110 f   MegamapControl.obj
 0001:00001150       ?GetPosition_DwordRounte@@YGHPAUtagInlineX86StackBuffer@@@Z 10002150 f   MegamapControl.obj
 0001:00001180       ?Init@MegaMapControl@@QAEXPAVFullScreenMinimap@@PAUtagRECT@@11HHHHHH@Z 10002180 f   MegamapControl.obj
 0001:00001320       ?IsBliting@MegaMapControl@@QAEHXZ 10002320 f   MegamapControl.obj
 0001:00001340       ?IsDrawCursor@MegaMapControl@@QAEHHH@Z 10002340 f   MegamapControl.obj
 0001:000014b0       ?IsDrawOrder@MegaMapControl@@QAEHXZ 100024b0 f   MegamapControl.obj
 0001:000014e0       ?IsDrawRect@MegaMapControl@@QAEHH@Z 100024e0 f   MegamapControl.obj
 0001:000015b0       ?IsInControl@MegaMapControl@@QAEHXZ 100025b0 f   MegamapControl.obj
 0001:000015d0       ?IsInMap@MegaMapControl@@QAEHXZ 100025d0 f   MegamapControl.obj
 0001:000015f0       ?LeftDown@MegaMapControl@@AAEHHH_N@Z 100025f0 f   MegamapControl.obj
 0001:00001610       ?LeftUp@MegaMapControl@@AAEHHH_N@Z 10002610 f   MegamapControl.obj
 0001:00001910       ?MegamapMoveSceen@MegaMapControl@@AAEXHH@Z 10002910 f   MegamapControl.obj
 0001:00001a00       ?Message@MegaMapControl@@QAE_NPAUHWND__@@IIJ@Z 10002a00 f   MegamapControl.obj
 0001:00001e30       ?MouseMove@MegaMapControl@@AAEHHH@Z 10002e30 f   MegamapControl.obj
 0001:000020a0       ?MoveScreen@MegaMapControl@@AAEXHHH@Z 100030a0 f   MegamapControl.obj
 0001:000021b0       ?QuitMegaMap@MegaMapControl@@QAEXXZ 100031b0 f   MegamapControl.obj
 0001:00002220       ?ReadSelectRect@MegaMapControl@@QAEPAUtagRECT@@PAU2@@Z 10003220 f   MegamapControl.obj
 0001:00002250       ?ReadSelectState@MegaMapControl@@QAE?AW4SELECTBUTTOM@selectbuttom@@XZ 10003250 f   MegamapControl.obj
 0001:00002270       ?RightDown@MegaMapControl@@AAEHHH_N@Z 10003270 f   MegamapControl.obj
 0001:00002290       ?RightUp@MegaMapControl@@AAEHHH_N@Z 10003290 f   MegamapControl.obj
 0001:000023d0       ?ScreenPos2TAPos@MegaMapControl@@AAEPAU_Position_Dword@@PAU2@HHH@Z 100033d0 f   MegamapControl.obj
 0001:00002460       ?SelectDown@MegaMapControl@@AAEHHH_N@Z 10003460 f   MegamapControl.obj
 0001:000024a0       ?SelectMove@MegaMapControl@@AAEHHH_N0@Z 100034a0 f   MegamapControl.obj
 0001:00002560       ?SelectUp@MegaMapControl@@AAEHHH_N0@Z 10003560 f   MegamapControl.obj
 0001:00002760       ?Set@MegaMapControl@@QAEXH@Z 10003760 f   MegamapControl.obj
 0001:00002780       ?TAPos2ScreenPos@MegaMapControl@@AAEPAUtagPOINT@@PAU2@III@Z 10003780 f   MegamapControl.obj
 0001:000027f0       ?WheelBack@MegaMapControl@@AAEHHH@Z 100037f0 f   MegamapControl.obj
 0001:00002830       ?WheelFont@MegaMapControl@@AAEHHH@Z 10003830 f   MegamapControl.obj
 0001:00002890       ?abs@@YGJJ@Z               10003890 f i MegamapControl.obj
 0001:000028b0       ??$?0$$V@?$_Compressed_pair@V?$allocator@U_Position_Dword@@@std@@V?$_Vector_val@U?$_Simple_types@U_Position_Dword@@@std@@@2@$00@std@@QAE@U_Zero_then_variadic_args_t@1@@Z 100038b0 f i MegamapTAStuff.obj
 0001:000028d0       ??$_Allocate@$07U_Default_allocate_traits@std@@$0A@@std@@YGPAXI@Z 100038d0 f i MegamapTAStuff.obj
 0001:00002900       ??$_Allocate_manually_vector_aligned@U_Default_allocate_traits@std@@@std@@YGPAXI@Z 10003900 f i MegamapTAStuff.obj
 0001:00002970       ??$_Construct_in_place@U_Position_Dword@@ABU1@@std@@YGXAAU_Position_Dword@@ABU1@@Z 10003970 f i MegamapTAStuff.obj
 0001:000029c0       ??$_Copy_memmove@PAU_Position_Dword@@PAU1@@std@@YGPAU_Position_Dword@@PAU1@00@Z 100039c0 f i MegamapTAStuff.obj
 0001:00002a30       ??$_Deallocate@$07$0A@@std@@YGXPAXI@Z 10003a30 f i MegamapTAStuff.obj
 0001:00002a90       ??$_Destroy_range@V?$allocator@U_Position_Dword@@@std@@@std@@YGXPAU_Position_Dword@@QAU1@AAV?$allocator@U_Position_Dword@@@0@@Z 10003a90 f i MegamapTAStuff.obj
 0001:00002aa0       ??$_Emplace_back@U_Position_Dword@@@?$_Uninitialized_backout_al@V?$allocator@U_Position_Dword@@@std@@@std@@QAEX$$QAU_Position_Dword@@@Z 10003aa0 f i MegamapTAStuff.obj
 0001:00002ae0       ??$_Emplace_back_with_unused_capacity@ABU_Position_Dword@@@?$vector@U_Position_Dword@@V?$allocator@U_Position_Dword@@@std@@@std@@AAEAAU_Position_Dword@@ABU2@@Z 10003ae0 f i MegamapTAStuff.obj
 0001:00002b40       ??$_Emplace_one_at_back@ABU_Position_Dword@@@?$vector@U_Position_Dword@@V?$allocator@U_Position_Dword@@@std@@@std@@AAEAAU_Position_Dword@@ABU2@@Z 10003b40 f i MegamapTAStuff.obj
 0001:00002ba0       ??$_Emplace_reallocate@ABU_Position_Dword@@@?$vector@U_Position_Dword@@V?$allocator@U_Position_Dword@@@std@@@std@@AAEPAU_Position_Dword@@QAU2@ABU2@@Z 10003ba0 f i MegamapTAStuff.obj
 0001:00002d70       ??$_Get_size_of_n@$0M@@std@@YGII@Z 10003d70 f i MegamapTAStuff.obj
 0001:00002da0       ??$_Get_unwrapped@ABQAU_Position_Dword@@@std@@YG?A_TABQAU_Position_Dword@@@Z 10003da0 f i MegamapTAStuff.obj
 0001:00002db0       ??$_To_address@PAU_Position_Dword@@@std@@YG?A_PABQAU_Position_Dword@@@Z 10003db0 f i MegamapTAStuff.obj
 0001:00002dc0       ??$_Unfancy@U_Position_Dword@@@std@@YGPAU_Position_Dword@@PAU1@@Z 10003dc0 f i MegamapTAStuff.obj
 0001:00002dd0       ??$_Uninitialized_move@PAU_Position_Dword@@V?$allocator@U_Position_Dword@@@std@@@std@@YGPAU_Position_Dword@@QAU1@0PAU1@AAV?$allocator@U_Position_Dword@@@0@@Z 10003dd0 f i MegamapTAStuff.obj
 0001:00002ea0       ??$_Voidify_iter@PAU_Position_Dword@@@std@@YGPAXPAU_Position_Dword@@@Z 10003ea0 f i MegamapTAStuff.obj
 0001:00002eb0       ??$addressof@U_Position_Dword@@@std@@YGPAU_Position_Dword@@AAU1@@Z 10003eb0 f i MegamapTAStuff.obj
 0001:00002ec0       ??$addressof@V?$_Vector_val@U?$_Simple_types@U_Position_Dword@@@std@@@std@@@std@@YGPAV?$_Vector_val@U?$_Simple_types@U_Position_Dword@@@std@@@0@AAV10@@Z 10003ec0 f i MegamapTAStuff.obj
 0001:00002ed0       ??$construct@U_Position_Dword@@ABU1@@?$_Default_allocator_traits@V?$allocator@U_Position_Dword@@@std@@@std@@SGXAAV?$allocator@U_Position_Dword@@@1@QAU_Position_Dword@@ABU3@@Z 10003ed0 f i MegamapTAStuff.obj
 0001:00002f10       ??$construct@U_Position_Dword@@U1@@?$_Default_allocator_traits@V?$allocator@U_Position_Dword@@@std@@@std@@SGXAAV?$allocator@U_Position_Dword@@@1@QAU_Position_Dword@@$$QAU3@@Z 10003f10 f i MegamapTAStuff.obj
 0001:00002f50       ??$emplace_back@ABU_Position_Dword@@@?$vector@U_Position_Dword@@V?$allocator@U_Position_Dword@@@std@@@std@@QAE?A_TABU_Position_Dword@@@Z 10003f50 f i MegamapTAStuff.obj
 0001:00002f80       ??$forward@ABU_Position_Dword@@@std@@YGABU_Position_Dword@@ABU1@@Z 10003f80 f i MegamapTAStuff.obj
 0001:00002f90       ??$forward@U_Position_Dword@@@std@@YG$$QAU_Position_Dword@@AAU1@@Z 10003f90 f i MegamapTAStuff.obj
 0001:00002fa0       ??$min@I@std@@YGABIABI0@Z  10003fa0 f i MegamapTAStuff.obj
 0001:00002fd0       ??$move@AAU_Position_Dword@@@std@@YG$$QAU_Position_Dword@@AAU1@@Z 10003fd0 f i MegamapTAStuff.obj
 0001:00002fe0       ??$sprintf_s@$0BAA@@@YAHAAY0BAA@DPBDZZ 10003fe0 f i MegamapTAStuff.obj
 0001:00003010       ??0?$_Uninitialized_backout_al@V?$allocator@U_Position_Dword@@@std@@@std@@QAE@PAU_Position_Dword@@AAV?$allocator@U_Position_Dword@@@1@@Z 10004010 f i MegamapTAStuff.obj
 0001:00003040       ??0?$_Vector_const_iterator@V?$_Vector_val@U?$_Simple_types@U_Position_Dword@@@std@@@std@@@std@@QAE@PAU_Position_Dword@@PBU_Container_base0@1@@Z 10004040 f i MegamapTAStuff.obj
 0001:00003070       ??0?$_Vector_iterator@V?$_Vector_val@U?$_Simple_types@U_Position_Dword@@@std@@@std@@@std@@QAE@PAU_Position_Dword@@PBU_Container_base0@1@@Z 10004070 f i MegamapTAStuff.obj
 0001:00003090       ??0?$_Vector_val@U?$_Simple_types@U_Position_Dword@@@std@@@std@@QAE@XZ 10004090 f i MegamapTAStuff.obj
 0001:000030c0       ??0?$allocator@U_Position_Dword@@@std@@QAE@XZ 100040c0 f i MegamapTAStuff.obj
 0001:000030d0       ??0?$vector@U_Position_Dword@@V?$allocator@U_Position_Dword@@@std@@@std@@QAE@XZ 100040d0 f i MegamapTAStuff.obj
 0001:00003100       ??0MegamapTAStuff@@QAE@PAVFullScreenMinimap@@PAUtagRECT@@11HHH@Z 10004100 f   MegamapTAStuff.obj
 0001:00003180       ??0bad_alloc@std@@AAE@QBD@Z 10004180 f i MegamapTAStuff.obj
 0001:000031b0       ??0bad_alloc@std@@QAE@ABV01@@Z 100041b0 f i MegamapTAStuff.obj
 0001:000031e0       ??0bad_array_new_length@std@@QAE@ABV01@@Z 100041e0 f i MegamapTAStuff.obj
 0001:00003210       ??0bad_array_new_length@std@@QAE@XZ 10004210 f i MegamapTAStuff.obj
 0001:00003240       ??0exception@std@@QAE@ABV01@@Z 10004240 f i MegamapTAStuff.obj
 0001:00003280       ??0exception@std@@QAE@QBDH@Z 10004280 f i MegamapTAStuff.obj
 0001:000032b0       ??1?$_Uninitialized_backout_al@V?$allocator@U_Position_Dword@@@std@@@std@@QAE@XZ 100042b0 f i MegamapTAStuff.obj
 0001:000032e0       ??1?$vector@U_Position_Dword@@V?$allocator@U_Position_Dword@@@std@@@std@@QAE@XZ 100042e0 f i MegamapTAStuff.obj
 0001:00003300       ??1MegamapTAStuff@@QAE@XZ  10004300 f   MegamapTAStuff.obj
 0001:00003340       ??1bad_alloc@std@@UAE@XZ   10004340 f i MegamapTAStuff.obj
 0001:00003360       ??1bad_array_new_length@std@@UAE@XZ 10004360 f i MegamapTAStuff.obj
 0001:00003380       ??1exception@std@@UAE@XZ   10004380 f i MegamapTAStuff.obj
 0001:000033b0       ??2@YAPAXIPAX@Z            100043b0 f i MegamapTAStuff.obj
 0001:000033c0       ??8?$_Vector_const_iterator@V?$_Vector_val@U?$_Simple_types@U_Position_Dword@@@std@@@std@@@std@@QBE_NABV01@@Z 100043c0 f i MegamapTAStuff.obj
 0001:00003400       ??9?$_Vector_const_iterator@V?$_Vector_val@U?$_Simple_types@U_Position_Dword@@@std@@@std@@@std@@QBE_NABV01@@Z 10004400 f i MegamapTAStuff.obj
 0001:00003440       ??C?$_Vector_iterator@V?$_Vector_val@U?$_Simple_types@U_Position_Dword@@@std@@@std@@@std@@QBEPAU_Position_Dword@@XZ 10004440 f i MegamapTAStuff.obj
 0001:00003450       ??E?$_Vector_const_iterator@V?$_Vector_val@U?$_Simple_types@U_Position_Dword@@@std@@@std@@@std@@QAEAAV01@XZ 10004450 f i MegamapTAStuff.obj
 0001:00003470       ??E?$_Vector_iterator@V?$_Vector_val@U?$_Simple_types@U_Position_Dword@@@std@@@std@@@std@@QAEAAV01@XZ 10004470 f i MegamapTAStuff.obj
 0001:00003490       ??_Ebad_alloc@std@@UAEPAXI@Z 10004490 f i MegamapTAStuff.obj
 0001:00003490       ??_Gbad_alloc@std@@UAEPAXI@Z 10004490 f i MegamapTAStuff.obj
 0001:000034c0       ??_Ebad_array_new_length@std@@UAEPAXI@Z 100044c0 f i MegamapTAStuff.obj
 0001:000034c0       ??_Gbad_array_new_length@std@@UAEPAXI@Z 100044c0 f i MegamapTAStuff.obj
 0001:000034f0       ??_Eexception@std@@UAEPAXI@Z 100044f0 f i MegamapTAStuff.obj
 0001:000034f0       ??_Gexception@std@@UAEPAXI@Z 100044f0 f i MegamapTAStuff.obj
 0001:00003520       ?BlitOrder@MegamapTAStuff@@QAEXPAXHHH@Z 10004520 f   MegamapTAStuff.obj
 0001:00003c60       ?BlitSelect@MegamapTAStuff@@QAEXPAXHHH@Z 10004c60 f   MegamapTAStuff.obj
 0001:00003e40       ?DrawBuildRect@MegamapTAStuff@@QAEXPAU_OFFSCREEN@@EPAUUnitDefStruct@@HHH@Z 10004e40 f   MegamapTAStuff.obj
 0001:00003f50       ?DrawCursor@MegamapTAStuff@@QAEXPAXHHHII@Z 10004f50 f   MegamapTAStuff.obj
 0001:00003fb0       ?DrawOrderPath@MegamapTAStuff@@QAEXPAU_OFFSCREEN@@PAUUnitOrdersStruct@@PAU_Position_Dword@@@Z 10004fb0 f   MegamapTAStuff.obj
 0001:000042b0       ?DrawTargatOrder@MegamapTAStuff@@QAEXPAU_OFFSCREEN@@PAUUnitOrdersStruct@@PAUPlayerStruct@@@Z 100052b0 f   MegamapTAStuff.obj
 0001:00004420       ?GetTAStuffSurface@MegamapTAStuff@@QAEPAEXZ 10005420 f   MegamapTAStuff.obj
 0001:00004440       ?Init@MegamapTAStuff@@QAEXPAVFullScreenMinimap@@PAUtagRECT@@11HHH@Z 10005440 f   MegamapTAStuff.obj
 0001:00004650       ?InitSurface@MegamapTAStuff@@QAEXPAUIDirectDraw@@H@Z 10005650 f   MegamapTAStuff.obj
 0001:00004a50       ?LockBlit@MegamapTAStuff@@QAEXPAXHHH@Z 10005a50 f   MegamapTAStuff.obj
 0001:00004b90       ?LockBlit_MEGA@MegamapTAStuff@@QAEXPAXHHH@Z 10005b90 f   MegamapTAStuff.obj
 0001:00004c00       ?LockBlit_TA@MegamapTAStuff@@QAEXPAXHHHPAH@Z 10005c00 f   MegamapTAStuff.obj
 0001:00004f10       ?ReleaseSurface@MegamapTAStuff@@QAEXXZ 10005f10 f   MegamapTAStuff.obj
 0001:00004fc0       ?ScreenPos2TAPos@MegamapTAStuff@@AAEPAU_Position_Dword@@PAU2@HHH@Z 10005fc0 f   MegamapTAStuff.obj
 0001:00005050       ?TADrawRect@MegamapTAStuff@@QAEXPAU_OFFSCREEN@@HHHHHHH@Z 10006050 f   MegamapTAStuff.obj
 0001:00005160       ?TAPos2ScreenPos@MegamapTAStuff@@AAEPAUtagPOINT@@PAU2@III@Z 10006160 f   MegamapTAStuff.obj
 0001:000051c0       ?UpdateTAGameStuffMEGA@MegamapTAStuff@@QAEXPAXHHPAH@Z 100061c0 f   MegamapTAStuff.obj
 0001:00005260       ?UpdateTAGameStuffTA@MegamapTAStuff@@QAEXPAU_DDSURFACEDESC@@HHPAH@Z 10006260 f   MegamapTAStuff.obj
 0001:00005310       ?_Adjust_manually_vector_aligned@std@@YGXAAPAXAAI@Z 10006310 f i MegamapTAStuff.obj
 0001:00005380       ?_Adopt@_Iterator_base0@std@@QAEXPBX@Z 10006380 f i MegamapTAStuff.obj
 0001:00005390       ?_Alloc_proxy@_Container_base0@std@@QAEXABU_Fake_allocator@2@@Z 10006390 f i MegamapTAStuff.obj
 0001:000053a0       ?_Allocate@_Default_allocate_traits@std@@SGPAXI@Z 100063a0 f i MegamapTAStuff.obj
 0001:000053c0       ?_Calculate_growth@?$vector@U_Position_Dword@@V?$allocator@U_Position_Dword@@@std@@@std@@ABEII@Z 100063c0 f i MegamapTAStuff.obj
 0001:00005420       ?_Change_array@?$vector@U_Position_Dword@@V?$allocator@U_Position_Dword@@@std@@@std@@AAEXQAU_Position_Dword@@II@Z 10006420 f i MegamapTAStuff.obj
 0001:000054c0       ?_Compat@?$_Vector_const_iterator@V?$_Vector_val@U?$_Simple_types@U_Position_Dword@@@std@@@std@@@std@@QBEXABV12@@Z 100064c0 f i MegamapTAStuff.obj
 0001:000054d0       ?_Get_first@?$_Compressed_pair@V?$allocator@U_Position_Dword@@@std@@V?$_Vector_val@U?$_Simple_types@U_Position_Dword@@@std@@@2@$00@std@@QAEAAV?$allocator@U_Position_Dword@@@2@XZ 100064d0 f i MegamapTAStuff.obj
 0001:000054e0       ?_Get_first@?$_Compressed_pair@V?$allocator@U_Position_Dword@@@std@@V?$_Vector_val@U?$_Simple_types@U_Position_Dword@@@std@@@2@$00@std@@QBEABV?$allocator@U_Position_Dword@@@2@XZ 100064e0 f i MegamapTAStuff.obj
 0001:000054f0       ?_Getal@?$vector@U_Position_Dword@@V?$allocator@U_Position_Dword@@@std@@@std@@AAEAAV?$allocator@U_Position_Dword@@@2@XZ 100064f0 f i MegamapTAStuff.obj
 0001:00005510       ?_Getal@?$vector@U_Position_Dword@@V?$allocator@U_Position_Dword@@@std@@@std@@ABEABV?$allocator@U_Position_Dword@@@2@XZ 10006510 f i MegamapTAStuff.obj
 0001:00005530       ?_Orphan_all@_Container_base0@std@@QAEXXZ 10006530 f i MegamapTAStuff.obj
 0001:00005540       ?_Orphan_range@?$vector@U_Position_Dword@@V?$allocator@U_Position_Dword@@@std@@@std@@ABEXPAU_Position_Dword@@0@Z 10006540 f i MegamapTAStuff.obj
 0001:00005550       ?_Release@?$_Uninitialized_backout_al@V?$allocator@U_Position_Dword@@@std@@@std@@QAEPAU_Position_Dword@@XZ 10006550 f i MegamapTAStuff.obj
 0001:00005570       ?_Throw_bad_array_new_length@std@@YGXXZ 10006570 f i MegamapTAStuff.obj
 0001:00005590       ?_Tidy@?$vector@U_Position_Dword@@V?$allocator@U_Position_Dword@@@std@@@std@@AAEXXZ 10006590 f i MegamapTAStuff.obj
 0001:00005650       ?_Xlength@?$vector@U_Position_Dword@@V?$allocator@U_Position_Dword@@@std@@@std@@CGXXZ 10006650 f i MegamapTAStuff.obj
 0001:00005660       ?allocate@?$allocator@U_Position_Dword@@@std@@QAEPAU_Position_Dword@@I@Z 10006660 f i MegamapTAStuff.obj
 0001:00005680       ?begin@?$vector@U_Position_Dword@@V?$allocator@U_Position_Dword@@@std@@@std@@QAE?AV?$_Vector_iterator@V?$_Vector_val@U?$_Simple_types@U_Position_Dword@@@std@@@std@@@2@XZ 10006680 f i MegamapTAStuff.obj
 0001:000056b0       ?capacity@?$vector@U_Position_Dword@@V?$allocator@U_Position_Dword@@@std@@@std@@QBEIXZ 100066b0 f i MegamapTAStuff.obj
 0001:000056e0       ?deallocate@?$allocator@U_Position_Dword@@@std@@QAEXQAU_Position_Dword@@I@Z 100066e0 f i MegamapTAStuff.obj
 0001:00005700       ?end@?$vector@U_Position_Dword@@V?$allocator@U_Position_Dword@@@std@@@std@@QAE?AV?$_Vector_iterator@V?$_Vector_val@U?$_Simple_types@U_Position_Dword@@@std@@@std@@@2@XZ 10006700 f i MegamapTAStuff.obj
 0001:00005740       ?max@?$numeric_limits@H@std@@SGHXZ 10006740 f i MegamapTAStuff.obj
 0001:00005750       ?max_size@?$_Default_allocator_traits@V?$allocator@U_Position_Dword@@@std@@@std@@SGIABV?$allocator@U_Position_Dword@@@2@@Z 10006750 f i MegamapTAStuff.obj
 0001:00005760       ?max_size@?$vector@U_Position_Dword@@V?$allocator@U_Position_Dword@@@std@@@std@@QBEIXZ 10006760 f i MegamapTAStuff.obj
 0001:000057a0       ?push_back@?$vector@U_Position_Dword@@V?$allocator@U_Position_Dword@@@std@@@std@@QAEXABU_Position_Dword@@@Z 100067a0 f i MegamapTAStuff.obj
 0001:000057c0       ?what@exception@std@@UBEPBDXZ 100067c0 f i MegamapTAStuff.obj
 0001:000057f0       ___local_stdio_printf_options 100067f0 f i MegamapTAStuff.obj
 0001:00005800       __vsprintf_s_l             10006800 f i MegamapTAStuff.obj
 0001:00005850       _vsprintf_s                10006850 f i MegamapTAStuff.obj
 0001:00005870       ??0ProjectileMap@@QAE@PAVFullScreenMinimap@@PAVUnitsMinimap@@@Z 10006870 f   ProjectileMap.obj
 0001:000058a0       ??1ProjectileMap@@QAE@XZ   100068a0 f   ProjectileMap.obj
 0001:000058b0       ?DrawNuke@ProjectileMap@@AAEXPAEPAUtagPOINT@@HHPAUProjectileStruct@@@Z 100068b0 f   ProjectileMap.obj
 0001:00005aa0       ?DrawProjectile@ProjectileMap@@AAEXPAEPAUtagPOINT@@PAUProjectileStruct@@@Z 10006aa0 f   ProjectileMap.obj
 0001:00005bb0       ?DrawWeapon@ProjectileMap@@AAEXPAEPAUtagPOINT@@HH@Z 10006bb0 f   ProjectileMap.obj
 0001:00005ca0       ?IsPosInPlayerLos@ProjectileMap@@AAEHIIPAUProjectileStruct@@@Z 10006ca0 f   ProjectileMap.obj
 0001:00005df0       ?NowDrawProjectile@ProjectileMap@@QAEXPAEPAUtagPOINT@@@Z 10006df0 f   ProjectileMap.obj
 0001:00005e70       ??$strcpy_s@$0BAA@@@YAHAAY0BAA@DPBD@Z 10006e70 f i UnitIcon.obj
 0001:00005e90       ??0TABMP@@QAE@XZ           10006e90 f   UnitIcon.obj
 0001:00005f10       ??0UnitIcon@@QAE@PAD@Z     10006f10 f   UnitIcon.obj
 0001:00006030       ??1TABMP@@QAE@XZ           10007030 f   UnitIcon.obj
 0001:000060b0       ??1UnitIcon@@QAE@XZ        100070b0 f   UnitIcon.obj
 0001:00006140       ??_GPCX@@QAEPAXI@Z         10007140 f i UnitIcon.obj
 0001:00006180       ??_GTABMP@@QAEPAXI@Z       10007180 f i UnitIcon.obj
 0001:000061b0       ?BufSize@PCX@@QAEJXZ       100071b0 f i UnitIcon.obj
 0001:000061d0       ?BufSize@TABMP@@QAEJXZ     100071d0 f i UnitIcon.obj
 0001:000061f0       ?BufSize@UnitIcon@@QAEJXZ  100071f0 f   UnitIcon.obj
 0001:00006230       ?Data@TABMP@@QAEPAEXZ      10007230 f i UnitIcon.obj
 0001:00006250       ?Data@UnitIcon@@QAEPAEXZ   10007250 f   UnitIcon.obj
 0001:00006290       ?Height@TABMP@@QAEJXZ      10007290 f i UnitIcon.obj
 0001:000062b0       ?Height@UnitIcon@@QAEJXZ   100072b0 f   UnitIcon.obj
 0001:000062f0       ?Load@TABMP@@QAEXPAD@Z     100072f0 f   UnitIcon.obj
 0001:000064e0       ?PCXData@PCX@@QAEPAEXZ     100074e0 f i UnitIcon.obj
 0001:00006500       ?Transformer@TABMP@@QAEXPAEPAUtagLOGPALETTE@@PAUtagBITMAPINFO@@0@Z 10007500 f   UnitIcon.obj
 0001:000065c0       ?Width@TABMP@@QAEJXZ       100075c0 f i UnitIcon.obj
 0001:000065e0       ?Width@UnitIcon@@QAEJXZ    100075e0 f   UnitIcon.obj
 0001:00006620       ??_GLimitCrack@@QAEPAXI@Z  10007620 f i ddraw.obj
 0001:00006650       ??_GTABugFixing@@QAEPAXI@Z 10007650 f i ddraw.obj
 0001:00006690       ??_GTADRConfig@@QAEPAXI@Z  10007690 f i ddraw.obj
 0001:000066d0       ??_GUnicodeSupport@@QAEPAXI@Z 100076d0 f i ddraw.obj
 0001:00006710       ??_G_TAHPI@@QAEPAXI@Z      10007710 f i ddraw.obj
 0001:00006740       ?AddtionInit@@YGHPAUtagInlineX86StackBuffer@@@Z 10007740 f   ddraw.obj
 0001:00006760       ?AddtionInitAfterDDraw@@YGHPAUtagInlineX86StackBuffer@@@Z 10007760 f   ddraw.obj
 0001:000068e0       ?AddtionRelease@@YGXXZ     100078e0 f   ddraw.obj
 0001:00006940       ?AddtionReleaseAfterDDraw@@YGXXZ 10007940 f   ddraw.obj
 0001:000069d0       ?AllocateNewArray@@YGXXZ   100079d0 f   ddraw.obj
 0001:00006a80       ?ApplyWeaponIdsPatches@@YGXXZ 10007a80 f   ddraw.obj
 0001:00006c90       ?DirectDrawCreate@@YGJPAU_GUID@@PAPAUIDirectDraw@@PAUIUnknown@@@Z 10007c90 f   ddraw.obj
 0001:00006d60       ?EnableSound@@YGXXZ        10007d60 f   ddraw.obj
 0001:00006d90       ?GetAddress@@YGP6GHXZPBD@Z 10007d90 f   ddraw.obj
 0001:00006dc0       ?GetSysDir@@YGXXZ          10007dc0 f   ddraw.obj
 0001:00006e50       ?MyMod@@YGXXZ              10007e50 f   ddraw.obj
 0001:000076d0       ?SetExeMemoryProtection@@YGHPAX0K@Z 100086d0 f   ddraw.obj
 0001:00007700       ?SetupFileMap@@YG_NXZ      10008700 f   ddraw.obj
 0001:00007790       ?SetupLocalFileMap@@YG_NXZ 10008790 f   ddraw.obj
 0001:00007810       ?SetupTAHookFileMap@@YGXXZ 10008810 f   ddraw.obj
 0001:00007880       ?ShutDownTAHookFileMap@@YGXXZ 10008880 f   ddraw.obj
 0001:000078b0       ?ShutdownFileMap@@YGXXZ    100088b0 f   ddraw.obj
 0001:000078e0       ?ShutdownLocalFileMap@@YGXXZ 100088e0 f   ddraw.obj
 0001:00007910       ?SoundMixingBuffers@@YGXXZ 10008910 f   ddraw.obj
 0001:00007930       ?StaticInitializers_DllMain@@YGXXZ 10008930 f   ddraw.obj
 0001:000079a0       ?StaticInitializers_WeaponIds@@YGXXZ 100089a0 f   ddraw.obj
 0001:00007ba0       ?WeaponIds@@YGXXZ          10008ba0 f   ddraw.obj
 0001:00007bb0       ?WriteBytes@@YGXPAXQAEK@Z  10008bb0 f   ddraw.obj
 0001:00007bd0       ?WriteJumpHook@@YGXPAX0@Z  10008bd0 f   ddraw.obj
 0001:00007bf0       ?____AreaOfEffectDamage_Hook_1@@YGXXZ 10008bf0 f   ddraw.obj
 0001:00007d20       ?____AreaOfEffectDamage_Hook_1_HelperA@@YGXXZ 10008d20 f   ddraw.obj
 0001:00007d60       ?____FeaturesTakeWeaponDamage_Hook_0_1@@YGXXZ 10008d60 f   ddraw.obj
 0001:00007dd0       ?____FeaturesTakeWeaponDamage_Hook_1@@YGXXZ 10008dd0 f   ddraw.obj
 0001:00007e90       ?____FeaturesTakeWeaponDamage_Hook_1_HelperA@@YGXXZ 10008e90 f   ddraw.obj
 0001:00007ed0       ?____FeaturesTakeWeaponDamage_Hook_2@@YGXXZ 10008ed0 f   ddraw.obj
 0001:00007ef0       ?____FeaturesTakeWeaponDamage_Hook_3@@YGXXZ 10008ef0 f   ddraw.obj
 0001:00007f10       ?____FeaturesTakeWeaponDamage_Hook_4@@YGXXZ 10008f10 f   ddraw.obj
 0001:00007f30       ?____FeaturesTakeWeaponDamage_Hook_5@@YGXXZ 10008f30 f   ddraw.obj
 0001:00007fb0       ?____FeaturesTakeWeaponDamage_Hook_5_HelperA@@YGHK@Z 10008fb0 f   ddraw.obj
 0001:00007fe0       ?____FireCallback1_Hook_1@@YGXXZ 10008fe0 f   ddraw.obj
 0001:00008190       ?____FireCallback2_Hook_1@@YGXXZ 10009190 f   ddraw.obj
 0001:00008340       ?____FireCallback3_Hook_1@@YGXXZ 10009340 f   ddraw.obj
 0001:00008500       ?____FireCallback4_Hook_1@@YGXXZ 10009500 f   ddraw.obj
 0001:000086b0       ?____FireMapWeapon_Hook_1@@YGXXZ 100096b0 f   ddraw.obj
 0001:000087d0       ?____LoadAllWeapons_Hook_1@@YGXXZ 100097d0 f   ddraw.obj
 0001:000087f0       ?____LoadGame_LoadUnit_Hook_1@@YGXXZ 100097f0 f   ddraw.obj
 0001:00008810       ?____LoadUnitInfoFromFBI_Hook_1@@YGXXZ 10009810 f   ddraw.obj
 0001:00008840       ?____LoadWeaponFromTDF_Hook_1@@YGXXZ 10009840 f   ddraw.obj
 0001:00008870       ?____LoadWeaponFromTDF_Hook_1_HelperA@@YGPAXK@Z 10009870 f   ddraw.obj
 0001:00008890       ?____LoadWeaponFromTDF_Hook_2@@YGXXZ 10009890 f   ddraw.obj
 0001:00008910       ?____LoadWeaponFromTDF_Hook_3@@YGXXZ 10009910 f   ddraw.obj
 0001:00008960       ?____LoadWeaponFromTDF_Hook_4@@YGXXZ 10009960 f   ddraw.obj
 0001:000089a0       ?____MixingBuffers_Hook_1@@YGXXZ 100099a0 f   ddraw.obj
 0001:000089c0       ?____NewDataFile_Hook_1_HelperA@@YGXXZ 100099c0 f   ddraw.obj
 0001:00008cc0       ?____Order_Resurrect_Hook_1@@YGXXZ 10009cc0 f   ddraw.obj
 0001:00008d90       ?____PacketDispatcher_Hook_1@@YGXXZ 10009d90 f   ddraw.obj
 0001:00008e60       ?____PacketSize_PacketFeatureExplode_Hook_1@@YGXXZ 10009e60 f   ddraw.obj
 0001:00008e80       ?____ReceiveAreaOfEffectDamage_Hook_1@@YGXXZ 10009e80 f   ddraw.obj
 0001:00008e90       ?____ReceiveWeaponFired_Hook_1@@YGXXZ 10009e90 f   ddraw.obj
 0001:00008ef0       ?____ReclaimFinished_Hook_1@@YGXXZ 10009ef0 f   ddraw.obj
 0001:00009000       ?____SaveGame_SaveUnit_Hook_1@@YGXXZ 1000a000 f   ddraw.obj
 0001:00009010       ?____SendFireWeapon_Hook_1@@YGXXZ 1000a010 f   ddraw.obj
 0001:000091e0       ?____SendFireWeapon_Hook_1_HelperA@@YGXXZ 1000a1e0 f   ddraw.obj
 0001:00009220       ?____StartTreeBurn_Hook_1@@YGXXZ 1000a220 f   ddraw.obj
 0001:000092d0       ?____StartWeaponsScripts_Hook_1@@YGXXZ 1000a2d0 f   ddraw.obj
 0001:000092f0       ?____WeaponNameToWeaponTypeDefinition_Replace@@YGPADPAD@Z 1000a2f0 f   ddraw.obj
 0001:00009360       ?____WeaponUnknown1_Hook_1@@YGXXZ 1000a360 f   ddraw.obj
 0001:00009370       ?____WeaponUnknown2_Hook_1@@YGXXZ 1000a370 f   ddraw.obj
 0001:00009380       ?____WeaponUnknown3_Hook_1@@YGXXZ 1000a380 f   ddraw.obj
 0001:00009390       ?____free@@YAXPAX@Z        1000a390 f   ddraw.obj
 0001:000093b0       ?____malloc@@YAPAXI@Z      1000a3b0 f   ddraw.obj
 0001:000093d0       ?____strlen@@YGIPBD@Z      1000a3d0 f   ddraw.obj
 0001:00009400       _AheadLib_AcquireDDThreadLock 1000a400 f   ddraw.obj
 0001:00009410       _AheadLib_CompleteCreateSysmemSurface 1000a410 f   ddraw.obj
 0001:00009420       _AheadLib_D3DParseUnknownCommand 1000a420 f   ddraw.obj
 0001:00009430       _AheadLib_DDGetAttachedSurfaceLcl 1000a430 f   ddraw.obj
 0001:00009440       _AheadLib_DDInternalLock   1000a440 f   ddraw.obj
 0001:00009450       _AheadLib_DDInternalUnlock 1000a450 f   ddraw.obj
 0001:00009460       _AheadLib_DSoundHelp       1000a460 f   ddraw.obj
 0001:00009470       _AheadLib_DirectDrawCreateClipper 1000a470 f   ddraw.obj
 0001:00009480       _AheadLib_DirectDrawCreateEx 1000a480 f   ddraw.obj
 0001:00009490       _AheadLib_DirectDrawEnumerateA 1000a490 f   ddraw.obj
 0001:000094a0       _AheadLib_DirectDrawEnumerateExA 1000a4a0 f   ddraw.obj
 0001:000094b0       _AheadLib_DirectDrawEnumerateExW 1000a4b0 f   ddraw.obj
 0001:000094c0       _AheadLib_DirectDrawEnumerateW 1000a4c0 f   ddraw.obj
 0001:000094d0       _AheadLib_DllCanUnloadNow  1000a4d0 f   ddraw.obj
 0001:000094e0       _AheadLib_DllGetClassObject 1000a4e0 f   ddraw.obj
 0001:000094f0       _AheadLib_GetDDSurfaceLocal 1000a4f0 f   ddraw.obj
 0001:00009500       _AheadLib_GetOLEThunkData  1000a500 f   ddraw.obj
 0001:00009510       _AheadLib_GetSurfaceFromDC 1000a510 f   ddraw.obj
 0001:00009520       _AheadLib_RegisterSpecialCase 1000a520 f   ddraw.obj
 0001:00009530       _AheadLib_ReleaseDDThreadLock 1000a530 f   ddraw.obj
 0001:00009540       _AheadLib_SetAppCompatData 1000a540 f   ddraw.obj
 0001:00009550       _DllMain@12                1000a550 f   ddraw.obj
 0001:00009830       ??0ExternHotKey@@QAE@XZ    1000a830 f   ExternhotKey.obj
 0001:00009b50       ??1ExternHotKey@@QAE@XZ    1000ab50 f   ExternhotKey.obj
 0001:00009cd0       ?AddRoutine_InitAfterExternKey@@YGXXZ 1000acd0 f   ExternhotKey.obj
 0001:00009d10       ?AddtionRoutine_CircleSelect@@YGHPAUtagInlineX86StackBuffer@@@Z 1000ad10 f   ExternhotKey.obj
 0001:00009dd0       ?AddtionRoutine_UnitINFOInit@@YGHPAUtagInlineX86StackBuffer@@@Z 1000add0 f   ExternhotKey.obj
 0001:00009e00       ?DestroyExternTypeMask@ExternHotKey@@QAEXXZ 1000ae00 f   ExternhotKey.obj
 0001:00009f30       ?FilterSelectedUnit@ExternHotKey@@QAEHXZ 1000af30 f   ExternhotKey.obj
 0001:00009fa0       ?FilterSelectedUnitProc@ExternHotKey@@QAEHW4TAUnitType@@@Z 1000afa0 f   ExternhotKey.obj
 0001:0000a1a0       ?FindIdelFactory@ExternHotKey@@QAEXXZ 1000b1a0 f   ExternhotKey.obj
 0001:0000a360       ?FindIdleConst@ExternHotKey@@QAEXXZ 1000b360 f   ExternhotKey.obj
 0001:0000a5a0       ?InitExternTypeMask@ExternHotKey@@QAEHXZ 1000b5a0 f   ExternhotKey.obj
 0001:0000ae30       ?Message@ExternHotKey@@QAE_NPAUHWND__@@IIJ@Z 1000be30 f   ExternhotKey.obj
 0001:0000b210       ?SelectOnlyInScreenSameTypeUnit@ExternHotKey@@QAEHH@Z 1000c210 f   ExternhotKey.obj
 0001:0000b430       ?SelectOnlyInScreenWeaponUnit@ExternHotKey@@QAEHI@Z 1000c430 f   ExternhotKey.obj
 0001:0000b5a0       ?SelectUnitInRect@ExternHotKey@@QAEHW4TAUnitType@@PAUtagRECT@@_N@Z 1000c5a0 f   ExternhotKey.obj
 0001:0000b770       ??0FullScreenMinimap@@QAE@HH@Z 1000c770 f   fullscreenminimap.obj
 0001:0000bb20       ??1FullScreenMinimap@@QAE@XZ 1000cb20 f   fullscreenminimap.obj
 0001:0000bdb0       ??_GMappedMap@@QAEPAXI@Z   1000cdb0 f i fullscreenminimap.obj
 0001:0000bdf0       ??_GMegaMapControl@@QAEPAXI@Z 1000cdf0 f i fullscreenminimap.obj
 0001:0000be30       ??_GMegamapTAStuff@@QAEPAXI@Z 1000ce30 f i fullscreenminimap.obj
 0001:0000be70       ??_GProjectileMap@@QAEPAXI@Z 1000ce70 f i fullscreenminimap.obj
 0001:0000bea0       ??_GSingleHook@@QAEPAXI@Z  1000cea0 f i fullscreenminimap.obj
 0001:0000bed0       ??_GTAGameAreaReDrawer@@QAEPAXI@Z 1000ced0 f i fullscreenminimap.obj
 0001:0000bf00       ??_GTNTtoMiniMap@@QAEPAXI@Z 1000cf00 f i fullscreenminimap.obj
 0001:0000bf30       ??_GUnitsMinimap@@QAEPAXI@Z 1000cf30 f i fullscreenminimap.obj
 0001:0000bf70       ?BlockGUIState@FullScreenMinimap@@QAEXXZ 1000cf70 f   fullscreenminimap.obj
 0001:0000bf80       ?BlockTADraw@@YGHPAUtagInlineX86StackBuffer@@@Z 1000cf80 f   fullscreenminimap.obj
 0001:0000bfd0       ?DischargeGUIState@FullScreenMinimap@@QAEXXZ 1000cfd0 f   fullscreenminimap.obj
 0001:0000bfe0       ?DischargeTADraw@@YGHPAUtagInlineX86StackBuffer@@@Z 1000cfe0 f   fullscreenminimap.obj
 0001:0000c010       ?EnterMegaMap@FullScreenMinimap@@QAEXXZ 1000d010 f   fullscreenminimap.obj
 0001:0000c030       ?ForceTADrawBlit@@YGHPAUtagInlineX86StackBuffer@@@Z 1000d030 f   fullscreenminimap.obj
 0001:0000c070       ?IfRenderMegaThenBlock2@@YGXXZ 1000d070 f   fullscreenminimap.obj
 0001:0000c0a0       ?IfRenderMegaThenBlock@@YGXXZ 1000d0a0 f   fullscreenminimap.obj
 0001:0000c0e0       ?InitMinimap@FullScreenMinimap@@QAEXPAUtagTNTHeaderStruct@@PAUtagRECT@@@Z 1000d0e0 f   fullscreenminimap.obj
 0001:0000cc50       ?InitSurface@FullScreenMinimap@@QAEXPAUIDirectDraw@@@Z 1000dc50 f   fullscreenminimap.obj
 0001:0000cc80       ?InitSurface@FullScreenMinimap@@QAEXPAUIDirectDraw@@H@Z 1000dc80 f   fullscreenminimap.obj
 0001:0000cd50       ?IsBliting@FullScreenMinimap@@QAEHXZ 1000dd50 f   fullscreenminimap.obj
 0001:0000cd70       ?LoadMap_Routine@@YGHPAUtagInlineX86StackBuffer@@@Z 1000dd70 f   fullscreenminimap.obj
 0001:0000cdb0       ?LockBlit@FullScreenMinimap@@QAEXPAXHHH@Z 1000ddb0 f   fullscreenminimap.obj
 0001:0000ce30       ?MegamapFrameThd@@YGKXZ    1000de30 f   fullscreenminimap.obj
 0001:0000d000       ?Message@FullScreenMinimap@@QAE_NPAUHWND__@@IIJ@Z 1000e000 f   fullscreenminimap.obj
 0001:0000d060       ?QuitMegaMap@FullScreenMinimap@@QAEXXZ 1000e060 f   fullscreenminimap.obj
 0001:0000d080       ?ReleaseSurface@FullScreenMinimap@@QAEXXZ 1000e080 f   fullscreenminimap.obj
 0001:0000d0e0       ?Set@FullScreenMinimap@@QAEXH@Z 1000e0e0 f   fullscreenminimap.obj
 0001:0000d120       ?SetVid@FullScreenMinimap@@QAEXH@Z 1000e120 f   fullscreenminimap.obj
 0001:0000d140       ?UpdateFrame@FullScreenMinimap@@QAGXPAXPAU_DDSURFACEDESC@@@Z 1000e140 f   fullscreenminimap.obj
 0001:0000d480       ?gametimeupdate@@YGXXZ     1000e480 f   fullscreenminimap.obj
 0001:0000d4a0       ?writejmp@FullScreenMinimap@@QAEXII@Z 1000e4a0 f i fullscreenminimap.obj
 0001:0000d4f0       ?CopyGafSequenceToBits@@YGPAEPAEPAUtagPOINT@@PAU_GAFSequence@@H@Z 1000e4f0 f   gaf.obj
 0001:0000d560       ?CopyGafToBits@@YGXPAEPAUtagPOINT@@IIPAU_GAFFrame@@PAUtagRECT@@@Z 1000e560 f   gaf.obj
 0001:0000d5f0       ?CreateSurfByGafFrame@@YGPAUIDirectDrawSurface@@PAUIDirectDraw@@PAU_GAFFrame@@H@Z 1000e5f0 f   gaf.obj
 0001:0000d740       ?CreateSurfByGafSequence@@YGPAUIDirectDrawSurface@@PAUIDirectDraw@@PAU_GAFSequence@@_N@Z 1000e740 f   gaf.obj
 0001:0000d950       ?InstanceGAFFrame@@YGPAEPAU_GAFFrame@@PAPAEPAUtagPOINT@@@Z 1000e950 f   gaf.obj
 0001:0000da00       ??0GUIExpand@@QAE@XZ       1000ea00 f   GuiExpand.obj
 0001:0000dc00       ??1GUIExpand@@QAE@XZ       1000ec00 f   GuiExpand.obj
 0001:0000dca0       ??_GFullScreenMinimap@@QAEPAXI@Z 1000eca0 f i GuiExpand.obj
 0001:0000dce0       ??_GMenuResolution@@QAEPAXI@Z 1000ece0 f i GuiExpand.obj
 0001:0000dd10       ??_GShareDialogExpand@@QAEPAXI@Z 1000ed10 f i GuiExpand.obj
 0001:0000dd40       ?ApplySelectUnitMenu_Wapper@@YGXXZ 1000ed40 f   HardCodeFunctions.obj
 0001:0000dd80       ?ChatText@@YGHPAD@Z        1000ed80 f   HardCodeFunctions.obj
 0001:0000ddf0       ?CleanIDMaskInTypeAry@@YG_NGQAK@Z 1000edf0 f   HardCodeFunctions.obj
 0001:0000de50       ?CountSelectedUnits@@YGHXZ 1000ee50 f   HardCodeFunctions.obj
 0001:0000df20       ?DeselectUnits@@YGXXZ      1000ef20 f   HardCodeFunctions.obj
 0001:0000dfe0       ?DrawDotteCircle@@YGHPAEPAUtagPOINT@@HHHHHH@Z 1000efe0 f   HardCodeFunctions.obj
 0001:0000e060       ?DrawRadarCircle@@YGHPAEPAUtagPOINT@@HHHH@Z 1000f060 f   HardCodeFunctions.obj
 0001:0000e0e0       ?DrawTextInScreen_ez@@YG_NPAU_OFFSCREEN@@PADHH@Z 1000f0e0 f   HardCodeFunctions.obj
 0001:0000e110       ?GetMaxScrollX@@YGHXZ      1000f110 f   HardCodeFunctions.obj
 0001:0000e150       ?GetMaxScrollY@@YGHXZ      1000f150 f   HardCodeFunctions.obj
 0001:0000e190       ?GetUnitIDMaskAryByCategory@@YGPAKPAD@Z 1000f190 f   HardCodeFunctions.obj
 0001:0000e210       ?IsPlayerAllyUnit@@YGHHH@Z 1000f210 f   HardCodeFunctions.obj
 0001:0000e2c0       ?MatchInTypeAry@@YG_NGQAK@Z 1000f2c0 f   HardCodeFunctions.obj
 0001:0000e2f0       ?PauseCDMusic@@YGHXZ       1000f2f0 f   HardCodeFunctions.obj
 0001:0000e320       ?ScrollToCenter@@YGXHH@Z   1000f320 f   HardCodeFunctions.obj
 0001:0000e3e0       ?SendOrder@@YGXIIIH_N@Z    1000f3e0 f   HardCodeFunctions.obj
 0001:0000e460       ?SetIDMaskInTypeAry@@YG_NGQAK@Z 1000f460 f   HardCodeFunctions.obj
 0001:0000e4a0       ?UpdateSelectUnitEffect@@YGXXZ 1000f4a0 f   HardCodeFunctions.obj
 0001:0000e4e0       ?UpdateTAProcess@@YGHXZ    1000f4e0 f   HardCodeFunctions.obj
 0001:0000e590       ?ViewPlayerLos_Replay@@YGHHH@Z 1000f590 f   HardCodeFunctions.obj
 0001:0000e790       ?freeTAMem@@YGXPAX@Z       1000f790 f   HardCodeFunctions.obj
 0001:0000e800       ?resumeOffScreen@@YGXXZ    1000f800 f   HardCodeFunctions.obj
 0001:0000e810       ?resumeScreenPlatte@@YGXXZ 1000f810 f   HardCodeFunctions.obj
 0001:0000e870       _sprintf_s                 1000f870 f i HardCodeFunctions.obj
 0001:0000e8b0       ??0ModifyHook@@QAE@IHKPAEKK@Z 1000f8b0 f   ModifyHook.obj
 0001:0000e960       ??0ModifyHook@@QAE@PAEHK0KK@Z 1000f960 f   ModifyHook.obj
 0001:0000ea10       ??0ModifyHook@@QAE@XZ      1000fa10 f   ModifyHook.obj
 0001:0000ea60       ??1ModifyHook@@QAE@XZ      1000fa60 f   ModifyHook.obj
 0001:0000eb20       ?Hook@ModifyHook@@UAEXXZ   1000fb20 f   ModifyHook.obj
 0001:0000ec60       ?InitHookClass@ModifyHook@@AAEXPAEHK0KK@Z 1000fc60 f   ModifyHook.obj
 0001:0000ee60       ??0_TAHPI@@QAE@H@Z         1000fe60 f   HPIfunc.obj
 0001:0000ef40       ??1_TAHPI@@QAE@XZ          1000ff40 f   HPIfunc.obj
 0001:0000ef90       ?TADontInit@@YGHPAUtagInlineX86StackBuffer@@@Z 1000ff90 f   HPIfunc.obj
 0001:0000efb0       ?fclose@_TAHPI@@QAEHPAU_OPENTAFILE@@@Z 1000ffb0 f   HPIfunc.obj
 0001:0000efd0       ?filelen@_TAHPI@@QAEIPAU_OPENTAFILE@@@Z 1000ffd0 f   HPIfunc.obj
 0001:0000f000       ?filelength@_TAHPI@@QAEIPAD@Z 10010000 f   HPIfunc.obj
 0001:0000f020       ?fopen@_TAHPI@@QAEPAU_OPENTAFILE@@PAD0@Z 10010020 f   HPIfunc.obj
 0001:0000f040       ?free_readfile@_TAHPI@@QAEXPAD@Z 10010040 f   HPIfunc.obj
 0001:0000f060       ?read@_TAHPI@@QAEHPAU_OPENTAFILE@@PAXH@Z 10010060 f   HPIfunc.obj
 0001:0000f080       ?readfile@_TAHPI@@QAEPADPADPAI@Z 10010080 f   HPIfunc.obj
 0001:0000f0a0       ??0IDDraw@@QAE@PAUIDirectDraw@@_N@Z 100100a0 f   iddraw.obj
 0001:0000f140       ??0IDirectDraw@@QAE@XZ     10010140 f i iddraw.obj
 0001:0000f160       ??0IUnknown@@QAE@XZ        10010160 f i iddraw.obj
 0001:0000f170       ?AddRef@IDDraw@@UAGKXZ     10010170 f   iddraw.obj
 0001:0000f1a0       ?Compact@IDDraw@@UAGJXZ    100101a0 f   iddraw.obj
 0001:0000f1d0       ?CreateClipper@IDDraw@@UAGJKPAPAUIDirectDrawClipper@@PAUIUnknown@@@Z 100101d0 f   iddraw.obj
 0001:0000f210       ?CreatePalette@IDDraw@@UAGJKPAUtagPALETTEENTRY@@PAPAUIDirectDrawPalette@@PAUIUnknown@@@Z 10010210 f   iddraw.obj
 0001:0000f250       ?CreateSurface@IDDraw@@UAGJPAU_DDSURFACEDESC@@PAPAUIDirectDrawSurface@@PAUIUnknown@@@Z 10010250 f   iddraw.obj
 0001:0000f310       ?DuplicateSurface@IDDraw@@UAGJPAUIDirectDrawSurface@@PAPAU2@@Z 10010310 f   iddraw.obj
 0001:0000f340       ?EnumDisplayModes@IDDraw@@UAGJKPAU_DDSURFACEDESC@@PAXP6GJ01@Z@Z 10010340 f   iddraw.obj
 0001:0000f380       ?EnumSurfaces@IDDraw@@UAGJKPAU_DDSURFACEDESC@@PAXP6GJPAUIDirectDrawSurface@@01@Z@Z 10010380 f   iddraw.obj
 0001:0000f3c0       ?FlipToGDISurface@IDDraw@@UAGJXZ 100103c0 f   iddraw.obj
 0001:0000f3f0       ?GetCaps@IDDraw@@UAGJPAU_DDCAPS_DX7@@0@Z 100103f0 f   iddraw.obj
 0001:0000f420       ?GetDisplayMode@IDDraw@@UAGJPAU_DDSURFACEDESC@@@Z 10010420 f   iddraw.obj
 0001:0000f450       ?GetFourCCCodes@IDDraw@@UAGJPAK0@Z 10010450 f   iddraw.obj
 0001:0000f480       ?GetGDISurface@IDDraw@@UAGJPAPAUIDirectDrawSurface@@@Z 10010480 f   iddraw.obj
 0001:0000f4b0       ?GetMonitorFrequency@IDDraw@@UAGJPAK@Z 100104b0 f   iddraw.obj
 0001:0000f4e0       ?GetScanLine@IDDraw@@UAGJPAK@Z 100104e0 f   iddraw.obj
 0001:0000f510       ?GetVerticalBlankStatus@IDDraw@@UAGJPAH@Z 10010510 f   iddraw.obj
 0001:0000f540       ?Initialize@IDDraw@@UAGJPAU_GUID@@@Z 10010540 f   iddraw.obj
 0001:0000f570       ?QueryInterface@IDDraw@@UAGJABU_GUID@@PAPAX@Z 10010570 f   iddraw.obj
 0001:0000f5a0       ?Release@IDDraw@@UAGKXZ    100105a0 f   iddraw.obj
 0001:0000f5f0       ?RestoreDisplayMode@IDDraw@@UAGJXZ 100105f0 f   iddraw.obj
 0001:0000f620       ?SetCooperativeLevel@IDDraw@@UAGJPAUHWND__@@K@Z 10010620 f   iddraw.obj
 0001:0000f680       ?SetDisplayMode@IDDraw@@UAGJKKK@Z 10010680 f   iddraw.obj
 0001:0000f6f0       ?WaitForVerticalBlank@IDDraw@@UAGJKPAX@Z 100106f0 f   iddraw.obj
 0001:0000f720       ?resume@IDDraw@@QAGXXZ     10010720 f   iddraw.obj
 0001:0000f750       ??0IDDrawSurface@@QAE@PAUIDirectDraw@@PAU_DDSURFACEDESC@@PAPAUIDirectDrawSurface@@PAUIUnknown@@PAJ_NHH@Z 10010750 f   iddrawsurface.obj
 0001:0000fcb0       ??0IDirectDrawSurface@@QAE@XZ 10010cb0 f i iddrawsurface.obj
 0001:0000fcd0       ??_GAlliesWhiteboard@@QAEPAXI@Z 10010cd0 f i iddrawsurface.obj
 0001:0000fd10       ??_GCChangeQueue@@QAEPAXI@Z 10010d10 f i iddrawsurface.obj
 0001:0000fd40       ??_GCDDDTA@@QAEPAXI@Z      10010d40 f i iddrawsurface.obj
 0001:0000fd70       ??_GCMapRect@@QAEPAXI@Z    10010d70 f i iddrawsurface.obj
 0001:0000fda0       ??_GCTAHook@@QAEPAXI@Z     10010da0 f i iddrawsurface.obj
 0001:0000fde0       ??_GCWarp@@QAEPAXI@Z       10010de0 f i iddrawsurface.obj
 0001:0000fe10       ?AddAttachedSurface@IDDrawSurface@@UAGJPAUIDirectDrawSurface@@@Z 10010e10 f   iddrawsurface.obj
 0001:0000fe40       ?AddOverlayDirtyRect@IDDrawSurface@@UAGJPAUtagRECT@@@Z 10010e40 f   iddrawsurface.obj
 0001:0000fe70       ?AddRef@IDDrawSurface@@UAGKXZ 10010e70 f   iddrawsurface.obj
 0001:0000fea0       ?Blt@IDDrawSurface@@UAGJPAUtagRECT@@PAUIDirectDrawSurface@@0KPAU_DDBLTFX@@@Z 10010ea0 f   iddrawsurface.obj
 0001:0000fef0       ?BltBatch@IDDrawSurface@@UAGJPAU_DDBLTBATCH@@KK@Z 10010ef0 f   iddrawsurface.obj
 0001:0000ff30       ?BltFast@IDDrawSurface@@UAGJKKPAUIDirectDrawSurface@@PAUtagRECT@@K@Z 10010f30 f   iddrawsurface.obj
 0001:0000ff70       ?CorrectName@IDDrawSurface@@QAEXPAD@Z 10010f70 f   iddrawsurface.obj
 0001:0000ffd0       ?CreateClipplist@IDDrawSurface@@QAEXXZ 10010fd0 f   iddrawsurface.obj
 0001:00010230       ?CreateDir@IDDrawSurface@@QAEXPAD@Z 10011230 f   iddrawsurface.obj
 0001:000102d0       ?CreateFileName@IDDrawSurface@@AAEXPADH@Z 100112d0 f   iddrawsurface.obj
 0001:00010520       ?DeInterlace@IDDrawSurface@@AAEXXZ 10011520 f   iddrawsurface.obj
 0001:000105e0       ?DeleteAttachedSurface@IDDrawSurface@@UAGJKPAUIDirectDrawSurface@@@Z 100115e0 f   iddrawsurface.obj
 0001:00010620       ?EnumAttachedSurfaces@IDDrawSurface@@UAGJPAXP6GJPAUIDirectDrawSurface@@PAU_DDSURFACEDESC@@0@Z@Z 10011620 f   iddrawsurface.obj
 0001:00010660       ?EnumOverlayZOrders@IDDrawSurface@@UAGJKPAXP6GJPAUIDirectDrawSurface@@PAU_DDSURFACEDESC@@0@Z@Z 10011660 f   iddrawsurface.obj
 0001:000106a0       ?Flip@IDDrawSurface@@UAGJPAUIDirectDrawSurface@@K@Z 100116a0 f   iddrawsurface.obj
 0001:000106e0       ?FrontSurface@IDDrawSurface@@QAEXPAUIDirectDrawSurface@@@Z 100116e0 f   iddrawsurface.obj
 0001:00010700       ?GetAttachedSurface@IDDrawSurface@@UAGJPAU_DDSCAPS@@PAPAUIDirectDrawSurface@@@Z 10011700 f   iddrawsurface.obj
 0001:00010760       ?GetBltStatus@IDDrawSurface@@UAGJK@Z 10011760 f   iddrawsurface.obj
 0001:00010790       ?GetCaps@IDDrawSurface@@UAGJPAU_DDSCAPS@@@Z 10011790 f   iddrawsurface.obj
 0001:000107c0       ?GetClipper@IDDrawSurface@@UAGJPAPAUIDirectDrawClipper@@@Z 100117c0 f   iddrawsurface.obj
 0001:000107f0       ?GetColorKey@IDDrawSurface@@UAGJKPAU_DDCOLORKEY@@@Z 100117f0 f   iddrawsurface.obj
 0001:00010830       ?GetDC@IDDrawSurface@@UAGJPAPAUHDC__@@@Z 10011830 f   iddrawsurface.obj
 0001:00010860       ?GetFlipStatus@IDDrawSurface@@UAGJK@Z 10011860 f   iddrawsurface.obj
 0001:00010890       ?GetOverlayPosition@IDDrawSurface@@UAGJPAJ0@Z 10011890 f   iddrawsurface.obj
 0001:000108d0       ?GetPalette@IDDrawSurface@@UAGJPAPAUIDirectDrawPalette@@@Z 100118d0 f   iddrawsurface.obj
 0001:00010900       ?GetPixelFormat@IDDrawSurface@@UAGJPAU_DDPIXELFORMAT@@@Z 10011900 f   iddrawsurface.obj
 0001:00010930       ?GetSurfaceDesc@IDDrawSurface@@UAGJPAU_DDSURFACEDESC@@@Z 10011930 f   iddrawsurface.obj
 0001:00010960       ?Initialize@IDDrawSurface@@UAGJPAUIDirectDraw@@PAU_DDSURFACEDESC@@@Z 10011960 f   iddrawsurface.obj
 0001:000109a0       ?IsLost@IDDrawSurface@@UAGJXZ 100119a0 f   iddrawsurface.obj
 0001:00010a00       ?Lock@IDDrawSurface@@UAGJPAUtagRECT@@PAU_DDSURFACEDESC@@KPAX@Z 10011a00 f   iddrawsurface.obj
 0001:00010b00       ?OutptInt@IDDrawSurface@@SGXH@Z 10011b00 f   iddrawsurface.obj
 0001:00010b30       ?OutptTxt@IDDrawSurface@@SGXPAD@Z 10011b30 f   iddrawsurface.obj
 0001:00010b40       ?QueryInterface@IDDrawSurface@@UAGJABU_GUID@@PAPAX@Z 10011b40 f   iddrawsurface.obj
 0001:00010b80       ?Release@IDDrawSurface@@UAGKXZ 10011b80 f   iddrawsurface.obj
 0001:00010de0       ?ReleaseDC@IDDrawSurface@@UAGJPAUHDC__@@@Z 10011de0 f   iddrawsurface.obj
 0001:00010e10       ?Restore@IDDrawSurface@@UAGJXZ 10011e10 f   iddrawsurface.obj
 0001:00010e70       ?ScreenShot@IDDrawSurface@@QAEXXZ 10011e70 f   iddrawsurface.obj
 0001:00011070       ?Set@IDDrawSurface@@QAEX_N@Z 10012070 f   iddrawsurface.obj
 0001:00011090       ?SetClipper@IDDrawSurface@@UAGJPAUIDirectDrawClipper@@@Z 10012090 f   iddrawsurface.obj
 0001:000110c0       ?SetColorKey@IDDrawSurface@@UAGJKPAU_DDCOLORKEY@@@Z 100120c0 f   iddrawsurface.obj
 0001:00011100       ?SetOverlayPosition@IDDrawSurface@@UAGJJJ@Z 10012100 f   iddrawsurface.obj
 0001:00011140       ?SetPalette@IDDrawSurface@@UAGJPAUIDirectDrawPalette@@@Z 10012140 f   iddrawsurface.obj
 0001:00011180       ?Unlock@IDDrawSurface@@UAGJPAX@Z 10012180 f   iddrawsurface.obj
 0001:000114b0       ?UpdateOverlay@IDDrawSurface@@UAGJPAUtagRECT@@PAUIDirectDrawSurface@@0KPAU_DDOVERLAYFX@@@Z 100124b0 f   iddrawsurface.obj
 0001:000114f0       ?UpdateOverlayDisplay@IDDrawSurface@@UAGJK@Z 100124f0 f   iddrawsurface.obj
 0001:00011520       ?UpdateOverlayZOrder@IDDrawSurface@@UAGJKPAUIDirectDrawSurface@@@Z 10012520 f   iddrawsurface.obj
 0001:00011550       ?WinProc@@YGJPAUHWND__@@IIJ@Z 10012550 f   iddrawsurface.obj
 0001:00011950       ?strstr@@YAPADQADQBD@Z     10012950 f i iddrawsurface.obj
 0001:000119b0       ??0TAGameAreaReDrawer@@QAE@XZ 100129b0 f   GameRedrawer.obj
 0001:000119e0       ??1TAGameAreaReDrawer@@QAE@XZ 100129e0 f   GameRedrawer.obj
 0001:00011a30       ?Cls@TAGameAreaReDrawer@@QAEXXZ 10012a30 f   GameRedrawer.obj
 0001:00011a90       ?Flip@TAGameAreaReDrawer@@QAEPAEXZ 10012a90 f   GameRedrawer.obj
 0001:00011ad0       ?GrayBlitOfBits@TAGameAreaReDrawer@@QAEHPAUtagRECT@@PAEPAUtagPOINT@@0H@Z 10012ad0 f   GameRedrawer.obj
 0001:00011df0       ?InitOwnSurface@TAGameAreaReDrawer@@QAEPAEPAUIDirectDraw@@H@Z 10012df0 f   GameRedrawer.obj
 0001:00011ef0       ?MixBitsInBlit@TAGameAreaReDrawer@@QAEHPAUtagRECT@@PAEPAUtagPOINT@@0@Z 10012ef0 f   GameRedrawer.obj
 0001:000121a0       ?MixDSufInBlit@TAGameAreaReDrawer@@QAEHPAEPAUtagRECT@@01@Z 100131a0 f   GameRedrawer.obj
 0001:00012230       ?ReleaseSurface@TAGameAreaReDrawer@@QAEXXZ 10013230 f   GameRedrawer.obj
 0001:00012280       ?TAWGameAreaRect@TAGameAreaReDrawer@@QAEQAUtagRECT@@PAU2@@Z 10013280 f   GameRedrawer.obj
 0001:000122f0       ?backSurface_p@TAGameAreaReDrawer@@QAEQAEXZ 100132f0 f   GameRedrawer.obj
 0001:00012310       ?frontSurface_p@TAGameAreaReDrawer@@QAEQAEXZ 10013310 f   GameRedrawer.obj
 0001:00012330       ??0MiniMapPicture@@QAE@HH@Z 10013330 f   MapParse.obj
 0001:00012380       ??0TNTtoMiniMap@@QAE@KK@Z  10013380 f   MapParse.obj
 0001:00012480       ??0TNTtoMiniMap@@QAE@XZ    10013480 f   MapParse.obj
 0001:00012580       ??1MiniMapPicture@@QAE@XZ  10013580 f   MapParse.obj
 0001:000125b0       ??1TNTtoMiniMap@@QAE@XZ    100135b0 f   MapParse.obj
 0001:00012650       ??_GMiniMapPicture@@QAEPAXI@Z 10013650 f i MapParse.obj
 0001:00012680       ?DrawMiniMap@MiniMapPicture@@QAEHPAEPAUtagRECT@@HH1@Z 10013680 f   MapParse.obj
 0001:00012a10       ?DrawMiniMap@TNTtoMiniMap@@QAEHPAEHH@Z 10013a10 f   MapParse.obj
 0001:00012a60       ?DrawRectMapToBuf@TNTtoMiniMap@@AAEPAEPAPAEPAUtagTNTHeaderStruct@@PAUtagRECT@@@Z 10013a60 f   MapParse.obj
 0001:00012ae0       ?MapFromTNTFileA@TNTtoMiniMap@@QAEXPAD@Z 10013ae0 f   MapParse.obj
 0001:00012bd0       ?MapFromTNTInMem@TNTtoMiniMap@@QAEXPAX@Z 10013bd0 f   MapParse.obj
 0001:00012c00       ?MapFromValidTNTHeader@TNTtoMiniMap@@QAEXPAUtagTNTHeaderStruct@@@Z 10013c00 f   MapParse.obj
 0001:00012c60       ?ParseMyTNTHeader@TNTtoMiniMap@@QAEPAUtagTNTHeaderStruct@@PAU2@@Z 10013c60 f   MapParse.obj
 0001:00012d00       ?PictureInfo@MiniMapPicture@@QAEPAEPAPAEPAUtagPOINT@@@Z 10013d00 f   MapParse.obj
 0001:00012d30       ?PictureInfo@TNTtoMiniMap@@QAEPAEPAPAEPAUtagPOINT@@@Z 10013d30 f   MapParse.obj
 0001:00012d50       ?StretchTAMapToMiniMap@MiniMapPicture@@QAEPAEPAEPAUtagRECT@@@Z 10013d50 f   MapParse.obj
 0001:00012f80       ?StretchTATNTDataToMiniMap@MiniMapPicture@@QAEPAEPAUtagTNTHeaderStruct@@@Z 10013f80 f   MapParse.obj
 0001:000133b0       ??0MenuResolution@@QAE@H@Z 100143b0 f   MenuResolution.obj
 0001:00013420       ??0MenuResolution@@QAE@HH@Z 10014420 f   MenuResolution.obj
 0001:000134b0       ??1MenuResolution@@QAE@XZ  100144b0 f   MenuResolution.obj
 0001:000134f0       ?InstallHook@MenuResolution@@AAEXXZ 100144f0 f   MenuResolution.obj
 0001:00013730       ?UninstallHook@MenuResolution@@AAEXXZ 10014730 f   MenuResolution.obj
 0001:00013890       ?sub_00491A75@@YGHPAUtagInlineX86StackBuffer@@@Z 10014890 f   MenuResolution.obj
 0001:00013950       ?sub_00491B01@@YGHPAUtagInlineX86StackBuffer@@@Z 10014950 f   MenuResolution.obj
 0001:00013a00       ?sub_0049E91C@@YGHPAUtagInlineX86StackBuffer@@@Z 10014a00 f   MenuResolution.obj
 0001:00013a70       ?sub_0049E93B@@YGHPAUtagInlineX86StackBuffer@@@Z 10014a70 f   MenuResolution.obj
 0001:00013af0       ??0ModifyWeaponPacket@@QAE@H@Z 10014af0 f   MultiGameWeaponID.obj
 0001:00013b30       ??0ModifyWeaponPacket@@QAE@XZ 10014b30 f   MultiGameWeaponID.obj
 0001:00013b60       ??1ModifyWeaponPacket@@QAE@XZ 10014b60 f   MultiGameWeaponID.obj
 0001:00013cf0       ??_GModifyHook@@QAEPAXI@Z  10014cf0 f i MultiGameWeaponID.obj
 0001:00013d20       ?EnsureDplayx@ModifyWeaponPacket@@AAEXH@Z 10014d20 f   MultiGameWeaponID.obj
 0001:00014340       ?FeaturePacket@ModifyWeaponPacket@@AAEXH@Z 10015340 f   MultiGameWeaponID.obj
 0001:000144f0       ?ModifyRoutine@ModifyWeaponPacket@@AAEXH@Z 100154f0 f   MultiGameWeaponID.obj
 0001:00014600       ??$?0$$V@?$_Compressed_pair@V?$allocator@UTAShareMemStruct@CDDDTA@@@std@@V?$_Deque_val@U?$_Deque_simple_types@UTAShareMemStruct@CDDDTA@@@std@@@2@$00@std@@QAE@U_Zero_then_variadic_args_t@1@@Z 10015600 f i dddta.obj
 0001:00014620       ??$?0UTAShareMemStruct@CDDDTA@@@?$allocator@PAUTAShareMemStruct@CDDDTA@@@std@@QAE@ABV?$allocator@UTAShareMemStruct@CDDDTA@@@1@@Z 10015620 f i dddta.obj
 0001:00014630       ??$?0UTAShareMemStruct@CDDDTA@@@?$allocator@U_Container_proxy@std@@@std@@QAE@ABV?$allocator@UTAShareMemStruct@CDDDTA@@@1@@Z 10015630 f i dddta.obj
 0001:00014640       ??$_Adl_verify_range@PAPAUTAShareMemStruct@CDDDTA@@PAPAU12@@std@@YGXABQAPAUTAShareMemStruct@CDDDTA@@0@Z 10015640 f i dddta.obj
 0001:00014650       ??$_Alloc_proxy@V?$allocator@U_Container_proxy@std@@@std@@@_Container_base12@std@@QAEX$$QAV?$allocator@U_Container_proxy@std@@@1@@Z 10015650 f i dddta.obj
 0001:000146a0       ??$_Construct_in_place@PAUTAShareMemStruct@CDDDTA@@AAPAU12@@std@@YGXAAPAUTAShareMemStruct@CDDDTA@@0@Z 100156a0 f i dddta.obj
 0001:000146e0       ??$_Construct_in_place@U_Container_proxy@std@@PAU_Container_base12@2@@std@@YGXAAU_Container_proxy@0@$$QAPAU_Container_base12@0@@Z 100156e0 f i dddta.obj
 0001:00014720       ??$_Copy_memmove@PAPAUTAShareMemStruct@CDDDTA@@PAPAU12@@std@@YGPAPAUTAShareMemStruct@CDDDTA@@PAPAU12@00@Z 10015720 f i dddta.obj
 0001:00014790       ??$_Deallocate_plain@V?$allocator@U_Container_proxy@std@@@std@@@std@@YGXAAV?$allocator@U_Container_proxy@std@@@0@QAU_Container_proxy@0@@Z 10015790 f i dddta.obj
 0001:000147d0       ??$_Delete_plain_internal@V?$allocator@U_Container_proxy@std@@@std@@@std@@YGXAAV?$allocator@U_Container_proxy@std@@@0@QAU_Container_proxy@0@@Z 100157d0 f i dddta.obj
 0001:000147f0       ??$_Destroy_in_place@PAUTAShareMemStruct@CDDDTA@@@std@@YGXAAPAUTAShareMemStruct@CDDDTA@@@Z 100157f0 f i dddta.obj
 0001:00014800       ??$_Destroy_range@PAPAUTAShareMemStruct@CDDDTA@@PAPAU12@@std@@YGXPAPAUTAShareMemStruct@CDDDTA@@QAPAU12@@Z 10015800 f i dddta.obj
 0001:00014810       ??$_Emplace_back@AAPAUTAShareMemStruct@CDDDTA@@@?$_Uninitialized_backout@PAPAUTAShareMemStruct@CDDDTA@@@std@@QAEXAAPAUTAShareMemStruct@CDDDTA@@@Z 10015810 f i dddta.obj
 0001:00014850       ??$_Get_size_of_n@$03@std@@YGII@Z 10015850 f i dddta.obj
 0001:00014880       ??$_Get_size_of_n@$07@std@@YGII@Z 10015880 f i dddta.obj
 0001:000148b0       ??$_Get_size_of_n@$0BE@@std@@YGII@Z 100158b0 f i dddta.obj
 0001:000148e0       ??$_Get_unwrapped@ABQAPAUTAShareMemStruct@CDDDTA@@@std@@YG?A_TABQAPAUTAShareMemStruct@CDDDTA@@@Z 100158e0 f i dddta.obj
 0001:000148f0       ??$_Get_unwrapped_n@AAPAPAUTAShareMemStruct@CDDDTA@@H@std@@YG?A_TAAPAPAUTAShareMemStruct@CDDDTA@@H@Z 100158f0 f i dddta.obj
 0001:00014900       ??$_Idl_distance@PAPAUTAShareMemStruct@CDDDTA@@PAPAU12@@std@@YG?A_PABQAPAUTAShareMemStruct@CDDDTA@@0@Z 10015900 f i dddta.obj
 0001:00014920       ??$_Seek_wrapped@PAPAUTAShareMemStruct@CDDDTA@@PAPAU12@@std@@YGXAAPAPAUTAShareMemStruct@CDDDTA@@$$QAPAPAU12@@Z 10015920 f i dddta.obj
 0001:00014940       ??$_To_address@PAPAUTAShareMemStruct@CDDDTA@@@std@@YG?A_PABQAPAUTAShareMemStruct@CDDDTA@@@Z 10015940 f i dddta.obj
 0001:00014950       ??$_Unfancy@UTAShareMemStruct@CDDDTA@@@std@@YGPAUTAShareMemStruct@CDDDTA@@PAU12@@Z 10015950 f i dddta.obj
 0001:00014960       ??$_Unfancy@U_Container_proxy@std@@@std@@YGPAU_Container_proxy@0@PAU10@@Z 10015960 f i dddta.obj
 0001:00014970       ??$_Uninitialized_copy_unchecked@PAPAUTAShareMemStruct@CDDDTA@@PAPAU12@@std@@YGPAPAUTAShareMemStruct@CDDDTA@@PAPAU12@QAPAU12@0@Z 10015970 f i dddta.obj
 0001:00014a00       ??$_Uninitialized_value_construct_n_unchecked1@PAPAUTAShareMemStruct@CDDDTA@@I@std@@YGPAPAUTAShareMemStruct@CDDDTA@@PAPAU12@I@Z 10015a00 f i dddta.obj
 0001:00014a20       ??$_Voidify_iter@PAPAUTAShareMemStruct@CDDDTA@@@std@@YGPAXPAPAUTAShareMemStruct@CDDDTA@@@Z 10015a20 f i dddta.obj
 0001:00014a30       ??$_Voidify_iter@PAUTAShareMemStruct@CDDDTA@@@std@@YGPAXPAUTAShareMemStruct@CDDDTA@@@Z 10015a30 f i dddta.obj
 0001:00014a40       ??$_Voidify_iter@PAU_Container_proxy@std@@@std@@YGPAXPAU_Container_proxy@0@@Z 10015a40 f i dddta.obj
 0001:00014a50       ??$_Zero_range@PAPAUTAShareMemStruct@CDDDTA@@@std@@YGPAPAUTAShareMemStruct@CDDDTA@@QAPAU12@0@Z 10015a50 f i dddta.obj
 0001:00014a90       ??$addressof@PAUTAShareMemStruct@CDDDTA@@@std@@YGPAPAUTAShareMemStruct@CDDDTA@@AAPAU12@@Z 10015a90 f i dddta.obj
 0001:00014aa0       ??$addressof@U_Container_proxy@std@@@std@@YGPAU_Container_proxy@0@AAU10@@Z 10015aa0 f i dddta.obj
 0001:00014ab0       ??$addressof@V?$_Deque_val@U?$_Deque_simple_types@UTAShareMemStruct@CDDDTA@@@std@@@std@@@std@@YGPAV?$_Deque_val@U?$_Deque_simple_types@UTAShareMemStruct@CDDDTA@@@std@@@0@AAV10@@Z 10015ab0 f i dddta.obj
 0001:00014ac0       ??$construct@UTAShareMemStruct@CDDDTA@@ABU12@@?$_Default_allocator_traits@V?$allocator@UTAShareMemStruct@CDDDTA@@@std@@@std@@SGXAAV?$allocator@UTAShareMemStruct@CDDDTA@@@1@QAUTAShareMemStruct@CDDDTA@@ABU34@@Z 10015ac0 f i dddta.obj
 0001:00014b10       ??$destroy@UTAShareMemStruct@CDDDTA@@@?$_Default_allocator_traits@V?$allocator@UTAShareMemStruct@CDDDTA@@@std@@@std@@SGXAAV?$allocator@UTAShareMemStruct@CDDDTA@@@1@QAUTAShareMemStruct@CDDDTA@@@Z 10015b10 f i dddta.obj
 0001:00014b20       ??$emplace_front@ABUTAShareMemStruct@CDDDTA@@@?$deque@UTAShareMemStruct@CDDDTA@@V?$allocator@UTAShareMemStruct@CDDDTA@@@std@@@std@@QAE?A_TABUTAShareMemStruct@CDDDTA@@@Z 10015b20 f i dddta.obj
 0001:00014c80       ??$exchange@PAU_Container_proxy@std@@$$T@std@@YGPAU_Container_proxy@0@AAPAU10@$$QA$$T@Z 10015c80 f i dddta.obj
 0001:00014ca0       ??$forward@AAPAUTAShareMemStruct@CDDDTA@@@std@@YGAAPAUTAShareMemStruct@CDDDTA@@AAPAU12@@Z 10015ca0 f i dddta.obj
 0001:00014cb0       ??$forward@ABUTAShareMemStruct@CDDDTA@@@std@@YGABUTAShareMemStruct@CDDDTA@@ABU12@@Z 10015cb0 f i dddta.obj
 0001:00014cc0       ??$forward@PAPAUTAShareMemStruct@CDDDTA@@@std@@YG$$QAPAPAUTAShareMemStruct@CDDDTA@@AAPAPAU12@@Z 10015cc0 f i dddta.obj
 0001:00014cd0       ??$forward@PAU_Container_base12@std@@@std@@YG$$QAPAU_Container_base12@0@AAPAU10@@Z 10015cd0 f i dddta.obj
 0001:00014ce0       ??$uninitialized_copy@PAPAUTAShareMemStruct@CDDDTA@@PAPAU12@@std@@YGPAPAUTAShareMemStruct@CDDDTA@@QAPAU12@0PAPAU12@@Z 10015ce0 f i dddta.obj
 0001:00014d50       ??0?$_Deque_unchecked_const_iterator@V?$_Deque_val@U?$_Deque_simple_types@UTAShareMemStruct@CDDDTA@@@std@@@std@@@std@@QAE@IPBU_Container_base12@1@@Z 10015d50 f i dddta.obj
 0001:00014d80       ??0?$_Deque_unchecked_iterator@V?$_Deque_val@U?$_Deque_simple_types@UTAShareMemStruct@CDDDTA@@@std@@@std@@@std@@QAE@IPBU_Container_base12@1@@Z 10015d80 f i dddta.obj
 0001:00014da0       ??0?$_Deque_val@U?$_Deque_simple_types@UTAShareMemStruct@CDDDTA@@@std@@@std@@QAE@XZ 10015da0 f i dddta.obj
 0001:00014de0       ??0?$_Uninitialized_backout@PAPAUTAShareMemStruct@CDDDTA@@@std@@QAE@PAPAUTAShareMemStruct@CDDDTA@@@Z 10015de0 f i dddta.obj
 0001:00014e10       ??0?$allocator@UTAShareMemStruct@CDDDTA@@@std@@QAE@XZ 10015e10 f i dddta.obj
 0001:00014e20       ??0?$deque@UTAShareMemStruct@CDDDTA@@V?$allocator@UTAShareMemStruct@CDDDTA@@@std@@@std@@QAE@XZ 10015e20 f i dddta.obj
 0001:00014e60       ??0CDDDTA@@QAE@XZ          10015e60 f   dddta.obj
 0001:00014f40       ??0_Container_base12@std@@QAE@XZ 10015f40 f i dddta.obj
 0001:00014f60       ??0_Container_proxy@std@@QAE@PAU_Container_base12@1@@Z 10015f60 f i dddta.obj
 0001:00014f90       ??1?$_Uninitialized_backout@PAPAUTAShareMemStruct@CDDDTA@@@std@@QAE@XZ 10015f90 f i dddta.obj
 0001:00014fb0       ??1?$deque@UTAShareMemStruct@CDDDTA@@V?$allocator@UTAShareMemStruct@CDDDTA@@@std@@@std@@QAE@XZ 10015fb0 f i dddta.obj
 0001:00015000       ??1CDDDTA@@QAE@XZ          10016000 f   dddta.obj
 0001:00015060       ??A?$deque@UTAShareMemStruct@CDDDTA@@V?$allocator@UTAShareMemStruct@CDDDTA@@@std@@@std@@QAEAAUTAShareMemStruct@CDDDTA@@I@Z 10016060 f i dddta.obj
 0001:000150a0       ??D?$_Deque_unchecked_const_iterator@V?$_Deque_val@U?$_Deque_simple_types@UTAShareMemStruct@CDDDTA@@@std@@@std@@@std@@QBEABUTAShareMemStruct@CDDDTA@@XZ 100160a0 f i dddta.obj
 0001:000150f0       ??D?$_Deque_unchecked_iterator@V?$_Deque_val@U?$_Deque_simple_types@UTAShareMemStruct@CDDDTA@@@std@@@std@@@std@@QBEAAUTAShareMemStruct@CDDDTA@@XZ 100160f0 f i dddta.obj
 0001:00015110       ??H?$_Deque_unchecked_iterator@V?$_Deque_val@U?$_Deque_simple_types@UTAShareMemStruct@CDDDTA@@@std@@@std@@@std@@QBE?AV01@H@Z 10016110 f i dddta.obj
 0001:00015150       ??Y?$_Deque_unchecked_const_iterator@V?$_Deque_val@U?$_Deque_simple_types@UTAShareMemStruct@CDDDTA@@@std@@@std@@@std@@QAEAAV01@H@Z 10016150 f i dddta.obj
 0001:00015170       ??Y?$_Deque_unchecked_iterator@V?$_Deque_val@U?$_Deque_simple_types@UTAShareMemStruct@CDDDTA@@@std@@@std@@@std@@QAEAAV01@H@Z 10016170 f i dddta.obj
 0001:00015190       ?Blit@CDDDTA@@QAEXPAUIDirectDrawSurface@@@Z 10016190 f   dddta.obj
 0001:000152e0       ?ChatStrnCpy@@YAPADPADPBDI@Z 100162e0 f   dddta.obj
 0001:00015320       ?CheckMessages@CDDDTA@@AAEXXZ 10016320 f   dddta.obj
 0001:00015470       ?CreateSharedTAMem@CDDDTA@@AAEXHHPAD@Z 10016470 f   dddta.obj
 0001:00015590       ?DeInitDDDTA@CDDDTA@@QAEXXZ 10016590 f   dddta.obj
 0001:00015630       ?DeleteMem@@YAXPAX@Z       10016630 f   dddta.obj
 0001:00015660       ?FrameUpdate@CDDDTA@@QAEXXZ 10016660 f   dddta.obj
 0001:000157b0       ?InitDDDTA@CDDDTA@@AAEXXZ  100167b0 f   dddta.obj
 0001:00015b50       ?Message@CDDDTA@@QAE_NPAUHWND__@@IIJ@Z 10016b50 f   dddta.obj
 0001:00015c20       ?Moo@CDDDTA@@QAEXXZ        10016c20 f   dddta.obj
 0001:00015cc0       ?Print@CDDDTA@@AAEXPAUHDC__@@PAUPrimitiveStruct@@@Z 10016cc0 f   dddta.obj
 0001:00015e20       ?RestoreAllSharedTAMem@CDDDTA@@AAEXXZ 10016e20 f   dddta.obj
 0001:00015ef0       ?SendTextToSpring@CDDDTA@@QAEXPBD@Z 10016ef0 f   dddta.obj
 0001:00015fa0       ?SetActiveUnit@CDDDTA@@AAEXPAUBeginUnitsArray_p@@PAUUnitStruct@@@Z 10016fa0 f i dddta.obj
 0001:000160a0       ?WriteExplosion@CDDDTA@@AAEXXZ 100170a0 f   dddta.obj
 0001:000163d0       ?WriteProjectiles@CDDDTA@@AAEXXZ 100173d0 f   dddta.obj
 0001:000165b0       ?WriteSmoke@CDDDTA@@AAEXXZ 100175b0 f   dddta.obj
 0001:00016840       ?WriteSubPart@CDDDTA@@AAEXPAUSubPart@@PAUPrimitiveStruct@@@Z 10017840 f   dddta.obj
 0001:00016930       ?WriteUnits@CDDDTA@@AAEXXZ 10017930 f   dddta.obj
 0001:00016a30       ?_Get_data@?$deque@UTAShareMemStruct@CDDDTA@@V?$allocator@UTAShareMemStruct@CDDDTA@@@std@@@std@@AAEAAV?$_Deque_val@U?$_Deque_simple_types@UTAShareMemStruct@CDDDTA@@@std@@@2@XZ 10017a30 f i dddta.obj
 0001:00016a40       ?_Get_data@?$deque@UTAShareMemStruct@CDDDTA@@V?$allocator@UTAShareMemStruct@CDDDTA@@@std@@@std@@ABEABV?$_Deque_val@U?$_Deque_simple_types@UTAShareMemStruct@CDDDTA@@@std@@@2@XZ 10017a40 f i dddta.obj
 0001:00016a50       ?_Get_first@?$_Compressed_pair@V?$allocator@UTAShareMemStruct@CDDDTA@@@std@@V?$_Deque_val@U?$_Deque_simple_types@UTAShareMemStruct@CDDDTA@@@std@@@2@$00@std@@QAEAAV?$allocator@UTAShareMemStruct@CDDDTA@@@2@XZ 10017a50 f i dddta.obj
 0001:00016a60       ?_Get_first@?$_Compressed_pair@V?$allocator@UTAShareMemStruct@CDDDTA@@@std@@V?$_Deque_val@U?$_Deque_simple_types@UTAShareMemStruct@CDDDTA@@@std@@@2@$00@std@@QBEABV?$allocator@UTAShareMemStruct@CDDDTA@@@2@XZ 10017a60 f i dddta.obj
 0001:00016a70       ?_Getal@?$deque@UTAShareMemStruct@CDDDTA@@V?$allocator@UTAShareMemStruct@CDDDTA@@@std@@@std@@AAEAAV?$allocator@UTAShareMemStruct@CDDDTA@@@2@XZ 10017a70 f i dddta.obj
 0001:00016a90       ?_Getal@?$deque@UTAShareMemStruct@CDDDTA@@V?$allocator@UTAShareMemStruct@CDDDTA@@@std@@@std@@ABEABV?$allocator@UTAShareMemStruct@CDDDTA@@@2@XZ 10017a90 f i dddta.obj
 0001:00016ab0       ?_Getblock@?$_Deque_val@U?$_Deque_simple_types@UTAShareMemStruct@CDDDTA@@@std@@@std@@QBEII@Z 10017ab0 f i dddta.obj
 0001:00016ad0       ?_Getblock@?$deque@UTAShareMemStruct@CDDDTA@@V?$allocator@UTAShareMemStruct@CDDDTA@@@std@@@std@@ABEII@Z 10017ad0 f i dddta.obj
 0001:00016af0       ?_Growmap@?$deque@UTAShareMemStruct@CDDDTA@@V?$allocator@UTAShareMemStruct@CDDDTA@@@std@@@std@@AAEXI@Z 10017af0 f i dddta.obj
 0001:00016d20       ?_Map@?$deque@UTAShareMemStruct@CDDDTA@@V?$allocator@UTAShareMemStruct@CDDDTA@@@std@@@std@@AAEAAPAPAUTAShareMemStruct@CDDDTA@@XZ 10017d20 f i dddta.obj
 0001:00016d40       ?_Mapsize@?$deque@UTAShareMemStruct@CDDDTA@@V?$allocator@UTAShareMemStruct@CDDDTA@@@std@@@std@@AAEAAIXZ 10017d40 f i dddta.obj
 0001:00016d60       ?_Myoff@?$deque@UTAShareMemStruct@CDDDTA@@V?$allocator@UTAShareMemStruct@CDDDTA@@@std@@@std@@AAEAAIXZ 10017d60 f i dddta.obj
 0001:00016d80       ?_Mysize@?$deque@UTAShareMemStruct@CDDDTA@@V?$allocator@UTAShareMemStruct@CDDDTA@@@std@@@std@@AAEAAIXZ 10017d80 f i dddta.obj
 0001:00016da0       ?_Mysize@?$deque@UTAShareMemStruct@CDDDTA@@V?$allocator@UTAShareMemStruct@CDDDTA@@@std@@@std@@ABEABIXZ 10017da0 f i dddta.obj
 0001:00016dc0       ?_Orphan_all@?$deque@UTAShareMemStruct@CDDDTA@@V?$allocator@UTAShareMemStruct@CDDDTA@@@std@@@std@@AAEXXZ 10017dc0 f i dddta.obj
 0001:00016de0       ?_Orphan_all@_Container_base12@std@@QAEXXZ 10017de0 f i dddta.obj
 0001:00016df0       ?_Release@?$_Uninitialized_backout@PAPAUTAShareMemStruct@CDDDTA@@@std@@QAEPAPAUTAShareMemStruct@CDDDTA@@XZ 10017df0 f i dddta.obj
 0001:00016e10       ?_Tidy@?$deque@UTAShareMemStruct@CDDDTA@@V?$allocator@UTAShareMemStruct@CDDDTA@@@std@@@std@@AAEXXZ 10017e10 f i dddta.obj
 0001:00016f30       ?_Unchecked_begin@?$deque@UTAShareMemStruct@CDDDTA@@V?$allocator@UTAShareMemStruct@CDDDTA@@@std@@@std@@QAE?AV?$_Deque_unchecked_iterator@V?$_Deque_val@U?$_Deque_simple_types@UTAShareMemStruct@CDDDTA@@@std@@@std@@@2@XZ 10017f30 f i dddta.obj
 0001:00016f70       ?_Xlen@?$deque@UTAShareMemStruct@CDDDTA@@V?$allocator@UTAShareMemStruct@CDDDTA@@@std@@@std@@ABEXXZ 10017f70 f i dddta.obj
 0001:00016f90       ?allocate@?$allocator@PAUTAShareMemStruct@CDDDTA@@@std@@QAEPAPAUTAShareMemStruct@CDDDTA@@I@Z 10017f90 f i dddta.obj
 0001:00016fb0       ?allocate@?$allocator@UTAShareMemStruct@CDDDTA@@@std@@QAEPAUTAShareMemStruct@CDDDTA@@I@Z 10017fb0 f i dddta.obj
 0001:00016fd0       ?allocate@?$allocator@U_Container_proxy@std@@@std@@QAEPAU_Container_proxy@2@I@Z 10017fd0 f i dddta.obj
 0001:00016ff0       ?clear@?$deque@UTAShareMemStruct@CDDDTA@@V?$allocator@UTAShareMemStruct@CDDDTA@@@std@@@std@@QAEXXZ 10017ff0 f i dddta.obj
 0001:00017010       ?deallocate@?$_Default_allocator_traits@V?$allocator@U_Container_proxy@std@@@std@@@std@@SGXAAV?$allocator@U_Container_proxy@std@@@2@QAU_Container_proxy@2@I@Z 10018010 f i dddta.obj
 0001:00017030       ?deallocate@?$allocator@PAUTAShareMemStruct@CDDDTA@@@std@@QAEXQAPAUTAShareMemStruct@CDDDTA@@I@Z 10018030 f i dddta.obj
 0001:00017050       ?deallocate@?$allocator@UTAShareMemStruct@CDDDTA@@@std@@QAEXQAUTAShareMemStruct@CDDDTA@@I@Z 10018050 f i dddta.obj
 0001:00017070       ?empty@?$deque@UTAShareMemStruct@CDDDTA@@V?$allocator@UTAShareMemStruct@CDDDTA@@@std@@@std@@QBE_NXZ 10018070 f i dddta.obj
 0001:000170a0       ?max_size@?$_Default_allocator_traits@V?$allocator@UTAShareMemStruct@CDDDTA@@@std@@@std@@SGIABV?$allocator@UTAShareMemStruct@CDDDTA@@@2@@Z 100180a0 f i dddta.obj
 0001:000170b0       ?max_size@?$deque@UTAShareMemStruct@CDDDTA@@V?$allocator@UTAShareMemStruct@CDDDTA@@@std@@@std@@QBEIXZ 100180b0 f i dddta.obj
 0001:000170f0       ?pop_back@?$deque@UTAShareMemStruct@CDDDTA@@V?$allocator@UTAShareMemStruct@CDDDTA@@@std@@@std@@QAEXXZ 100180f0 f i dddta.obj
 0001:000171c0       ?push_front@?$deque@UTAShareMemStruct@CDDDTA@@V?$allocator@UTAShareMemStruct@CDDDTA@@@std@@@std@@QAEXABUTAShareMemStruct@CDDDTA@@@Z 100181c0 f i dddta.obj
 0001:000171e0       ?size@?$deque@UTAShareMemStruct@CDDDTA@@V?$allocator@UTAShareMemStruct@CDDDTA@@@std@@@std@@QBEIXZ 100181e0 f i dddta.obj
 0001:00017200       ??0CBookmarks@@QAE@XZ      10018200 f   bookmarks.obj
 0001:00017210       ??1CBookmarks@@QAE@XZ      10018210 f   bookmarks.obj
 0001:00017220       ?Blit@CBookmarks@@QAEXPAUIDirectDrawSurface@@@Z 10018220 f   bookmarks.obj
 0001:00017230       ?Message@CBookmarks@@QAE_NPAUHWND__@@IIJ@Z 10018230 f   bookmarks.obj
 0001:00017240       ??0CChangeQueue@@QAE@XZ    10018240 f   changequeue.obj
 0001:00017270       ??1CChangeQueue@@QAE@XZ    10018270 f   changequeue.obj
 0001:00017280       ?Blit@CChangeQueue@@QAEXPAUIDirectDrawSurface@@@Z 10018280 f   changequeue.obj
 0001:00017290       ?Message@CChangeQueue@@QAE_NPAUHWND__@@IIJ@Z 10018290 f   changequeue.obj
 0001:00017350       ?Write@@YGXPAUHWND__@@@Z   10018350 f   changequeue.obj
 0001:000173e0       ??$sprintf_s@$0GE@@@YAHAAY0GE@DPBDZZ 100183e0 f i cinomce.obj
 0001:00017410       ??0CIncome@@QAE@H@Z        10018410 f   cinomce.obj
 0001:00017600       ??1CIncome@@QAE@XZ         10018600 f   cinomce.obj
 0001:00017610       ?BlitIncome@CIncome@@QAEXPAE@Z 10018610 f   cinomce.obj
 0001:00017770       ?CorrectPos@CIncome@@AAEXXZ 10018770 f   cinomce.obj
 0001:00017860       ?DrawPlayerRect@CIncome@@AAEXHHD@Z 10018860 f   cinomce.obj
 0001:000178c0       ?DrawStorageText@CIncome@@AAEHMHH@Z 100188c0 f   cinomce.obj
 0001:000179d0       ?DrawTextA@CIncome@@AAEXPADHHD@Z 100189d0 f   cinomce.obj
 0001:00017b30       ?FillRect@CIncome@@AAEXD@Z 10018b30 f   cinomce.obj
 0001:00017bb0       ?GetPlayerColor@CIncome@@AAEEH@Z 10018bb0 f   cinomce.obj
 0001:00017be0       ?IsShow@CIncome@@QAE_NPAUtagRECT@@@Z 10018be0 f   cinomce.obj
 0001:00017c30       ?Message@CIncome@@QAE_NPAUHWND__@@IIJ@Z 10018c30 f   cinomce.obj
 0001:00018170       ?PaintStoragebar@CIncome@@AAEXHHHH@Z 10019170 f   cinomce.obj
 0001:00018350       ?ReadPos@CIncome@@AAEXXZ   10019350 f   cinomce.obj
 0001:00018400       ?Set@CIncome@@QAEXH@Z      10019400 f   cinomce.obj
 0001:00018420       ?ShowAllIncome@CIncome@@AAEHXZ 10019420 f   cinomce.obj
 0001:000184f0       ?ShowAllyIncome@CIncome@@AAEHXZ 100194f0 f   cinomce.obj
 0001:000185e0       ?ShowMyViewIncome@CIncome@@AAEXHH@Z 100195e0 f   cinomce.obj
 0001:000186b0       ?ShowPlayerIncome@CIncome@@AAEXHHH@Z 100196b0 f   cinomce.obj
 0001:00018970       ?WritePos@CIncome@@AAEXXZ  10019970 f   cinomce.obj
 0001:00018a20       ?inRect@CIncome@@AAE_NHH@Z 10019a20 f   cinomce.obj
 0001:00018b40       ??0CWarp@@QAE@H@Z          10019b40 f   commanderwarp.obj
 0001:00018bc0       ??1CWarp@@QAE@XZ           10019bc0 f   commanderwarp.obj
 0001:00018c20       ?Blit@CWarp@@QAEXPAUIDirectDrawSurface@@@Z 10019c20 f   commanderwarp.obj
 0001:00018c90       ?BlitBtn@CWarp@@AAEXPAE@Z  10019c90 f   commanderwarp.obj
 0001:00018dd0       ?Message@CWarp@@QAE_NPAUHWND__@@IIJ@Z 10019dd0 f   commanderwarp.obj
 0001:00018f90       ?SetPos@CWarp@@AAEXHH@Z    10019f90 f   commanderwarp.obj
 0001:00018fe0       ?WithinButton@CWarp@@AAE_NHH@Z 10019fe0 f   commanderwarp.obj
 0001:00019030       ??$?0$$V@?$_Compressed_pair@V?$allocator@D@std@@V?$_String_val@U?$_Simple_types@D@std@@@2@$00@std@@QAE@U_Zero_then_variadic_args_t@1@@Z 1001a030 f i dialog.obj
 0001:00019050       ??$_Construct_in_place@PADABQAD@std@@YGXAAPADABQAD@Z 1001a050 f i dialog.obj
 0001:00019090       ??$_Convert_size@I@std@@YGII@Z 1001a090 f i dialog.obj
 0001:000190a0       ??$_Destroy_in_place@PAD@std@@YGXAAPAD@Z 1001a0a0 f i dialog.obj
 0001:000190b0       ??$_Get_size_of_n@$00@std@@YGII@Z 1001a0b0 f i dialog.obj
 0001:000190d0       ??$_Reallocate_for@V<lambda_9366063389c5f42a00a5088cf24e69de>@@PBD@?$basic_string@DU?$char_traits@D@std@@V?$allocator@D@2@@std@@AAEAAV01@IV<lambda_9366063389c5f42a00a5088cf24e69de>@@PBD@Z 1001a0d0 f i dialog.obj
 0001:00019190       ??$_Unfancy@D@std@@YGPADPAD@Z 1001a190 f i dialog.obj
 0001:000191a0       ??$_Voidify_iter@PAPAD@std@@YGPAXPAPAD@Z 1001a1a0 f i dialog.obj
 0001:000191b0       ??$addressof@PAD@std@@YGPAPADAAPAD@Z 1001a1b0 f i dialog.obj
 0001:000191c0       ??$forward@ABQAD@std@@YGABQADABQAD@Z 1001a1c0 f i dialog.obj
 0001:000191d0       ??$max@I@std@@YGABIABI0@Z  1001a1d0 f i dialog.obj
 0001:00019200       ??0?$_String_val@U?$_Simple_types@D@std@@@std@@QAE@XZ 1001a200 f i dialog.obj
 0001:00019230       ??0?$allocator@D@std@@QAE@XZ 1001a230 f i dialog.obj
 0001:00019240       ??0?$basic_string@DU?$char_traits@D@std@@V?$allocator@D@2@@std@@QAE@QBD@Z 1001a240 f i dialog.obj
 0001:000192c0       ??0Dialog@@QAE@H@Z         1001a2c0 f   dialog.obj
 0001:00019540       ??0_Bxty@?$_String_val@U?$_Simple_types@D@std@@@std@@QAE@XZ 1001a540 f i dialog.obj
 0001:00019560       ??0_Fake_proxy_ptr_impl@std@@QAE@ABU_Fake_allocator@1@ABU_Container_base0@1@@Z 1001a560 f i dialog.obj
 0001:00019570       ??1?$_Compressed_pair@V?$allocator@D@std@@V?$_String_val@U?$_Simple_types@D@std@@@2@$00@std@@QAE@XZ 1001a570 f i dialog.obj
 0001:00019590       ??1?$_String_val@U?$_Simple_types@D@std@@@std@@QAE@XZ 1001a590 f i dialog.obj
 0001:000195b0       ??1?$basic_string@DU?$char_traits@D@std@@V?$allocator@D@2@@std@@QAE@XZ 1001a5b0 f i dialog.obj
 0001:000195d0       ??1Dialog@@QAE@XZ          1001a5d0 f   dialog.obj
 0001:000195e0       ??1_Bxty@?$_String_val@U?$_Simple_types@D@std@@@std@@QAE@XZ 1001a5e0 f i dialog.obj
 0001:000195f0       ??A?$basic_string@DU?$char_traits@D@std@@V?$allocator@D@2@@std@@QAEAADI@Z 1001a5f0 f i dialog.obj
 0001:00019610       ??R<lambda_9366063389c5f42a00a5088cf24e69de>@@QBE@QADIQBD@Z 1001a610 f i dialog.obj
 0001:00019650       ?BlitCursor@Dialog@@QAEXPAEHH@Z 1001a650 f   dialog.obj
 0001:000197e0       ?BlitDialog@Dialog@@QAEXPAE@Z 1001a7e0 f   dialog.obj
 0001:00019a20       ?CorrectPos@Dialog@@AAEXXZ 1001aa20 f   dialog.obj
 0001:00019ab0       ?DrawBackgroundButton@Dialog@@AAEXXZ 1001aab0 f   dialog.obj
 0001:00019da0       ?DrawDelay@Dialog@@AAEXXZ  1001ada0 f   dialog.obj
 0001:00019e80       ?DrawFullRings@Dialog@@AAEXXZ 1001ae80 f   dialog.obj
 0001:0001a0b0       ?DrawKeyCode@Dialog@@AAEXXZ 1001b0b0 f   dialog.obj
 0001:0001a1b0       ?DrawMegaMapKey@Dialog@@AAEXXZ 1001b1b0 f   dialog.obj
 0001:0001a270       ?DrawOptimizeDT@Dialog@@AAEXXZ 1001b270 f   dialog.obj
 0001:0001a4a0       ?DrawShareBox@Dialog@@AAEXXZ 1001b4a0 f   dialog.obj
 0001:0001a760       ?DrawSmallText@Dialog@@QAEXPAEHHPAD@Z 1001b760 f   dialog.obj
 0001:0001acf0       ?DrawTextA@Dialog@@QAEXPAEHHPAD@Z 1001bcf0 f   dialog.obj
 0001:0001b280       ?DrawTinyText@Dialog@@AAEXPADHHD@Z 1001c280 f   dialog.obj
 0001:0001b3e0       ?DrawVSync@Dialog@@AAEXXZ  1001c3e0 f   dialog.obj
 0001:0001b6c0       ?DrawVisibleButton@Dialog@@AAEXXZ 1001c6c0 f   dialog.obj
 0001:0001b770       ?DrawWhiteboardKey@Dialog@@AAEXXZ 1001c770 f   dialog.obj
 0001:0001b830       ?EnterOption@@YGHPAUtagInlineX86StackBuffer@@@Z 1001c830 f   dialog.obj
 0001:0001b850       ?FillRect@Dialog@@AAEXHHHHD@Z 1001c850 f   dialog.obj
 0001:0001b910       ?HideDialog@Dialog@@QAEXXZ 1001c910 f   dialog.obj
 0001:0001b950       ?Inside@Dialog@@AAE_NHHH@Z 1001c950 f   dialog.obj
 0001:0001bbc0       ?IsShow@Dialog@@QAE_NPAUtagRECT@@@Z 1001cbc0 f   dialog.obj
 0001:0001bc20       ?Message@Dialog@@QAE_NPAUHWND__@@IIJ@Z 1001cc20 f   dialog.obj
 0001:0001c970       ?PressInOption@@YGHPAUtagInlineX86StackBuffer@@@Z 1001d970 f   dialog.obj
 0001:0001c9a0       ?ReadPos@Dialog@@AAEXXZ    1001d9a0 f   dialog.obj
 0001:0001ca30       ?ReadSettings@Dialog@@QAEXXZ 1001da30 f   dialog.obj
 0001:0001cc80       ?RenderDialog@Dialog@@QAEXPAE@Z 1001dc80 f   dialog.obj
 0001:0001cef0       ?RestoreAll@Dialog@@QAEXXZ 1001def0 f   dialog.obj
 0001:0001d070       ?RestoreCursor@Dialog@@AAEXXZ 1001e070 f   dialog.obj
 0001:0001d210       ?SetAll@Dialog@@QAEXXZ     1001e210 f   dialog.obj
 0001:0001d320       ?SetVisibleList@Dialog@@AAEXXZ 1001e320 f   dialog.obj
 0001:0001d330       ?ShowDialog@Dialog@@QAEXXZ 1001e330 f   dialog.obj
 0001:0001d3a0       ?WritePos@Dialog@@AAEXXZ   1001e3a0 f   dialog.obj
 0001:0001d450       ?WriteSettings@Dialog@@AAEXXZ 1001e450 f   dialog.obj
 0001:0001d5b0       ?_Calculate_growth@?$basic_string@DU?$char_traits@D@std@@V?$allocator@D@2@@std@@ABEII@Z 1001e5b0 f i dialog.obj
 0001:0001d5e0       ?_Calculate_growth@?$basic_string@DU?$char_traits@D@std@@V?$allocator@D@2@@std@@CGIIII@Z 1001e5e0 f i dialog.obj
 0001:0001d630       ?_Get_first@?$_Compressed_pair@V?$allocator@D@std@@V?$_String_val@U?$_Simple_types@D@std@@@2@$00@std@@QAEAAV?$allocator@D@2@XZ 1001e630 f i dialog.obj
 0001:0001d640       ?_Get_first@?$_Compressed_pair@V?$allocator@D@std@@V?$_String_val@U?$_Simple_types@D@std@@@2@$00@std@@QBEABV?$allocator@D@2@XZ 1001e640 f i dialog.obj
 0001:0001d650       ?_Getal@?$basic_string@DU?$char_traits@D@std@@V?$allocator@D@2@@std@@AAEAAV?$allocator@D@2@XZ 1001e650 f i dialog.obj
 0001:0001d670       ?_Getal@?$basic_string@DU?$char_traits@D@std@@V?$allocator@D@2@@std@@ABEABV?$allocator@D@2@XZ 1001e670 f i dialog.obj
 0001:0001d690       ?_Large_string_engaged@?$_String_val@U?$_Simple_types@D@std@@@std@@QBE_NXZ 1001e690 f i dialog.obj
 0001:0001d6c0       ?_Myptr@?$_String_val@U?$_Simple_types@D@std@@@std@@QAEPADXZ 1001e6c0 f i dialog.obj
 0001:0001d700       ?_Release@_Fake_proxy_ptr_impl@std@@QAEXXZ 1001e700 f i dialog.obj
 0001:0001d710       ?_Tidy_deallocate@?$basic_string@DU?$char_traits@D@std@@V?$allocator@D@2@@std@@AAEXXZ 1001e710 f i dialog.obj
 0001:0001d7c0       ?_Tidy_init@?$basic_string@DU?$char_traits@D@std@@V?$allocator@D@2@@std@@AAEXXZ 1001e7c0 f i dialog.obj
 0001:0001d800       ?_Xlen_string@std@@YGXXZ   1001e800 f i dialog.obj
 0001:0001d810       ?allocate@?$allocator@D@std@@QAEPADI@Z 1001e810 f i dialog.obj
 0001:0001d830       ?assign@?$_Narrow_char_traits@DH@std@@SGXAADABD@Z 1001e830 f i dialog.obj
 0001:0001d850       ?assign@?$basic_string@DU?$char_traits@D@std@@V?$allocator@D@2@@std@@QAEAAV12@QBD@Z 1001e850 f i dialog.obj
 0001:0001d880       ?assign@?$basic_string@DU?$char_traits@D@std@@V?$allocator@D@2@@std@@QAEAAV12@QBDI@Z 1001e880 f i dialog.obj
 0001:0001d900       ?copy@?$_Char_traits@DH@std@@SGPADQADQBDI@Z 1001e900 f i dialog.obj
 0001:0001d920       ?deallocate@?$allocator@D@std@@QAEXQADI@Z 1001e920 f i dialog.obj
 0001:0001d940       ?length@?$_Narrow_char_traits@DH@std@@SGIQBD@Z 1001e940 f i dialog.obj
 0001:0001d960       ?max_size@?$_Default_allocator_traits@V?$allocator@D@std@@@std@@SGIABV?$allocator@D@2@@Z 1001e960 f i dialog.obj
 0001:0001d970       ?max_size@?$basic_string@DU?$char_traits@D@std@@V?$allocator@D@2@@std@@QBEIXZ 1001e970 f i dialog.obj
 0001:0001d9d0       ?move@?$_Char_traits@DH@std@@SGPADQADQBDI@Z 1001e9d0 f i dialog.obj
 0001:0001d9f0       ?size@?$basic_string@DU?$char_traits@D@std@@V?$allocator@D@2@@std@@QBEIXZ 1001e9f0 f i dialog.obj
 0001:0001da10       ??0CMapRect@@QAE@H@Z       1001ea10 f   maprect.obj
 0001:0001deb0       ??1CMapRect@@QAE@XZ        1001eeb0 f   maprect.obj
 0001:0001df10       ?Blit@CMapRect@@QAEXPAUIDirectDrawSurface@@@Z 1001ef10 f   maprect.obj
 0001:0001e120       ?GetMapMaxX@CMapRect@@AAEHXZ 1001f120 f   maprect.obj
 0001:0001e140       ?GetMapMaxY@CMapRect@@AAEHXZ 1001f140 f   maprect.obj
 0001:0001e160       ?LockBlit@CMapRect@@QAEXPADH@Z 1001f160 f   maprect.obj
 0001:0001e480       ?PaintRect@CMapRect@@AAEXXZ 1001f480 f   maprect.obj
 0001:0001e600       ?WorldToMiniX@CMapRect@@QAEHH@Z 1001f600 f   maprect.obj
 0001:0001e640       ?WorldToMiniY@CMapRect@@QAEHH@Z 1001f640 f   maprect.obj
 0001:0001e680       ??0CMinimapHandler@@QAE@XZ 1001f680 f   MinimapHandler.obj
 0001:0001e6b0       ??1CMinimapHandler@@UAE@XZ 1001f6b0 f   MinimapHandler.obj
 0001:0001e6d0       ??_ECMinimapHandler@@UAEPAXI@Z 1001f6d0 f i MinimapHandler.obj
 0001:0001e6d0       ??_GCMinimapHandler@@UAEPAXI@Z 1001f6d0 f i MinimapHandler.obj
 0001:0001e700       ?DeinitMinimap@CMinimapHandler@@QAEXXZ 1001f700 f   MinimapHandler.obj
 0001:0001e750       ?FrameUpdate@CMinimapHandler@@QAEXXZ 1001f750 f   MinimapHandler.obj
 0001:0001e7d0       ?InitMinimap@CMinimapHandler@@QAEXPAUSharedMem@@@Z 1001f7d0 f   MinimapHandler.obj
 0001:0001e8b0       ??0ShareDialogExpand@@QAE@H@Z 1001f8b0 f   sharedialog.obj
 0001:0001e9b0       ??1ShareDialogExpand@@QAE@XZ 1001f9b0 f   sharedialog.obj
 0001:0001ea20       ?EnergyPosProc@@YGXPAU_GUIInfo@@H@Z 1001fa20 f   sharedialog.obj
 0001:0001eb30       ?GameSpeedPosProc@@YGXPAU_GUIInfo@@H@Z 1001fb30 f   sharedialog.obj
 0001:0001eb90       ?MetalPosProc@@YGXPAU_GUIInfo@@H@Z 1001fb90 f   sharedialog.obj
 0001:0001ecb0       ?ShareDialogInit@@YGHPAUtagInlineX86StackBuffer@@@Z 1001fcb0 f   sharedialog.obj
 0001:0001f180       ?ShareDialogProc@@YGHPAUtagInlineX86StackBuffer@@@Z 10020180 f   sharedialog.obj
 0001:0001f430       ??0TABugFixing@@QAE@XZ     10020430 f   TABugFix.obj
 0001:0001f970       ??1TABugFixing@@QAE@XZ     10020970 f   TABugFix.obj
 0001:0001fc00       ?AntiCheat@TABugFixing@@QAEHXZ 10020c00 f   TABugFix.obj
 0001:0001fc60       ?BadModelHunter@@YGHPAUtagInlineX86StackBuffer@@@Z 10020c60 f   TABugFix.obj
 0001:0001fdb0       ?CDMusic_MenuProc@@YGHPAUtagInlineX86StackBuffer@@@Z 10020db0 f   TABugFix.obj
 0001:0001fdd0       ?CDMusic_VictoryProc@@YGHPAUtagInlineX86StackBuffer@@@Z 10020dd0 f   TABugFix.obj
 0001:0001fde0       ?EnterProc@@YGHPAUtagInlineX86StackBuffer@@@Z 10020de0 f   TABugFix.obj
 0001:0001fe00       ?LeaveProc@@YGHPAUtagInlineX86StackBuffer@@@Z 10020e00 f   TABugFix.obj
 0001:0001fe20       ?LogToErrorlog@@YGXPAD@Z   10020e20 f   TABugFix.obj
 0001:0001fea0       ?Message@TABugFixing@@QAE_NPAUHWND__@@IIJ@Z 10020ea0 f   TABugFix.obj
 0001:0001feb0       ?UnitDeath_BeforeUpdateUI_Proc@@YGHPAUtagInlineX86StackBuffer@@@Z 10020eb0 f   TABugFix.obj
 0001:0001fee0       ?UnitIDOutRange_Proc@@YGHPAUtagInlineX86StackBuffer@@@Z 10020ee0 f   TABugFix.obj
 0001:0001ff20       ?UnitVolumeYequZero_Proc@@YGHPAUtagInlineX86StackBuffer@@@Z 10020f20 f   TABugFix.obj
 0001:0001ff50       ?VectoredHandler@@YGJPAU_EXCEPTION_POINTERS@@@Z 10020f50 f   TABugFix.obj
 0001:0001ff60       ?resume_EHA@@YGKPAX@Z      10020f60 f   TABugFix.obj
 0001:0001ff90       ??$?0$$V@?$_Compressed_pair@V?$allocator@PAVRegDword@@@std@@V?$_Vector_val@U?$_Simple_types@PAVRegDword@@@std@@@2@$00@std@@QAE@U_Zero_then_variadic_args_t@1@@Z 10020f90 f i TAConfig.obj
 0001:0001ffb0       ??$?0$$V@?$_Compressed_pair@V?$allocator@PAVRegString@@@std@@V?$_Vector_val@U?$_Simple_types@PAVRegString@@@std@@@2@$00@std@@QAE@U_Zero_then_variadic_args_t@1@@Z 10020fb0 f i TAConfig.obj
 0001:0001ffd0       ??$_Construct_in_place@PAVRegDword@@ABQAV1@@std@@YGXAAPAVRegDword@@ABQAV1@@Z 10020fd0 f i TAConfig.obj
 0001:00020010       ??$_Construct_in_place@PAVRegString@@ABQAV1@@std@@YGXAAPAVRegString@@ABQAV1@@Z 10021010 f i TAConfig.obj
 0001:00020050       ??$_Copy_memmove@PAPAVRegDword@@PAPAV1@@std@@YGPAPAVRegDword@@PAPAV1@00@Z 10021050 f i TAConfig.obj
 0001:000200c0       ??$_Copy_memmove@PAPAVRegString@@PAPAV1@@std@@YGPAPAVRegString@@PAPAV1@00@Z 100210c0 f i TAConfig.obj
 0001:00020130       ??$_Destroy_range@V?$allocator@PAVRegDword@@@std@@@std@@YGXPAPAVRegDword@@QAPAV1@AAV?$allocator@PAVRegDword@@@0@@Z 10021130 f i TAConfig.obj
 0001:00020140       ??$_Destroy_range@V?$allocator@PAVRegString@@@std@@@std@@YGXPAPAVRegString@@QAPAV1@AAV?$allocator@PAVRegString@@@0@@Z 10021140 f i TAConfig.obj
 0001:00020150       ??$_Emplace_back@PAVRegDword@@@?$_Uninitialized_backout_al@V?$allocator@PAVRegDword@@@std@@@std@@QAEX$$QAPAVRegDword@@@Z 10021150 f i TAConfig.obj
 0001:00020190       ??$_Emplace_back@PAVRegString@@@?$_Uninitialized_backout_al@V?$allocator@PAVRegString@@@std@@@std@@QAEX$$QAPAVRegString@@@Z 10021190 f i TAConfig.obj
 0001:000201d0       ??$_Emplace_back_with_unused_capacity@ABQAVRegDword@@@?$vector@PAVRegDword@@V?$allocator@PAVRegDword@@@std@@@std@@AAEAAPAVRegDword@@ABQAV2@@Z 100211d0 f i TAConfig.obj
 0001:00020230       ??$_Emplace_back_with_unused_capacity@ABQAVRegString@@@?$vector@PAVRegString@@V?$allocator@PAVRegString@@@std@@@std@@AAEAAPAVRegString@@ABQAV2@@Z 10021230 f i TAConfig.obj
 0001:00020290       ??$_Emplace_one_at_back@ABQAVRegDword@@@?$vector@PAVRegDword@@V?$allocator@PAVRegDword@@@std@@@std@@AAEAAPAVRegDword@@ABQAV2@@Z 10021290 f i TAConfig.obj
 0001:000202f0       ??$_Emplace_one_at_back@ABQAVRegString@@@?$vector@PAVRegString@@V?$allocator@PAVRegString@@@std@@@std@@AAEAAPAVRegString@@ABQAV2@@Z 100212f0 f i TAConfig.obj
 0001:00020350       ??$_Emplace_reallocate@ABQAVRegDword@@@?$vector@PAVRegDword@@V?$allocator@PAVRegDword@@@std@@@std@@AAEPAPAVRegDword@@QAPAV2@ABQAV2@@Z 10021350 f i TAConfig.obj
 0001:00020510       ??$_Emplace_reallocate@ABQAVRegString@@@?$vector@PAVRegString@@V?$allocator@PAVRegString@@@std@@@std@@AAEPAPAVRegString@@QAPAV2@ABQAV2@@Z 10021510 f i TAConfig.obj
 0001:000206d0       ??$_Get_unwrapped@ABQAPAVRegDword@@@std@@YG?A_TABQAPAVRegDword@@@Z 100216d0 f i TAConfig.obj
 0001:000206e0       ??$_Get_unwrapped@ABQAPAVRegString@@@std@@YG?A_TABQAPAVRegString@@@Z 100216e0 f i TAConfig.obj
 0001:000206f0       ??$_To_address@PAPAVRegDword@@@std@@YG?A_PABQAPAVRegDword@@@Z 100216f0 f i TAConfig.obj
 0001:00020700       ??$_To_address@PAPAVRegString@@@std@@YG?A_PABQAPAVRegString@@@Z 10021700 f i TAConfig.obj
 0001:00020710       ??$_Unfancy@PAVRegDword@@@std@@YGPAPAVRegDword@@PAPAV1@@Z 10021710 f i TAConfig.obj
 0001:00020720       ??$_Unfancy@PAVRegString@@@std@@YGPAPAVRegString@@PAPAV1@@Z 10021720 f i TAConfig.obj
 0001:00020730       ??$_Uninitialized_move@PAPAVRegDword@@V?$allocator@PAVRegDword@@@std@@@std@@YGPAPAVRegDword@@QAPAV1@0PAPAV1@AAV?$allocator@PAVRegDword@@@0@@Z 10021730 f i TAConfig.obj
 0001:00020800       ??$_Uninitialized_move@PAPAVRegString@@V?$allocator@PAVRegString@@@std@@@std@@YGPAPAVRegString@@QAPAV1@0PAPAV1@AAV?$allocator@PAVRegString@@@0@@Z 10021800 f i TAConfig.obj
 0001:000208d0       ??$_Voidify_iter@PAPAVRegDword@@@std@@YGPAXPAPAVRegDword@@@Z 100218d0 f i TAConfig.obj
 0001:000208e0       ??$_Voidify_iter@PAPAVRegString@@@std@@YGPAXPAPAVRegString@@@Z 100218e0 f i TAConfig.obj
 0001:000208f0       ??$addressof@PAVRegDword@@@std@@YGPAPAVRegDword@@AAPAV1@@Z 100218f0 f i TAConfig.obj
 0001:00020900       ??$addressof@PAVRegString@@@std@@YGPAPAVRegString@@AAPAV1@@Z 10021900 f i TAConfig.obj
 0001:00020910       ??$addressof@V?$_Vector_val@U?$_Simple_types@PAVRegDword@@@std@@@std@@@std@@YGPAV?$_Vector_val@U?$_Simple_types@PAVRegDword@@@std@@@0@AAV10@@Z 10021910 f i TAConfig.obj
 0001:00020920       ??$addressof@V?$_Vector_val@U?$_Simple_types@PAVRegString@@@std@@@std@@@std@@YGPAV?$_Vector_val@U?$_Simple_types@PAVRegString@@@std@@@0@AAV10@@Z 10021920 f i TAConfig.obj
 0001:00020930       ??$construct@PAVRegDword@@ABQAV1@@?$_Default_allocator_traits@V?$allocator@PAVRegDword@@@std@@@std@@SGXAAV?$allocator@PAVRegDword@@@1@QAPAVRegDword@@ABQAV3@@Z 10021930 f i TAConfig.obj
 0001:00020970       ??$construct@PAVRegDword@@PAV1@@?$_Default_allocator_traits@V?$allocator@PAVRegDword@@@std@@@std@@SGXAAV?$allocator@PAVRegDword@@@1@QAPAVRegDword@@$$QAPAV3@@Z 10021970 f i TAConfig.obj
 0001:000209b0       ??$construct@PAVRegString@@ABQAV1@@?$_Default_allocator_traits@V?$allocator@PAVRegString@@@std@@@std@@SGXAAV?$allocator@PAVRegString@@@1@QAPAVRegString@@ABQAV3@@Z 100219b0 f i TAConfig.obj
 0001:000209f0       ??$construct@PAVRegString@@PAV1@@?$_Default_allocator_traits@V?$allocator@PAVRegString@@@std@@@std@@SGXAAV?$allocator@PAVRegString@@@1@QAPAVRegString@@$$QAPAV3@@Z 100219f0 f i TAConfig.obj
 0001:00020a30       ??$destroy@PAVRegDword@@@?$_Default_allocator_traits@V?$allocator@PAVRegDword@@@std@@@std@@SGXAAV?$allocator@PAVRegDword@@@1@QAPAVRegDword@@@Z 10021a30 f i TAConfig.obj
 0001:00020a40       ??$destroy@PAVRegString@@@?$_Default_allocator_traits@V?$allocator@PAVRegString@@@std@@@std@@SGXAAV?$allocator@PAVRegString@@@1@QAPAVRegString@@@Z 10021a40 f i TAConfig.obj
 0001:00020a50       ??$emplace_back@ABQAVRegDword@@@?$vector@PAVRegDword@@V?$allocator@PAVRegDword@@@std@@@std@@QAE?A_TABQAVRegDword@@@Z 10021a50 f i TAConfig.obj
 0001:00020a80       ??$emplace_back@ABQAVRegString@@@?$vector@PAVRegString@@V?$allocator@PAVRegString@@@std@@@std@@QAE?A_TABQAVRegString@@@Z 10021a80 f i TAConfig.obj
 0001:00020ab0       ??$forward@ABQAVRegDword@@@std@@YGABQAVRegDword@@ABQAV1@@Z 10021ab0 f i TAConfig.obj
 0001:00020ac0       ??$forward@ABQAVRegString@@@std@@YGABQAVRegString@@ABQAV1@@Z 10021ac0 f i TAConfig.obj
 0001:00020ad0       ??$forward@PAVRegDword@@@std@@YG$$QAPAVRegDword@@AAPAV1@@Z 10021ad0 f i TAConfig.obj
 0001:00020ae0       ??$forward@PAVRegString@@@std@@YG$$QAPAVRegString@@AAPAV1@@Z 10021ae0 f i TAConfig.obj
 0001:00020af0       ??$move@AAPAVRegDword@@@std@@YG$$QAPAVRegDword@@AAPAV1@@Z 10021af0 f i TAConfig.obj
 0001:00020b00       ??$move@AAPAVRegString@@@std@@YG$$QAPAVRegString@@AAPAV1@@Z 10021b00 f i TAConfig.obj
 0001:00020b10       ??0?$CTraceCategoryEx@$00$0A@@ATL@@QAE@PBD@Z 10021b10 f i TAConfig.obj
 0001:00020b20       ??0?$CTraceCategoryEx@$01$0A@@ATL@@QAE@PBD@Z 10021b20 f i TAConfig.obj
 0001:00020b30       ??0?$CTraceCategoryEx@$03$0A@@ATL@@QAE@PBD@Z 10021b30 f i TAConfig.obj
 0001:00020b40       ??0?$CTraceCategoryEx@$07$0A@@ATL@@QAE@PBD@Z 10021b40 f i TAConfig.obj
 0001:00020b50       ??0?$CTraceCategoryEx@$0BA@$0A@@ATL@@QAE@PBD@Z 10021b50 f i TAConfig.obj
 0001:00020b60       ??0?$CTraceCategoryEx@$0BAA@$0A@@ATL@@QAE@PBD@Z 10021b60 f i TAConfig.obj
 0001:00020b70       ??0?$CTraceCategoryEx@$0BAAA@$0A@@ATL@@QAE@PBD@Z 10021b70 f i TAConfig.obj
 0001:00020b80       ??0?$CTraceCategoryEx@$0BAAAA@$0A@@ATL@@QAE@PBD@Z 10021b80 f i TAConfig.obj
 0001:00020b90       ??0?$CTraceCategoryEx@$0BAAAAA@$0A@@ATL@@QAE@PBD@Z 10021b90 f i TAConfig.obj
 0001:00020ba0       ??0?$CTraceCategoryEx@$0CA@$0A@@ATL@@QAE@PBD@Z 10021ba0 f i TAConfig.obj
 0001:00020bb0       ??0?$CTraceCategoryEx@$0CAA@$0A@@ATL@@QAE@PBD@Z 10021bb0 f i TAConfig.obj
 0001:00020bc0       ??0?$CTraceCategoryEx@$0CAAA@$0A@@ATL@@QAE@PBD@Z 10021bc0 f i TAConfig.obj
 0001:00020bd0       ??0?$CTraceCategoryEx@$0CAAAA@$0A@@ATL@@QAE@PBD@Z 10021bd0 f i TAConfig.obj
 0001:00020be0       ??0?$CTraceCategoryEx@$0CAAAAA@$0A@@ATL@@QAE@PBD@Z 10021be0 f i TAConfig.obj
 0001:00020bf0       ??0?$CTraceCategoryEx@$0EA@$0A@@ATL@@QAE@PBD@Z 10021bf0 f i TAConfig.obj
 0001:00020c00       ??0?$CTraceCategoryEx@$0EAA@$0A@@ATL@@QAE@PBD@Z 10021c00 f i TAConfig.obj
 0001:00020c10       ??0?$CTraceCategoryEx@$0EAAA@$0A@@ATL@@QAE@PBD@Z 10021c10 f i TAConfig.obj
 0001:00020c20       ??0?$CTraceCategoryEx@$0EAAAA@$0A@@ATL@@QAE@PBD@Z 10021c20 f i TAConfig.obj
 0001:00020c30       ??0?$CTraceCategoryEx@$0EAAAAA@$0A@@ATL@@QAE@PBD@Z 10021c30 f i TAConfig.obj
 0001:00020c40       ??0?$CTraceCategoryEx@$0IA@$0A@@ATL@@QAE@PBD@Z 10021c40 f i TAConfig.obj
 0001:00020c50       ??0?$CTraceCategoryEx@$0IAA@$0A@@ATL@@QAE@PBD@Z 10021c50 f i TAConfig.obj
 0001:00020c60       ??0?$CTraceCategoryEx@$0IAAA@$0A@@ATL@@QAE@PBD@Z 10021c60 f i TAConfig.obj
 0001:00020c70       ??0?$CTraceCategoryEx@$0IAAAA@$0A@@ATL@@QAE@PBD@Z 10021c70 f i TAConfig.obj
 0001:00020c80       ??0?$_Uninitialized_backout_al@V?$allocator@PAVRegDword@@@std@@@std@@QAE@PAPAVRegDword@@AAV?$allocator@PAVRegDword@@@1@@Z 10021c80 f i TAConfig.obj
 0001:00020cb0       ??0?$_Uninitialized_backout_al@V?$allocator@PAVRegString@@@std@@@std@@QAE@PAPAVRegString@@AAV?$allocator@PAVRegString@@@1@@Z 10021cb0 f i TAConfig.obj
 0001:00020ce0       ??0?$_Vector_const_iterator@V?$_Vector_val@U?$_Simple_types@PAVRegDword@@@std@@@std@@@std@@QAE@PAPAVRegDword@@PBU_Container_base0@1@@Z 10021ce0 f i TAConfig.obj
 0001:00020d10       ??0?$_Vector_const_iterator@V?$_Vector_val@U?$_Simple_types@PAVRegString@@@std@@@std@@@std@@QAE@PAPAVRegString@@PBU_Container_base0@1@@Z 10021d10 f i TAConfig.obj
 0001:00020d40       ??0?$_Vector_iterator@V?$_Vector_val@U?$_Simple_types@PAVRegDword@@@std@@@std@@@std@@QAE@PAPAVRegDword@@PBU_Container_base0@1@@Z 10021d40 f i TAConfig.obj
 0001:00020d60       ??0?$_Vector_iterator@V?$_Vector_val@U?$_Simple_types@PAVRegString@@@std@@@std@@@std@@QAE@PAPAVRegString@@PBU_Container_base0@1@@Z 10021d60 f i TAConfig.obj
 0001:00020d80       ??0?$_Vector_val@U?$_Simple_types@PAVRegDword@@@std@@@std@@QAE@XZ 10021d80 f i TAConfig.obj
 0001:00020db0       ??0?$_Vector_val@U?$_Simple_types@PAVRegString@@@std@@@std@@QAE@XZ 10021db0 f i TAConfig.obj
 0001:00020de0       ??0?$allocator@PAVRegDword@@@std@@QAE@XZ 10021de0 f i TAConfig.obj
 0001:00020df0       ??0?$allocator@PAVRegString@@@std@@QAE@XZ 10021df0 f i TAConfig.obj
 0001:00020e00       ??0?$vector@PAVRegDword@@V?$allocator@PAVRegDword@@@std@@@std@@QAE@XZ 10021e00 f i TAConfig.obj
 0001:00020e30       ??0?$vector@PAVRegString@@V?$allocator@PAVRegString@@@std@@@std@@QAE@XZ 10021e30 f i TAConfig.obj
 0001:00020e60       ??0CAtlException@ATL@@QAE@J@Z 10021e60 f i TAConfig.obj
 0001:00020e80       ??0RegDword@@QAE@PADHK@Z   10021e80 f   TAConfig.obj
 0001:00020ef0       ??0RegString@@QAE@PADH0H@Z 10021ef0 f   TAConfig.obj
 0001:00020f90       ??0TADRConfig@@QAE@XZ      10021f90 f   TAConfig.obj
 0001:00021280       ??1?$_Uninitialized_backout_al@V?$allocator@PAVRegDword@@@std@@@std@@QAE@XZ 10022280 f i TAConfig.obj
 0001:000212b0       ??1?$_Uninitialized_backout_al@V?$allocator@PAVRegString@@@std@@@std@@QAE@XZ 100222b0 f i TAConfig.obj
 0001:000212e0       ??1?$vector@PAVRegDword@@V?$allocator@PAVRegDword@@@std@@@std@@QAE@XZ 100222e0 f i TAConfig.obj
 0001:00021300       ??1?$vector@PAVRegString@@V?$allocator@PAVRegString@@@std@@@std@@QAE@XZ 10022300 f i TAConfig.obj
 0001:00021320       ??1RegDword@@QAE@XZ        10022320 f   TAConfig.obj
 0001:00021350       ??1RegString@@QAE@XZ       10022350 f   TAConfig.obj
 0001:000213a0       ??1TADRConfig@@QAE@XZ      100223a0 f   TAConfig.obj
 0001:00021480       ??8?$_Vector_const_iterator@V?$_Vector_val@U?$_Simple_types@PAVRegDword@@@std@@@std@@@std@@QBE_NABV01@@Z 10022480 f i TAConfig.obj
 0001:000214c0       ??8?$_Vector_const_iterator@V?$_Vector_val@U?$_Simple_types@PAVRegString@@@std@@@std@@@std@@QBE_NABV01@@Z 100224c0 f i TAConfig.obj
 0001:00021500       ??9?$_Vector_const_iterator@V?$_Vector_val@U?$_Simple_types@PAVRegString@@@std@@@std@@@std@@QBE_NABV01@@Z 10022500 f i TAConfig.obj
 0001:00021540       ??D?$_Vector_const_iterator@V?$_Vector_val@U?$_Simple_types@PAVRegDword@@@std@@@std@@@std@@QBEABQAVRegDword@@XZ 10022540 f i TAConfig.obj
 0001:00021550       ??D?$_Vector_const_iterator@V?$_Vector_val@U?$_Simple_types@PAVRegString@@@std@@@std@@@std@@QBEABQAVRegString@@XZ 10022550 f i TAConfig.obj
 0001:00021560       ??D?$_Vector_iterator@V?$_Vector_val@U?$_Simple_types@PAVRegDword@@@std@@@std@@@std@@QBEAAPAVRegDword@@XZ 10022560 f i TAConfig.obj
 0001:00021580       ??D?$_Vector_iterator@V?$_Vector_val@U?$_Simple_types@PAVRegString@@@std@@@std@@@std@@QBEAAPAVRegString@@XZ 10022580 f i TAConfig.obj
 0001:000215a0       ??E?$_Vector_const_iterator@V?$_Vector_val@U?$_Simple_types@PAVRegDword@@@std@@@std@@@std@@QAEAAV01@XZ 100225a0 f i TAConfig.obj
 0001:000215c0       ??E?$_Vector_const_iterator@V?$_Vector_val@U?$_Simple_types@PAVRegString@@@std@@@std@@@std@@QAEAAV01@XZ 100225c0 f i TAConfig.obj
 0001:000215e0       ??E?$_Vector_iterator@V?$_Vector_val@U?$_Simple_types@PAVRegDword@@@std@@@std@@@std@@QAEAAV01@XZ 100225e0 f i TAConfig.obj
 0001:00021600       ??E?$_Vector_iterator@V?$_Vector_val@U?$_Simple_types@PAVRegString@@@std@@@std@@@std@@QAEAAV01@XZ 10022600 f i TAConfig.obj
 0001:00021620       ??_GRegDword@@QAEPAXI@Z    10022620 f i TAConfig.obj
 0001:00021650       ??_GRegString@@QAEPAXI@Z   10022650 f i TAConfig.obj
 0001:00021680       ?AtlCrtErrorCheck@ATL@@YGHH@Z 10022680 f i TAConfig.obj
 0001:00021740       ?AtlThrowImpl@ATL@@YGXJ@Z  10022740 f i TAConfig.obj
 0001:00021770       ?EnumIniRegInfo_Begin@TADRConfig@@QAEHPAPAU_EnumRegInfo@@PAPBDPAPBX@Z 10022770 f   TAConfig.obj
 0001:00021800       ?EnumIniRegInfo_End@TADRConfig@@QAEHPAPAU_EnumRegInfo@@@Z 10022800 f   TAConfig.obj
 0001:00021860       ?EnumIniRegInfo_Next@TADRConfig@@QAEHPAPAU_EnumRegInfo@@PAPBDPAPBX@Z 10022860 f   TAConfig.obj
 0001:00021980       ?FindRegDword@TADRConfig@@QAEKPADK@Z 10022980 f   TAConfig.obj
 0001:00021a10       ?FindRegStr@TADRConfig@@QAEPBDPADPBD@Z 10022a10 f   TAConfig.obj
 0001:00021aa0       ?GetIniBool@TADRConfig@@QAEHPBDH@Z 10022aa0 f   TAConfig.obj
 0001:00021b30       ?GetIniCrc@TADRConfig@@QAEIXZ 10022b30 f   TAConfig.obj
 0001:00021c10       ?GetIniInt@TADRConfig@@QAEHPBDH@Z 10022c10 f   TAConfig.obj
 0001:00021c40       ?GetIniStr@TADRConfig@@QAEHPBDPADK1@Z 10022c40 f   TAConfig.obj
 0001:00021ca0       ?LoadIniRegSetting@TADRConfig@@AAEXPAE@Z 10022ca0 f   TAConfig.obj
 0001:00022260       ?Name@RegDword@@QAEPBDXZ   10023260 f   TAConfig.obj
 0001:00022270       ?Name@RegString@@QAEPBDXZ  10023270 f   TAConfig.obj
 0001:00022280       ?ReadTAReg_Dword@TADRConfig@@QAEJPADPAK@Z 10023280 f   TAConfig.obj
 0001:000222c0       ?ReadTAReg_Str@TADRConfig@@QAEJPADPBDK@Z 100232c0 f   TAConfig.obj
 0001:00022310       ?SetIniBool@TADRConfig@@QAEHPBDH@Z 10023310 f   TAConfig.obj
 0001:000223c0       ?Str@RegString@@QAEPBDXZ   100233c0 f   TAConfig.obj
 0001:000223e0       ?TARegPath_HKEY@TADRConfig@@AAEPAUHKEY__@@XZ 100233e0 f   TAConfig.obj
 0001:00022450       ?Value@RegDword@@QAEKXZ    10023450 f   TAConfig.obj
 0001:00022470       ?WriteTAReg_Dword@TADRConfig@@QAEJPADK@Z 10023470 f   TAConfig.obj
 0001:000224b0       ?WriteTAReg_Str@TADRConfig@@QAEJPADPBDK@Z 100234b0 f   TAConfig.obj
 0001:00022500       ?_Calculate_growth@?$vector@PAVRegDword@@V?$allocator@PAVRegDword@@@std@@@std@@ABEII@Z 10023500 f i TAConfig.obj
 0001:00022560       ?_Calculate_growth@?$vector@PAVRegString@@V?$allocator@PAVRegString@@@std@@@std@@ABEII@Z 10023560 f i TAConfig.obj
 0001:000225c0       ?_Change_array@?$vector@PAVRegDword@@V?$allocator@PAVRegDword@@@std@@@std@@AAEXQAPAVRegDword@@II@Z 100235c0 f i TAConfig.obj
 0001:00022660       ?_Change_array@?$vector@PAVRegString@@V?$allocator@PAVRegString@@@std@@@std@@AAEXQAPAVRegString@@II@Z 10023660 f i TAConfig.obj
 0001:00022700       ?_Compat@?$_Vector_const_iterator@V?$_Vector_val@U?$_Simple_types@PAVRegDword@@@std@@@std@@@std@@QBEXABV12@@Z 10023700 f i TAConfig.obj
 0001:00022710       ?_Compat@?$_Vector_const_iterator@V?$_Vector_val@U?$_Simple_types@PAVRegString@@@std@@@std@@@std@@QBEXABV12@@Z 10023710 f i TAConfig.obj
 0001:00022720       ?_Get_first@?$_Compressed_pair@V?$allocator@PAVRegDword@@@std@@V?$_Vector_val@U?$_Simple_types@PAVRegDword@@@std@@@2@$00@std@@QAEAAV?$allocator@PAVRegDword@@@2@XZ 10023720 f i TAConfig.obj
 0001:00022730       ?_Get_first@?$_Compressed_pair@V?$allocator@PAVRegDword@@@std@@V?$_Vector_val@U?$_Simple_types@PAVRegDword@@@std@@@2@$00@std@@QBEABV?$allocator@PAVRegDword@@@2@XZ 10023730 f i TAConfig.obj
 0001:00022740       ?_Get_first@?$_Compressed_pair@V?$allocator@PAVRegString@@@std@@V?$_Vector_val@U?$_Simple_types@PAVRegString@@@std@@@2@$00@std@@QAEAAV?$allocator@PAVRegString@@@2@XZ 10023740 f i TAConfig.obj
 0001:00022750       ?_Get_first@?$_Compressed_pair@V?$allocator@PAVRegString@@@std@@V?$_Vector_val@U?$_Simple_types@PAVRegString@@@std@@@2@$00@std@@QBEABV?$allocator@PAVRegString@@@2@XZ 10023750 f i TAConfig.obj
 0001:00022760       ?_Getal@?$vector@PAVRegDword@@V?$allocator@PAVRegDword@@@std@@@std@@AAEAAV?$allocator@PAVRegDword@@@2@XZ 10023760 f i TAConfig.obj
 0001:00022780       ?_Getal@?$vector@PAVRegDword@@V?$allocator@PAVRegDword@@@std@@@std@@ABEABV?$allocator@PAVRegDword@@@2@XZ 10023780 f i TAConfig.obj
 0001:000227a0       ?_Getal@?$vector@PAVRegString@@V?$allocator@PAVRegString@@@std@@@std@@AAEAAV?$allocator@PAVRegString@@@2@XZ 100237a0 f i TAConfig.obj
 0001:000227c0       ?_Getal@?$vector@PAVRegString@@V?$allocator@PAVRegString@@@std@@@std@@ABEABV?$allocator@PAVRegString@@@2@XZ 100237c0 f i TAConfig.obj
 0001:000227e0       ?_Orphan_range@?$vector@PAVRegDword@@V?$allocator@PAVRegDword@@@std@@@std@@ABEXPAPAVRegDword@@0@Z 100237e0 f i TAConfig.obj
 0001:000227f0       ?_Orphan_range@?$vector@PAVRegString@@V?$allocator@PAVRegString@@@std@@@std@@ABEXPAPAVRegString@@0@Z 100237f0 f i TAConfig.obj
 0001:00022800       ?_Release@?$_Uninitialized_backout_al@V?$allocator@PAVRegDword@@@std@@@std@@QAEPAPAVRegDword@@XZ 10023800 f i TAConfig.obj
 0001:00022820       ?_Release@?$_Uninitialized_backout_al@V?$allocator@PAVRegString@@@std@@@std@@QAEPAPAVRegString@@XZ 10023820 f i TAConfig.obj
 0001:00022840       ?_Tidy@?$vector@PAVRegDword@@V?$allocator@PAVRegDword@@@std@@@std@@AAEXXZ 10023840 f i TAConfig.obj
 0001:00022900       ?_Tidy@?$vector@PAVRegString@@V?$allocator@PAVRegString@@@std@@@std@@AAEXXZ 10023900 f i TAConfig.obj
 0001:000229c0       ?_Xlength@?$vector@PAVRegDword@@V?$allocator@PAVRegDword@@@std@@@std@@CGXXZ 100239c0 f i TAConfig.obj
 0001:000229d0       ?_Xlength@?$vector@PAVRegString@@V?$allocator@PAVRegString@@@std@@@std@@CGXXZ 100239d0 f i TAConfig.obj
 0001:000229e0       ?allocate@?$allocator@PAVRegDword@@@std@@QAEPAPAVRegDword@@I@Z 100239e0 f i TAConfig.obj
 0001:00022a00       ?allocate@?$allocator@PAVRegString@@@std@@QAEPAPAVRegString@@I@Z 10023a00 f i TAConfig.obj
 0001:00022a20       ?back@?$vector@PAVRegDword@@V?$allocator@PAVRegDword@@@std@@@std@@QAEAAPAVRegDword@@XZ 10023a20 f i TAConfig.obj
 0001:00022a50       ?back@?$vector@PAVRegString@@V?$allocator@PAVRegString@@@std@@@std@@QAEAAPAVRegString@@XZ 10023a50 f i TAConfig.obj
 0001:00022a80       ?begin@?$vector@PAVRegDword@@V?$allocator@PAVRegDword@@@std@@@std@@QAE?AV?$_Vector_iterator@V?$_Vector_val@U?$_Simple_types@PAVRegDword@@@std@@@std@@@2@XZ 10023a80 f i TAConfig.obj
 0001:00022ab0       ?begin@?$vector@PAVRegString@@V?$allocator@PAVRegString@@@std@@@std@@QAE?AV?$_Vector_iterator@V?$_Vector_val@U?$_Simple_types@PAVRegString@@@std@@@std@@@2@XZ 10023ab0 f i TAConfig.obj
 0001:00022ae0       ?capacity@?$vector@PAVRegDword@@V?$allocator@PAVRegDword@@@std@@@std@@QBEIXZ 10023ae0 f i TAConfig.obj
 0001:00022b10       ?capacity@?$vector@PAVRegString@@V?$allocator@PAVRegString@@@std@@@std@@QBEIXZ 10023b10 f i TAConfig.obj
 0001:00022b40       ?deallocate@?$allocator@PAVRegDword@@@std@@QAEXQAPAVRegDword@@I@Z 10023b40 f i TAConfig.obj
 0001:00022b60       ?deallocate@?$allocator@PAVRegString@@@std@@QAEXQAPAVRegString@@I@Z 10023b60 f i TAConfig.obj
 0001:00022b80       ?empty@?$vector@PAVRegDword@@V?$allocator@PAVRegDword@@@std@@@std@@QBE_NXZ 10023b80 f i TAConfig.obj
 0001:00022bc0       ?empty@?$vector@PAVRegString@@V?$allocator@PAVRegString@@@std@@@std@@QBE_NXZ 10023bc0 f i TAConfig.obj
 0001:00022c00       ?end@?$vector@PAVRegDword@@V?$allocator@PAVRegDword@@@std@@@std@@QAE?AV?$_Vector_iterator@V?$_Vector_val@U?$_Simple_types@PAVRegDword@@@std@@@std@@@2@XZ 10023c00 f i TAConfig.obj
 0001:00022c40       ?end@?$vector@PAVRegString@@V?$allocator@PAVRegString@@@std@@@std@@QAE?AV?$_Vector_iterator@V?$_Vector_val@U?$_Simple_types@PAVRegString@@@std@@@std@@@2@XZ 10023c40 f i TAConfig.obj
 0001:00022c80       ?max_size@?$_Default_allocator_traits@V?$allocator@PAVRegDword@@@std@@@std@@SGIABV?$allocator@PAVRegDword@@@2@@Z 10023c80 f i TAConfig.obj
 0001:00022c90       ?max_size@?$_Default_allocator_traits@V?$allocator@PAVRegString@@@std@@@std@@SGIABV?$allocator@PAVRegString@@@2@@Z 10023c90 f i TAConfig.obj
 0001:00022ca0       ?max_size@?$vector@PAVRegDword@@V?$allocator@PAVRegDword@@@std@@@std@@QBEIXZ 10023ca0 f i TAConfig.obj
 0001:00022ce0       ?max_size@?$vector@PAVRegString@@V?$allocator@PAVRegString@@@std@@@std@@QBEIXZ 10023ce0 f i TAConfig.obj
 0001:00022d20       ?pop_back@?$vector@PAVRegDword@@V?$allocator@PAVRegDword@@@std@@@std@@QAEXXZ 10023d20 f i TAConfig.obj
 0001:00022db0       ?pop_back@?$vector@PAVRegString@@V?$allocator@PAVRegString@@@std@@@std@@QAEXXZ 10023db0 f i TAConfig.obj
 0001:00022e40       ?push_back@?$vector@PAVRegDword@@V?$allocator@PAVRegDword@@@std@@@std@@QAEXABQAVRegDword@@@Z 10023e40 f i TAConfig.obj
 0001:00022e60       ?push_back@?$vector@PAVRegString@@V?$allocator@PAVRegString@@@std@@@std@@QAEXABQAVRegString@@@Z 10023e60 f i TAConfig.obj
 0001:00022e80       ?size@?$vector@PAVRegDword@@V?$allocator@PAVRegDword@@@std@@@std@@QBEIXZ 10023e80 f i TAConfig.obj
 0001:00022eb0       ?size@?$vector@PAVRegString@@V?$allocator@PAVRegString@@@std@@@std@@QBEIXZ 10023eb0 f i TAConfig.obj
 0001:00022ee0       ?strchr@@YAPADQADH@Z       10023ee0 f i TAConfig.obj
 0001:00022f00       ?strlwr_s@Checked@ATL@@YAXPADI@Z 10023f00 f i TAConfig.obj
 0001:00022f20       ?strupr_s@Checked@ATL@@YAXPADI@Z 10023f20 f i TAConfig.obj
 0001:00022f40       ??$?0ABV?$allocator@D@std@@$$V@?$_Compressed_pair@V?$allocator@D@std@@V?$_String_val@U?$_Simple_types@D@std@@@2@$00@std@@QAE@U_One_then_variadic_args_t@1@ABV?$allocator@D@1@@Z 10023f40 f i tahook.obj
 0001:00022f70       ??$?0PAD$0A@@?$basic_string@DU?$char_traits@D@std@@V?$allocator@D@2@@std@@QAE@PAD0ABV?$allocator@D@1@@Z 10023f70 f i tahook.obj
 0001:00023030       ??$?0V?$allocator@D@std@@$$V@?$_Compressed_pair@V?$allocator@D@std@@V?$_String_val@U?$_Simple_types@D@std@@@2@$00@std@@QAE@U_One_then_variadic_args_t@1@$$QAV?$allocator@D@1@@Z 10024030 f i tahook.obj
 0001:00023060       ??$?HDU?$char_traits@D@std@@V?$allocator@D@1@@std@@YG?AV?$basic_string@DU?$char_traits@D@std@@V?$allocator@D@2@@0@QBD$$QAV10@@Z 10024060 f i tahook.obj
 0001:000230a0       ??$_Adl_verify_range@PADPAD@std@@YGXABQAD0@Z 100240a0 f i tahook.obj
 0001:000230b0       ??$_Construct_in_place@PADAAPAD@std@@YGXAAPAD0@Z 100240b0 f i tahook.obj
 0001:000230f0       ??$_Get_unwrapped@AAPAD@std@@YG?A_TAAPAD@Z 100240f0 f i tahook.obj
 0001:00023100       ??$_Integral_to_string@DH@std@@YG?AV?$basic_string@DU?$char_traits@D@std@@V?$allocator@D@2@@0@H@Z 10024100 f i tahook.obj
 0001:00023190       ??$_Pocma@V?$allocator@D@std@@@std@@YGXAAV?$allocator@D@0@0@Z 10024190 f i tahook.obj
 0001:000231a0       ??$_Reallocate_grow_by@V<lambda_15711c68e099a15a58f4d77303cb286d>@@D@?$basic_string@DU?$char_traits@D@std@@V?$allocator@D@2@@std@@AAEAAV01@IV<lambda_15711c68e099a15a58f4d77303cb286d>@@D@Z 100241a0 f i tahook.obj
 0001:000232b0       ??$_Reallocate_grow_by@V<lambda_4d79bb85f269e6e8002a4599002d832c>@@IPBDI@?$basic_string@DU?$char_traits@D@std@@V?$allocator@D@2@@std@@AAEAAV01@IV<lambda_4d79bb85f269e6e8002a4599002d832c>@@IPBDI@Z 100242b0 f i tahook.obj
 0001:000233d0       ??$_UIntegral_to_buff@DI@std@@YGPADPADI@Z 100243d0 f i tahook.obj
 0001:00023420       ??$addressof@$$CBV?$_String_val@U?$_Simple_types@D@std@@@std@@@std@@YGPBV?$_String_val@U?$_Simple_types@D@std@@@0@ABV10@@Z 10024420 f i tahook.obj
 0001:00023430       ??$addressof@V?$_String_val@U?$_Simple_types@D@std@@@std@@@std@@YGPAV?$_String_val@U?$_Simple_types@D@std@@@0@AAV10@@Z 10024430 f i tahook.obj
 0001:00023440       ??$addressof@V?$basic_string@DU?$char_traits@D@std@@V?$allocator@D@2@@std@@@std@@YGPAV?$basic_string@DU?$char_traits@D@std@@V?$allocator@D@2@@0@AAV10@@Z 10024440 f i tahook.obj
 0001:00023450       ??$end@D$0BF@@std@@YGPADAAY0BF@D@Z 10024450 f i tahook.obj
 0001:00023460       ??$forward@AAPAD@std@@YGAAPADAAPAD@Z 10024460 f i tahook.obj
 0001:00023470       ??$forward@ABV?$allocator@D@std@@@std@@YGABV?$allocator@D@0@ABV10@@Z 10024470 f i tahook.obj
 0001:00023480       ??$forward@V?$allocator@D@std@@@std@@YG$$QAV?$allocator@D@0@AAV10@@Z 10024480 f i tahook.obj
 0001:00023490       ??$move@AAV?$allocator@D@std@@@std@@YG$$QAV?$allocator@D@0@AAV10@@Z 10024490 f i tahook.obj
 0001:000234a0       ??$move@AAV?$basic_string@DU?$char_traits@D@std@@V?$allocator@D@2@@std@@@std@@YG$$QAV?$basic_string@DU?$char_traits@D@std@@V?$allocator@D@2@@0@AAV10@@Z 100244a0 f i tahook.obj
 0001:000234b0       ??0?$basic_string@DU?$char_traits@D@std@@V?$allocator@D@2@@std@@QAE@$$QAV01@@Z 100244b0 f i tahook.obj
 0001:00023500       ??0?$basic_string@DU?$char_traits@D@std@@V?$allocator@D@2@@std@@QAE@XZ 10024500 f i tahook.obj
 0001:00023540       ??0CTAHook@@QAE@H@Z        10024540 f   tahook.obj
 0001:00023780       ??1CTAHook@@QAE@XZ         10024780 f   tahook.obj
 0001:000237f0       ??4?$basic_string@DU?$char_traits@D@std@@V?$allocator@D@2@@std@@QAEAAV01@$$QAV01@@Z 100247f0 f i tahook.obj
 0001:00023860       ??4?$basic_string@DU?$char_traits@D@std@@V?$allocator@D@2@@std@@QAEAAV01@QBD@Z 10024860 f i tahook.obj
 0001:00023880       ??R<lambda_15711c68e099a15a58f4d77303cb286d>@@QBE@QADQBDID@Z 10024880 f i tahook.obj
 0001:000238d0       ??R<lambda_4d79bb85f269e6e8002a4599002d832c>@@QBE@QADQBDII1I@Z 100248d0 f i tahook.obj
 0001:00023930       ??Y?$basic_string@DU?$char_traits@D@std@@V?$allocator@D@2@@std@@QAEAAV01@D@Z 10024930 f i tahook.obj
 0001:00023950       ?Blit@CTAHook@@QAEXPAUIDirectDrawSurface@@@Z 10024950 f   tahook.obj
 0001:00023960       ?CalculateLine@CTAHook@@AAEXXZ 10024960 f   tahook.obj
 0001:00023c00       ?CalculateRing@CTAHook@@AAEXHHHH@Z 10024c00 f   tahook.obj
 0001:00023f50       ?CalculateRing@CTAHook@@AAEXXZ 10024f50 f   tahook.obj
 0001:00024050       ?ClickBuilding@CTAHook@@AAEXHH@Z 10025050 f   tahook.obj
 0001:000240e0       ?DisableTABuildRect@CTAHook@@AAEXXZ 100250e0 f   tahook.obj
 0001:00024110       ?DrawBuildRect@CTAHook@@AAEXHHHHH@Z 10025110 f   tahook.obj
 0001:000242f0       ?EnableTABuildRect@CTAHook@@AAEXXZ 100252f0 f   tahook.obj
 0001:00024320       ?GetFootX@CTAHook@@AAEFXZ  10025320 f   tahook.obj
 0001:00024350       ?GetFootY@CTAHook@@AAEFXZ  10025350 f   tahook.obj
 0001:00024380       ?IsLineBuilding@CTAHook@@QAEHXZ 10025380 f   tahook.obj
 0001:000243c0       ?Message@CTAHook@@QAE_NPAUHWND__@@IIJ@Z 100253c0 f   tahook.obj
 0001:00024b10       ?OptimizeDTRows@CTAHook@@AAEXXZ 10025b10 f   tahook.obj
 0001:00024e80       ?PaintMinimapRect@CTAHook@@AAEXXZ 10025e80 f   tahook.obj
 0001:00024eb0       ?Set@CTAHook@@QAEXHPAD_N1H@Z 10025eb0 f   tahook.obj
 0001:00024f00       ?TABlit@CTAHook@@QAEXXZ    10025f00 f   tahook.obj
 0001:00024f80       ?UpdateSpacing@CTAHook@@AAEXXZ 10025f80 f   tahook.obj
 0001:00024fc0       ?VisualizeRow@CTAHook@@AAEXXZ 10025fc0 f   tahook.obj
 0001:00025130       ?VisualizeRow_ForME_megamap@CTAHook@@QAEXPAU_OFFSCREEN@@@Z 10026130 f   tahook.obj
 0001:000252a0       ?WriteDTLine@CTAHook@@AAEXXZ 100262a0 f   tahook.obj
 0001:00025340       ?WriteScrollDTLine@CTAHook@@AAEXXZ 10026340 f   tahook.obj
 0001:00025350       ?WriteShareMacro@CTAHook@@QAEXXZ 10026350 f   tahook.obj
 0001:00025680       ?_Check_offset@?$_String_val@U?$_Simple_types@D@std@@@std@@QBEXI@Z 10026680 f i tahook.obj
 0001:000256a0       ?_Memcpy_val_from@?$basic_string@DU?$char_traits@D@std@@V?$allocator@D@2@@std@@AAEXABV12@@Z 100266a0 f i tahook.obj
 0001:000256e0       ?_Myptr@?$_String_val@U?$_Simple_types@D@std@@@std@@QBEPBDXZ 100266e0 f i tahook.obj
 0001:00025720       ?_Swap_proxy_and_iterators@?$basic_string@DU?$char_traits@D@std@@V?$allocator@D@2@@std@@AAEXAAV12@@Z 10026720 f i tahook.obj
 0001:00025740       ?_Swap_proxy_and_iterators@_Container_base0@std@@QAEXAAU12@@Z 10026740 f i tahook.obj
 0001:00025750       ?_Take_contents@?$basic_string@DU?$char_traits@D@std@@V?$allocator@D@2@@std@@AAEXAAV12@@Z 10026750 f i tahook.obj
 0001:00025820       ?_Xran@?$_String_val@U?$_Simple_types@D@std@@@std@@SGXXZ 10026820 f i tahook.obj
 0001:00025830       ?c_str@?$basic_string@DU?$char_traits@D@std@@V?$allocator@D@2@@std@@QBEPBDXZ 10026830 f i tahook.obj
 0001:00025850       ?insert@?$basic_string@DU?$char_traits@D@std@@V?$allocator@D@2@@std@@QAEAAV12@IQBD@Z 10026850 f i tahook.obj
 0001:00025880       ?insert@?$basic_string@DU?$char_traits@D@std@@V?$allocator@D@2@@std@@QAEAAV12@IQBDI@Z 10026880 f i tahook.obj
 0001:000259a0       ?push_back@?$basic_string@DU?$char_traits@D@std@@V?$allocator@D@2@@std@@QAEXD@Z 100269a0 f i tahook.obj
 0001:00025a20       ?to_string@std@@YG?AV?$basic_string@DU?$char_traits@D@std@@V?$allocator@D@2@@1@H@Z 10026a20 f i tahook.obj
 0001:00025a50       ??$?0$$V@?$_Compressed_pair@V?$allocator@PAD@std@@V?$_Vector_val@U?$_Simple_types@PAD@std@@@2@$00@std@@QAE@U_Zero_then_variadic_args_t@1@@Z 10026a50 f i UnicodeSupport.obj
 0001:00025a70       ??$_Construct_in_place@PADPAD@std@@YGXAAPAD$$QAPAD@Z 10026a70 f i UnicodeSupport.obj
 0001:00025ab0       ??$_Copy_memmove@PAPADPAPAD@std@@YGPAPADPAPAD00@Z 10026ab0 f i UnicodeSupport.obj
 0001:00025b20       ??$_Destroy_range@V?$allocator@PAD@std@@@std@@YGXPAPADQAPADAAV?$allocator@PAD@0@@Z 10026b20 f i UnicodeSupport.obj
 0001:00025b30       ??$_Emplace_back@PAD@?$_Uninitialized_backout_al@V?$allocator@PAD@std@@@std@@QAEX$$QAPAD@Z 10026b30 f i UnicodeSupport.obj
 0001:00025b70       ??$_Emplace_back_with_unused_capacity@PAD@?$vector@PADV?$allocator@PAD@std@@@std@@AAEAAPAD$$QAPAD@Z 10026b70 f i UnicodeSupport.obj
 0001:00025bd0       ??$_Emplace_one_at_back@PAD@?$vector@PADV?$allocator@PAD@std@@@std@@AAEAAPAD$$QAPAD@Z 10026bd0 f i UnicodeSupport.obj
 0001:00025c30       ??$_Emplace_reallocate@PAD@?$vector@PADV?$allocator@PAD@std@@@std@@AAEPAPADQAPAD$$QAPAD@Z 10026c30 f i UnicodeSupport.obj
 0001:00025df0       ??$_Get_unwrapped@ABQAPAD@std@@YG?A_TABQAPAD@Z 10026df0 f i UnicodeSupport.obj
 0001:00025e00       ??$_To_address@PAPAD@std@@YG?A_PABQAPAD@Z 10026e00 f i UnicodeSupport.obj
 0001:00025e10       ??$_Unfancy@PAD@std@@YGPAPADPAPAD@Z 10026e10 f i UnicodeSupport.obj
 0001:00025e20       ??$_Uninitialized_move@PAPADV?$allocator@PAD@std@@@std@@YGPAPADQAPAD0PAPADAAV?$allocator@PAD@0@@Z 10026e20 f i UnicodeSupport.obj
 0001:00025ef0       ??$addressof@V?$_Vector_val@U?$_Simple_types@PAD@std@@@std@@@std@@YGPAV?$_Vector_val@U?$_Simple_types@PAD@std@@@0@AAV10@@Z 10026ef0 f i UnicodeSupport.obj
 0001:00025f00       ??$construct@PADPAD@?$_Default_allocator_traits@V?$allocator@PAD@std@@@std@@SGXAAV?$allocator@PAD@1@QAPAD$$QAPAD@Z 10026f00 f i UnicodeSupport.obj
 0001:00025f40       ??$destroy@PAD@?$_Default_allocator_traits@V?$allocator@PAD@std@@@std@@SGXAAV?$allocator@PAD@1@QAPAD@Z 10026f40 f i UnicodeSupport.obj
 0001:00025f50       ??$emplace_back@PAD@?$vector@PADV?$allocator@PAD@std@@@std@@QAE?A_T$$QAPAD@Z 10026f50 f i UnicodeSupport.obj
 0001:00025f80       ??$forward@PAD@std@@YG$$QAPADAAPAD@Z 10026f80 f i UnicodeSupport.obj
 0001:00025f90       ??$move@AAPAD@std@@YG$$QAPADAAPAD@Z 10026f90 f i UnicodeSupport.obj
 0001:00025fa0       ??0?$_Uninitialized_backout_al@V?$allocator@PAD@std@@@std@@QAE@PAPADAAV?$allocator@PAD@1@@Z 10026fa0 f i UnicodeSupport.obj
 0001:00025fd0       ??0?$_Vector_const_iterator@V?$_Vector_val@U?$_Simple_types@PAD@std@@@std@@@std@@QAE@PAPADPBU_Container_base0@1@@Z 10026fd0 f i UnicodeSupport.obj
 0001:00026000       ??0?$_Vector_iterator@V?$_Vector_val@U?$_Simple_types@PAD@std@@@std@@@std@@QAE@PAPADPBU_Container_base0@1@@Z 10027000 f i UnicodeSupport.obj
 0001:00026020       ??0?$_Vector_val@U?$_Simple_types@PAD@std@@@std@@QAE@XZ 10027020 f i UnicodeSupport.obj
 0001:00026050       ??0?$allocator@PAD@std@@QAE@XZ 10027050 f i UnicodeSupport.obj
 0001:00026060       ??0?$vector@PADV?$allocator@PAD@std@@@std@@QAE@XZ 10027060 f i UnicodeSupport.obj
 0001:00026090       ??0UnicodeSupport@@QAE@H@Z 10027090 f   UnicodeSupport.obj
 0001:00026280       ??0UnicodeSupport@@QAE@PBDKKH@Z 10027280 f   UnicodeSupport.obj
 0001:00026890       ??1?$_Uninitialized_backout_al@V?$allocator@PAD@std@@@std@@QAE@XZ 10027890 f i UnicodeSupport.obj
 0001:000268c0       ??1?$vector@PADV?$allocator@PAD@std@@@std@@QAE@XZ 100278c0 f i UnicodeSupport.obj
 0001:000268e0       ??1UnicodeSupport@@QAE@XZ  100278e0 f   UnicodeSupport.obj
 0001:00026b20       ??8?$_Vector_const_iterator@V?$_Vector_val@U?$_Simple_types@PAD@std@@@std@@@std@@QBE_NABV01@@Z 10027b20 f i UnicodeSupport.obj
 0001:00026b60       ??9?$_Vector_const_iterator@V?$_Vector_val@U?$_Simple_types@PAD@std@@@std@@@std@@QBE_NABV01@@Z 10027b60 f i UnicodeSupport.obj
 0001:00026ba0       ??D?$_Vector_const_iterator@V?$_Vector_val@U?$_Simple_types@PAD@std@@@std@@@std@@QBEABQADXZ 10027ba0 f i UnicodeSupport.obj
 0001:00026bb0       ??D?$_Vector_iterator@V?$_Vector_val@U?$_Simple_types@PAD@std@@@std@@@std@@QBEAAPADXZ 10027bb0 f i UnicodeSupport.obj
 0001:00026bd0       ??E?$_Vector_const_iterator@V?$_Vector_val@U?$_Simple_types@PAD@std@@@std@@@std@@QAEAAV01@XZ 10027bd0 f i UnicodeSupport.obj
 0001:00026bf0       ??E?$_Vector_iterator@V?$_Vector_val@U?$_Simple_types@PAD@std@@@std@@@std@@QAEAAV01@XZ 10027bf0 f i UnicodeSupport.obj
 0001:00026c10       ?Blt@UnicodeSupport@@QAE_NPAUIDirectDrawSurface@@@Z 10027c10 f   UnicodeSupport.obj
 0001:00026df0       ?Blt_BottomState0_Text@@YGHPAUtagInlineX86StackBuffer@@@Z 10027df0 f   UnicodeSupport.obj
 0001:00026f10       ?Blt_BottomState1_Text@@YGHPAUtagInlineX86StackBuffer@@@Z 10027f10 f   UnicodeSupport.obj
 0001:00027020       ?CopyToContextScreenMem@@YGXPAU_OFFSCREEN@@PAUtagSpecScreenSurface@@@Z 10028020 f   UnicodeSupport.obj
 0001:000270a0       ?CopyToSpecSurfaceMem@@YGXPAUtagSpecScreenSurface@@PAU_OFFSCREEN@@@Z 100280a0 f   UnicodeSupport.obj
 0001:00027120       ?CreateSurfaceFromContextScreen@UnicodeSupport@@QAEPAUIDirectDrawSurface@@PAU_OFFSCREEN@@PAUIDirectDraw@@PAPAU2@@Z 10028120 f   UnicodeSupport.obj
 0001:000271d0       ?DBSC2rdByte@@YGHPAUtagInlineX86StackBuffer@@@Z 100281d0 f   UnicodeSupport.obj
 0001:00027260       ?DrawALine_Ime@UnicodeSupport@@AAEXPAUHDC__@@PADPAH2@Z 10028260 f   UnicodeSupport.obj
 0001:000272f0       ?DrawSeparator@UnicodeSupport@@AAEHPAUHDC__@@HPAH1PAUHBRUSH__@@@Z 100282f0 f   UnicodeSupport.obj
 0001:00027340       ?FreeSpecScreenSurface@UnicodeSupport@@AAEXPAUtagSpecScreenSurface@@@Z 10028340 f   UnicodeSupport.obj
 0001:00027420       ?GetSpecScreenSurface@UnicodeSupport@@AAEPAUtagSpecScreenSurface@@PAU_OFFSCREEN@@@Z 10028420 f   UnicodeSupport.obj
 0001:000274f0       ?GetStrExtent@@YGHPAUtagInlineX86StackBuffer@@@Z 100284f0 f   UnicodeSupport.obj
 0001:00027550       ?GetTextExtent_AssignCharLen@@YGHPAUtagInlineX86StackBuffer@@@Z 10028550 f   UnicodeSupport.obj
 0001:000275b0       ?IsIDDrawLost@UnicodeSupport@@AAEHXZ 100285b0 f   UnicodeSupport.obj
 0001:000275e0       ?Message@UnicodeSupport@@QAE_NPAUHWND__@@IIJ@Z 100285e0 f   UnicodeSupport.obj
 0001:00027b00       ?NewSpecScreenSurface@UnicodeSupport@@AAEPAUtagSpecScreenSurface@@PAU_OFFSCREEN@@@Z 10028b00 f   UnicodeSupport.obj
 0001:00027bf0       ?PopadState@@YGHPAUtagInlineX86StackBuffer@@@Z 10028bf0 f   UnicodeSupport.obj
 0001:00027c90       ?ReleaseCandidateList@UnicodeSupport@@AAEXXZ 10028c90 f   UnicodeSupport.obj
 0001:00027d10       ?RestoreLocalSurf@UnicodeSupport@@AAEXH@Z 10028d10 f   UnicodeSupport.obj
 0001:00027df0       ?SendStr@UnicodeSupport@@AAEXPAD@Z 10028df0 f   UnicodeSupport.obj
 0001:00027e40       ?Set@UnicodeSupport@@QAEXH@Z 10028e40 f   UnicodeSupport.obj
 0001:00027e60       ?SetHDCFont@UnicodeSupport@@AAEXPAUHDC__@@PAUHFONT__@@@Z 10028e60 f   UnicodeSupport.obj
 0001:00027ea0       ?USDrawTextInScreen_HookRouter@@YGHPAUtagInlineX86StackBuffer@@@Z 10028ea0 f   UnicodeSupport.obj
 0001:00027fc0       ?UnicodeDrawTextA@UnicodeSupport@@QAEHPAU_OFFSCREEN@@PADPAUIDirectDraw@@HH@Z 10028fc0 f   UnicodeSupport.obj
 0001:00028290       ?UpdateImeFrame@UnicodeSupport@@AAE_NXZ 10029290 f   UnicodeSupport.obj
 0001:00028590       ?UpdateImeInput@UnicodeSupport@@AAE_NXZ 10029590 f   UnicodeSupport.obj
 0001:000287c0       ?_Calculate_growth@?$vector@PADV?$allocator@PAD@std@@@std@@ABEII@Z 100297c0 f i UnicodeSupport.obj
 0001:00028820       ?_Change_array@?$vector@PADV?$allocator@PAD@std@@@std@@AAEXQAPADII@Z 10029820 f i UnicodeSupport.obj
 0001:000288c0       ?_Compat@?$_Vector_const_iterator@V?$_Vector_val@U?$_Simple_types@PAD@std@@@std@@@std@@QBEXABV12@@Z 100298c0 f i UnicodeSupport.obj
 0001:000288d0       ?_Get_first@?$_Compressed_pair@V?$allocator@PAD@std@@V?$_Vector_val@U?$_Simple_types@PAD@std@@@2@$00@std@@QAEAAV?$allocator@PAD@2@XZ 100298d0 f i UnicodeSupport.obj
 0001:000288e0       ?_Get_first@?$_Compressed_pair@V?$allocator@PAD@std@@V?$_Vector_val@U?$_Simple_types@PAD@std@@@2@$00@std@@QBEABV?$allocator@PAD@2@XZ 100298e0 f i UnicodeSupport.obj
 0001:000288f0       ?_Getal@?$vector@PADV?$allocator@PAD@std@@@std@@AAEAAV?$allocator@PAD@2@XZ 100298f0 f i UnicodeSupport.obj
 0001:00028910       ?_Getal@?$vector@PADV?$allocator@PAD@std@@@std@@ABEABV?$allocator@PAD@2@XZ 10029910 f i UnicodeSupport.obj
 0001:00028930       ?_Orphan_range@?$vector@PADV?$allocator@PAD@std@@@std@@ABEXPAPAD0@Z 10029930 f i UnicodeSupport.obj
 0001:00028940       ?_Release@?$_Uninitialized_backout_al@V?$allocator@PAD@std@@@std@@QAEPAPADXZ 10029940 f i UnicodeSupport.obj
 0001:00028960       ?_Tidy@?$vector@PADV?$allocator@PAD@std@@@std@@AAEXXZ 10029960 f i UnicodeSupport.obj
 0001:00028a20       ?_Xlength@?$vector@PADV?$allocator@PAD@std@@@std@@CGXXZ 10029a20 f i UnicodeSupport.obj
 0001:00028a30       ?allocate@?$allocator@PAD@std@@QAEPAPADI@Z 10029a30 f i UnicodeSupport.obj
 0001:00028a50       ?back@?$vector@PADV?$allocator@PAD@std@@@std@@QAEAAPADXZ 10029a50 f i UnicodeSupport.obj
 0001:00028a80       ?begin@?$vector@PADV?$allocator@PAD@std@@@std@@QAE?AV?$_Vector_iterator@V?$_Vector_val@U?$_Simple_types@PAD@std@@@std@@@2@XZ 10029a80 f i UnicodeSupport.obj
 0001:00028ab0       ?capacity@?$vector@PADV?$allocator@PAD@std@@@std@@QBEIXZ 10029ab0 f i UnicodeSupport.obj
 0001:00028ae0       ?deallocate@?$allocator@PAD@std@@QAEXQAPADI@Z 10029ae0 f i UnicodeSupport.obj
 0001:00028b00       ?empty@?$vector@PADV?$allocator@PAD@std@@@std@@QBE_NXZ 10029b00 f i UnicodeSupport.obj
 0001:00028b40       ?end@?$vector@PADV?$allocator@PAD@std@@@std@@QAE?AV?$_Vector_iterator@V?$_Vector_val@U?$_Simple_types@PAD@std@@@std@@@2@XZ 10029b40 f i UnicodeSupport.obj
 0001:00028b80       ?freelpImeSurface@UnicodeSupport@@AAEXXZ 10029b80 f   UnicodeSupport.obj
 0001:00028c00       ?max_size@?$_Default_allocator_traits@V?$allocator@PAD@std@@@std@@SGIABV?$allocator@PAD@2@@Z 10029c00 f i UnicodeSupport.obj
 0001:00028c10       ?max_size@?$vector@PADV?$allocator@PAD@std@@@std@@QBEIXZ 10029c10 f i UnicodeSupport.obj
 0001:00028c50       ?myDeleteChar@@YGHPAUtagInlineX86StackBuffer@@@Z 10029c50 f   UnicodeSupport.obj
 0001:00028d20       ?myValidChar@@YGHPAUtagInlineX86StackBuffer@@@Z 10029d20 f   UnicodeSupport.obj
 0001:00028e70       ?pop_back@?$vector@PADV?$allocator@PAD@std@@@std@@QAEXXZ 10029e70 f i UnicodeSupport.obj
 0001:00028f00       ?push_back@?$vector@PADV?$allocator@PAD@std@@@std@@QAEX$$QAPAD@Z 10029f00 f i UnicodeSupport.obj
 0001:00029030       ??0IncreaseAISearchMapEntriesLimit@@QAE@K@Z 1002a030 f   LimitCrack.obj
 0001:000290d0       ??0IncreaseAISearchMapEntriesLimit@@QAE@XZ 1002a0d0 f   LimitCrack.obj
 0001:00029160       ??0IncreaseCompositeBuf@@QAE@KK@Z 1002a160 f   LimitCrack.obj
 0001:00029180       ??0IncreaseCompositeBuf@@QAE@XZ 1002a180 f   LimitCrack.obj
 0001:000291a0       ??0IncreaseSfxLimit@@QAE@K@Z 1002a1a0 f   LimitCrack.obj
 0001:000291d0       ??0IncreaseSfxLimit@@QAE@XZ 1002a1d0 f   LimitCrack.obj
 0001:000291f0       ??0IncreaseUnitTypeLimit@@QAE@H@Z 1002a1f0 f   LimitCrack.obj
 0001:00029210       ??0IncreaseUnitTypeLimit@@QAE@XZ 1002a210 f   LimitCrack.obj
 0001:00029230       ??0IncreaseWeaponTypeLimit@@QAE@K@Z 1002a230 f   LimitCrack.obj
 0001:00029250       ??0IncreaseWeaponTypeLimit@@QAE@XZ 1002a250 f   LimitCrack.obj
 0001:00029270       ??0LimitCrack@@QAE@XZ      1002a270 f   LimitCrack.obj
 0001:00029440       ??0UnitLimit@@QAE@K@Z      1002a440 f   LimitCrack.obj
 0001:00029490       ??0UnitLimit@@QAE@XZ       1002a490 f   LimitCrack.obj
 0001:000294d0       ??1IncreaseAISearchMapEntriesLimit@@QAE@XZ 1002a4d0 f   LimitCrack.obj
 0001:00029510       ??1IncreaseCompositeBuf@@QAE@XZ 1002a510 f   LimitCrack.obj
 0001:00029550       ??1IncreaseSfxLimit@@QAE@XZ 1002a550 f   LimitCrack.obj
 0001:000295e0       ??1IncreaseUnitTypeLimit@@QAE@XZ 1002a5e0 f   LimitCrack.obj
 0001:000297f0       ??1IncreaseWeaponTypeLimit@@QAE@XZ 1002a7f0 f   LimitCrack.obj
 0001:00029980       ??1LimitCrack@@QAE@XZ      1002a980 f   LimitCrack.obj
 0001:00029990       ??1UnitLimit@@QAE@XZ       1002a990 f   LimitCrack.obj
 0001:00029a80       ?NewLimit@IncreaseWeaponTypeLimit@@AAEXK@Z 1002aa80 f   LimitCrack.obj
 0001:00029bf0       ?NewUnitLimit@UnitLimit@@AAEXK@Z 1002abf0 f   LimitCrack.obj
 0001:00029d80       ?SetNewLimit@IncreaseSfxLimit@@AAEXKK@Z 1002ad80 f   LimitCrack.obj
 0001:00029ec0       ?Sfx_mallocBufSizeRouter@@YGHPAUtagInlineX86StackBuffer@@@Z 1002aec0 f   LimitCrack.obj
 0001:00029ee0       ?WeaponType_IdLimit@IncreaseWeaponTypeLimit@@AAEXXZ 1002aee0 f   LimitCrack.obj
 0001:0002a000       ?WriteNewLimit@IncreaseCompositeBuf@@AAEXKK@Z 1002b000 f   LimitCrack.obj
 0001:0002a0e0       ?WriteNewLimit@IncreaseUnitTypeLimit@@AAEXK@Z 1002b0e0 f   LimitCrack.obj
 0001:0002a850       ?WriteWeaponAryLen@IncreaseWeaponTypeLimit@@AAEKK@Z 1002b850 f   LimitCrack.obj
 0001:0002a910       ?WriteWeaponAryPtr@IncreaseWeaponTypeLimit@@AAEPAXPAPAX@Z 1002b910 f   LimitCrack.obj
 0001:0002aa70       ??0UnitsMinimap@@QAE@PAVFullScreenMinimap@@HHHHHHHHHHHHHHHHPAH@Z 1002ba70 f   UnitMinimap.obj
 0001:0002aae0       ??0UnitsMinimap@@QAE@PAVFullScreenMinimap@@HHHHHHHHHHHHHHPAH@Z 1002bae0 f   UnitMinimap.obj
 0001:0002ab50       ??1UnitsMinimap@@QAE@XZ    1002bb50 f   UnitMinimap.obj
 0001:0002aba0       ??_GUnitIcon@@QAEPAXI@Z    1002bba0 f i UnitMinimap.obj
 0001:0002abd0       ?DrawUnit@UnitsMinimap@@AAEXPAEPAUtagPOINT@@PAUUnitStruct@@@Z 1002bbd0 f   UnitMinimap.obj
 0001:0002b6b0       ?FreeUnitPicture@UnitsMinimap@@QAEXXZ 1002c6b0 f   UnitMinimap.obj
 0001:0002b9b0       ?GetSurface@UnitsMinimap@@QAEPAEXZ 1002c9b0 f   UnitMinimap.obj
 0001:0002b9c0       ?GetTransparentColor@UnitsMinimap@@QAEHXZ 1002c9c0 f   UnitMinimap.obj
 0001:0002b9e0       ?Init@UnitsMinimap@@QAEXHHHHHHHHHHHHHHPAH@Z 1002c9e0 f   UnitMinimap.obj
 0001:0002bdd0       ?InitHoverPicturePlayerColors@UnitsMinimap@@AAEXHHHHPAPAPAE@Z 1002cdd0 f   UnitMinimap.obj
 0001:0002bf80       ?InitPicturePlayerColors@UnitsMinimap@@AAEXHHPAPAPAE@Z 1002cf80 f   UnitMinimap.obj
 0001:0002c120       ?InitSurface@UnitsMinimap@@QAEPAEPAUIDirectDraw@@H@Z 1002d120 f   UnitMinimap.obj
 0001:0002c200       ?InitUnSelectedPicturePlayerColors@UnitsMinimap@@AAEXHHHHPAPAPAE@Z 1002d200 f   UnitMinimap.obj
 0001:0002c3b0       ?LoadUnitPicture@UnitsMinimap@@QAEXXZ 1002d3b0 f   UnitMinimap.obj
 0001:0002d580       ?LockOn@UnitsMinimap@@QAEPAEPAPAEPAUtagPOINT@@@Z 1002e580 f   UnitMinimap.obj
 0001:0002d5c0       ?NowDrawUnits@UnitsMinimap@@QAEXPAEPAUtagPOINT@@@Z 1002e5c0 f   UnitMinimap.obj
 0001:0002d710       ?NukePicture@UnitsMinimap@@QAEPAEHPAPAEPAUtagPOINT@@@Z 1002e710 f   UnitMinimap.obj
 0001:0002d800       ?ReSet@UnitsMinimap@@QAEXHH@Z 1002e800 f   UnitMinimap.obj
 0001:0002d850       ?ReleaseSurface@UnitsMinimap@@QAEXXZ 1002e850 f   UnitMinimap.obj
 0001:0002d880       ?UnitPicture@UnitsMinimap@@QAEPAEPAUUnitStruct@@HPAPAEPAUtagPOINT@@@Z 1002e880 f   UnitMinimap.obj
 0001:0002e0c0       ?Unlock@UnitsMinimap@@QAEXPAE@Z 1002f0c0 f   UnitMinimap.obj
 0001:0002e0d0       ??0CUnitRotate@@QAE@XZ     1002f0d0 f   unitrotate.obj
 0001:0002e0f0       ??1CUnitRotate@@QAE@XZ     1002f0f0 f   unitrotate.obj
 0001:0002e100       ?Message@CUnitRotate@@QAE_NPAUHWND__@@IIJ@Z 1002f100 f   unitrotate.obj
 0001:0002e150       ?Rotate@CUnitRotate@@AAEXXZ 1002f150 f   unitrotate.obj
 0001:0002e360       ?SetMem@CUnitRotate@@AAEXXZ 1002f360 f   unitrotate.obj
 0001:0002e3c0       ??$?0$$V@?$_Compressed_pair@V?$allocator@PAVGraphicElement@@@std@@V?$_Deque_val@U?$_Deque_simple_types@PAVGraphicElement@@@std@@@2@$00@std@@QAE@U_Zero_then_variadic_args_t@1@@Z 1002f3c0 f i whiteboard.obj
 0001:0002e3e0       ??$?0$$V@?$_Compressed_pair@V?$allocator@PAVGraphicElement@@@std@@V?$_Vector_val@U?$_Simple_types@PAVGraphicElement@@@std@@@2@$00@std@@QAE@U_Zero_then_variadic_args_t@1@@Z 1002f3e0 f i whiteboard.obj
 0001:0002e400       ??$?0$$V@?$_Compressed_pair@V?$allocator@UMMHS@AlliesWhiteboard@@@std@@V?$_Deque_val@U?$_Deque_simple_types@UMMHS@AlliesWhiteboard@@@std@@@2@$00@std@@QAE@U_Zero_then_variadic_args_t@1@@Z 1002f400 f i whiteboard.obj
 0001:0002e420       ??$?0PAVGraphicElement@@@?$allocator@PAPAVGraphicElement@@@std@@QAE@ABV?$allocator@PAVGraphicElement@@@1@@Z 1002f420 f i whiteboard.obj
 0001:0002e430       ??$?0PAVGraphicElement@@@?$allocator@U_Container_proxy@std@@@std@@QAE@ABV?$allocator@PAVGraphicElement@@@1@@Z 1002f430 f i whiteboard.obj
 0001:0002e440       ??$?0UMMHS@AlliesWhiteboard@@@?$allocator@PAUMMHS@AlliesWhiteboard@@@std@@QAE@ABV?$allocator@UMMHS@AlliesWhiteboard@@@1@@Z 1002f440 f i whiteboard.obj
 0001:0002e450       ??$?0UMMHS@AlliesWhiteboard@@@?$allocator@U_Container_proxy@std@@@std@@QAE@ABV?$allocator@UMMHS@AlliesWhiteboard@@@1@@Z 1002f450 f i whiteboard.obj
 0001:0002e460       ??$_Adl_verify_range@PAPAPAVGraphicElement@@PAPAPAV1@@std@@YGXABQAPAPAVGraphicElement@@0@Z 1002f460 f i whiteboard.obj
 0001:0002e470       ??$_Adl_verify_range@PAPAUMMHS@AlliesWhiteboard@@PAPAU12@@std@@YGXABQAPAUMMHS@AlliesWhiteboard@@0@Z 1002f470 f i whiteboard.obj
 0001:0002e480       ??$_Construct_in_place@PAPAVGraphicElement@@AAPAPAV1@@std@@YGXAAPAPAVGraphicElement@@0@Z 1002f480 f i whiteboard.obj
 0001:0002e4c0       ??$_Construct_in_place@PAUMMHS@AlliesWhiteboard@@AAPAU12@@std@@YGXAAPAUMMHS@AlliesWhiteboard@@0@Z 1002f4c0 f i whiteboard.obj
 0001:0002e500       ??$_Copy_memmove@PAPAPAVGraphicElement@@PAPAPAV1@@std@@YGPAPAPAVGraphicElement@@PAPAPAV1@00@Z 1002f500 f i whiteboard.obj
 0001:0002e570       ??$_Copy_memmove@PAPAUMMHS@AlliesWhiteboard@@PAPAU12@@std@@YGPAPAUMMHS@AlliesWhiteboard@@PAPAU12@00@Z 1002f570 f i whiteboard.obj
 0001:0002e5e0       ??$_Destroy_in_place@PAPAVGraphicElement@@@std@@YGXAAPAPAVGraphicElement@@@Z 1002f5e0 f i whiteboard.obj
 0001:0002e5f0       ??$_Destroy_in_place@PAUMMHS@AlliesWhiteboard@@@std@@YGXAAPAUMMHS@AlliesWhiteboard@@@Z 1002f5f0 f i whiteboard.obj
 0001:0002e600       ??$_Destroy_range@PAPAPAVGraphicElement@@PAPAPAV1@@std@@YGXPAPAPAVGraphicElement@@QAPAPAV1@@Z 1002f600 f i whiteboard.obj
 0001:0002e610       ??$_Destroy_range@PAPAUMMHS@AlliesWhiteboard@@PAPAU12@@std@@YGXPAPAUMMHS@AlliesWhiteboard@@QAPAU12@@Z 1002f610 f i whiteboard.obj
 0001:0002e620       ??$_Destroy_range@V?$allocator@PAVGraphicElement@@@std@@@std@@YGXPAPAVGraphicElement@@QAPAV1@AAV?$allocator@PAVGraphicElement@@@0@@Z 1002f620 f i whiteboard.obj
 0001:0002e630       ??$_Emplace_back@AAPAPAVGraphicElement@@@?$_Uninitialized_backout@PAPAPAVGraphicElement@@@std@@QAEXAAPAPAVGraphicElement@@@Z 1002f630 f i whiteboard.obj
 0001:0002e670       ??$_Emplace_back@AAPAUMMHS@AlliesWhiteboard@@@?$_Uninitialized_backout@PAPAUMMHS@AlliesWhiteboard@@@std@@QAEXAAPAUMMHS@AlliesWhiteboard@@@Z 1002f670 f i whiteboard.obj
 0001:0002e6b0       ??$_Emplace_back_internal@PAVGraphicElement@@@?$deque@PAVGraphicElement@@V?$allocator@PAVGraphicElement@@@std@@@std@@AAEX$$QAPAVGraphicElement@@@Z 1002f6b0 f i whiteboard.obj
 0001:0002e7f0       ??$_Get_unwrapped@ABQAPAPAVGraphicElement@@@std@@YG?A_TABQAPAPAVGraphicElement@@@Z 1002f7f0 f i whiteboard.obj
 0001:0002e800       ??$_Get_unwrapped@ABQAPAUMMHS@AlliesWhiteboard@@@std@@YG?A_TABQAPAUMMHS@AlliesWhiteboard@@@Z 1002f800 f i whiteboard.obj
 0001:0002e810       ??$_Get_unwrapped_n@AAPAPAPAVGraphicElement@@H@std@@YG?A_TAAPAPAPAVGraphicElement@@H@Z 1002f810 f i whiteboard.obj
 0001:0002e820       ??$_Get_unwrapped_n@AAPAPAUMMHS@AlliesWhiteboard@@H@std@@YG?A_TAAPAPAUMMHS@AlliesWhiteboard@@H@Z 1002f820 f i whiteboard.obj
 0001:0002e830       ??$_Idl_distance@PAPAPAVGraphicElement@@PAPAPAV1@@std@@YG?A_PABQAPAPAVGraphicElement@@0@Z 1002f830 f i whiteboard.obj
 0001:0002e850       ??$_Idl_distance@PAPAUMMHS@AlliesWhiteboard@@PAPAU12@@std@@YG?A_PABQAPAUMMHS@AlliesWhiteboard@@0@Z 1002f850 f i whiteboard.obj
 0001:0002e870       ??$_Pocma@V?$allocator@PAVGraphicElement@@@std@@@std@@YGXAAV?$allocator@PAVGraphicElement@@@0@0@Z 1002f870 f i whiteboard.obj
 0001:0002e880       ??$_Prev_iter@V?$_Deque_unchecked_iterator@V?$_Deque_val@U?$_Deque_simple_types@UMMHS@AlliesWhiteboard@@@std@@@std@@@std@@@std@@YG?AV?$_Deque_unchecked_iterator@V?$_Deque_val@U?$_Deque_simple_types@UMMHS@AlliesWhiteboard@@@std@@@std@@@0@V10@@Z 1002f880 f i whiteboard.obj
 0001:0002e8a0       ??$_Seek_wrapped@PAPAPAVGraphicElement@@PAPAPAV1@@std@@YGXAAPAPAPAVGraphicElement@@$$QAPAPAPAV1@@Z 1002f8a0 f i whiteboard.obj
 0001:0002e8c0       ??$_Seek_wrapped@PAPAUMMHS@AlliesWhiteboard@@PAPAU12@@std@@YGXAAPAPAUMMHS@AlliesWhiteboard@@$$QAPAPAU12@@Z 1002f8c0 f i whiteboard.obj
 0001:0002e8e0       ??$_To_address@PAPAPAVGraphicElement@@@std@@YG?A_PABQAPAPAVGraphicElement@@@Z 1002f8e0 f i whiteboard.obj
 0001:0002e8f0       ??$_To_address@PAPAUMMHS@AlliesWhiteboard@@@std@@YG?A_PABQAPAUMMHS@AlliesWhiteboard@@@Z 1002f8f0 f i whiteboard.obj
 0001:0002e900       ??$_Unfancy@PAVGraphicElement@@@std@@YGPAPAVGraphicElement@@PAPAV1@@Z 1002f900 f i whiteboard.obj
 0001:0002e910       ??$_Unfancy@UMMHS@AlliesWhiteboard@@@std@@YGPAUMMHS@AlliesWhiteboard@@PAU12@@Z 1002f910 f i whiteboard.obj
 0001:0002e920       ??$_Uninitialized_copy_unchecked@PAPAPAVGraphicElement@@PAPAPAV1@@std@@YGPAPAPAVGraphicElement@@PAPAPAV1@QAPAPAV1@0@Z 1002f920 f i whiteboard.obj
 0001:0002e9b0       ??$_Uninitialized_copy_unchecked@PAPAUMMHS@AlliesWhiteboard@@PAPAU12@@std@@YGPAPAUMMHS@AlliesWhiteboard@@PAPAU12@QAPAU12@0@Z 1002f9b0 f i whiteboard.obj
 0001:0002ea40       ??$_Uninitialized_value_construct_n_unchecked1@PAPAPAVGraphicElement@@I@std@@YGPAPAPAVGraphicElement@@PAPAPAV1@I@Z 1002fa40 f i whiteboard.obj
 0001:0002ea60       ??$_Uninitialized_value_construct_n_unchecked1@PAPAUMMHS@AlliesWhiteboard@@I@std@@YGPAPAUMMHS@AlliesWhiteboard@@PAPAU12@I@Z 1002fa60 f i whiteboard.obj
 0001:0002ea80       ??$_Voidify_iter@PAPAPAVGraphicElement@@@std@@YGPAXPAPAPAVGraphicElement@@@Z 1002fa80 f i whiteboard.obj
 0001:0002ea90       ??$_Voidify_iter@PAPAUMMHS@AlliesWhiteboard@@@std@@YGPAXPAPAUMMHS@AlliesWhiteboard@@@Z 1002fa90 f i whiteboard.obj
 0001:0002eaa0       ??$_Voidify_iter@PAPAVGraphicElement@@@std@@YGPAXPAPAVGraphicElement@@@Z 1002faa0 f i whiteboard.obj
 0001:0002eab0       ??$_Voidify_iter@PAUMMHS@AlliesWhiteboard@@@std@@YGPAXPAUMMHS@AlliesWhiteboard@@@Z 1002fab0 f i whiteboard.obj
 0001:0002eac0       ??$_Zero_range@PAPAPAVGraphicElement@@@std@@YGPAPAPAVGraphicElement@@QAPAPAV1@0@Z 1002fac0 f i whiteboard.obj
 0001:0002eb00       ??$_Zero_range@PAPAUMMHS@AlliesWhiteboard@@@std@@YGPAPAUMMHS@AlliesWhiteboard@@QAPAU12@0@Z 1002fb00 f i whiteboard.obj
 0001:0002eb40       ??$addressof@PAPAVGraphicElement@@@std@@YGPAPAPAVGraphicElement@@AAPAPAV1@@Z 1002fb40 f i whiteboard.obj
 0001:0002eb50       ??$addressof@PAUMMHS@AlliesWhiteboard@@@std@@YGPAPAUMMHS@AlliesWhiteboard@@AAPAU12@@Z 1002fb50 f i whiteboard.obj
 0001:0002eb60       ??$addressof@V?$_Deque_val@U?$_Deque_simple_types@PAVGraphicElement@@@std@@@std@@@std@@YGPAV?$_Deque_val@U?$_Deque_simple_types@PAVGraphicElement@@@std@@@0@AAV10@@Z 1002fb60 f i whiteboard.obj
 0001:0002eb70       ??$addressof@V?$_Deque_val@U?$_Deque_simple_types@UMMHS@AlliesWhiteboard@@@std@@@std@@@std@@YGPAV?$_Deque_val@U?$_Deque_simple_types@UMMHS@AlliesWhiteboard@@@std@@@0@AAV10@@Z 1002fb70 f i whiteboard.obj
 0001:0002eb80       ??$addressof@V?$vector@PAVGraphicElement@@V?$allocator@PAVGraphicElement@@@std@@@std@@@std@@YGPAV?$vector@PAVGraphicElement@@V?$allocator@PAVGraphicElement@@@std@@@0@AAV10@@Z 1002fb80 f i whiteboard.obj
 0001:0002eb90       ??$construct@PAVGraphicElement@@PAV1@@?$_Default_allocator_traits@V?$allocator@PAVGraphicElement@@@std@@@std@@SGXAAV?$allocator@PAVGraphicElement@@@1@QAPAVGraphicElement@@$$QAPAV3@@Z 1002fb90 f i whiteboard.obj
 0001:0002ebd0       ??$construct@UMMHS@AlliesWhiteboard@@ABU12@@?$_Default_allocator_traits@V?$allocator@UMMHS@AlliesWhiteboard@@@std@@@std@@SGXAAV?$allocator@UMMHS@AlliesWhiteboard@@@1@QAUMMHS@AlliesWhiteboard@@ABU34@@Z 1002fbd0 f i whiteboard.obj
 0001:0002ec10       ??$destroy@PAVGraphicElement@@@?$_Default_allocator_traits@V?$allocator@PAVGraphicElement@@@std@@@std@@SGXAAV?$allocator@PAVGraphicElement@@@1@QAPAVGraphicElement@@@Z 1002fc10 f i whiteboard.obj
 0001:0002ec20       ??$destroy@UMMHS@AlliesWhiteboard@@@?$_Default_allocator_traits@V?$allocator@UMMHS@AlliesWhiteboard@@@std@@@std@@SGXAAV?$allocator@UMMHS@AlliesWhiteboard@@@1@QAUMMHS@AlliesWhiteboard@@@Z 1002fc20 f i whiteboard.obj
 0001:0002ec30       ??$emplace_front@ABUMMHS@AlliesWhiteboard@@@?$deque@UMMHS@AlliesWhiteboard@@V?$allocator@UMMHS@AlliesWhiteboard@@@std@@@std@@QAE?A_TABUMMHS@AlliesWhiteboard@@@Z 1002fc30 f i whiteboard.obj
 0001:0002ed90       ??$forward@AAPAPAVGraphicElement@@@std@@YGAAPAPAVGraphicElement@@AAPAPAV1@@Z 1002fd90 f i whiteboard.obj
 0001:0002eda0       ??$forward@AAPAUMMHS@AlliesWhiteboard@@@std@@YGAAPAUMMHS@AlliesWhiteboard@@AAPAU12@@Z 1002fda0 f i whiteboard.obj
 0001:0002edb0       ??$forward@ABUMMHS@AlliesWhiteboard@@@std@@YGABUMMHS@AlliesWhiteboard@@ABU12@@Z 1002fdb0 f i whiteboard.obj
 0001:0002edc0       ??$forward@PAPAPAVGraphicElement@@@std@@YG$$QAPAPAPAVGraphicElement@@AAPAPAPAV1@@Z 1002fdc0 f i whiteboard.obj
 0001:0002edd0       ??$forward@PAPAUMMHS@AlliesWhiteboard@@@std@@YG$$QAPAPAUMMHS@AlliesWhiteboard@@AAPAPAU12@@Z 1002fdd0 f i whiteboard.obj
 0001:0002ede0       ??$forward@PAVGraphicElement@@@std@@YG$$QAPAVGraphicElement@@AAPAV1@@Z 1002fde0 f i whiteboard.obj
 0001:0002edf0       ??$move@AAPAVGraphicElement@@@std@@YG$$QAPAVGraphicElement@@AAPAV1@@Z 1002fdf0 f i whiteboard.obj
 0001:0002ee00       ??$move@AAV?$allocator@PAVGraphicElement@@@std@@@std@@YG$$QAV?$allocator@PAVGraphicElement@@@0@AAV10@@Z 1002fe00 f i whiteboard.obj
 0001:0002ee10       ??$uninitialized_copy@PAPAPAVGraphicElement@@PAPAPAV1@@std@@YGPAPAPAVGraphicElement@@QAPAPAV1@0PAPAPAV1@@Z 1002fe10 f i whiteboard.obj
 0001:0002ee80       ??$uninitialized_copy@PAPAUMMHS@AlliesWhiteboard@@PAPAU12@@std@@YGPAPAUMMHS@AlliesWhiteboard@@QAPAU12@0PAPAU12@@Z 1002fe80 f i whiteboard.obj
 0001:0002eef0       ??0?$_Deque_unchecked_const_iterator@V?$_Deque_val@U?$_Deque_simple_types@PAVGraphicElement@@@std@@@std@@@std@@QAE@IPBU_Container_base12@1@@Z 1002fef0 f i whiteboard.obj
 0001:0002ef20       ??0?$_Deque_unchecked_const_iterator@V?$_Deque_val@U?$_Deque_simple_types@UMMHS@AlliesWhiteboard@@@std@@@std@@@std@@QAE@IPBU_Container_base12@1@@Z 1002ff20 f i whiteboard.obj
 0001:0002ef50       ??0?$_Deque_unchecked_iterator@V?$_Deque_val@U?$_Deque_simple_types@PAVGraphicElement@@@std@@@std@@@std@@QAE@IPBU_Container_base12@1@@Z 1002ff50 f i whiteboard.obj
 0001:0002ef70       ??0?$_Deque_unchecked_iterator@V?$_Deque_val@U?$_Deque_simple_types@UMMHS@AlliesWhiteboard@@@std@@@std@@@std@@QAE@IPBU_Container_base12@1@@Z 1002ff70 f i whiteboard.obj
 0001:0002ef90       ??0?$_Deque_val@U?$_Deque_simple_types@PAVGraphicElement@@@std@@@std@@QAE@XZ 1002ff90 f i whiteboard.obj
 0001:0002efd0       ??0?$_Deque_val@U?$_Deque_simple_types@UMMHS@AlliesWhiteboard@@@std@@@std@@QAE@XZ 1002ffd0 f i whiteboard.obj
 0001:0002f010       ??0?$_Uninitialized_backout@PAPAPAVGraphicElement@@@std@@QAE@PAPAPAVGraphicElement@@@Z 10030010 f i whiteboard.obj
 0001:0002f040       ??0?$_Uninitialized_backout@PAPAUMMHS@AlliesWhiteboard@@@std@@QAE@PAPAUMMHS@AlliesWhiteboard@@@Z 10030040 f i whiteboard.obj
 0001:0002f070       ??0?$_Vector_val@U?$_Simple_types@PAVGraphicElement@@@std@@@std@@QAE@XZ 10030070 f i whiteboard.obj
 0001:0002f0a0       ??0?$allocator@PAVGraphicElement@@@std@@QAE@XZ 100300a0 f i whiteboard.obj
 0001:0002f0b0       ??0?$allocator@UMMHS@AlliesWhiteboard@@@std@@QAE@XZ 100300b0 f i whiteboard.obj
 0001:0002f0c0       ??0?$deque@PAVGraphicElement@@V?$allocator@PAVGraphicElement@@@std@@@std@@QAE@XZ 100300c0 f i whiteboard.obj
 0001:0002f100       ??0?$deque@UMMHS@AlliesWhiteboard@@V?$allocator@UMMHS@AlliesWhiteboard@@@std@@@std@@QAE@XZ 10030100 f i whiteboard.obj
 0001:0002f140       ??0?$vector@PAVGraphicElement@@V?$allocator@PAVGraphicElement@@@std@@@std@@QAE@XZ 10030140 f i whiteboard.obj
 0001:0002f170       ??0AlliesWhiteboard@@QAE@H@Z 10030170 f   whiteboard.obj
 0001:0002f640       ??0DeleteGraphic@@QAE@HHD@Z 10030640 f i whiteboard.obj
 0001:0002f670       ??0GraphicElement@@QAE@HHHD@Z 10030670 f i whiteboard.obj
 0001:0002f6b0       ??0GraphicLine@@QAE@HHHHD@Z 100306b0 f i whiteboard.obj
 0001:0002f700       ??0GraphicMoveText@@QAE@HHHHD@Z 10030700 f i whiteboard.obj
 0001:0002f750       ??0GraphicText@@QAE@HHPADD@Z 10030750 f i whiteboard.obj
 0001:0002f7f0       ??0GraphicTextEdited@@QAE@HHPADD@Z 100307f0 f i whiteboard.obj
 0001:0002f890       ??1?$_Uninitialized_backout@PAPAPAVGraphicElement@@@std@@QAE@XZ 10030890 f i whiteboard.obj
 0001:0002f8b0       ??1?$_Uninitialized_backout@PAPAUMMHS@AlliesWhiteboard@@@std@@QAE@XZ 100308b0 f i whiteboard.obj
 0001:0002f8d0       ??1?$deque@PAVGraphicElement@@V?$allocator@PAVGraphicElement@@@std@@@std@@QAE@XZ 100308d0 f i whiteboard.obj
 0001:0002f920       ??1?$deque@UMMHS@AlliesWhiteboard@@V?$allocator@UMMHS@AlliesWhiteboard@@@std@@@std@@QAE@XZ 10030920 f i whiteboard.obj
 0001:0002f970       ??1?$vector@PAVGraphicElement@@V?$allocator@PAVGraphicElement@@@std@@@std@@QAE@XZ 10030970 f i whiteboard.obj
 0001:0002f990       ??1AlliesWhiteboard@@QAE@XZ 10030990 f   whiteboard.obj
 0001:0002fa50       ??1DeleteGraphic@@UAE@XZ   10030a50 f i whiteboard.obj
 0001:0002fa70       ??1GraphicElement@@UAE@XZ  10030a70 f i whiteboard.obj
 0001:0002fa90       ??1GraphicLine@@UAE@XZ     10030a90 f i whiteboard.obj
 0001:0002fab0       ??1GraphicMoveText@@UAE@XZ 10030ab0 f i whiteboard.obj
 0001:0002fad0       ??1GraphicText@@UAE@XZ     10030ad0 f i whiteboard.obj
 0001:0002fb10       ??1GraphicTextEdited@@UAE@XZ 10030b10 f i whiteboard.obj
 0001:0002fb50       ??4?$vector@PAVGraphicElement@@V?$allocator@PAVGraphicElement@@@std@@@std@@QAEAAV01@$$QAV01@@Z 10030b50 f i whiteboard.obj
 0001:0002fbc0       ??A?$deque@UMMHS@AlliesWhiteboard@@V?$allocator@UMMHS@AlliesWhiteboard@@@std@@@std@@QAEAAUMMHS@AlliesWhiteboard@@I@Z 10030bc0 f i whiteboard.obj
 0001:0002fc00       ??A?$vector@PAVGraphicElement@@V?$allocator@PAVGraphicElement@@@std@@@std@@QAEAAPAVGraphicElement@@I@Z 10030c00 f i whiteboard.obj
 0001:0002fc20       ??D?$_Deque_unchecked_const_iterator@V?$_Deque_val@U?$_Deque_simple_types@PAVGraphicElement@@@std@@@std@@@std@@QBEABQAVGraphicElement@@XZ 10030c20 f i whiteboard.obj
 0001:0002fc70       ??D?$_Deque_unchecked_const_iterator@V?$_Deque_val@U?$_Deque_simple_types@UMMHS@AlliesWhiteboard@@@std@@@std@@@std@@QBEABUMMHS@AlliesWhiteboard@@XZ 10030c70 f i whiteboard.obj
 0001:0002fcc0       ??D?$_Deque_unchecked_iterator@V?$_Deque_val@U?$_Deque_simple_types@PAVGraphicElement@@@std@@@std@@@std@@QBEAAPAVGraphicElement@@XZ 10030cc0 f i whiteboard.obj
 0001:0002fce0       ??D?$_Deque_unchecked_iterator@V?$_Deque_val@U?$_Deque_simple_types@UMMHS@AlliesWhiteboard@@@std@@@std@@@std@@QBEAAUMMHS@AlliesWhiteboard@@XZ 10030ce0 f i whiteboard.obj
 0001:0002fd00       ??F?$_Deque_unchecked_const_iterator@V?$_Deque_val@U?$_Deque_simple_types@UMMHS@AlliesWhiteboard@@@std@@@std@@@std@@QAEAAV01@XZ 10030d00 f i whiteboard.obj
 0001:0002fd20       ??F?$_Deque_unchecked_iterator@V?$_Deque_val@U?$_Deque_simple_types@UMMHS@AlliesWhiteboard@@@std@@@std@@@std@@QAEAAV01@XZ 10030d20 f i whiteboard.obj
 0001:0002fd40       ??H?$_Deque_unchecked_iterator@V?$_Deque_val@U?$_Deque_simple_types@UMMHS@AlliesWhiteboard@@@std@@@std@@@std@@QBE?AV01@H@Z 10030d40 f i whiteboard.obj
 0001:0002fd80       ??Y?$_Deque_unchecked_const_iterator@V?$_Deque_val@U?$_Deque_simple_types@UMMHS@AlliesWhiteboard@@@std@@@std@@@std@@QAEAAV01@H@Z 10030d80 f i whiteboard.obj
 0001:0002fda0       ??Y?$_Deque_unchecked_iterator@V?$_Deque_val@U?$_Deque_simple_types@UMMHS@AlliesWhiteboard@@@std@@@std@@@std@@QAEAAV01@H@Z 10030da0 f i whiteboard.obj
 0001:0002fdc0       ??_EDeleteGraphic@@UAEPAXI@Z 10030dc0 f i whiteboard.obj
 0001:0002fdc0       ??_GDeleteGraphic@@UAEPAXI@Z 10030dc0 f i whiteboard.obj
 0001:0002fdf0       ??_EGraphicElement@@UAEPAXI@Z 10030df0 f i whiteboard.obj
 0001:0002fdf0       ??_GGraphicElement@@UAEPAXI@Z 10030df0 f i whiteboard.obj
 0001:0002fe20       ??_EGraphicLine@@UAEPAXI@Z 10030e20 f i whiteboard.obj
 0001:0002fe20       ??_GGraphicLine@@UAEPAXI@Z 10030e20 f i whiteboard.obj
 0001:0002fe50       ??_EGraphicMoveText@@UAEPAXI@Z 10030e50 f i whiteboard.obj
 0001:0002fe50       ??_GGraphicMoveText@@UAEPAXI@Z 10030e50 f i whiteboard.obj
 0001:0002fe80       ??_EGraphicText@@UAEPAXI@Z 10030e80 f i whiteboard.obj
 0001:0002fe80       ??_GGraphicText@@UAEPAXI@Z 10030e80 f i whiteboard.obj
 0001:0002feb0       ??_EGraphicTextEdited@@UAEPAXI@Z 10030eb0 f i whiteboard.obj
 0001:0002feb0       ??_GGraphicTextEdited@@UAEPAXI@Z 10030eb0 f i whiteboard.obj
 0001:0002fee0       ?AddTextMarker@AlliesWhiteboard@@AAEXHHPADD@Z 10030ee0 f   whiteboard.obj
 0001:0002ff90       ?AddTextMarker@AlliesWhiteboard@@AAEXXZ 10030f90 f   whiteboard.obj
 0001:000300d0       ?Blit@AlliesWhiteboard@@QAEXPAE@Z 100310d0 f   whiteboard.obj
 0001:00030140       ?Clip_Line@AlliesWhiteboard@@QAEHAAH000@Z 10031140 f   whiteboard.obj
 0001:00030c40       ?DeleteMarker@AlliesWhiteboard@@AAEXHH@Z 10031c40 f   whiteboard.obj
 0001:00030cf0       ?Draw@GraphicElement@@UAEXXZ 10031cf0 f i whiteboard.obj
 0001:00030d00       ?Draw@GraphicLine@@UAEXXZ  10031d00 f i whiteboard.obj
 0001:00030d10       ?Draw@GraphicText@@UAEXXZ  10031d10 f i whiteboard.obj
 0001:00030d20       ?DrawFreeLine@AlliesWhiteboard@@QAEXHHHHDPADH@Z 10031d20 f   whiteboard.obj
 0001:00030d70       ?DrawLine@AlliesWhiteboard@@QAEXHHHHDPADH@Z 10031d70 f   whiteboard.obj
 0001:00030e20       ?DrawMarkers@AlliesWhiteboard@@AAEXPAE@Z 10031e20 f   whiteboard.obj
 0001:00030f70       ?DrawMinimapMarkers@AlliesWhiteboard@@QAEXPADH_N@Z 10031f70 f   whiteboard.obj
 0001:000311f0       ?DrawRotateRect@AlliesWhiteboard@@AAEXHHHPADH@Z 100321f0 f   whiteboard.obj
 0001:000314d0       ?DrawTextInput@AlliesWhiteboard@@AAEXPAE@Z 100324d0 f   whiteboard.obj
 0001:00031730       ?DrawTextMarker@AlliesWhiteboard@@AAEXPAEHHPADD@Z 10032730 f   whiteboard.obj
 0001:00031a40       ?Draw_Line@AlliesWhiteboard@@QAEHHHHHEPAEH@Z 10032a40 f   whiteboard.obj
 0001:00031b80       ?EchoMarker@AlliesWhiteboard@@AAEXPAD@Z 10032b80 f   whiteboard.obj
 0001:00031bd0       ?EreaseArea@AlliesWhiteboard@@AAEXHH@Z 10032bd0 f   whiteboard.obj
 0001:00031cb0       ?GenerateLookupTables@AlliesWhiteboard@@AAEXXZ 10032cb0 f   whiteboard.obj
 0001:00031d40       ?GetMapX@AlliesWhiteboard@@QAEHXZ 10032d40 f   whiteboard.obj
 0001:00031d60       ?GetMapY@AlliesWhiteboard@@QAEHXZ 10032d60 f   whiteboard.obj
 0001:00031d80       ?GetMarkers@AlliesWhiteboard@@QAEXPAUMarkerArray@@@Z 10032d80 f   whiteboard.obj
 0001:00031e70       ?GetTextElementAt@AlliesWhiteboard@@AAEPAVGraphicElement@@HHH@Z 10032e70 f   whiteboard.obj
 0001:00031f60       ?InstantScrollTo@AlliesWhiteboard@@QAEXHH@Z 10032f60 f   whiteboard.obj
 0001:00031fb0       ?Line@AlliesWhiteboard@@QAEXHHHHEPADH@Z 10032fb0 f   whiteboard.obj
 0001:00032060       ?LockBlit@AlliesWhiteboard@@QAEXPADH@Z 10033060 f   whiteboard.obj
 0001:00032250       ?Message@AlliesWhiteboard@@QAE_NPAUHWND__@@IIJ@Z 10033250 f   whiteboard.obj
 0001:00032b50       ?MouseMove@AlliesWhiteboard@@AAEXHHHH@Z 10033b50 f   whiteboard.obj
 0001:00032ca0       ?ReceiveMarkers@AlliesWhiteboard@@AAEXXZ 10033ca0 f   whiteboard.obj
 0001:00033080       ?RestoreAll@AlliesWhiteboard@@AAEXXZ 10034080 f   whiteboard.obj
 0001:00033130       ?ScrollToCenter@AlliesWhiteboard@@QAEXHH@Z 10034130 f   whiteboard.obj
 0001:000331d0       ?SendMarkers@AlliesWhiteboard@@AAEXXZ 100341d0 f   whiteboard.obj
 0001:000336e0       ?Set@AlliesWhiteboard@@QAEXH@Z 100346e0 f   whiteboard.obj
 0001:00033700       ?TextInputChar@AlliesWhiteboard@@AAEXD@Z 10034700 f   whiteboard.obj
 0001:00033780       ?TextInputKeyDown@AlliesWhiteboard@@AAEXH@Z 10034780 f   whiteboard.obj
 0001:00033940       ?_Get_data@?$deque@PAVGraphicElement@@V?$allocator@PAVGraphicElement@@@std@@@std@@AAEAAV?$_Deque_val@U?$_Deque_simple_types@PAVGraphicElement@@@std@@@2@XZ 10034940 f i whiteboard.obj
 0001:00033950       ?_Get_data@?$deque@PAVGraphicElement@@V?$allocator@PAVGraphicElement@@@std@@@std@@ABEABV?$_Deque_val@U?$_Deque_simple_types@PAVGraphicElement@@@std@@@2@XZ 10034950 f i whiteboard.obj
 0001:00033960       ?_Get_data@?$deque@UMMHS@AlliesWhiteboard@@V?$allocator@UMMHS@AlliesWhiteboard@@@std@@@std@@AAEAAV?$_Deque_val@U?$_Deque_simple_types@UMMHS@AlliesWhiteboard@@@std@@@2@XZ 10034960 f i whiteboard.obj
 0001:00033970       ?_Get_data@?$deque@UMMHS@AlliesWhiteboard@@V?$allocator@UMMHS@AlliesWhiteboard@@@std@@@std@@ABEABV?$_Deque_val@U?$_Deque_simple_types@UMMHS@AlliesWhiteboard@@@std@@@2@XZ 10034970 f i whiteboard.obj
 0001:00033980       ?_Get_first@?$_Compressed_pair@V?$allocator@PAVGraphicElement@@@std@@V?$_Deque_val@U?$_Deque_simple_types@PAVGraphicElement@@@std@@@2@$00@std@@QAEAAV?$allocator@PAVGraphicElement@@@2@XZ 10034980 f i whiteboard.obj
 0001:00033990       ?_Get_first@?$_Compressed_pair@V?$allocator@PAVGraphicElement@@@std@@V?$_Deque_val@U?$_Deque_simple_types@PAVGraphicElement@@@std@@@2@$00@std@@QBEABV?$allocator@PAVGraphicElement@@@2@XZ 10034990 f i whiteboard.obj
 0001:000339a0       ?_Get_first@?$_Compressed_pair@V?$allocator@PAVGraphicElement@@@std@@V?$_Vector_val@U?$_Simple_types@PAVGraphicElement@@@std@@@2@$00@std@@QAEAAV?$allocator@PAVGraphicElement@@@2@XZ 100349a0 f i whiteboard.obj
 0001:000339b0       ?_Get_first@?$_Compressed_pair@V?$allocator@UMMHS@AlliesWhiteboard@@@std@@V?$_Deque_val@U?$_Deque_simple_types@UMMHS@AlliesWhiteboard@@@std@@@2@$00@std@@QAEAAV?$allocator@UMMHS@AlliesWhiteboard@@@2@XZ 100349b0 f i whiteboard.obj
 0001:000339c0       ?_Get_first@?$_Compressed_pair@V?$allocator@UMMHS@AlliesWhiteboard@@@std@@V?$_Deque_val@U?$_Deque_simple_types@UMMHS@AlliesWhiteboard@@@std@@@2@$00@std@@QBEABV?$allocator@UMMHS@AlliesWhiteboard@@@2@XZ 100349c0 f i whiteboard.obj
 0001:000339d0       ?_Getal@?$deque@PAVGraphicElement@@V?$allocator@PAVGraphicElement@@@std@@@std@@AAEAAV?$allocator@PAVGraphicElement@@@2@XZ 100349d0 f i whiteboard.obj
 0001:000339f0       ?_Getal@?$deque@PAVGraphicElement@@V?$allocator@PAVGraphicElement@@@std@@@std@@ABEABV?$allocator@PAVGraphicElement@@@2@XZ 100349f0 f i whiteboard.obj
 0001:00033a10       ?_Getal@?$deque@UMMHS@AlliesWhiteboard@@V?$allocator@UMMHS@AlliesWhiteboard@@@std@@@std@@AAEAAV?$allocator@UMMHS@AlliesWhiteboard@@@2@XZ 10034a10 f i whiteboard.obj
 0001:00033a30       ?_Getal@?$deque@UMMHS@AlliesWhiteboard@@V?$allocator@UMMHS@AlliesWhiteboard@@@std@@@std@@ABEABV?$allocator@UMMHS@AlliesWhiteboard@@@2@XZ 10034a30 f i whiteboard.obj
 0001:00033a50       ?_Getal@?$vector@PAVGraphicElement@@V?$allocator@PAVGraphicElement@@@std@@@std@@AAEAAV?$allocator@PAVGraphicElement@@@2@XZ 10034a50 f i whiteboard.obj
 0001:00033a70       ?_Getblock@?$_Deque_val@U?$_Deque_simple_types@PAVGraphicElement@@@std@@@std@@QBEII@Z 10034a70 f i whiteboard.obj
 0001:00033a90       ?_Getblock@?$_Deque_val@U?$_Deque_simple_types@UMMHS@AlliesWhiteboard@@@std@@@std@@QBEII@Z 10034a90 f i whiteboard.obj
 0001:00033ab0       ?_Getblock@?$deque@PAVGraphicElement@@V?$allocator@PAVGraphicElement@@@std@@@std@@ABEII@Z 10034ab0 f i whiteboard.obj
 0001:00033ad0       ?_Getblock@?$deque@UMMHS@AlliesWhiteboard@@V?$allocator@UMMHS@AlliesWhiteboard@@@std@@@std@@ABEII@Z 10034ad0 f i whiteboard.obj
 0001:00033af0       ?_Growmap@?$deque@PAVGraphicElement@@V?$allocator@PAVGraphicElement@@@std@@@std@@AAEXI@Z 10034af0 f i whiteboard.obj
 0001:00033d30       ?_Growmap@?$deque@UMMHS@AlliesWhiteboard@@V?$allocator@UMMHS@AlliesWhiteboard@@@std@@@std@@AAEXI@Z 10034d30 f i whiteboard.obj
 0001:00033f60       ?_Map@?$deque@PAVGraphicElement@@V?$allocator@PAVGraphicElement@@@std@@@std@@AAEAAPAPAPAVGraphicElement@@XZ 10034f60 f i whiteboard.obj
 0001:00033f80       ?_Map@?$deque@UMMHS@AlliesWhiteboard@@V?$allocator@UMMHS@AlliesWhiteboard@@@std@@@std@@AAEAAPAPAUMMHS@AlliesWhiteboard@@XZ 10034f80 f i whiteboard.obj
 0001:00033fa0       ?_Mapsize@?$deque@PAVGraphicElement@@V?$allocator@PAVGraphicElement@@@std@@@std@@AAEAAIXZ 10034fa0 f i whiteboard.obj
 0001:00033fc0       ?_Mapsize@?$deque@UMMHS@AlliesWhiteboard@@V?$allocator@UMMHS@AlliesWhiteboard@@@std@@@std@@AAEAAIXZ 10034fc0 f i whiteboard.obj
 0001:00033fe0       ?_Myoff@?$deque@PAVGraphicElement@@V?$allocator@PAVGraphicElement@@@std@@@std@@AAEAAIXZ 10034fe0 f i whiteboard.obj
 0001:00034000       ?_Myoff@?$deque@UMMHS@AlliesWhiteboard@@V?$allocator@UMMHS@AlliesWhiteboard@@@std@@@std@@AAEAAIXZ 10035000 f i whiteboard.obj
 0001:00034020       ?_Mysize@?$deque@PAVGraphicElement@@V?$allocator@PAVGraphicElement@@@std@@@std@@AAEAAIXZ 10035020 f i whiteboard.obj
 0001:00034040       ?_Mysize@?$deque@PAVGraphicElement@@V?$allocator@PAVGraphicElement@@@std@@@std@@ABEABIXZ 10035040 f i whiteboard.obj
 0001:00034060       ?_Mysize@?$deque@UMMHS@AlliesWhiteboard@@V?$allocator@UMMHS@AlliesWhiteboard@@@std@@@std@@AAEAAIXZ 10035060 f i whiteboard.obj
 0001:00034080       ?_Mysize@?$deque@UMMHS@AlliesWhiteboard@@V?$allocator@UMMHS@AlliesWhiteboard@@@std@@@std@@ABEABIXZ 10035080 f i whiteboard.obj
 0001:000340a0       ?_Orphan_all@?$deque@PAVGraphicElement@@V?$allocator@PAVGraphicElement@@@std@@@std@@AAEXXZ 100350a0 f i whiteboard.obj
 0001:000340c0       ?_Orphan_all@?$deque@UMMHS@AlliesWhiteboard@@V?$allocator@UMMHS@AlliesWhiteboard@@@std@@@std@@AAEXXZ 100350c0 f i whiteboard.obj
 0001:000340e0       ?_Release@?$_Uninitialized_backout@PAPAPAVGraphicElement@@@std@@QAEPAPAPAVGraphicElement@@XZ 100350e0 f i whiteboard.obj
 0001:00034100       ?_Release@?$_Uninitialized_backout@PAPAUMMHS@AlliesWhiteboard@@@std@@QAEPAPAUMMHS@AlliesWhiteboard@@XZ 10035100 f i whiteboard.obj
 0001:00034120       ?_Take_contents@?$_Vector_val@U?$_Simple_types@PAVGraphicElement@@@std@@@std@@QAEXAAV12@@Z 10035120 f i whiteboard.obj
 0001:00034180       ?_Tidy@?$deque@PAVGraphicElement@@V?$allocator@PAVGraphicElement@@@std@@@std@@AAEXXZ 10035180 f i whiteboard.obj
 0001:000342a0       ?_Tidy@?$deque@UMMHS@AlliesWhiteboard@@V?$allocator@UMMHS@AlliesWhiteboard@@@std@@@std@@AAEXXZ 100352a0 f i whiteboard.obj
 0001:000343c0       ?_Tidy@?$vector@PAVGraphicElement@@V?$allocator@PAVGraphicElement@@@std@@@std@@AAEXXZ 100353c0 f i whiteboard.obj
 0001:00034480       ?_Unchecked_begin@?$deque@PAVGraphicElement@@V?$allocator@PAVGraphicElement@@@std@@@std@@QAE?AV?$_Deque_unchecked_iterator@V?$_Deque_val@U?$_Deque_simple_types@PAVGraphicElement@@@std@@@std@@@2@XZ 10035480 f i whiteboard.obj
 0001:000344c0       ?_Unchecked_begin@?$deque@UMMHS@AlliesWhiteboard@@V?$allocator@UMMHS@AlliesWhiteboard@@@std@@@std@@QAE?AV?$_Deque_unchecked_iterator@V?$_Deque_val@U?$_Deque_simple_types@UMMHS@AlliesWhiteboard@@@std@@@std@@@2@XZ 100354c0 f i whiteboard.obj
 0001:00034500       ?_Unchecked_end@?$deque@UMMHS@AlliesWhiteboard@@V?$allocator@UMMHS@AlliesWhiteboard@@@std@@@std@@QAE?AV?$_Deque_unchecked_iterator@V?$_Deque_val@U?$_Deque_simple_types@UMMHS@AlliesWhiteboard@@@std@@@std@@@2@XZ 10035500 f i whiteboard.obj
 0001:00034540       ?_Xlen@?$deque@PAVGraphicElement@@V?$allocator@PAVGraphicElement@@@std@@@std@@ABEXXZ 10035540 f i whiteboard.obj
 0001:00034560       ?_Xlen@?$deque@UMMHS@AlliesWhiteboard@@V?$allocator@UMMHS@AlliesWhiteboard@@@std@@@std@@ABEXXZ 10035560 f i whiteboard.obj
 0001:00034580       ?allocate@?$allocator@PAPAVGraphicElement@@@std@@QAEPAPAPAVGraphicElement@@I@Z 10035580 f i whiteboard.obj
 0001:000345a0       ?allocate@?$allocator@PAUMMHS@AlliesWhiteboard@@@std@@QAEPAPAUMMHS@AlliesWhiteboard@@I@Z 100355a0 f i whiteboard.obj
 0001:000345c0       ?allocate@?$allocator@PAVGraphicElement@@@std@@QAEPAPAVGraphicElement@@I@Z 100355c0 f i whiteboard.obj
 0001:000345e0       ?allocate@?$allocator@UMMHS@AlliesWhiteboard@@@std@@QAEPAUMMHS@AlliesWhiteboard@@I@Z 100355e0 f i whiteboard.obj
 0001:00034600       ?back@?$deque@UMMHS@AlliesWhiteboard@@V?$allocator@UMMHS@AlliesWhiteboard@@@std@@@std@@QAEAAUMMHS@AlliesWhiteboard@@XZ 10035600 f i whiteboard.obj
 0001:00034660       ?clear@?$deque@UMMHS@AlliesWhiteboard@@V?$allocator@UMMHS@AlliesWhiteboard@@@std@@@std@@QAEXXZ 10035660 f i whiteboard.obj
 0001:00034680       ?deallocate@?$allocator@PAPAVGraphicElement@@@std@@QAEXQAPAPAVGraphicElement@@I@Z 10035680 f i whiteboard.obj
 0001:000346a0       ?deallocate@?$allocator@PAUMMHS@AlliesWhiteboard@@@std@@QAEXQAPAUMMHS@AlliesWhiteboard@@I@Z 100356a0 f i whiteboard.obj
 0001:000346c0       ?deallocate@?$allocator@PAVGraphicElement@@@std@@QAEXQAPAVGraphicElement@@I@Z 100356c0 f i whiteboard.obj
 0001:000346e0       ?deallocate@?$allocator@UMMHS@AlliesWhiteboard@@@std@@QAEXQAUMMHS@AlliesWhiteboard@@I@Z 100356e0 f i whiteboard.obj
 0001:00034700       ?empty@?$deque@PAVGraphicElement@@V?$allocator@PAVGraphicElement@@@std@@@std@@QBE_NXZ 10035700 f i whiteboard.obj
 0001:00034730       ?empty@?$deque@UMMHS@AlliesWhiteboard@@V?$allocator@UMMHS@AlliesWhiteboard@@@std@@@std@@QBE_NXZ 10035730 f i whiteboard.obj
 0001:00034760       ?front@?$deque@PAVGraphicElement@@V?$allocator@PAVGraphicElement@@@std@@@std@@QAEAAPAVGraphicElement@@XZ 10035760 f i whiteboard.obj
 0001:00034780       ?max_size@?$_Default_allocator_traits@V?$allocator@PAVGraphicElement@@@std@@@std@@SGIABV?$allocator@PAVGraphicElement@@@2@@Z 10035780 f i whiteboard.obj
 0001:00034790       ?max_size@?$_Default_allocator_traits@V?$allocator@UMMHS@AlliesWhiteboard@@@std@@@std@@SGIABV?$allocator@UMMHS@AlliesWhiteboard@@@2@@Z 10035790 f i whiteboard.obj
 0001:000347a0       ?max_size@?$deque@PAVGraphicElement@@V?$allocator@PAVGraphicElement@@@std@@@std@@QBEIXZ 100357a0 f i whiteboard.obj
 0001:000347e0       ?max_size@?$deque@UMMHS@AlliesWhiteboard@@V?$allocator@UMMHS@AlliesWhiteboard@@@std@@@std@@QBEIXZ 100357e0 f i whiteboard.obj
 0001:00034820       ?pop_back@?$deque@PAVGraphicElement@@V?$allocator@PAVGraphicElement@@@std@@@std@@QAEXXZ 10035820 f i whiteboard.obj
 0001:000348f0       ?pop_back@?$deque@UMMHS@AlliesWhiteboard@@V?$allocator@UMMHS@AlliesWhiteboard@@@std@@@std@@QAEXXZ 100358f0 f i whiteboard.obj
 0001:000349c0       ?pop_front@?$deque@PAVGraphicElement@@V?$allocator@PAVGraphicElement@@@std@@@std@@QAEXXZ 100359c0 f i whiteboard.obj
 0001:00034a90       ?push_back@?$deque@PAVGraphicElement@@V?$allocator@PAVGraphicElement@@@std@@@std@@QAEX$$QAPAVGraphicElement@@@Z 10035a90 f i whiteboard.obj
 0001:00034ac0       ?push_front@?$deque@UMMHS@AlliesWhiteboard@@V?$allocator@UMMHS@AlliesWhiteboard@@@std@@@std@@QAEXABUMMHS@AlliesWhiteboard@@@Z 10035ac0 f i whiteboard.obj
 0001:00034ae0       ?size@?$deque@PAVGraphicElement@@V?$allocator@PAVGraphicElement@@@std@@@std@@QBEIXZ 10035ae0 f i whiteboard.obj
 0001:00034b00       ?size@?$deque@UMMHS@AlliesWhiteboard@@V?$allocator@UMMHS@AlliesWhiteboard@@@std@@@std@@QBEIXZ 10035b00 f i whiteboard.obj
 0001:00034b20       ?size@?$vector@PAVGraphicElement@@V?$allocator@PAVGraphicElement@@@std@@@std@@QBEIXZ 10035b20 f i whiteboard.obj
 0001:00034b50       ??0PCX@@QAE@XZ             10035b50 f   PCX.obj
 0001:00034b90       ??1PCX@@QAE@XZ             10035b90 f   PCX.obj
 0001:00034bf0       ?CopyPalette@PCX@@QAEXPAUtagPALETTEENTRY@@@Z 10035bf0 f   PCX.obj
 0001:00034c50       ?Erase@PCX@@QAEXXZ         10035c50 f   PCX.obj
 0001:00034c90       ?Height@PCX@@QAEJXZ        10035c90 f   PCX.obj
 0001:00034cb0       ?Load24@PCX@@QAEHPBD@Z     10035cb0 f   PCX.obj
 0001:00034ea0       ?Load@PCX@@QAEHPBDH@Z      10035ea0 f   PCX.obj
 0001:00035200       ?NewBuffer@PCX@@QAEPAEFF@Z 10036200 f   PCX.obj
 0001:00035260       ?ReadLine24@PCX@@AAEPAEPAEKF@Z 10036260 f   PCX.obj
 0001:00035350       ?Save@PCX@@QAEHPBD@Z       10036350 f   PCX.obj
 0001:00035670       ?SetBuffer@PCX@@QAEPAEPAE@Z 10036670 f   PCX.obj
 0001:000356a0       ?SetPalette@PCX@@QAEXPAUtagPALETTEENTRY@@@Z 100366a0 f   PCX.obj
 0001:000356e0       ?Width@PCX@@QAEJXZ         100366e0 f   PCX.obj
 0001:000356f0       ?WriteLine@PCX@@AAEPAEPAEK@Z 100366f0 f   PCX.obj
 0001:00035870       ?CreateSurfPCXResource@@YGPAUIDirectDrawSurface@@GH@Z 10036870 f   pcxread.obj
 0001:00035a20       ?PCX2BitMap@@YGXPAEPAUpcx_picture_typ@@J@Z 10036a20 f   pcxread.obj
 0001:00035c10       ?RestoreFromPCX@@YGXGPAUIDirectDrawSurface@@@Z 10036c10 f   pcxread.obj
 0001:00035d60       ?RestoreFromPCXFile@@YGXPADPAUIDirectDrawSurface@@@Z 10036d60 f   pcxread.obj
 0001:00035ee0       ?strrchr@@YAPADQADH@Z      10036ee0 f i etc.obj
 0001:00035f00       _CalcCRC@8                 10036f00 f   etc.obj
 0001:00035fa0       _GetMinValidLenWithMatchOpcode@8 10036fa0 f   etc.obj
 0001:00035fe0       _GetOpCodeSize@4           10036fe0 f   etc.obj
 0001:00036280       _MemWriteWithBackup@16     10037280 f   etc.obj
 0001:00036360       _RegReadData@24            10037360 f   etc.obj
 0001:000363f0       _RegReadDword@16           100373f0 f   etc.obj
 0001:00036410       _RegReadStr@20             10037410 f   etc.obj
 0001:00036440       _RegWriteData@24           10037440 f   etc.obj
 0001:000364d0       _RegWriteDword@16          100374d0 f   etc.obj
 0001:000364f0       _RegWriteStr@20            100374f0 f   etc.obj
 0001:00036520       _X86RedirectOpcodeToNewBase@16 10037520 f   etc.obj
 0001:00036900       _X86ShallToRedirect@20     10037900 f   etc.obj
 0001:00036be0       _clean_remark@8            10037be0 f   etc.obj
 0001:00036c30       _duplicate_str@4           10037c30 f   etc.obj
 0001:00036c90       _getDBCSlen@4              10037c90 f   etc.obj
 0001:00036d00       _memfind@24                10037d00 f   etc.obj
 0001:00036e70       _trim_crlf_@4              10037e70 f   etc.obj
 0001:00036f70       _vkToStr@12                10037f70 f   etc.obj
 0001:00038000       ??0SingleHook@@QAE@IKHPAE@Z 10039000 f   Hook.obj
 0001:00038040       ??0SingleHook@@QAE@PAEKH0@Z 10039040 f   Hook.obj
 0001:00038080       ??0SingleHook@@QAE@XZ      10039080 f   Hook.obj
 0001:000380b0       ??1SingleHook@@QAE@XZ      100390b0 f   Hook.obj
 0001:00038150       ?AddrToHook@SingleHook@@UAEPAXPAX@Z 10039150 f   Hook.obj
 0001:00038170       ?AddrToHook@SingleHook@@UAEQAXXZ 10039170 f   Hook.obj
 0001:00038190       ?AddrToRtn@SingleHook@@QAEPAXXZ 10039190 f   Hook.obj
 0001:000381b0       ?Hook@SingleHook@@UAEXXZ   100391b0 f   Hook.obj
 0001:000381f0       ?InitHookClass@SingleHook@@UAEXPAEKH0@Z 100391f0 f   Hook.obj
 0001:00038370       ?LenToHook@SingleHook@@UAEKK@Z 10039370 f   Hook.obj
 0001:00038390       ?ThisHookMode@SingleHook@@UAE?BHXZ 10039390 f   Hook.obj
 0001:000383b0       ?ThisHookMode@SingleHook@@UAEHH@Z 100393b0 f   Hook.obj
 0001:000383d0       ?UnHook@SingleHook@@UAEXXZ 100393d0 f   Hook.obj
 0001:00038410       ?X86CurrentThreadStackBufferFixRtnAddr@@YGPAUtagInlineX86StackBuffer@@PAPAU1@@Z 10039410 f   InlineHook.obj
 0001:000384c0       ?X86CurrentThreadStackBuffer@@YGPAUtagInlineX86StackBuffer@@PAPAU1@@Z 100394c0 f   InlineHook.obj
 0001:00038550       ??0InlineSingleHook@@QAE@IKHP6GHPAUtagInlineX86StackBuffer@@@Z@Z 10039550 f   InlineHook.obj
 0001:000385d0       ??0InlineSingleHook@@QAE@IKHPAX@Z 100395d0 f   InlineHook.obj
 0001:00038650       ??0InlineSingleHook@@QAE@XZ 10039650 f   InlineHook.obj
 0001:000386c0       ??1InlineSingleHook@@QAE@XZ 100396c0 f   InlineHook.obj
 0001:000387c0       ?Hook@InlineSingleHook@@UAEXXZ 100397c0 f   InlineHook.obj
 0001:000388a0       ?InitHookClass@InlineSingleHook@@AAEXQAEKHPAX1@Z 100398a0 f   InlineHook.obj
 0001:00038bc0       ?NewBytesForInlineHook@InlineSingleHook@@QAEPAEPAE@Z 10039bc0 f   InlineHook.obj
 0001:00038bf0       ?RedirectedOpcodeInStub@InlineSingleHook@@QAEQAXXZ 10039bf0 f   InlineHook.obj
 0001:00038c10       ?RedirectedOrgOpcodes@InlineSingleHook@@QAEQAEXZ 10039c10 f   InlineHook.obj
 0001:00038c30       ?RtnAddrOfHook@InlineSingleHook@@QAEQAXXZ 10039c30 f   InlineHook.obj
 0001:00038c50       ?SetParamOfHook@InlineSingleHook@@QAEPAXPAX@Z 10039c50 f   InlineHook.obj
 0001:00038c80       ?X86InlineHookRouter@@YGXXZ 10039c80 f   InlineHook.obj
 0001:00038d50       ??0CGraphic@@QAE@XZ        10039d50 f   cgraphic.obj
 0001:00038d70       ??1CGraphic@@QAE@XZ        10039d70 f   cgraphic.obj
 0001:00038d80       ?DrawRotateRect@CGraphic@@QAEXPAUIDirectDrawSurface@@HHH@Z 10039d80 f   cgraphic.obj
 0001:00038fc0       ?GenerateLookupTables@CGraphic@@AAEXXZ 10039fc0 f   cgraphic.obj
 0001:00039050       ??$?0V?$allocator@PAVGraphicElement@@@std@@PAPAVGraphicElement@@PAPAV2@PAPAV2@@?$_Compressed_pair@V?$allocator@PAVGraphicElement@@@std@@V?$_Vector_val@U?$_Simple_types@PAVGraphicElement@@@std@@@2@$00@std@@QAE@U_One_then_variadic_args_t@1@$$QAV?$allocator@PAVGraphicElement@@@1@$$QAPAPAVGraphicElement@@22@Z 1003a050 f i ElementHandler.obj
 0001:000390a0       ??$_Construct_in_place@PAVGraphicElement@@ABQAV1@@std@@YGXAAPAVGraphicElement@@ABQAV1@@Z 1003a0a0 f i ElementHandler.obj
 0001:000390e0       ??$_Copy_memmove@PAPAVGraphicElement@@PAPAV1@@std@@YGPAPAVGraphicElement@@PAPAV1@00@Z 1003a0e0 f i ElementHandler.obj
 0001:00039150       ??$_Emplace_back@PAVGraphicElement@@@?$_Uninitialized_backout_al@V?$allocator@PAVGraphicElement@@@std@@@std@@QAEX$$QAPAVGraphicElement@@@Z 1003a150 f i ElementHandler.obj
 0001:00039190       ??$_Emplace_back_with_unused_capacity@ABQAVGraphicElement@@@?$vector@PAVGraphicElement@@V?$allocator@PAVGraphicElement@@@std@@@std@@AAEAAPAVGraphicElement@@ABQAV2@@Z 1003a190 f i ElementHandler.obj
 0001:000391f0       ??$_Emplace_one_at_back@ABQAVGraphicElement@@@?$vector@PAVGraphicElement@@V?$allocator@PAVGraphicElement@@@std@@@std@@AAEAAPAVGraphicElement@@ABQAV2@@Z 1003a1f0 f i ElementHandler.obj
 0001:00039250       ??$_Emplace_reallocate@ABQAVGraphicElement@@@?$vector@PAVGraphicElement@@V?$allocator@PAVGraphicElement@@@std@@@std@@AAEPAPAVGraphicElement@@QAPAV2@ABQAV2@@Z 1003a250 f i ElementHandler.obj
 0001:00039410       ??$_Get_unwrapped@ABQAPAVGraphicElement@@@std@@YG?A_TABQAPAVGraphicElement@@@Z 1003a410 f i ElementHandler.obj
 0001:00039420       ??$_Move_unchecked@PAPAVGraphicElement@@PAPAV1@@std@@YGPAPAVGraphicElement@@PAPAV1@00@Z 1003a420 f i ElementHandler.obj
 0001:00039470       ??$_To_address@PAPAVGraphicElement@@@std@@YG?A_PABQAPAVGraphicElement@@@Z 1003a470 f i ElementHandler.obj
 0001:00039480       ??$_Uninitialized_move@PAPAVGraphicElement@@V?$allocator@PAVGraphicElement@@@std@@@std@@YGPAPAVGraphicElement@@QAPAV1@0PAPAV1@AAV?$allocator@PAVGraphicElement@@@0@@Z 1003a480 f i ElementHandler.obj
 0001:00039550       ??$addressof@PAVGraphicElement@@@std@@YGPAPAVGraphicElement@@AAPAV1@@Z 1003a550 f i ElementHandler.obj
 0001:00039560       ??$addressof@V?$_Vector_val@U?$_Simple_types@PAVGraphicElement@@@std@@@std@@@std@@YGPAV?$_Vector_val@U?$_Simple_types@PAVGraphicElement@@@std@@@0@AAV10@@Z 1003a560 f i ElementHandler.obj
 0001:00039570       ??$construct@PAVGraphicElement@@ABQAV1@@?$_Default_allocator_traits@V?$allocator@PAVGraphicElement@@@std@@@std@@SGXAAV?$allocator@PAVGraphicElement@@@1@QAPAVGraphicElement@@ABQAV3@@Z 1003a570 f i ElementHandler.obj
 0001:000395b0       ??$emplace_back@ABQAVGraphicElement@@@?$vector@PAVGraphicElement@@V?$allocator@PAVGraphicElement@@@std@@@std@@QAE?A_TABQAVGraphicElement@@@Z 1003a5b0 f i ElementHandler.obj
 0001:000395e0       ??$exchange@PAPAVGraphicElement@@$$T@std@@YGPAPAVGraphicElement@@AAPAPAV1@$$QA$$T@Z 1003a5e0 f i ElementHandler.obj
 0001:00039600       ??$forward@ABQAVGraphicElement@@@std@@YGABQAVGraphicElement@@ABQAV1@@Z 1003a600 f i ElementHandler.obj
 0001:00039610       ??$forward@PAPAVGraphicElement@@@std@@YG$$QAPAPAVGraphicElement@@AAPAPAV1@@Z 1003a610 f i ElementHandler.obj
 0001:00039620       ??$forward@V?$allocator@PAVGraphicElement@@@std@@@std@@YG$$QAV?$allocator@PAVGraphicElement@@@0@AAV10@@Z 1003a620 f i ElementHandler.obj
 0001:00039630       ??0?$_Uninitialized_backout_al@V?$allocator@PAVGraphicElement@@@std@@@std@@QAE@PAPAVGraphicElement@@AAV?$allocator@PAVGraphicElement@@@1@@Z 1003a630 f i ElementHandler.obj
 0001:00039660       ??0?$_Vector_const_iterator@V?$_Vector_val@U?$_Simple_types@PAVGraphicElement@@@std@@@std@@@std@@QAE@PAPAVGraphicElement@@PBU_Container_base0@1@@Z 1003a660 f i ElementHandler.obj
 0001:00039690       ??0?$_Vector_iterator@V?$_Vector_val@U?$_Simple_types@PAVGraphicElement@@@std@@@std@@@std@@QAE@PAPAVGraphicElement@@PBU_Container_base0@1@@Z 1003a690 f i ElementHandler.obj
 0001:000396b0       ??0?$_Vector_val@U?$_Simple_types@PAVGraphicElement@@@std@@@std@@QAE@PAPAVGraphicElement@@00@Z 1003a6b0 f i ElementHandler.obj
 0001:000396e0       ??0?$vector@PAVGraphicElement@@V?$allocator@PAVGraphicElement@@@std@@@std@@QAE@$$QAV01@@Z 1003a6e0 f i ElementHandler.obj
 0001:00039780       ??0CElementHandler@@QAE@XZ 1003a780 f   ElementHandler.obj
 0001:000397c0       ??1?$_Uninitialized_backout_al@V?$allocator@PAVGraphicElement@@@std@@@std@@QAE@XZ 1003a7c0 f i ElementHandler.obj
 0001:000397f0       ??1CElementHandler@@UAE@XZ 1003a7f0 f   ElementHandler.obj
 0001:00039970       ??H?$_Vector_iterator@V?$_Vector_val@U?$_Simple_types@PAVGraphicElement@@@std@@@std@@@std@@QBE?AV01@H@Z 1003a970 f i ElementHandler.obj
 0001:000399a0       ??Y?$_Vector_const_iterator@V?$_Vector_val@U?$_Simple_types@PAVGraphicElement@@@std@@@std@@@std@@QAEAAV01@H@Z 1003a9a0 f i ElementHandler.obj
 0001:000399d0       ??Y?$_Vector_iterator@V?$_Vector_val@U?$_Simple_types@PAVGraphicElement@@@std@@@std@@@std@@QAEAAV01@H@Z 1003a9d0 f i ElementHandler.obj
 0001:000399f0       ??_ECElementHandler@@UAEPAXI@Z 1003a9f0 f i ElementHandler.obj
 0001:000399f0       ??_GCElementHandler@@UAEPAXI@Z 1003a9f0 f i ElementHandler.obj
 0001:00039a30       ?AddElement@CElementHandler@@QAEXPAVGraphicElement@@@Z 1003aa30 f   ElementHandler.obj
 0001:00039a80       ?DeleteBetween@CElementHandler@@QAEXHHHH@Z 1003aa80 f   ElementHandler.obj
 0001:00039d50       ?DeleteOn@CElementHandler@@QAEXHH@Z 1003ad50 f   ElementHandler.obj
 0001:00039d90       ?GetArea@CElementHandler@@QAE?AV?$vector@PAVGraphicElement@@V?$allocator@PAVGraphicElement@@@std@@@std@@HHHH@Z 1003ad90 f   ElementHandler.obj
 0001:00039fe0       ?GetClosestElement@CElementHandler@@QAEPAVGraphicElement@@HH@Z 1003afe0 f   ElementHandler.obj
 0001:00039ff0       ?MoveTextElement@CElementHandler@@QAEPAVGraphicElement@@PAV2@HH@Z 1003aff0 f   ElementHandler.obj
 0001:0003a200       ?_Calculate_growth@?$vector@PAVGraphicElement@@V?$allocator@PAVGraphicElement@@@std@@@std@@ABEII@Z 1003b200 f i ElementHandler.obj
 0001:0003a260       ?_Change_array@?$vector@PAVGraphicElement@@V?$allocator@PAVGraphicElement@@@std@@@std@@AAEXQAPAVGraphicElement@@II@Z 1003b260 f i ElementHandler.obj
 0001:0003a300       ?_Get_first@?$_Compressed_pair@V?$allocator@PAVGraphicElement@@@std@@V?$_Vector_val@U?$_Simple_types@PAVGraphicElement@@@std@@@2@$00@std@@QBEABV?$allocator@PAVGraphicElement@@@2@XZ 1003b300 f i ElementHandler.obj
 0001:0003a310       ?_Getal@?$vector@PAVGraphicElement@@V?$allocator@PAVGraphicElement@@@std@@@std@@ABEABV?$allocator@PAVGraphicElement@@@2@XZ 1003b310 f i ElementHandler.obj
 0001:0003a330       ?_Orphan_range@?$vector@PAVGraphicElement@@V?$allocator@PAVGraphicElement@@@std@@@std@@ABEXPAPAVGraphicElement@@0@Z 1003b330 f i ElementHandler.obj
 0001:0003a340       ?_Release@?$_Uninitialized_backout_al@V?$allocator@PAVGraphicElement@@@std@@@std@@QAEPAPAVGraphicElement@@XZ 1003b340 f i ElementHandler.obj
 0001:0003a360       ?_Verify_offset@?$_Vector_const_iterator@V?$_Vector_val@U?$_Simple_types@PAVGraphicElement@@@std@@@std@@@std@@QBEXH@Z 1003b360 f i ElementHandler.obj
 0001:0003a370       ?_Xlength@?$vector@PAVGraphicElement@@V?$allocator@PAVGraphicElement@@@std@@@std@@CGXXZ 1003b370 f i ElementHandler.obj
 0001:0003a380       ?back@?$vector@PAVGraphicElement@@V?$allocator@PAVGraphicElement@@@std@@@std@@QAEAAPAVGraphicElement@@XZ 1003b380 f i ElementHandler.obj
 0001:0003a3b0       ?begin@?$vector@PAVGraphicElement@@V?$allocator@PAVGraphicElement@@@std@@@std@@QAE?AV?$_Vector_iterator@V?$_Vector_val@U?$_Simple_types@PAVGraphicElement@@@std@@@std@@@2@XZ 1003b3b0 f i ElementHandler.obj
 0001:0003a3e0       ?capacity@?$vector@PAVGraphicElement@@V?$allocator@PAVGraphicElement@@@std@@@std@@QBEIXZ 1003b3e0 f i ElementHandler.obj
 0001:0003a410       ?empty@?$vector@PAVGraphicElement@@V?$allocator@PAVGraphicElement@@@std@@@std@@QBE_NXZ 1003b410 f i ElementHandler.obj
 0001:0003a450       ?erase@?$vector@PAVGraphicElement@@V?$allocator@PAVGraphicElement@@@std@@@std@@QAE?AV?$_Vector_iterator@V?$_Vector_val@U?$_Simple_types@PAVGraphicElement@@@std@@@std@@@2@V?$_Vector_const_iterator@V?$_Vector_val@U?$_Simple_types@PAVGraphicElement@@@std@@@std@@@2@@Z 1003b450 f i ElementHandler.obj
 0001:0003a510       ?max_size@?$vector@PAVGraphicElement@@V?$allocator@PAVGraphicElement@@@std@@@std@@QBEIXZ 1003b510 f i ElementHandler.obj
 0001:0003a550       ?pop_back@?$vector@PAVGraphicElement@@V?$allocator@PAVGraphicElement@@@std@@@std@@QAEXXZ 1003b550 f i ElementHandler.obj
 0001:0003a5e0       ?push_back@?$vector@PAVGraphicElement@@V?$allocator@PAVGraphicElement@@@std@@@std@@QAEXABQAVGraphicElement@@@Z 1003b5e0 f i ElementHandler.obj
 0001:0003a5f9       _ImmIsIME@4                1003b5f9 f   imm32:IMM32.dll
 0001:0003a5ff       _ImmAssociateContext@8     1003b5ff f   imm32:IMM32.dll
 0001:0003a605       _ImmGetCompositionStringA@16 1003b605 f   imm32:IMM32.dll
 0001:0003a60b       _ImmGetCandidateListA@16   1003b60b f   imm32:IMM32.dll
 0001:0003a611       _ImmEscapeA@16             1003b611 f   imm32:IMM32.dll
 0001:0003a617       _ImmNotifyIME@16           1003b617 f   imm32:IMM32.dll
 0001:0003a61d       _GetAsyncKeyState@4        1003b61d f   user32:USER32.dll
 0001:0003a623       _GetCursorPos@4            1003b623 f   user32:USER32.dll
 0001:0003a629       _SetWindowLongA@12         1003b629 f   user32:USER32.dll
 0001:0003a62f       _GetKeyState@4             1003b62f f   user32:USER32.dll
 0001:0003a635       _wsprintfA                 1003b635 f   user32:USER32.dll
 0001:0003a63b       _GetForegroundWindow@0     1003b63b f   user32:USER32.dll
 0001:0003a641       _GetClassNameA@12          1003b641 f   user32:USER32.dll
 0001:0003a647       _GetKeyboardLayout@4       1003b647 f   user32:USER32.dll
 0001:0003a64d       _SendMessageA@16           1003b64d f   user32:USER32.dll
 0001:0003a653       _DrawTextExA@24            1003b653 f   user32:USER32.dll
 0001:0003a659       _FillRect@12               1003b659 f   user32:USER32.dll
 0001:0003a65f       _CloseHandle@4             1003b65f f   kernel32:KERNEL32.dll
 0001:0003a665       _ReleaseMutex@4            1003b665 f   kernel32:KERNEL32.dll
 0001:0003a66b       _WaitForSingleObject@8     1003b66b f   kernel32:KERNEL32.dll
 0001:0003a671       _CreateMutexA@12           1003b671 f   kernel32:KERNEL32.dll
 0001:0003a677       _GetTickCount@0            1003b677 f   kernel32:KERNEL32.dll
 0001:0003a67d       _CreateFileA@28            1003b67d f   kernel32:KERNEL32.dll
 0001:0003a683       _ReadFile@20               1003b683 f   kernel32:KERNEL32.dll
 0001:0003a689       _GetLastError@0            1003b689 f   kernel32:KERNEL32.dll
 0001:0003a68f       _GetCurrentProcess@0       1003b68f f   kernel32:KERNEL32.dll
 0001:0003a695       _GetSystemDirectoryA@8     1003b695 f   kernel32:KERNEL32.dll
 0001:0003a69b       _WriteProcessMemory@20     1003b69b f   kernel32:KERNEL32.dll
 0001:0003a6a1       _MapViewOfFile@20          1003b6a1 f   kernel32:KERNEL32.dll
 0001:0003a6a7       _UnmapViewOfFile@4         1003b6a7 f   kernel32:KERNEL32.dll
 0001:0003a6ad       _FreeLibrary@4             1003b6ad f   kernel32:KERNEL32.dll
 0001:0003a6b3       _GetProcAddress@8          1003b6b3 f   kernel32:KERNEL32.dll
 0001:0003a6b9       _LoadLibraryA@4            1003b6b9 f   kernel32:KERNEL32.dll
 0001:0003a6bf       _lstrcpyA@8                1003b6bf f   kernel32:KERNEL32.dll
 0001:0003a6c5       _lstrcatA@8                1003b6c5 f   kernel32:KERNEL32.dll
 0001:0003a6cb       _CreateFileMappingA@24     1003b6cb f   kernel32:KERNEL32.dll
 0001:0003a6d1       _ReleaseSemaphore@12       1003b6d1 f   kernel32:KERNEL32.dll
 0001:0003a6d7       _CreateSemaphoreA@16       1003b6d7 f   kernel32:KERNEL32.dll
 0001:0003a6dd       _Sleep@4                   1003b6dd f   kernel32:KERNEL32.dll
 0001:0003a6e3       _CreateThread@24           1003b6e3 f   kernel32:KERNEL32.dll
 0001:0003a6e9       _VirtualProtect@16         1003b6e9 f   kernel32:KERNEL32.dll
 0001:0003a6ef       _CreateDirectoryA@8        1003b6ef f   kernel32:KERNEL32.dll
 0001:0003a6f5       _FindClose@4               1003b6f5 f   kernel32:KERNEL32.dll
 0001:0003a6fb       _FindFirstFileA@8          1003b6fb f   kernel32:KERNEL32.dll
 0001:0003a701       _GetFileSize@8             1003b701 f   kernel32:KERNEL32.dll
 0001:0003a707       _GetModuleHandleA@4        1003b707 f   kernel32:KERNEL32.dll
 0001:0003a70d       _lstrcmpiA@8               1003b70d f   kernel32:KERNEL32.dll
 0001:0003a713       _GetModuleFileNameA@12     1003b713 f   kernel32:KERNEL32.dll
 0001:0003a719       _GetPrivateProfileIntA@16  1003b719 f   kernel32:KERNEL32.dll
 0001:0003a71f       _SetFilePointer@16         1003b71f f   kernel32:KERNEL32.dll
 0001:0003a725       _WriteFile@20              1003b725 f   kernel32:KERNEL32.dll
 0001:0003a72b       _AddVectoredExceptionHandler@8 1003b72b f   kernel32:KERNEL32.dll
 0001:0003a731       _RemoveVectoredExceptionHandler@4 1003b731 f   kernel32:KERNEL32.dll
 0001:0003a737       _EnterCriticalSection@4    1003b737 f   kernel32:KERNEL32.dll
 0001:0003a73d       _LeaveCriticalSection@4    1003b73d f   kernel32:KERNEL32.dll
 0001:0003a743       _GetTempPathA@8            1003b743 f   kernel32:KERNEL32.dll
 0001:0003a749       _GetTempFileNameA@16       1003b749 f   kernel32:KERNEL32.dll
 0001:0003a74f       _GetPrivateProfileStringA@24 1003b74f f   kernel32:KERNEL32.dll
 0001:0003a755       _WritePrivateProfileStringA@16 1003b755 f   kernel32:KERNEL32.dll
 0001:0003a75b       _IsDBCSLeadByte@4          1003b75b f   kernel32:KERNEL32.dll
 0001:0003a761       _GetCurrentDirectoryA@8    1003b761 f   kernel32:KERNEL32.dll
 0001:0003a767       _GetFileAttributesA@4      1003b767 f   kernel32:KERNEL32.dll
 0001:0003a76d       _GetPrivateProfileSectionA@16 1003b76d f   kernel32:KERNEL32.dll
 0001:0003a773       _LoadResource@8            1003b773 f   kernel32:KERNEL32.dll
 0001:0003a779       _LockResource@4            1003b779 f   kernel32:KERNEL32.dll
 0001:0003a77f       _FindResourceA@12          1003b77f f   kernel32:KERNEL32.dll
 0001:0003a785       _IsBadWritePtr@8           1003b785 f   kernel32:KERNEL32.dll
 0001:0003a78b       _GetCurrentThreadId@0      1003b78b f   kernel32:KERNEL32.dll
 0001:0003a791       _CreateDCA@16              1003b791 f   gdi32:GDI32.dll
 0001:0003a797       _CreateDIBitmap@24         1003b797 f   gdi32:GDI32.dll
 0001:0003a79d       _CreatePalette@4           1003b79d f   gdi32:GDI32.dll
 0001:0003a7a3       _DeleteDC@4                1003b7a3 f   gdi32:GDI32.dll
 0001:0003a7a9       _DeleteObject@4            1003b7a9 f   gdi32:GDI32.dll
 0001:0003a7af       _GetDIBits@28              1003b7af f   gdi32:GDI32.dll
 0001:0003a7b5       _SelectObject@8            1003b7b5 f   gdi32:GDI32.dll
 0001:0003a7bb       _SelectPalette@12          1003b7bb f   gdi32:GDI32.dll
 0001:0003a7c1       _TextOutA@20               1003b7c1 f   gdi32:GDI32.dll
 0001:0003a7c7       _CreateFontA@56            1003b7c7 f   gdi32:GDI32.dll
 0001:0003a7cd       _GetTextExtentPoint32A@16  1003b7cd f   gdi32:GDI32.dll
 0001:0003a7d3       _SetBkColor@8              1003b7d3 f   gdi32:GDI32.dll
 0001:0003a7d9       _SetTextColor@8            1003b7d9 f   gdi32:GDI32.dll
 0001:0003a7df       _RegCloseKey@4             1003b7df f   advapi32:ADVAPI32.dll
 0001:0003a7e5       _RegCreateKeyExA@36        1003b7e5 f   advapi32:ADVAPI32.dll
 0001:0003a7eb       _RegQueryValueExA@24       1003b7eb f   advapi32:ADVAPI32.dll
 0001:0003a7f1       _RegSetValueExA@24         1003b7f1 f   advapi32:ADVAPI32.dll
 0001:0003a7f7       ??2@YAPAXI@Z               1003b7f7 f   LIBCMT:new_scalar.obj
 0001:0003a827       ??3@YAXPAXI@Z              1003b827 f   LIBCMT:delete_scalar_size.obj
 0001:0003a835       ??_U@YAPAXI@Z              1003b835 f   LIBCMT:new_array.obj
 0001:0003a83e       ??1type_info@@UAE@XZ       1003b83e f   LIBCMT:std_type_info_static.obj
 0001:0003a845       ??_Etype_info@@UAEPAXI@Z   1003b845 f i LIBCMT:std_type_info_static.obj
 0001:0003a845       ??_Gtype_info@@UAEPAXI@Z   1003b845 f i LIBCMT:std_type_info_static.obj
 0001:0003a868       ??_V@YAXPAX@Z              1003b868 f   LIBCMT:delete_array.obj
 0001:0003a870       __ftoui3                   1003b870 f   LIBCMT:ftol3.obj
 0001:0003a8c0       __ftoul3                   1003b8c0 f   LIBCMT:ftol3.obj
 0001:0003a930       __ftoul3_legacy            1003b930 f   LIBCMT:ftol3.obj
 0001:0003a960       __ftol3                    1003b960 f   LIBCMT:ftol3.obj
 0001:0003a9d0       __dtoui3                   1003b9d0 f   LIBCMT:ftol3.obj
 0001:0003aa50       __dtoul3                   1003ba50 f   LIBCMT:ftol3.obj
 0001:0003ab00       __dtoul3_legacy            1003bb00 f   LIBCMT:ftol3.obj
 0001:0003ab30       __dtol3                    1003bb30 f   LIBCMT:ftol3.obj
 0001:0003abe0       __ultod3                   1003bbe0 f   LIBCMT:ftol3.obj
 0001:0003ac40       __ltod3                    1003bc40 f   LIBCMT:ftol3.obj
 0001:0003ac81       ??3@YAXPAX@Z               1003bc81 f   LIBCMT:delete_scalar.obj
 0001:0003ac86       ??_L@YGXPAXIHP6EX0@Z1@Z    1003bc86 f   LIBCMT:ehvecctr.obj
 0001:0003ac8b       ??_L@YGXPAXIIP6EX0@Z1@Z    1003bc8b f   LIBCMT:ehvecctr.obj
 0001:0003acff       ??_M@YGXPAXIHP6EX0@Z@Z     1003bcff f   LIBCMT:ehvecdtr.obj
 0001:0003ad04       ??_M@YGXPAXIIP6EX0@Z@Z     1003bd04 f   LIBCMT:ehvecdtr.obj
 0001:0003adb8       ?__ArrayUnwind@@YGXPAXIIP6EX0@Z@Z 1003bdb8 f   LIBCMT:ehvecdtr.obj
 0001:0003ae50       __ftol2_sse_excpt          1003be50 f   LIBCMT:ftol2.obj
 0001:0003ae60       __ftol2_sse                1003be60 f   LIBCMT:ftol2.obj
 0001:0003ae70       __ftoi2                    1003be70 f   LIBCMT:ftol2.obj
 0001:0003aef0       __ftoui2                   1003bef0 f   LIBCMT:ftol2.obj
 0001:0003afa0       __ftol2                    1003bfa0 f   LIBCMT:ftol2.obj
 0001:0003b050       __ftoul2                   1003c050 f   LIBCMT:ftol2.obj
 0001:0003b110       __ftoul2_legacy            1003c110 f   LIBCMT:ftol2.obj
 0001:0003b471       __CRT_INIT@12              1003c471 f   LIBCMT:dll_dllmain.obj
 0001:0003b47a       __DllMainCRTStartup@12     1003c47a f   LIBCMT:dll_dllmain.obj
 0001:0003b49d       ??0bad_alloc@std@@QAE@XZ   1003c49d f i LIBCMT:throw_bad_alloc.obj
 0001:0003b4b5       ?__scrt_throw_std_bad_alloc@@YAXXZ 1003c4b5 f   LIBCMT:throw_bad_alloc.obj
 0001:0003b4d2       ?__scrt_throw_std_bad_array_new_length@@YAXXZ 1003c4d2 f   LIBCMT:throw_bad_alloc.obj
 0001:0003b4ef       ___isa_available_init      1003c4ef f   LIBCMT:cpu_disp.obj
 0001:0003b6d0       __SEH_prolog4              1003c6d0 f   LIBCMT:sehprolg4.obj
 0001:0003b720       __SEH_epilog4              1003c720 f   LIBCMT:sehprolg4.obj
 0001:0003b734       @_guard_check_icall_nop@4  1003c734 f i LIBCMT:guard_support.obj
 0001:0003b737       _ReadNoFence               1003c737 f i LIBCMT:guard_support.obj
 0001:0003b741       _ReadPointerNoFence        1003c741 f i LIBCMT:guard_support.obj
 0001:0003b74b       ___castguard_check_failure_debugbreak 1003c74b f i LIBCMT:guard_support.obj
 0001:0003b766       ___castguard_check_failure_fastfail 1003c766 f i LIBCMT:guard_support.obj
 0001:0003b785       ___castguard_check_failure_nop 1003c785 f i LIBCMT:guard_support.obj
 0001:0003b788       ___castguard_check_failure_os_handled 1003c788 f i LIBCMT:guard_support.obj
 0001:0003b7e4       ___castguard_slow_path_check_debugbreak 1003c7e4 f i LIBCMT:guard_support.obj
 0001:0003b811       ___castguard_slow_path_check_fastfail 1003c811 f i LIBCMT:guard_support.obj
 0001:0003b842       ___castguard_slow_path_check_nop 1003c842 f i LIBCMT:guard_support.obj
 0001:0003b845       ___castguard_slow_path_check_os_handled 1003c845 f i LIBCMT:guard_support.obj
 0001:0003b8a0       __guard_icall_checks_enforced 1003c8a0 f i LIBCMT:guard_support.obj
 0001:0003b8ff       ___security_init_cookie    1003c8ff f   LIBCMT:gs_support.obj
 0001:0003b94a       ?__scrt_initialize_type_info@@YAXXZ 1003c94a f   LIBCMT:tncleanup.obj
 0001:0003b956       ?__scrt_uninitialize_type_info@@YAXXZ 1003c956 f   LIBCMT:tncleanup.obj
 0001:0003b962       ___local_stdio_scanf_options 1003c962 f i LIBCMT:default_local_stdio_options.obj
 0001:0003b968       ___scrt_initialize_default_local_stdio_options 1003c968 f   LIBCMT:default_local_stdio_options.obj
 0001:0003b985       ?configure_argv@__scrt_narrow_argv_policy@@SAHXZ 1003c985 f i LIBCMT:utility.obj
 0001:0003b9d6       ?initialize_environment@__scrt_narrow_environment_policy@@SAHXZ 1003c9d6 f i LIBCMT:utility.obj
 0001:0003ba0e       _NtCurrentTeb              1003ca0e f i LIBCMT:utility.obj
 0001:0003ba15       ___scrt_acquire_startup_lock 1003ca15 f   LIBCMT:utility.obj
 0001:0003ba47       ___scrt_dllmain_after_initialize_c 1003ca47 f   LIBCMT:utility.obj
 0001:0003ba72       ___scrt_dllmain_before_initialize_c 1003ca72 f   LIBCMT:utility.obj
 0001:0003ba80       ___scrt_dllmain_crt_thread_attach 1003ca80 f   LIBCMT:utility.obj
 0001:0003ba9f       ___scrt_dllmain_crt_thread_detach 1003ca9f f   LIBCMT:utility.obj
 0001:0003baac       ___scrt_dllmain_exception_filter 1003caac f   LIBCMT:utility.obj
 0001:0003bae0       ___scrt_dllmain_uninitialize_c 1003cae0 f   LIBCMT:utility.obj
 0001:0003bb03       ___scrt_dllmain_uninitialize_critical 1003cb03 f   LIBCMT:utility.obj
 0001:0003bb10       ___scrt_initialize_crt     1003cb10 f   LIBCMT:utility.obj
 0001:0003bb49       ___scrt_initialize_onexit_tables 1003cb49 f   LIBCMT:utility.obj
 0001:0003bbd0       ___scrt_is_nonwritable_in_current_image 1003cbd0 f   LIBCMT:utility.obj
 0001:0003bc64       ___scrt_release_startup_lock 1003cc64 f   LIBCMT:utility.obj
 0001:0003bc81       ___scrt_uninitialize_crt   1003cc81 f   LIBCMT:utility.obj
 0001:0003bca9       __onexit                   1003cca9 f   LIBCMT:utility.obj
 0001:0003bcd6       _at_quick_exit             1003ccd6 f   LIBCMT:utility.obj
 0001:0003bcf9       _atexit                    1003ccf9 f   LIBCMT:utility.obj
 0001:0003bd0e       ___scrt_get_dyn_tls_init_callback 1003cd0e f   LIBCMT:dyn_tls_init.obj
 0001:0003bd14       ___scrt_fastfail           1003cd14 f   LIBCMT:utility_desktop.obj
 0001:0003be2f       ___scrt_get_show_window_mode 1003ce2f f   LIBCMT:utility_desktop.obj
 0001:0003be60       ___scrt_initialize_mta     1003ce60 f   LIBCMT:utility_desktop.obj
 0001:0003be65       ___scrt_initialize_winrt   1003ce65 f   LIBCMT:utility_desktop.obj
 0001:0003be68       ___scrt_is_managed_app     1003ce68 f   LIBCMT:utility_desktop.obj
 0001:0003beaa       ___scrt_set_unhandled_exception_filter 1003ceaa f   LIBCMT:utility_desktop.obj
 0001:0003beb6       ___scrt_exe_initialize_mta 1003ceb6 f   LIBCMT:utility_desktop.obj
 0001:0003beb6       ___scrt_stub_for_initialize_mta 1003ceb6 f   LIBCMT:utility_desktop.obj
 0001:0003beb9       ___scrt_unhandled_exception_filter@4 1003ceb9 f   LIBCMT:utility_desktop.obj
 0001:0003bf0f       __crt_debugger_hook        1003cf0f f   LIBCMT:utility_desktop.obj
 0001:0003bf17       __RTC_Initialize           1003cf17 f   LIBCMT:initsect.obj
 0001:0003bf43       __RTC_Terminate            1003cf43 f   LIBCMT:initsect.obj
 0001:0003bf6f       @__security_check_cookie@4 1003cf6f f   LIBCMT:secchk.obj
 0001:0003bf7d       __get_startup_argv_mode    1003cf7d f   LIBCMT:argv_mode.obj
 0001:0003bf81       ___scrt_is_ucrt_dll_in_use 1003cf81 f   LIBCMT:ucrt_detection.obj
 0001:0003bf8d       ___raise_securityfailure   1003cf8d f   LIBCMT:gs_report.obj
 0001:0003bfb5       ___report_gsfailure        1003cfb5 f   LIBCMT:gs_report.obj
 0001:0003c0af       ___report_rangecheckfailure 1003d0af f   LIBCMT:gs_report.obj
 0001:0003c0bb       ___report_securityfailure  1003d0bb f   LIBCMT:gs_report.obj
 0001:0003c18a       ___report_securityfailureEx 1003d18a f   LIBCMT:gs_report.obj
 0001:0003c29f       ??0bad_function_call@std@@QAE@ABV01@@Z 1003d29f f i libcpmt:xthrow.obj
 0001:0003c2ba       ??0bad_function_call@std@@QAE@XZ 1003d2ba f i libcpmt:xthrow.obj
 0001:0003c2cb       ??0exception@std@@QAE@QBD@Z 1003d2cb f i libcpmt:xthrow.obj
 0001:0003c300       ??0exception@std@@QAE@XZ   1003d300 f i libcpmt:xthrow.obj
 0001:0003c311       ??0invalid_argument@std@@QAE@ABV01@@Z 1003d311 f i libcpmt:xthrow.obj
 0001:0003c32c       ??0invalid_argument@std@@QAE@PBD@Z 1003d32c f i libcpmt:xthrow.obj
 0001:0003c34b       ??0length_error@std@@QAE@ABV01@@Z 1003d34b f i libcpmt:xthrow.obj
 0001:0003c366       ??0length_error@std@@QAE@PBD@Z 1003d366 f i libcpmt:xthrow.obj
 0001:0003c385       ??0logic_error@std@@QAE@ABV01@@Z 1003d385 f i libcpmt:xthrow.obj
 0001:0003c3a0       ??0logic_error@std@@QAE@PBD@Z 1003d3a0 f i libcpmt:xthrow.obj
 0001:0003c3bf       ??0out_of_range@std@@QAE@ABV01@@Z 1003d3bf f i libcpmt:xthrow.obj
 0001:0003c3da       ??0out_of_range@std@@QAE@PBD@Z 1003d3da f i libcpmt:xthrow.obj
 0001:0003c3f9       ??0overflow_error@std@@QAE@ABV01@@Z 1003d3f9 f i libcpmt:xthrow.obj
 0001:0003c414       ??0overflow_error@std@@QAE@PBD@Z 1003d414 f i libcpmt:xthrow.obj
 0001:0003c433       ??0regex_error@std@@QAE@ABV01@@Z 1003d433 f i libcpmt:xthrow.obj
 0001:0003c457       ??0regex_error@std@@QAE@W4error_type@regex_constants@1@@Z 1003d457 f i libcpmt:xthrow.obj
 0001:0003c485       ??0runtime_error@std@@QAE@ABV01@@Z 1003d485 f i libcpmt:xthrow.obj
 0001:0003c4a0       ??0runtime_error@std@@QAE@PBD@Z 1003d4a0 f i libcpmt:xthrow.obj
 0001:0003c4bf       ??1bad_function_call@std@@UAE@XZ 1003d4bf f i libcpmt:xthrow.obj
 0001:0003c4d0       ??1invalid_argument@std@@UAE@XZ 1003d4d0 f i libcpmt:xthrow.obj
 0001:0003c4e1       ??1length_error@std@@UAE@XZ 1003d4e1 f i libcpmt:xthrow.obj
 0001:0003c4f2       ??1logic_error@std@@UAE@XZ 1003d4f2 f i libcpmt:xthrow.obj
 0001:0003c503       ??1out_of_range@std@@UAE@XZ 1003d503 f i libcpmt:xthrow.obj
 0001:0003c514       ??1overflow_error@std@@UAE@XZ 1003d514 f i libcpmt:xthrow.obj
 0001:0003c525       ??1regex_error@std@@UAE@XZ 1003d525 f i libcpmt:xthrow.obj
 0001:0003c536       ??1runtime_error@std@@UAE@XZ 1003d536 f i libcpmt:xthrow.obj
 0001:0003c547       ??_Ebad_function_call@std@@UAEPAXI@Z 1003d547 f i libcpmt:xthrow.obj
 0001:0003c547       ??_Gbad_function_call@std@@UAEPAXI@Z 1003d547 f i libcpmt:xthrow.obj
 0001:0003c574       ??_Einvalid_argument@std@@UAEPAXI@Z 1003d574 f i libcpmt:xthrow.obj
 0001:0003c574       ??_Ginvalid_argument@std@@UAEPAXI@Z 1003d574 f i libcpmt:xthrow.obj
 0001:0003c5a1       ??_Elength_error@std@@UAEPAXI@Z 1003d5a1 f i libcpmt:xthrow.obj
 0001:0003c5a1       ??_Glength_error@std@@UAEPAXI@Z 1003d5a1 f i libcpmt:xthrow.obj
 0001:0003c5ce       ??_Elogic_error@std@@UAEPAXI@Z 1003d5ce f i libcpmt:xthrow.obj
 0001:0003c5ce       ??_Glogic_error@std@@UAEPAXI@Z 1003d5ce f i libcpmt:xthrow.obj
 0001:0003c5fb       ??_Eout_of_range@std@@UAEPAXI@Z 1003d5fb f i libcpmt:xthrow.obj
 0001:0003c5fb       ??_Gout_of_range@std@@UAEPAXI@Z 1003d5fb f i libcpmt:xthrow.obj
 0001:0003c628       ??_Eoverflow_error@std@@UAEPAXI@Z 1003d628 f i libcpmt:xthrow.obj
 0001:0003c628       ??_Goverflow_error@std@@UAEPAXI@Z 1003d628 f i libcpmt:xthrow.obj
 0001:0003c655       ??_Eregex_error@std@@UAEPAXI@Z 1003d655 f i libcpmt:xthrow.obj
 0001:0003c655       ??_Gregex_error@std@@UAEPAXI@Z 1003d655 f i libcpmt:xthrow.obj
 0001:0003c682       ??_Eruntime_error@std@@UAEPAXI@Z 1003d682 f i libcpmt:xthrow.obj
 0001:0003c682       ??_Gruntime_error@std@@UAEPAXI@Z 1003d682 f i libcpmt:xthrow.obj
 0001:0003c6af       ?_Stringify@regex_error@std@@CAPBDW4error_type@regex_constants@2@@Z 1003d6af f i libcpmt:xthrow.obj
 0001:0003c76f       ?_Xbad_alloc@std@@YAXXZ    1003d76f f   libcpmt:xthrow.obj
 0001:0003c78c       ?_Xbad_function_call@std@@YAXXZ 1003d78c f   libcpmt:xthrow.obj
 0001:0003c7a9       ?_Xinvalid_argument@std@@YAXPBD@Z 1003d7a9 f   libcpmt:xthrow.obj
 0001:0003c7c9       ?_Xlength_error@std@@YAXPBD@Z 1003d7c9 f   libcpmt:xthrow.obj
 0001:0003c7e9       ?_Xout_of_range@std@@YAXPBD@Z 1003d7e9 f   libcpmt:xthrow.obj
 0001:0003c809       ?_Xoverflow_error@std@@YAXPBD@Z 1003d809 f   libcpmt:xthrow.obj
 0001:0003c829       ?_Xregex_error@std@@YAXW4error_type@regex_constants@1@@Z 1003d829 f   libcpmt:xthrow.obj
 0001:0003c849       ?_Xruntime_error@std@@YAXPBD@Z 1003d849 f   libcpmt:xthrow.obj
 0001:0003c869       ?what@bad_function_call@std@@UBEPBDXZ 1003d869 f i libcpmt:xthrow.obj
 0001:0003c870       _memcpy                    1003d870 f   libvcruntime:memcpy.obj
 0001:0003cdf0       _memset                    1003ddf0 f   libvcruntime:memset.obj
 0001:0003cf4a       ??$?0AAViterator@TryBlockMap@__FrameHandler3@@AAV012@$0A@@?$pair@Viterator@TryBlockMap@__FrameHandler3@@V123@@std@@QAE@AAViterator@TryBlockMap@__FrameHandler3@@0@Z 1003df4a f i libvcruntime:trnsctrl.obj
 0001:0003cf6e       ??$forward@AAViterator@TryBlockMap@__FrameHandler3@@@std@@YAAAViterator@TryBlockMap@__FrameHandler3@@AAV123@@Z 1003df6e f i libvcruntime:trnsctrl.obj
 0001:0003cf76       ??0iterator@TryBlockMap@__FrameHandler3@@QAE@AAV12@I@Z 1003df76 f i libvcruntime:trnsctrl.obj
 0001:0003cf8a       ?GetRangeOfTrysToCheck@__FrameHandler3@@SA?AU?$pair@Viterator@TryBlockMap@__FrameHandler3@@V123@@std@@AAVTryBlockMap@1@HPAXPBU_s_FuncInfo@@H@Z 1003df8a f   libvcruntime:trnsctrl.obj
 0001:0003cffa       ?_CallCatchBlock2@@YAPAXPAUEHRegistrationNode@@PBU_s_FuncInfo@@PAXHK@Z 1003dffa f   libvcruntime:trnsctrl.obj
 0001:0003d057       ?_CallSETranslator@@YAHPAUEHExceptionRecord@@PAUEHRegistrationNode@@PAX2PBU_s_FuncInfo@@H1@Z 1003e057 f   libvcruntime:trnsctrl.obj
 0001:0003d14d       ?_JumpToContinuation@@YGXPAXPAUEHRegistrationNode@@@Z 1003e14d f   libvcruntime:trnsctrl.obj
 0001:0003d17d       ?_UnwindNestedFrames@@YGXPAUEHRegistrationNode@@PAUEHExceptionRecord@@@Z 1003e17d f   libvcruntime:trnsctrl.obj
 0001:0003d1d0       __CatchGuardHandler        1003e1d0 f   libvcruntime:trnsctrl.obj
 0001:0003d201       __CreateFrameInfo          1003e201 f   libvcruntime:trnsctrl.obj
 0001:0003d225       __FindAndUnlinkFrame       1003e225 f   libvcruntime:trnsctrl.obj
 0001:0003d26d       __TranslatorGuardHandler   1003e26d f   libvcruntime:trnsctrl.obj
 0001:0003d30a       ___CxxFrameHandler         1003e30a f   libvcruntime:trnsctrl.obj
 0001:0003d340       ___CxxFrameHandler2        1003e340 f   libvcruntime:trnsctrl.obj
 0001:0003d376       ___CxxFrameHandler3        1003e376 f   libvcruntime:trnsctrl.obj
 0001:0003d3ac       ___CxxLongjmpUnwind@4      1003e3ac f   libvcruntime:trnsctrl.obj
 0001:0003d3e0       _memmove                   1003e3e0 f   libvcruntime:memmove.obj
 0001:0003d954       ??$?RD@__crt_public_free_policy@@QBEXQBD@Z 1003e954 f i libvcruntime:std_exception.obj
 0001:0003d964       ??0?$__crt_unique_heap_ptr@DU__crt_public_free_policy@@@@QAE@QAD@Z 1003e964 f i libvcruntime:std_exception.obj
 0001:0003d972       ??1?$__crt_unique_heap_ptr@DU__crt_public_free_policy@@@@QAE@XZ 1003e972 f i libvcruntime:std_exception.obj
 0001:0003d982       ??B?$__crt_unique_heap_ptr@DU__crt_public_free_policy@@@@QBE_NXZ 1003e982 f i libvcruntime:std_exception.obj
 0001:0003d989       ?detach@?$__crt_unique_heap_ptr@DU__crt_public_free_policy@@@@QAEPADXZ 1003e989 f i libvcruntime:std_exception.obj
 0001:0003d98f       ?get@?$__crt_unique_heap_ptr@DU__crt_public_free_policy@@@@QBEPADXZ 1003e98f f i libvcruntime:std_exception.obj
 0001:0003d992       ?is_valid@?$__crt_unique_heap_ptr@DU__crt_public_free_policy@@@@QBE_NXZ 1003e992 f i libvcruntime:std_exception.obj
 0001:0003d999       ?release@?$__crt_unique_heap_ptr@DU__crt_public_free_policy@@@@QAEXXZ 1003e999 f i libvcruntime:std_exception.obj
 0001:0003d9a9       ___std_exception_copy      1003e9a9 f   libvcruntime:std_exception.obj
 0001:0003da0c       ___std_exception_destroy   1003ea0c f   libvcruntime:std_exception.obj
 0001:0003da2b       __CxxThrowException@8      1003ea2b f   libvcruntime:throw.obj
 0001:0003dab0       __except_handler3          1003eab0 f   libvcruntime:exsup3.obj
 0001:0003dbd0       __seh_longjmp_unwind@4     1003ebd0 f   libvcruntime:exsup3.obj
 0001:0003dc00       _strchr                    1003ec00 f   libvcruntime:strchr.obj
 0001:0003dc6e       ___from_strstr_to_strchr   1003ec6e     libvcruntime:strchr.obj
 0001:0003dd30       _strstr                    1003ed30 f   libvcruntime:strstr.obj
 0001:0003e0b8       _memcmp                    1003f0b8 f   libvcruntime:memcmp.obj
 0001:00040d20       _strrchr                   10041d20 f   libvcruntime:strrchr.obj
 0001:00040ea0       __except_handler4          10041ea0 f   libvcruntime:chandler4.obj
 0001:00040ffe       ___DestructExceptionObject 10041ffe f   libvcruntime:ehhelpers.obj
 0001:0004109f       ?_CallMemberFunction0@@YGXQAX0@Z 1004209f f i libvcruntime:ehhelpers.obj
 0001:00041104       ?raw_name@type_info@@QBEPBDXZ 10042104 f i libvcruntime:ehhelpers.obj
 0001:00041108       __IsExceptionObjectToBeDestroyed 10042108 f   libvcruntime:ehhelpers.obj
 0001:0004112e       __SetWinRTOutOfMemoryExceptionCallback 1004212e f   libvcruntime:ehhelpers.obj
 0001:0004113b       ___AdjustPointer           1004213b f   libvcruntime:ehhelpers.obj
 0001:00041160       ___FrameUnwindFilter       10042160 f   libvcruntime:ehhelpers.obj
 0001:000411b6       ___GetPlatformExceptionInfo 100421b6 f   libvcruntime:ehhelpers.obj
 0001:00041202       ___current_exception       10042202 f   libvcruntime:ehhelpers.obj
 0001:0004120b       ___current_exception_context 1004220b f   libvcruntime:ehhelpers.obj
 0001:00041214       ___processing_throw        10042214 f   libvcruntime:ehhelpers.obj
 0001:0004121d       ___std_terminate           1004221d f   libvcruntime:ehhelpers.obj
 0001:00041222       __is_exception_typeof      10042222 f   libvcruntime:ehhelpers.obj
 0001:000412d4       ??$?RD@__crt_internal_free_policy@@QBEXQBD@Z 100422d4 f i libvcruntime:std_type_info.obj
 0001:000412e4       ??$?RX@__crt_internal_free_policy@@QBEXQBX@Z 100422e4 f i libvcruntime:std_type_info.obj
 0001:000412f4       ??$__crt_interlocked_compare_exchange_pointer@$$CBDPAD$$T@@YAPBDPDSBDQAD$$T@Z 100422f4 f i libvcruntime:std_type_info.obj
 0001:00041306       ??$__crt_interlocked_read_pointer@$$CBD@@YAPBDPDSBD@Z 10042306 f i libvcruntime:std_type_info.obj
 0001:00041311       ??0?$__crt_unique_heap_ptr@DU__crt_internal_free_policy@@@@QAE@QAD@Z 10042311 f i libvcruntime:std_type_info.obj
 0001:0004131f       ??0?$__crt_unique_heap_ptr@XU__crt_internal_free_policy@@@@QAE@QAX@Z 1004231f f i libvcruntime:std_type_info.obj
 0001:0004132d       ??1?$__crt_unique_heap_ptr@DU__crt_internal_free_policy@@@@QAE@XZ 1004232d f i libvcruntime:std_type_info.obj
 0001:0004133d       ??1?$__crt_unique_heap_ptr@XU__crt_internal_free_policy@@@@QAE@XZ 1004233d f i libvcruntime:std_type_info.obj
 0001:0004134d       ??B?$__crt_unique_heap_ptr@DU__crt_internal_free_policy@@@@QBE_NXZ 1004234d f i libvcruntime:std_type_info.obj
 0001:00041354       ??B?$__crt_unique_heap_ptr@XU__crt_internal_free_policy@@@@QBE_NXZ 10042354 f i libvcruntime:std_type_info.obj
 0001:00041387       ?__crt_interlocked_read_32@@YAHPDH@Z 10042387 f i libvcruntime:std_type_info.obj
 0001:00041392       ?detach@?$__crt_unique_heap_ptr@XU__crt_internal_free_policy@@@@QAEPAXXZ 10042392 f i libvcruntime:std_type_info.obj
 0001:00041398       ?get@?$__crt_unique_heap_ptr@DU__crt_internal_free_policy@@@@QBEPADXZ 10042398 f i libvcruntime:std_type_info.obj
 0001:0004139b       ?get@?$__crt_unique_heap_ptr@XU__crt_internal_free_policy@@@@QBEPAXXZ 1004239b f i libvcruntime:std_type_info.obj
 0001:0004139e       ?is_valid@?$__crt_unique_heap_ptr@DU__crt_internal_free_policy@@@@QBE_NXZ 1004239e f i libvcruntime:std_type_info.obj
 0001:000413a5       ?is_valid@?$__crt_unique_heap_ptr@XU__crt_internal_free_policy@@@@QBE_NXZ 100423a5 f i libvcruntime:std_type_info.obj
 0001:000413ac       ?release@?$__crt_unique_heap_ptr@DU__crt_internal_free_policy@@@@QAEXXZ 100423ac f i libvcruntime:std_type_info.obj
 0001:000413bc       ?release@?$__crt_unique_heap_ptr@XU__crt_internal_free_policy@@@@QAEXXZ 100423bc f i libvcruntime:std_type_info.obj
 0001:000413cc       ___std_type_info_compare   100423cc f   libvcruntime:std_type_info.obj
 0001:00041408       ___std_type_info_destroy_list 10042408 f   libvcruntime:std_type_info.obj
 0001:0004142b       ___std_type_info_hash      1004242b f   libvcruntime:std_type_info.obj
 0001:00041451       ___std_type_info_name      10042451 f   libvcruntime:std_type_info.obj
 0001:00041517       ___vcrt_initialize         10042517 f   libvcruntime:initialization.obj
 0001:00041536       ___vcrt_thread_attach      10042536 f   libvcruntime:initialization.obj
 0001:00041541       ___vcrt_thread_detach      10042541 f   libvcruntime:initialization.obj
 0001:0004154c       ___vcrt_uninitialize       1004254c f   libvcruntime:initialization.obj
 0001:00041563       ___vcrt_uninitialize_critical 10042563 f   libvcruntime:initialization.obj
 0001:0004156e       ??$?RU__vcrt_ptd@@@__crt_internal_free_policy@@QBEXQBU__vcrt_ptd@@@Z 1004256e f i libvcruntime:per_thread_data.obj
 0001:0004157e       ??0?$__crt_unique_heap_ptr@U__vcrt_ptd@@U__crt_internal_free_policy@@@@QAE@QAU__vcrt_ptd@@@Z 1004257e f i libvcruntime:per_thread_data.obj
 0001:0004159b       ??1?$__crt_unique_heap_ptr@U__vcrt_ptd@@U__crt_internal_free_policy@@@@QAE@XZ 1004259b f i libvcruntime:per_thread_data.obj
 0001:000415b4       ??B?$__crt_unique_heap_ptr@U__vcrt_ptd@@U__crt_internal_free_policy@@@@QBE_NXZ 100425b4 f i libvcruntime:per_thread_data.obj
 0001:000415bb       ?detach@?$__crt_unique_heap_ptr@U__vcrt_ptd@@U__crt_internal_free_policy@@@@QAEPAU__vcrt_ptd@@XZ 100425bb f i libvcruntime:per_thread_data.obj
 0001:000415c1       ?get@?$__crt_unique_heap_ptr@U__vcrt_ptd@@U__crt_internal_free_policy@@@@QBEPAU__vcrt_ptd@@XZ 100425c1 f i libvcruntime:per_thread_data.obj
 0001:000415c4       ?is_valid@?$__crt_unique_heap_ptr@U__vcrt_ptd@@U__crt_internal_free_policy@@@@QBE_NXZ 100425c4 f i libvcruntime:per_thread_data.obj
 0001:000415cb       ?release@?$__crt_unique_heap_ptr@U__vcrt_ptd@@U__crt_internal_free_policy@@@@QAEXXZ 100425cb f i libvcruntime:per_thread_data.obj
 0001:000415f5       ___vcrt_freefls@4          100425f5 f   libvcruntime:per_thread_data.obj
 0001:00041611       ___vcrt_freeptd            10042611 f   libvcruntime:per_thread_data.obj
 0001:00041647       ___vcrt_getptd             10042647 f   libvcruntime:per_thread_data.obj
 0001:00041655       ___vcrt_getptd_noexit      10042655 f   libvcruntime:per_thread_data.obj
 0001:000416e7       ___vcrt_getptd_noinit      100426e7 f   libvcruntime:per_thread_data.obj
 0001:0004171e       ___vcrt_initialize_ptd     1004271e f   libvcruntime:per_thread_data.obj
 0001:00041751       ___vcrt_uninitialize_ptd   10042751 f   libvcruntime:per_thread_data.obj
 0001:00041e9e       ??$TypeMatchHelper@V__FrameHandler3@@@@YAHPBU_s_HandlerType@@PBU_s_CatchableType@@PBU_s_ThrowInfo@@@Z 10042e9e f i libvcruntime:frame.obj
 0001:00041f2d       ??$__InternalCxxFrameHandler@V__FrameHandler3@@@@YA?AW4_EXCEPTION_DISPOSITION@@PAUEHExceptionRecord@@PAUEHRegistrationNode@@PAU_CONTEXT@@PAXPBU_s_FuncInfo@@H1E@Z 10042f2d f i libvcruntime:frame.obj
 0001:0004202f       ??0HandlerMap@__FrameHandler3@@QAE@PBU_s_TryBlockMapEntry@@II@Z 1004302f f i libvcruntime:frame.obj
 0001:00042046       ??0TryBlockMap@__FrameHandler3@@QAE@PBU_s_FuncInfo@@I@Z 10043046 f i libvcruntime:frame.obj
 0001:0004205a       ??0bad_exception@std@@QAE@ABV01@@Z 1004305a f i libvcruntime:frame.obj
 0001:00042075       ??0bad_exception@std@@QAE@XZ 10043075 f i libvcruntime:frame.obj
 0001:0004208d       ??0iterator@HandlerMap@__FrameHandler3@@QAE@AAV12@I@Z 1004308d f i libvcruntime:frame.obj
 0001:000420a1       ??1bad_exception@std@@UAE@XZ 100430a1 f i libvcruntime:frame.obj
 0001:000420b2       ??8iterator@HandlerMap@__FrameHandler3@@QBE_NABV012@@Z 100430b2 f i libvcruntime:frame.obj
 0001:000420c5       ??8type_info@@QBE_NABV0@@Z 100430c5 f i libvcruntime:frame.obj
 0001:000420e4       ??9iterator@HandlerMap@__FrameHandler3@@QBE_NABV012@@Z 100430e4 f i libvcruntime:frame.obj
 0001:000420f7       ??Diterator@HandlerMap@__FrameHandler3@@QAE?BU_s_HandlerType@@XZ 100430f7 f i libvcruntime:frame.obj
 0001:00042116       ??Diterator@TryBlockMap@__FrameHandler3@@QAE?BU_s_TryBlockMapEntry@@XZ 10043116 f i libvcruntime:frame.obj
 0001:00042138       ??Eiterator@HandlerMap@__FrameHandler3@@QAEAAV012@XZ 10043138 f i libvcruntime:frame.obj
 0001:0004213e       ??Eiterator@TryBlockMap@__FrameHandler3@@QAEAAV012@XZ 1004313e f i libvcruntime:frame.obj
 0001:00042144       ??Miterator@TryBlockMap@__FrameHandler3@@QBE_NABV012@@Z 10043144 f i libvcruntime:frame.obj
 0001:00042157       ??_Ebad_exception@std@@UAEPAXI@Z 10043157 f i libvcruntime:frame.obj
 0001:00042157       ??_Gbad_exception@std@@UAEPAXI@Z 10043157 f i libvcruntime:frame.obj
 0001:00042184       ?BuildCatchObject@__FrameHandler3@@SAXPAUEHExceptionRecord@@PAXPBU_s_HandlerType@@PBU_s_CatchableType@@@Z 10043184 f   libvcruntime:frame.obj
 0001:00042189       ?BuildCatchObjectHelper@__FrameHandler3@@SAHPAUEHExceptionRecord@@PAXPBU_s_HandlerType@@PBU_s_CatchableType@@@Z 10043189 f   libvcruntime:frame.obj
 0001:000423ea       ?FrameUnwindToEmptyState@__FrameHandler3@@SAXPAUEHRegistrationNode@@PAXPBU_s_FuncInfo@@@Z 100433ea f   libvcruntime:frame.obj
 0001:00042402       ?FrameUnwindToState@__FrameHandler3@@SAXPAUEHRegistrationNode@@PAXPBU_s_FuncInfo@@H@Z 10043402 f   libvcruntime:frame.obj
 0001:000424ea       ?GetMaxState@__FrameHandler3@@SAHPAXPBU_s_FuncInfo@@@Z 100434ea f i libvcruntime:frame.obj
 0001:000425c8       ?TypeMatch@__FrameHandler3@@SAHPBU_s_HandlerType@@PBU_s_CatchableType@@PBU_s_ThrowInfo@@@Z 100435c8 f   libvcruntime:frame.obj
 0001:000425d1       ?_CallMemberFunction1@@YGXQAX00@Z 100435d1 f i libvcruntime:frame.obj
 0001:000425e1       ?_CallMemberFunction2@@YGXQAX00H@Z 100435e1 f i libvcruntime:frame.obj
 0001:000425f4       ?begin@HandlerMap@__FrameHandler3@@QAE?AViterator@12@XZ 100435f4 f i libvcruntime:frame.obj
 0001:00042604       ?end@HandlerMap@__FrameHandler3@@QAE?AViterator@12@XZ 10043604 f i libvcruntime:frame.obj
 0001:00042615       ?getESTypes@__FrameHandler3@@SAPBU_s_ESTypeList@@PBU_s_FuncInfo@@@Z 10043615 f i libvcruntime:frame.obj
 0001:00042620       ?getLastEntry@HandlerMap@__FrameHandler3@@QAEPBU_s_HandlerType@@XZ 10043620 f i libvcruntime:frame.obj
 0001:0004262e       ?getMagicNum@__FrameHandler3@@SAIPBU_s_FuncInfo@@@Z 1004362e f i libvcruntime:frame.obj
 0001:0004263d       ?getNumTryBlocks@TryBlockMap@__FrameHandler3@@QAEIXZ 1004363d f i libvcruntime:frame.obj
 0001:00042643       ?isEHs@__FrameHandler3@@SA_NPBU_s_FuncInfo@@@Z 10043643 f i libvcruntime:frame.obj
 0001:00042650       ?isNoExcept@__FrameHandler3@@SA_NPBU_s_FuncInfo@@@Z 10043650 f i libvcruntime:frame.obj
 0001:00042660       ___BuildCatchObject        10043660 f   libvcruntime:frame.obj
 0001:00042665       ___BuildCatchObjectHelper  10043665 f   libvcruntime:frame.obj
 0001:0004266e       ___TypeMatch               1004366e f   libvcruntime:frame.obj
 0001:00042677       ___vcrt_EncodePointer      10043677 f i libvcruntime:frame.obj
 0001:00042690       __CallSettingFrame@12      10043690 f   libvcruntime:lowhelpr.obj
 0001:000426b7       __NLG_Return               100436b7     libvcruntime:lowhelpr.obj
 0001:000426e7       ___except_validate_context_record 100436e7 f   libvcruntime:jbcxrval.obj
 0001:00042717       ___except_validate_jump_buffer 10043717 f   libvcruntime:jbcxrval.obj
 0001:00042744       ___except_validate_jump_buffer_common 10043744 f i libvcruntime:jbcxrval.obj
 0001:0004277d       _CallDestructExceptionObject 1004377d f   libvcruntime:calldtor.obj
 0001:000427c0       __global_unwind2           100437c0 f   libvcruntime:exsup.obj
 0001:00042840       __local_unwind2            10043840 f   libvcruntime:exsup.obj
 0001:000428e0       __abnormal_termination     100438e0 f   libvcruntime:exsup.obj
 0001:00042910       __NLG_Notify1              10043910 f   libvcruntime:exsup.obj
 0001:00042920       __NLG_Notify               10043920 f   libvcruntime:exsup.obj
 0001:00042937       __NLG_Dispatch             10043937     libvcruntime:exsup.obj
 0001:00042937       __NLG_Dispatch2            10043937     libvcruntime:exsup.obj
 0001:00042940       __NLG_Call                 10043940 f   libvcruntime:exsup.obj
 0001:00042942       __NLG_Return2              10043942     libvcruntime:exsup.obj
 0001:00042a10       __ValidateEH3RN            10043a10 f   libvcruntime:eh3valid.obj
 0001:00042dc0       __local_unwind4            10043dc0 f   libvcruntime:exsup4.obj
 0001:00042eb0       __seh_longjmp_unwind4@4    10043eb0 f   libvcruntime:exsup4.obj
 0001:00042ee0       @_EH4_CallFilterFunc@8     10043ee0 f   libvcruntime:exsup4.obj
 0001:00042f00       @_EH4_TransferToHandler@8  10043f00 f   libvcruntime:exsup4.obj
 0001:00042f20       @_EH4_GlobalUnwind2@8      10043f20 f   libvcruntime:exsup4.obj
 0001:00042f40       @_EH4_LocalUnwind@16       10043f40 f   libvcruntime:exsup4.obj
 0001:00042f57       ??$?0$00@DName@@QAE@PBDU?$StringLifeSelector@$00@@@Z 10043f57 f i libvcruntime:undname.obj
 0001:00042f8a       ??$?0$00@pcharNode@@QAE@PBDHU?$StringLifeSelector@$00@@@Z 10043f8a f i libvcruntime:undname.obj
 0001:00042fa5       ??$?0$01@DName@@QAE@PBDU?$StringLifeSelector@$01@@@Z 10043fa5 f i libvcruntime:undname.obj
 0001:00042fd8       ??$?0$01@pcharNode@@QAE@PBDHU?$StringLifeSelector@$01@@@Z 10043fd8 f i libvcruntime:undname.obj
 0001:00043018       ??$?0$0A@@DName@@QAE@PBDU?$StringLifeSelector@$0A@@@@Z 10044018 f i libvcruntime:undname.obj
 0001:0004304b       ??$?0$0A@@pcharNode@@QAE@PBDHU?$StringLifeSelector@$0A@@@@Z 1004404b f i libvcruntime:undname.obj
 0001:0004308b       ??$?0_K$0A@@?$optional@_K@std@@QAE@$$QA_K@Z 1004408b f i libvcruntime:undname.obj
 0001:000430a5       ??$?0_K@?$_Optional_construct_base@_K@std@@QAE@Uin_place_t@1@$$QA_K@Z 100440a5 f i libvcruntime:undname.obj
 0001:000430bf       ??$?0_K@?$_Optional_destruct_base@_K$00@std@@QAE@Uin_place_t@1@$$QA_K@Z 100440bf f i libvcruntime:undname.obj
 0001:000430d9       ??$append@VDNameNode@@@DName@@AAEXPBVDNameNode@@@Z 100440d9 f i libvcruntime:undname.obj
 0001:0004311a       ??$append@VDNameStatusNode@@@DName@@AAEXPBVDNameStatusNode@@@Z 1004411a f i libvcruntime:undname.obj
 0001:0004315b       ??$append@VcharNode@@@DName@@AAEXPBVcharNode@@@Z 1004415b f i libvcruntime:undname.obj
 0001:0004319c       ??$append@VpDNameNode@@@DName@@AAEXPBVpDNameNode@@@Z 1004419c f i libvcruntime:undname.obj
 0001:000431dd       ??$append@VpcharNode@@@DName@@AAEXPBVpcharNode@@@Z 100441dd f i libvcruntime:undname.obj
 0001:0004321e       ??$doPchar@$00@DName@@AAEXPBDH@Z 1004421e f i libvcruntime:undname.obj
 0001:00043289       ??$doPchar@$01@DName@@AAEXPBDH@Z 10044289 f i libvcruntime:undname.obj
 0001:000432fa       ??$doPchar@$0A@@DName@@AAEXPBDH@Z 100442fa f i libvcruntime:undname.obj
 0001:0004336b       ??$forward@_K@std@@YA$$QA_KAA_K@Z 1004436b f i libvcruntime:undname.obj
 0001:0004342f       ??$size@D$04@std@@YAIAAY04$$CBD@Z 1004442f f i libvcruntime:undname.obj
 0001:00043433       ??0?$_Optional_construct_base@_K@std@@QAE@XZ 10044433 f i libvcruntime:undname.obj
 0001:0004343a       ??0?$_Optional_destruct_base@_K$00@std@@QAE@XZ 1004443a f i libvcruntime:undname.obj
 0001:00043441       ??0?$optional@_K@std@@QAE@XZ 10044441 f i libvcruntime:undname.obj
 0001:00043448       ??0Block@_HeapManager@@QAE@XZ 10044448 f i libvcruntime:undname.obj
 0001:0004344e       ??0DName@@QAE@AAPBDD@Z     1004444e f   libvcruntime:undname.obj
 0001:000434ce       ??0DName@@QAE@ABUStringLiteral@@@Z 100444ce f   libvcruntime:undname.obj
 0001:000434f5       ??0DName@@QAE@ABV0@@Z      100444f5 f i libvcruntime:undname.obj
 0001:0004350b       ??0DName@@QAE@D@Z          1004450b f   libvcruntime:undname.obj
 0001:00043527       ??0DName@@QAE@PAV0@@Z      10044527 f   libvcruntime:undname.obj
 0001:00043570       ??0DName@@QAE@W4DNameStatus@@@Z 10044570 f   libvcruntime:undname.obj
 0001:000435b0       ??0DName@@QAE@XZ           100445b0 f i libvcruntime:undname.obj
 0001:000435ba       ??0DName@@QAE@_J@Z         100445ba f   libvcruntime:undname.obj
 0001:0004364d       ??0DName@@QAE@_K@Z         1004464d f   libvcruntime:undname.obj
 0001:000436bf       ??0DNameNode@@IAE@XZ       100446bf f i libvcruntime:undname.obj
 0001:000436c8       ??0Replicator@@QAE@XZ      100446c8 f i libvcruntime:undname.obj
 0001:000436d7       ??0UnDecorator@@QAE@PBDP6APADJ@ZK@Z 100446d7 f i libvcruntime:undname.obj
 0001:00043723       ??0_Nontrivial_dummy_type@std@@QAE@XZ 10044723 f i libvcruntime:undname.obj
 0001:00043726       ??0charNode@@QAE@D@Z       10044726 f i libvcruntime:undname.obj
 0001:0004373b       ??0pDNameNode@@QAE@PAVDName@@@Z 1004473b f   libvcruntime:undname.obj
 0001:00043763       ??0pairNode@@QAE@PBVDNameNode@@0@Z 10044763 f i libvcruntime:undname.obj
 0001:00043789       ??2@YAPAXIAAV_HeapManager@@H@Z 10044789 f   libvcruntime:undname.obj
 0001:000437a8       ??4DName@@QAEAAV0@ABUStringLiteral@@@Z 100447a8 f   libvcruntime:undname.obj
 0001:000437c9       ??4DName@@QAEAAV0@ABV0@@Z  100447c9 f   libvcruntime:undname.obj
 0001:000437df       ??4DName@@QAEAAV0@D@Z      100447df f i libvcruntime:undname.obj
 0001:000437fb       ??4DName@@QAEAAV0@PAV0@@Z  100447fb f   libvcruntime:undname.obj
 0001:0004383e       ??4DName@@QAEAAV0@W4DNameStatus@@@Z 1004483e f   libvcruntime:undname.obj
 0001:00043870       ??AReplicator@@QBE?AVDName@@H@Z 10044870 f   libvcruntime:undname.obj
 0001:000438ac       ??B?$optional@_K@std@@QBE_NXZ 100448ac f i libvcruntime:undname.obj
 0001:000438b0       ??D?$_Optional_construct_base@_K@std@@QGAEAA_KXZ 100448b0 f i libvcruntime:undname.obj
 0001:000438b3       ??H@YA?AVDName@@ABUStringLiteral@@ABV0@@Z 100448b3 f i libvcruntime:undname.obj
 0001:000438d5       ??H@YA?AVDName@@DABV0@@Z   100448d5 f i libvcruntime:undname.obj
 0001:00043900       ??H@YA?AVDName@@W4DNameStatus@@ABV0@@Z 10044900 f i libvcruntime:undname.obj
 0001:00043922       ??HDName@@QBE?AV0@ABUStringLiteral@@@Z 10044922 f   libvcruntime:undname.obj
 0001:00043944       ??HDName@@QBE?AV0@ABV0@@Z  10044944 f   libvcruntime:undname.obj
 0001:00043966       ??HDName@@QBE?AV0@D@Z      10044966 f   libvcruntime:undname.obj
 0001:00043988       ??HDName@@QBE?AV0@PAV0@@Z  10044988 f   libvcruntime:undname.obj
 0001:000439aa       ??HDName@@QBE?AV0@W4DNameStatus@@@Z 100449aa f   libvcruntime:undname.obj
 0001:000439cc       ??HStringLiteral@@QBE?AU0@H@Z 100449cc f i libvcruntime:undname.obj
 0001:000439e6       ??YDName@@QAEAAV0@ABUStringLiteral@@@Z 100449e6 f   libvcruntime:undname.obj
 0001:00043a3e       ??YDName@@QAEAAV0@ABV0@@Z  10044a3e f   libvcruntime:undname.obj
 0001:00043a95       ??YDName@@QAEAAV0@D@Z      10044a95 f   libvcruntime:undname.obj
 0001:00043aea       ??YDName@@QAEAAV0@PAV0@@Z  10044aea f   libvcruntime:undname.obj
 0001:00043b4e       ??YDName@@QAEAAV0@W4DNameStatus@@@Z 10044b4e f   libvcruntime:undname.obj
 0001:00043b8e       ??YReplicator@@QAEAAV0@ABVDName@@@Z 10044b8e f   libvcruntime:undname.obj
 0001:00043bce       ??_5DName@@QAEAAV0@ABV0@@Z 10044bce f   libvcruntime:undname.obj
 0001:00043bea       ??__K_l@@YA?AUStringLiteral@@PBDI@Z 10044bea f i libvcruntime:undname.obj
 0001:00043bf5       ?Constructor@_HeapManager@@QAEXP6APAXI@ZP6AXPAX@Z@Z 10044bf5 f i libvcruntime:undname.obj
 0001:00043c12       ?Destructor@_HeapManager@@QAEXXZ 10044c12 f i libvcruntime:undname.obj
 0001:00043c56       ?UScore@UnDecorator@@SA?AUStringLiteral@@W4Tokens@@@Z 10044c56 f   libvcruntime:undname.obj
 0001:00043c7d       ?composeDeclaration@UnDecorator@@CA?AVDName@@ABV2@@Z 10044c7d f i libvcruntime:undname.obj
 0001:00044975       ?doAccessSpecifiers@UnDecorator@@SAHXZ 10045975 f i libvcruntime:undname.obj
 0001:00044983       ?doAllocationLanguage@UnDecorator@@SAHXZ 10045983 f i libvcruntime:undname.obj
 0001:00044991       ?doAllocationModel@UnDecorator@@SAHXZ 10045991 f i libvcruntime:undname.obj
 0001:0004499f       ?doEcsu@UnDecorator@@SAHXZ 1004599f f i libvcruntime:undname.obj
 0001:000449ad       ?doEllipsis@UnDecorator@@SAHXZ 100459ad f i libvcruntime:undname.obj
 0001:000449bb       ?doFunctionReturns@UnDecorator@@SAHXZ 100459bb f i libvcruntime:undname.obj
 0001:000449c9       ?doMSKeywords@UnDecorator@@SAHXZ 100459c9 f i libvcruntime:undname.obj
 0001:000449d6       ?doMemberTypes@UnDecorator@@SAHXZ 100459d6 f i libvcruntime:undname.obj
 0001:000449e4       ?doNameOnly@UnDecorator@@SAHXZ 100459e4 f i libvcruntime:undname.obj
 0001:000449ef       ?doNoIdentCharCheck@UnDecorator@@SAHXZ 100459ef f i libvcruntime:undname.obj
 0001:000449fa       ?doPchar@DName@@AAEXD@Z    100459fa f   libvcruntime:undname.obj
 0001:00044a32       ?doPtr64@UnDecorator@@SAHXZ 10045a32 f i libvcruntime:undname.obj
 0001:00044a40       ?doRestrictionSpec@UnDecorator@@SAHXZ 10045a40 f i libvcruntime:undname.obj
 0001:00044a4e       ?doThisTypes@UnDecorator@@SAHXZ 10045a4e f i libvcruntime:undname.obj
 0001:00044a60       ?doThrowTypes@UnDecorator@@SAHXZ 10045a60 f i libvcruntime:undname.obj
 0001:00044a6e       ?doTypeOnly@UnDecorator@@SAHXZ 10045a6e f i libvcruntime:undname.obj
 0001:00044a79       ?doUnderScore@UnDecorator@@SAHXZ 10045a79 f i libvcruntime:undname.obj
 0001:00044a84       ?getAddressOf@UnDecorator@@CA?AVDName@@XZ 10045a84 f   libvcruntime:undname.obj
 0001:00044aec       ?getArgumentList@UnDecorator@@CA?AVDName@@XZ 10045aec f   libvcruntime:undname.obj
 0001:00044c56       ?getArgumentTypes@UnDecorator@@CA?AVDName@@XZ 10045c56 f   libvcruntime:undname.obj
 0001:00044d5e       ?getArrayAccess@UnDecorator@@CA?AVDName@@XZ 10045d5e f   libvcruntime:undname.obj
 0001:00044dd2       ?getArrayObject@UnDecorator@@CA?AVDName@@XZ 10045dd2 f   libvcruntime:undname.obj
 0001:00044e5d       ?getArrayType@UnDecorator@@CA?AVDName@@ABV2@@Z 10045e5d f i libvcruntime:undname.obj
 0001:00044ffa       ?getBasedType@UnDecorator@@CA?AVDName@@XZ 10045ffa f   libvcruntime:undname.obj
 0001:000450b0       ?getBasicDataType@UnDecorator@@CA?AVDName@@ABV2@@Z 100460b0 f   libvcruntime:undname.obj
 0001:00045618       ?getCHPEName@UnDecorator@@QAEPADPADH@Z 10046618 f i libvcruntime:undname.obj
 0001:000456f5       ?getCallIndex@UnDecorator@@CA?AVDName@@XZ 100466f5 f i libvcruntime:undname.obj
 0001:00045709       ?getCallingConvention@UnDecorator@@CA?AVDName@@XZ 10046709 f   libvcruntime:undname.obj
 0001:000457de       ?getDataIndirectType@UnDecorator@@CA?AVDName@@ABV2@W4IndirectionKind@@0H@Z 100467de f   libvcruntime:undname.obj
 0001:00045f7b       ?getDataIndirectType@UnDecorator@@CA?AVDName@@XZ 10046f7b f i libvcruntime:undname.obj
 0001:00045fa9       ?getDataType@UnDecorator@@CA?AVDName@@PAV2@@Z 10046fa9 f   libvcruntime:undname.obj
 0001:00046080       ?getDecoratedName@UnDecorator@@CA?AVDName@@XZ 10047080 f   libvcruntime:undname.obj
 0001:000462d4       ?getDimension@UnDecorator@@CA?AVDName@@_N@Z 100472d4 f   libvcruntime:undname.obj
 0001:000463e2       ?getDispatchTarget@UnDecorator@@CA?AVDName@@XZ 100473e2 f   libvcruntime:undname.obj
 0001:00046435       ?getDisplacement@UnDecorator@@CA?AVDName@@XZ 10047435 f i libvcruntime:undname.obj
 0001:00046449       ?getECSUDataType@UnDecorator@@CA?AVDName@@XZ 10047449 f   libvcruntime:undname.obj
 0001:000465db       ?getECSUName@UnDecorator@@CA?AVDName@@XZ 100475db f i libvcruntime:undname.obj
 0001:000465ec       ?getEnumType@UnDecorator@@CA?AVDName@@XZ 100475ec f i libvcruntime:undname.obj
 0001:00046700       ?getExtendedDataIndirectType@UnDecorator@@CA?AVDName@@AAW4IndirectionKind@@AA_NH@Z 10047700 f   libvcruntime:undname.obj
 0001:000468ab       ?getExternalDataType@UnDecorator@@CA?AVDName@@ABV2@@Z 100478ab f i libvcruntime:undname.obj
 0001:00046910       ?getFloatingPoint@UnDecorator@@CA?AVDName@@H@Z 10047910 f   libvcruntime:undname.obj
 0001:000469ce       ?getFunctionIndirectType@UnDecorator@@CA?AVDName@@ABV2@@Z 100479ce f   libvcruntime:undname.obj
 0001:00046d78       ?getGuardNumber@UnDecorator@@CA?AVDName@@XZ 10047d78 f i libvcruntime:undname.obj
 0001:00046d8c       ?getLastChar@DName@@QBEDXZ 10047d8c f i libvcruntime:undname.obj
 0001:00046dac       ?getLastChar@DNameStatusNode@@UBEDXZ 10047dac f i libvcruntime:undname.obj
 0001:00046db8       ?getLastChar@charNode@@UBEDXZ 10047db8 f i libvcruntime:undname.obj
 0001:00046dbc       ?getLastChar@pDNameNode@@UBEDXZ 10047dbc f i libvcruntime:undname.obj
 0001:00046dca       ?getLastChar@pairNode@@UBEDXZ 10047dca f i libvcruntime:undname.obj
 0001:00046dff       ?getLastChar@pcharNode@@UBEDXZ 10047dff f i libvcruntime:undname.obj
 0001:00046e11       ?getLexicalFrame@UnDecorator@@CA?AVDName@@XZ 10047e11 f i libvcruntime:undname.obj
 0001:00046e42       ?getMemberAccess@UnDecorator@@CA?AVDName@@XZ 10047e42 f   libvcruntime:undname.obj
 0001:00046eb2       ?getMemoryWithBuffer@_HeapManager@@QAEPAXI@Z 10047eb2 f   libvcruntime:undname.obj
 0001:00046f1c       ?getMemoryWithoutBuffer@_HeapManager@@QAEPAXI@Z 10047f1c f   libvcruntime:undname.obj
 0001:00046f3c       ?getNoexcept@UnDecorator@@CA?AVDName@@XZ 10047f3c f   libvcruntime:undname.obj
 0001:00046f90       ?getNumberOfDimensions@UnDecorator@@CAHXZ 10047f90 f   libvcruntime:undname.obj
 0001:00046ff2       ?getOperatorName@UnDecorator@@CA?AVDName@@_NPA_N@Z 10047ff2 f i libvcruntime:undname.obj
 0001:00047908       ?getPointerToMember@UnDecorator@@CA?AVDName@@XZ 10048908 f   libvcruntime:undname.obj
 0001:000479c4       ?getPointerType@UnDecorator@@CA?AVDName@@ABV2@0@Z 100489c4 f i libvcruntime:undname.obj
 0001:000479df       ?getPointerTypeArray@UnDecorator@@CA?AVDName@@ABV2@0@Z 100489df f i libvcruntime:undname.obj
 0001:000479fa       ?getPrimaryDataType@UnDecorator@@CA?AVDName@@ABV2@@Z 100489fa f   libvcruntime:undname.obj
 0001:00047c48       ?getPtrRefDataType@UnDecorator@@CA?AVDName@@ABV2@H@Z 10048c48 f   libvcruntime:undname.obj
 0001:00047db5       ?getPtrRefType@UnDecorator@@CA?AVDName@@ABV2@0W4IndirectionKind@@@Z 10048db5 f   libvcruntime:undname.obj
 0001:00047ec6       ?getReferenceType@UnDecorator@@CA?AVDName@@ABV2@0W4IndirectionKind@@@Z 10048ec6 f i libvcruntime:undname.obj
 0001:00047ee2       ?getRestrictionSpec@UnDecorator@@CA?AVDName@@XZ 10048ee2 f   libvcruntime:undname.obj
 0001:00048007       ?getReturnType@UnDecorator@@CA?AVDName@@PAV2@@Z 10049007 f   libvcruntime:undname.obj
 0001:00048036       ?getScope@UnDecorator@@CA?AVDName@@XZ 10049036 f   libvcruntime:undname.obj
 0001:000483f4       ?getScopedName@UnDecorator@@CA?AVDName@@XZ 100493f4 f   libvcruntime:undname.obj
 0001:000484e7       ?getSignedDimension@UnDecorator@@CA?AVDName@@XZ 100494e7 f   libvcruntime:undname.obj
 0001:00048538       ?getStorageConvention@UnDecorator@@CA?AVDName@@XZ 10049538 f i libvcruntime:undname.obj
 0001:00048549       ?getString@DName@@QBEPADPAD0@Z 10049549 f i libvcruntime:undname.obj
 0001:00048576       ?getString@DName@@QBEPADPADH@Z 10049576 f i libvcruntime:undname.obj
 0001:000485cb       ?getString@DNameStatusNode@@UBEPADPAD0@Z 100495cb f i libvcruntime:undname.obj
 0001:00048612       ?getString@charNode@@UBEPADPAD0@Z 10049612 f i libvcruntime:undname.obj
 0001:00048627       ?getString@pDNameNode@@UBEPADPAD0@Z 10049627 f i libvcruntime:undname.obj
 0001:0004863e       ?getString@pairNode@@UBEPADPAD0@Z 1004963e f i libvcruntime:undname.obj
 0001:00048684       ?getString@pcharNode@@UBEPADPAD0@Z 10049684 f i libvcruntime:undname.obj
 0001:0004869f       ?getStringEncoding@UnDecorator@@CA?AVDName@@W4PrefixKind@@H@Z 1004969f f   libvcruntime:undname.obj
 0001:0004873c       ?getStringHelper@@YAPADPADPBD1H@Z 1004973c f i libvcruntime:undname.obj
 0001:00048766       ?getStringObject@UnDecorator@@CA?AVDName@@XZ 10049766 f   libvcruntime:undname.obj
 0001:000487b1       ?getSymbolName@UnDecorator@@CA?AVDName@@XZ 100497b1 f i libvcruntime:undname.obj
 0001:000487f9       ?getTemplateArgumentList@UnDecorator@@CA?AVDName@@XZ 100497f9 f   libvcruntime:undname.obj
 0001:000489a9       ?getTemplateName@UnDecorator@@CA?AVDName@@_N@Z 100499a9 f   libvcruntime:undname.obj
 0001:00048b09       ?getTemplateNonTypeArgument@UnDecorator@@CA?AVDName@@XZ 10049b09 f   libvcruntime:undname.obj
 0001:00048ee1       ?getTemplateTypeArgument@UnDecorator@@CA?AVDName@@XZ 10049ee1 f   libvcruntime:undname.obj
 0001:00048ff2       ?getThisType@UnDecorator@@CA?AVDName@@XZ 10049ff2 f i libvcruntime:undname.obj
 0001:00049021       ?getThrowTypes@UnDecorator@@CA?AVDName@@XZ 1004a021 f   libvcruntime:undname.obj
 0001:00049044       ?getTypeEncoding@UnDecorator@@CAHXZ 1004a044 f i libvcruntime:undname.obj
 0001:0004937c       ?getUndecoratedName@UnDecorator@@QAEPADPADH@Z 1004a37c f i libvcruntime:undname.obj
 0001:0004949b       ?getUnionObject@UnDecorator@@CA?AVDName@@XZ 1004a49b f   libvcruntime:undname.obj
 0001:00049542       ?getVCallThunkType@UnDecorator@@CA?AVDName@@XZ 1004a542 f i libvcruntime:undname.obj
 0001:0004958c       ?getValue@UnDecorator@@CA?AV?$optional@_K@std@@XZ 1004a58c f   libvcruntime:undname.obj
 0001:00049614       ?getValueObject@UnDecorator@@CA?AVDName@@XZ 1004a614 f   libvcruntime:undname.obj
 0001:0004970e       ?getVbTableType@UnDecorator@@CA?AVDName@@ABV2@@Z 1004a70e f i libvcruntime:undname.obj
 0001:00049723       ?getVdispMapType@UnDecorator@@CA?AVDName@@ABV2@@Z 1004a723 f i libvcruntime:undname.obj
 0001:00049784       ?getVfTableType@UnDecorator@@CA?AVDName@@ABV2@@Z 1004a784 f i libvcruntime:undname.obj
 0001:000498d8       ?getZName@UnDecorator@@CA?AVDName@@_N0@Z 1004a8d8 f   libvcruntime:undname.obj
 0001:00049af6       ?haveTemplateParameters@UnDecorator@@SAHXZ 1004aaf6 f i libvcruntime:undname.obj
 0001:00049b01       ?isArray@DName@@QBEHXZ     1004ab01 f i libvcruntime:undname.obj
 0001:00049b0b       ?isComArray@DName@@QBEHXZ  1004ab0b f i libvcruntime:undname.obj
 0001:00049b15       ?isEmpty@DName@@QBEHXZ     1004ab15 f i libvcruntime:undname.obj
 0001:00049b1d       ?isFull@Replicator@@QBEHXZ 1004ab1d f i libvcruntime:undname.obj
 0001:00049b26       ?isNoTE@DName@@QBEHXZ      1004ab26 f i libvcruntime:undname.obj
 0001:00049b30       ?isPinPtr@DName@@QBEHXZ    1004ab30 f i libvcruntime:undname.obj
 0001:00049b3a       ?isPtrRef@DName@@QBEHXZ    1004ab3a f i libvcruntime:undname.obj
 0001:00049b44       ?isUDC@DName@@QBEHXZ       1004ab44 f i libvcruntime:undname.obj
 0001:00049b55       ?isUDTThunk@DName@@QBEHXZ  1004ab55 f i libvcruntime:undname.obj
 0001:00049b66       ?isVCallThunk@DName@@QBEHXZ 1004ab66 f i libvcruntime:undname.obj
 0001:00049b70       ?isValid@DName@@QBEHXZ     1004ab70 f i libvcruntime:undname.obj
 0001:00049b7a       ?length@DName@@QBEHXZ      1004ab7a f i libvcruntime:undname.obj
 0001:00049b99       ?length@DNameStatusNode@@UBEHXZ 1004ab99 f i libvcruntime:undname.obj
 0001:00049b9d       ?length@charNode@@UBEHXZ   1004ab9d f i libvcruntime:undname.obj
 0001:00049ba1       ?length@pDNameNode@@UBEHXZ 1004aba1 f i libvcruntime:undname.obj
 0001:00049baf       ?length@pairNode@@UBEHXZ   1004abaf f i libvcruntime:undname.obj
 0001:00049bf8       ?length@pcharNode@@UBEHXZ  1004abf8 f i libvcruntime:undname.obj
 0001:00049bfc       ?make@DNameStatusNode@@SAPBV1@W4DNameStatus@@@Z 1004abfc f i libvcruntime:undname.obj
 0001:00049c18       ?parseDecoratedName@UnDecorator@@CA?AVDName@@XZ 1004ac18 f   libvcruntime:undname.obj
 0001:00049d12       ?raw_length@DNameStatusNode@@UBEHXZ 1004ad12 f i libvcruntime:undname.obj
 0001:00049d16       ?raw_length@charNode@@UBEHXZ 1004ad16 f i libvcruntime:undname.obj
 0001:00049d1a       ?raw_length@pDNameNode@@UBEHXZ 1004ad1a f i libvcruntime:undname.obj
 0001:00049d1e       ?raw_length@pairNode@@UBEHXZ 1004ad1e f i libvcruntime:undname.obj
 0001:00049d22       ?raw_length@pcharNode@@UBEHXZ 1004ad22 f i libvcruntime:undname.obj
 0001:00049d26       ?setIsArray@DName@@QAEXXZ  1004ad26 f i libvcruntime:undname.obj
 0001:00049d2e       ?setIsComArray@DName@@QAEXXZ 1004ad2e f i libvcruntime:undname.obj
 0001:00049d36       ?setIsNoTE@DName@@QAEXXZ   1004ad36 f i libvcruntime:undname.obj
 0001:00049d3e       ?setIsPinPtr@DName@@QAEXXZ 1004ad3e f i libvcruntime:undname.obj
 0001:00049d46       ?setIsUDC@DName@@QAEXXZ    1004ad46 f i libvcruntime:undname.obj
 0001:00049d53       ?setIsVCallThunk@DName@@QAEXXZ 1004ad53 f i libvcruntime:undname.obj
 0001:00049d5b       ?setPtrRef@DName@@QAEAAV1@XZ 1004ad5b f i libvcruntime:undname.obj
 0001:00049d65       ?status@DName@@QBE?AW4DNameStatus@@XZ 1004ad65 f i libvcruntime:undname.obj
 0001:00049dd1       ___unDName                 1004add1 f   libvcruntime:undname.obj
 0001:00049df4       ___unDNameEx               1004adf4 f   libvcruntime:undname.obj
 0001:00049e93       _snprintf                  1004ae93 f i libvcruntime:undname.obj
 0001:00049ead       _unDNameGenerateCHPE       1004aead f   libvcruntime:undname.obj
 0001:00049f4a       _vsnprintf                 1004af4a f i libvcruntime:undname.obj
 0001:00049f7a       ___vcrt_initialize_locks   1004af7a f   libvcruntime:locks.obj
 0001:00049fb6       ___vcrt_lock               1004afb6 f   libvcruntime:locks.obj
 0001:00049fcb       ___vcrt_uninitialize_locks 1004afcb f   libvcruntime:locks.obj
 0001:00049ffa       ___vcrt_unlock             1004affa f   libvcruntime:locks.obj
 0001:0004a00f       ??$__crt_interlocked_exchange_pointer@UHINSTANCE__@@PAU1@@@YAPAUHINSTANCE__@@PDSAU0@QAU0@@Z 1004b00f f i libvcruntime:winapi_downlevel.obj
 0001:0004a01c       ??$__crt_interlocked_exchange_pointer@UHINSTANCE__@@PAX@@YAPAUHINSTANCE__@@PDSAU0@QAX@Z 1004b01c f i libvcruntime:winapi_downlevel.obj
 0001:0004a029       ??$__crt_interlocked_exchange_pointer@XPAX@@YAPAXPDSAXQAX@Z 1004b029 f i libvcruntime:winapi_downlevel.obj
 0001:0004a036       ??$__crt_interlocked_read_pointer@UHINSTANCE__@@@@YAPAUHINSTANCE__@@PDSAU0@@Z 1004b036 f i libvcruntime:winapi_downlevel.obj
 0001:0004a041       ??$__crt_interlocked_read_pointer@X@@YAPAXPDSAX@Z 1004b041 f i libvcruntime:winapi_downlevel.obj
 0001:0004a2cd       ___vcrt_FlsAlloc           1004b2cd f   libvcruntime:winapi_downlevel.obj
 0001:0004a308       ___vcrt_FlsFree            1004b308 f   libvcruntime:winapi_downlevel.obj
 0001:0004a343       ___vcrt_FlsGetValue        1004b343 f   libvcruntime:winapi_downlevel.obj
 0001:0004a37e       ___vcrt_FlsSetValue        1004b37e f   libvcruntime:winapi_downlevel.obj
 0001:0004a3bc       ___vcrt_InitializeCriticalSectionEx 1004b3bc f   libvcruntime:winapi_downlevel.obj
 0001:0004a417       __get_unexpected           1004b417 f   libvcruntime:unexpected.obj
 0001:0004a429       _set_unexpected            1004b429 f   libvcruntime:unexpected.obj
 0001:0004a447       _unexpected                1004b447 f   libvcruntime:unexpected.obj
 0001:0004a464       ?GetCurrentState@__FrameHandler3@@SAHPAUEHRegistrationNode@@PAXPBU_s_FuncInfo@@@Z 1004b464 f   libvcruntime:ehstate.obj
 0001:0004a481       ?SetState@__FrameHandler3@@SAXPAUEHRegistrationNode@@PBU_s_FuncInfo@@H@Z 1004b481 f   libvcruntime:ehstate.obj
 0001:0004a48f       ??$__crt_interlocked_exchange_pointer@$$A6AXXZP6AXXZ@@YAP6AXXZPDS6AXXZQ6AXXZ@Z 1004b48f f i libvcruntime:purevirt.obj
 0001:0004a49c       ??$__crt_interlocked_read_pointer@$$A6AXXZ@@YAP6AXXZPDS6AXXZ@Z 1004b49c f i libvcruntime:purevirt.obj
 0001:0004a4a7       __get_purecall_handler     1004b4a7 f   libvcruntime:purevirt.obj
 0001:0004a4ae       __purecall                 1004b4ae f   libvcruntime:purevirt.obj
 0001:0004a4ca       __set_purecall_handler     1004b4ca f   libvcruntime:purevirt.obj
 0001:0004a4d9       _malloc                    1004b4d9 f   libucrt:malloc.obj
 0001:0004a4e4       _labs                      1004b4e4 f   libucrt:labs.obj
 0001:0004a4f3       ??$__crt_fast_decode_pointer@P6AXPB_W00II@Z@@YAP6AXPB_W00II@ZQ6AX000II@Z@Z 1004b4f3 f i libucrt:invalid_parameter.obj
 0001:0004a509       ??$__crt_fast_encode_pointer@P6AXPB_W00II@Z@@YAP6AXPB_W00II@ZQ6AX000II@Z@Z 1004b509 f i libucrt:invalid_parameter.obj
 0001:0004a528       ??$initialize_from_array@$$BY00Q6AXPB_W00II@Z@?$dual_state_global@P6AXPB_W00II@Z@__crt_state_management@@QAAXAAY00Q6AXPB_W00II@Z@Z 1004b528 f i libucrt:invalid_parameter.obj
 0001:0004a539       ?__crt_rotate_pointer_value@@YAIIH@Z 1004b539 f i libucrt:invalid_parameter.obj
 0001:0004a548       ?dangerous_get_state_array@?$dual_state_global@P6AXPB_W00II@Z@__crt_state_management@@QAEPAP6AXPB_W00II@ZXZ 1004b548 f i libucrt:invalid_parameter.obj
 0001:0004a54b       ?get_current_state_index@__crt_state_management@@YAIXZ 1004b54b f i libucrt:invalid_parameter.obj
 0001:0004a54e       ?value@?$dual_state_global@P6AXPB_W00II@Z@__crt_state_management@@QAEAAP6AXPB_W00II@ZXZ 1004b54e f i libucrt:invalid_parameter.obj
 0001:0004a551       ___acrt_call_reportfault   1004b551 f   libucrt:invalid_parameter.obj
 0001:0004a68a       ___acrt_initialize_invalid_parameter_handler 1004b68a f   libucrt:invalid_parameter.obj
 0001:0004a699       __get_invalid_parameter_handler 1004b699 f   libucrt:invalid_parameter.obj
 0001:0004a6ac       __get_thread_local_invalid_parameter_handler 1004b6ac f   libucrt:invalid_parameter.obj
 0001:0004a6bd       __invalid_parameter        1004b6bd f   libucrt:invalid_parameter.obj
 0001:0004a721       __invalid_parameter_noinfo 1004b721 f   libucrt:invalid_parameter.obj
 0001:0004a731       __invalid_parameter_noinfo_noreturn 1004b731 f   libucrt:invalid_parameter.obj
 0001:0004a74e       __invoke_watson            1004b74e f   libucrt:invalid_parameter.obj
 0001:0004a782       __set_invalid_parameter_handler 1004b782 f   libucrt:invalid_parameter.obj
 0001:0004a7b2       __set_thread_local_invalid_parameter_handler 1004b7b2 f   libucrt:invalid_parameter.obj
 0001:0004a7cf       _free                      1004b7cf f   libucrt:free.obj
 0001:0004a7f0       _sqrt                      1004b7f0 f   libucrt:sqrt.obj
 0001:0004a7fe       ??$?0ABV?$stream_output_adapter@D@__crt_stdio_output@@AB_KABQBDABQAU__crt_locale_pointers@@ABQAD@?$format_validation_base@DV?$stream_output_adapter@D@__crt_stdio_output@@@__crt_stdio_output@@IAE@ABV?$stream_output_adapter@D@1@AB_KABQBDABQAU__crt_locale_pointers@@ABQAD@Z 1004b7fe f i libucrt:output.obj
 0001:0004a821       ??$?0ABV?$stream_output_adapter@D@__crt_stdio_output@@AB_KABQBDABQAU__crt_locale_pointers@@ABQAD@?$positional_parameter_base@DV?$stream_output_adapter@D@__crt_stdio_output@@@__crt_stdio_output@@IAE@ABV?$stream_output_adapter@D@1@AB_KABQBDABQAU__crt_locale_pointers@@ABQAD@Z 1004b821 f i libucrt:output.obj
 0001:0004a869       ??$?0ABV?$stream_output_adapter@D@__crt_stdio_output@@AB_KABQBDABQAU__crt_locale_pointers@@ABQAD@?$standard_base@DV?$stream_output_adapter@D@__crt_stdio_output@@@__crt_stdio_output@@IAE@ABV?$stream_output_adapter@D@1@AB_KABQBDABQAU__crt_locale_pointers@@ABQAD@Z 1004b869 f i libucrt:output.obj
 0001:0004a89e       ??$?0ABV?$stream_output_adapter@_W@__crt_stdio_output@@AB_KABQB_WABQAU__crt_locale_pointers@@ABQAD@?$format_validation_base@_WV?$stream_output_adapter@_W@__crt_stdio_output@@@__crt_stdio_output@@IAE@ABV?$stream_output_adapter@_W@1@AB_KABQB_WABQAU__crt_locale_pointers@@ABQAD@Z 1004b89e f i libucrt:output.obj
 0001:0004a8c1       ??$?0ABV?$stream_output_adapter@_W@__crt_stdio_output@@AB_KABQB_WABQAU__crt_locale_pointers@@ABQAD@?$positional_parameter_base@_WV?$stream_output_adapter@_W@__crt_stdio_output@@@__crt_stdio_output@@IAE@ABV?$stream_output_adapter@_W@1@AB_KABQB_WABQAU__crt_locale_pointers@@ABQAD@Z 1004b8c1 f i libucrt:output.obj
 0001:0004a909       ??$?0ABV?$stream_output_adapter@_W@__crt_stdio_output@@AB_KABQB_WABQAU__crt_locale_pointers@@ABQAD@?$standard_base@_WV?$stream_output_adapter@_W@__crt_stdio_output@@@__crt_stdio_output@@IAE@ABV?$stream_output_adapter@_W@1@AB_KABQB_WABQAU__crt_locale_pointers@@ABQAD@Z 1004b909 f i libucrt:output.obj
 0001:0004a93e       ??$?0ABV?$string_output_adapter@D@__crt_stdio_output@@AB_KABQBDABQAU__crt_locale_pointers@@ABQAD@?$format_validation_base@DV?$string_output_adapter@D@__crt_stdio_output@@@__crt_stdio_output@@IAE@ABV?$string_output_adapter@D@1@AB_KABQBDABQAU__crt_locale_pointers@@ABQAD@Z 1004b93e f i libucrt:output.obj
 0001:0004a961       ??$?0ABV?$string_output_adapter@D@__crt_stdio_output@@AB_KABQBDABQAU__crt_locale_pointers@@ABQAD@?$positional_parameter_base@DV?$string_output_adapter@D@__crt_stdio_output@@@__crt_stdio_output@@IAE@ABV?$string_output_adapter@D@1@AB_KABQBDABQAU__crt_locale_pointers@@ABQAD@Z 1004b961 f i libucrt:output.obj
 0001:0004a9a9       ??$?0ABV?$string_output_adapter@D@__crt_stdio_output@@AB_KABQBDABQAU__crt_locale_pointers@@ABQAD@?$standard_base@DV?$string_output_adapter@D@__crt_stdio_output@@@__crt_stdio_output@@IAE@ABV?$string_output_adapter@D@1@AB_KABQBDABQAU__crt_locale_pointers@@ABQAD@Z 1004b9a9 f i libucrt:output.obj
 0001:0004a9de       ??$?0ABV?$string_output_adapter@_W@__crt_stdio_output@@AB_KABQB_WABQAU__crt_locale_pointers@@ABQAD@?$format_validation_base@_WV?$string_output_adapter@_W@__crt_stdio_output@@@__crt_stdio_output@@IAE@ABV?$string_output_adapter@_W@1@AB_KABQB_WABQAU__crt_locale_pointers@@ABQAD@Z 1004b9de f i libucrt:output.obj
 0001:0004aa01       ??$?0ABV?$string_output_adapter@_W@__crt_stdio_output@@AB_KABQB_WABQAU__crt_locale_pointers@@ABQAD@?$positional_parameter_base@_WV?$string_output_adapter@_W@__crt_stdio_output@@@__crt_stdio_output@@IAE@ABV?$string_output_adapter@_W@1@AB_KABQB_WABQAU__crt_locale_pointers@@ABQAD@Z 1004ba01 f i libucrt:output.obj
 0001:0004aa49       ??$?0ABV?$string_output_adapter@_W@__crt_stdio_output@@AB_KABQB_WABQAU__crt_locale_pointers@@ABQAD@?$standard_base@_WV?$string_output_adapter@_W@__crt_stdio_output@@@__crt_stdio_output@@IAE@ABV?$string_output_adapter@_W@1@AB_KABQB_WABQAU__crt_locale_pointers@@ABQAD@Z 1004ba49 f i libucrt:output.obj
 0001:0004ad84       ??$__crt_interlocked_read@J@@YAJPDJ@Z 1004bd84 f i libucrt:output.obj
 0001:0004bc50       ??$count@D@formatting_buffer@__crt_stdio_output@@QBEIXZ 1004cc50 f i libucrt:output.obj
 0001:0004bc68       ??$count@_W@formatting_buffer@__crt_stdio_output@@QBEIXZ 1004cc68 f i libucrt:output.obj
 0001:0004bc81       ??$data@D@formatting_buffer@__crt_stdio_output@@QAEPADXZ 1004cc81 f i libucrt:output.obj
 0001:0004bc8e       ??$data@_W@formatting_buffer@__crt_stdio_output@@QAEPA_WXZ 1004cc8e f i libucrt:output.obj
 0001:0004bc9b       ??$ensure_buffer_is_big_enough@D@formatting_buffer@__crt_stdio_output@@QAE_NI@Z 1004cc9b f i libucrt:output.obj
 0001:0004bd18       ??$ensure_buffer_is_big_enough@_W@formatting_buffer@__crt_stdio_output@@QAE_NI@Z 1004cd18 f i libucrt:output.obj
 0001:0004bd96       ??$extract_argument_from_va_list@C_J@?$positional_parameter_base@DV?$stream_output_adapter@D@__crt_stdio_output@@@__crt_stdio_output@@IAE_NAA_J@Z 1004cd96 f i libucrt:output.obj
 0001:0004be0f       ??$extract_argument_from_va_list@C_J@?$positional_parameter_base@DV?$string_output_adapter@D@__crt_stdio_output@@@__crt_stdio_output@@IAE_NAA_J@Z 1004ce0f f i libucrt:output.obj
 0001:0004be88       ??$extract_argument_from_va_list@C_J@?$positional_parameter_base@_WV?$stream_output_adapter@_W@__crt_stdio_output@@@__crt_stdio_output@@IAE_NAA_J@Z 1004ce88 f i libucrt:output.obj
 0001:0004bf01       ??$extract_argument_from_va_list@C_J@?$positional_parameter_base@_WV?$string_output_adapter@_W@__crt_stdio_output@@@__crt_stdio_output@@IAE_NAA_J@Z 1004cf01 f i libucrt:output.obj
 0001:0004bf7a       ??$extract_argument_from_va_list@C_J@?$standard_base@DV?$stream_output_adapter@D@__crt_stdio_output@@@__crt_stdio_output@@IAE_NAA_J@Z 1004cf7a f i libucrt:output.obj
 0001:0004bf99       ??$extract_argument_from_va_list@C_J@?$standard_base@DV?$string_output_adapter@D@__crt_stdio_output@@@__crt_stdio_output@@IAE_NAA_J@Z 1004cf99 f i libucrt:output.obj
 0001:0004bfb8       ??$extract_argument_from_va_list@C_J@?$standard_base@_WV?$stream_output_adapter@_W@__crt_stdio_output@@@__crt_stdio_output@@IAE_NAA_J@Z 1004cfb8 f i libucrt:output.obj
 0001:0004bfd7       ??$extract_argument_from_va_list@C_J@?$standard_base@_WV?$string_output_adapter@_W@__crt_stdio_output@@@__crt_stdio_output@@IAE_NAA_J@Z 1004cfd7 f i libucrt:output.obj
 0001:0004bff6       ??$extract_argument_from_va_list@E_J@?$positional_parameter_base@DV?$stream_output_adapter@D@__crt_stdio_output@@@__crt_stdio_output@@IAE_NAA_J@Z 1004cff6 f i libucrt:output.obj
 0001:0004c06f       ??$extract_argument_from_va_list@E_J@?$positional_parameter_base@DV?$string_output_adapter@D@__crt_stdio_output@@@__crt_stdio_output@@IAE_NAA_J@Z 1004d06f f i libucrt:output.obj
 0001:0004c0e8       ??$extract_argument_from_va_list@E_J@?$positional_parameter_base@_WV?$stream_output_adapter@_W@__crt_stdio_output@@@__crt_stdio_output@@IAE_NAA_J@Z 1004d0e8 f i libucrt:output.obj
 0001:0004c161       ??$extract_argument_from_va_list@E_J@?$positional_parameter_base@_WV?$string_output_adapter@_W@__crt_stdio_output@@@__crt_stdio_output@@IAE_NAA_J@Z 1004d161 f i libucrt:output.obj
 0001:0004c1da       ??$extract_argument_from_va_list@E_J@?$standard_base@DV?$stream_output_adapter@D@__crt_stdio_output@@@__crt_stdio_output@@IAE_NAA_J@Z 1004d1da f i libucrt:output.obj
 0001:0004c1f9       ??$extract_argument_from_va_list@E_J@?$standard_base@DV?$string_output_adapter@D@__crt_stdio_output@@@__crt_stdio_output@@IAE_NAA_J@Z 1004d1f9 f i libucrt:output.obj
 0001:0004c218       ??$extract_argument_from_va_list@E_J@?$standard_base@_WV?$stream_output_adapter@_W@__crt_stdio_output@@@__crt_stdio_output@@IAE_NAA_J@Z 1004d218 f i libucrt:output.obj
 0001:0004c237       ??$extract_argument_from_va_list@E_J@?$standard_base@_WV?$string_output_adapter@_W@__crt_stdio_output@@@__crt_stdio_output@@IAE_NAA_J@Z 1004d237 f i libucrt:output.obj
 0001:0004c256       ??$extract_argument_from_va_list@F_J@?$positional_parameter_base@DV?$stream_output_adapter@D@__crt_stdio_output@@@__crt_stdio_output@@IAE_NAA_J@Z 1004d256 f i libucrt:output.obj
 0001:0004c2cf       ??$extract_argument_from_va_list@F_J@?$positional_parameter_base@DV?$string_output_adapter@D@__crt_stdio_output@@@__crt_stdio_output@@IAE_NAA_J@Z 1004d2cf f i libucrt:output.obj
 0001:0004c348       ??$extract_argument_from_va_list@F_J@?$positional_parameter_base@_WV?$stream_output_adapter@_W@__crt_stdio_output@@@__crt_stdio_output@@IAE_NAA_J@Z 1004d348 f i libucrt:output.obj
 0001:0004c3c1       ??$extract_argument_from_va_list@F_J@?$positional_parameter_base@_WV?$string_output_adapter@_W@__crt_stdio_output@@@__crt_stdio_output@@IAE_NAA_J@Z 1004d3c1 f i libucrt:output.obj
 0001:0004c43a       ??$extract_argument_from_va_list@F_J@?$standard_base@DV?$stream_output_adapter@D@__crt_stdio_output@@@__crt_stdio_output@@IAE_NAA_J@Z 1004d43a f i libucrt:output.obj
 0001:0004c459       ??$extract_argument_from_va_list@F_J@?$standard_base@DV?$string_output_adapter@D@__crt_stdio_output@@@__crt_stdio_output@@IAE_NAA_J@Z 1004d459 f i libucrt:output.obj
 0001:0004c478       ??$extract_argument_from_va_list@F_J@?$standard_base@_WV?$stream_output_adapter@_W@__crt_stdio_output@@@__crt_stdio_output@@IAE_NAA_J@Z 1004d478 f i libucrt:output.obj
 0001:0004c497       ??$extract_argument_from_va_list@F_J@?$standard_base@_WV?$string_output_adapter@_W@__crt_stdio_output@@@__crt_stdio_output@@IAE_NAA_J@Z 1004d497 f i libucrt:output.obj
 0001:0004c4b6       ??$extract_argument_from_va_list@GD@?$positional_parameter_base@DV?$stream_output_adapter@D@__crt_stdio_output@@@__crt_stdio_output@@IAE_NAAD@Z 1004d4b6 f i libucrt:output.obj
 0001:0004c52e       ??$extract_argument_from_va_list@GD@?$positional_parameter_base@DV?$string_output_adapter@D@__crt_stdio_output@@@__crt_stdio_output@@IAE_NAAD@Z 1004d52e f i libucrt:output.obj
 0001:0004c5a6       ??$extract_argument_from_va_list@GD@?$standard_base@DV?$stream_output_adapter@D@__crt_stdio_output@@@__crt_stdio_output@@IAE_NAAD@Z 1004d5a6 f i libucrt:output.obj
 0001:0004c5c0       ??$extract_argument_from_va_list@GD@?$standard_base@DV?$string_output_adapter@D@__crt_stdio_output@@@__crt_stdio_output@@IAE_NAAD@Z 1004d5c0 f i libucrt:output.obj
 0001:0004c5da       ??$extract_argument_from_va_list@G_J@?$positional_parameter_base@DV?$stream_output_adapter@D@__crt_stdio_output@@@__crt_stdio_output@@IAE_NAA_J@Z 1004d5da f i libucrt:output.obj
 0001:0004c653       ??$extract_argument_from_va_list@G_J@?$positional_parameter_base@DV?$string_output_adapter@D@__crt_stdio_output@@@__crt_stdio_output@@IAE_NAA_J@Z 1004d653 f i libucrt:output.obj
 0001:0004c6cc       ??$extract_argument_from_va_list@G_J@?$positional_parameter_base@_WV?$stream_output_adapter@_W@__crt_stdio_output@@@__crt_stdio_output@@IAE_NAA_J@Z 1004d6cc f i libucrt:output.obj
 0001:0004c745       ??$extract_argument_from_va_list@G_J@?$positional_parameter_base@_WV?$string_output_adapter@_W@__crt_stdio_output@@@__crt_stdio_output@@IAE_NAA_J@Z 1004d745 f i libucrt:output.obj
 0001:0004c7be       ??$extract_argument_from_va_list@G_J@?$standard_base@DV?$stream_output_adapter@D@__crt_stdio_output@@@__crt_stdio_output@@IAE_NAA_J@Z 1004d7be f i libucrt:output.obj
 0001:0004c7dd       ??$extract_argument_from_va_list@G_J@?$standard_base@DV?$string_output_adapter@D@__crt_stdio_output@@@__crt_stdio_output@@IAE_NAA_J@Z 1004d7dd f i libucrt:output.obj
 0001:0004c7fc       ??$extract_argument_from_va_list@G_J@?$standard_base@_WV?$stream_output_adapter@_W@__crt_stdio_output@@@__crt_stdio_output@@IAE_NAA_J@Z 1004d7fc f i libucrt:output.obj
 0001:0004c81b       ??$extract_argument_from_va_list@G_J@?$standard_base@_WV?$string_output_adapter@_W@__crt_stdio_output@@@__crt_stdio_output@@IAE_NAA_J@Z 1004d81b f i libucrt:output.obj
 0001:0004c83a       ??$extract_argument_from_va_list@H_J@?$positional_parameter_base@DV?$stream_output_adapter@D@__crt_stdio_output@@@__crt_stdio_output@@IAE_NAA_J@Z 1004d83a f i libucrt:output.obj
 0001:0004c8b1       ??$extract_argument_from_va_list@H_J@?$positional_parameter_base@DV?$string_output_adapter@D@__crt_stdio_output@@@__crt_stdio_output@@IAE_NAA_J@Z 1004d8b1 f i libucrt:output.obj
 0001:0004c928       ??$extract_argument_from_va_list@H_J@?$positional_parameter_base@_WV?$stream_output_adapter@_W@__crt_stdio_output@@@__crt_stdio_output@@IAE_NAA_J@Z 1004d928 f i libucrt:output.obj
 0001:0004c99f       ??$extract_argument_from_va_list@H_J@?$positional_parameter_base@_WV?$string_output_adapter@_W@__crt_stdio_output@@@__crt_stdio_output@@IAE_NAA_J@Z 1004d99f f i libucrt:output.obj
 0001:0004ca16       ??$extract_argument_from_va_list@H_J@?$standard_base@DV?$stream_output_adapter@D@__crt_stdio_output@@@__crt_stdio_output@@IAE_NAA_J@Z 1004da16 f i libucrt:output.obj
 0001:0004ca34       ??$extract_argument_from_va_list@H_J@?$standard_base@DV?$string_output_adapter@D@__crt_stdio_output@@@__crt_stdio_output@@IAE_NAA_J@Z 1004da34 f i libucrt:output.obj
 0001:0004ca52       ??$extract_argument_from_va_list@H_J@?$standard_base@_WV?$stream_output_adapter@_W@__crt_stdio_output@@@__crt_stdio_output@@IAE_NAA_J@Z 1004da52 f i libucrt:output.obj
 0001:0004ca70       ??$extract_argument_from_va_list@H_J@?$standard_base@_WV?$string_output_adapter@_W@__crt_stdio_output@@@__crt_stdio_output@@IAE_NAA_J@Z 1004da70 f i libucrt:output.obj
 0001:0004ca8e       ??$extract_argument_from_va_list@I_J@?$positional_parameter_base@DV?$stream_output_adapter@D@__crt_stdio_output@@@__crt_stdio_output@@IAE_NAA_J@Z 1004da8e f i libucrt:output.obj
 0001:0004cb0e       ??$extract_argument_from_va_list@I_J@?$positional_parameter_base@DV?$string_output_adapter@D@__crt_stdio_output@@@__crt_stdio_output@@IAE_NAA_J@Z 1004db0e f i libucrt:output.obj
 0001:0004cb8e       ??$extract_argument_from_va_list@I_J@?$positional_parameter_base@_WV?$stream_output_adapter@_W@__crt_stdio_output@@@__crt_stdio_output@@IAE_NAA_J@Z 1004db8e f i libucrt:output.obj
 0001:0004cc0e       ??$extract_argument_from_va_list@I_J@?$positional_parameter_base@_WV?$string_output_adapter@_W@__crt_stdio_output@@@__crt_stdio_output@@IAE_NAA_J@Z 1004dc0e f i libucrt:output.obj
 0001:0004cc8e       ??$extract_argument_from_va_list@I_J@?$standard_base@DV?$stream_output_adapter@D@__crt_stdio_output@@@__crt_stdio_output@@IAE_NAA_J@Z 1004dc8e f i libucrt:output.obj
 0001:0004ccac       ??$extract_argument_from_va_list@I_J@?$standard_base@DV?$string_output_adapter@D@__crt_stdio_output@@@__crt_stdio_output@@IAE_NAA_J@Z 1004dcac f i libucrt:output.obj
 0001:0004ccca       ??$extract_argument_from_va_list@I_J@?$standard_base@_WV?$stream_output_adapter@_W@__crt_stdio_output@@@__crt_stdio_output@@IAE_NAA_J@Z 1004dcca f i libucrt:output.obj
 0001:0004cce8       ??$extract_argument_from_va_list@I_J@?$standard_base@_WV?$string_output_adapter@_W@__crt_stdio_output@@@__crt_stdio_output@@IAE_NAA_J@Z 1004dce8 f i libucrt:output.obj
 0001:0004cd06       ??$extract_argument_from_va_list@PADPAD@?$positional_parameter_base@DV?$stream_output_adapter@D@__crt_stdio_output@@@__crt_stdio_output@@IAE_NAAPAD@Z 1004dd06 f i libucrt:output.obj
 0001:0004cd7e       ??$extract_argument_from_va_list@PADPAD@?$positional_parameter_base@DV?$string_output_adapter@D@__crt_stdio_output@@@__crt_stdio_output@@IAE_NAAPAD@Z 1004dd7e f i libucrt:output.obj
 0001:0004cdf6       ??$extract_argument_from_va_list@PADPAD@?$positional_parameter_base@_WV?$stream_output_adapter@_W@__crt_stdio_output@@@__crt_stdio_output@@IAE_NAAPAD@Z 1004ddf6 f i libucrt:output.obj
 0001:0004ce6e       ??$extract_argument_from_va_list@PADPAD@?$positional_parameter_base@_WV?$string_output_adapter@_W@__crt_stdio_output@@@__crt_stdio_output@@IAE_NAAPAD@Z 1004de6e f i libucrt:output.obj
 0001:0004cee6       ??$extract_argument_from_va_list@PADPAD@?$standard_base@DV?$stream_output_adapter@D@__crt_stdio_output@@@__crt_stdio_output@@IAE_NAAPAD@Z 1004dee6 f i libucrt:output.obj
 0001:0004cf00       ??$extract_argument_from_va_list@PADPAD@?$standard_base@DV?$string_output_adapter@D@__crt_stdio_output@@@__crt_stdio_output@@IAE_NAAPAD@Z 1004df00 f i libucrt:output.obj
 0001:0004cf1a       ??$extract_argument_from_va_list@PADPAD@?$standard_base@_WV?$stream_output_adapter@_W@__crt_stdio_output@@@__crt_stdio_output@@IAE_NAAPAD@Z 1004df1a f i libucrt:output.obj
 0001:0004cf34       ??$extract_argument_from_va_list@PADPAD@?$standard_base@_WV?$string_output_adapter@_W@__crt_stdio_output@@@__crt_stdio_output@@IAE_NAAPAD@Z 1004df34 f i libucrt:output.obj
 0001:0004cf4e       ??$extract_argument_from_va_list@PAUansi_string@?1??type_case_Z@?$output_processor@DV?$stream_output_adapter@D@__crt_stdio_output@@V?$format_validation_base@DV?$stream_output_adapter@D@__crt_stdio_output@@@2@@__crt_stdio_output@@AAE_NXZ@PAU1?1??234@AAE_NXZ@@?$standard_base@DV?$stream_output_adapter@D@__crt_stdio_output@@@__crt_stdio_output@@IAE_NAAPAUansi_string@?1??type_case_Z@?$output_processor@DV?$stream_output_adapter@D@__crt_stdio_output@@V?$format_validation_base@DV?$stream_output_adapter@D@__crt_stdio_output@@@2@@1@AAE_NXZ@@Z 1004df4e f i libucrt:output.obj
 0001:0004cf68       ??$extract_argument_from_va_list@PAUansi_string@?1??type_case_Z@?$output_processor@DV?$stream_output_adapter@D@__crt_stdio_output@@V?$positional_parameter_base@DV?$stream_output_adapter@D@__crt_stdio_output@@@2@@__crt_stdio_output@@AAE_NXZ@PAU1?1??234@AAE_NXZ@@?$positional_parameter_base@DV?$stream_output_adapter@D@__crt_stdio_output@@@__crt_stdio_output@@IAE_NAAPAUansi_string@?1??type_case_Z@?$output_processor@DV?$stream_output_adapter@D@__crt_stdio_output@@V?$positional_parameter_base@DV?$stream_output_adapter@D@__crt_stdio_output@@@2@@1@AAE_NXZ@@Z 1004df68 f i libucrt:output.obj
 0001:0004cfe0       ??$extract_argument_from_va_list@PAUansi_string@?1??type_case_Z@?$output_processor@DV?$stream_output_adapter@D@__crt_stdio_output@@V?$positional_parameter_base@DV?$stream_output_adapter@D@__crt_stdio_output@@@2@@__crt_stdio_output@@AAE_NXZ@PAU1?1??234@AAE_NXZ@@?$standard_base@DV?$stream_output_adapter@D@__crt_stdio_output@@@__crt_stdio_output@@IAE_NAAPAUansi_string@?1??type_case_Z@?$output_processor@DV?$stream_output_adapter@D@__crt_stdio_output@@V?$positional_parameter_base@DV?$stream_output_adapter@D@__crt_stdio_output@@@2@@1@AAE_NXZ@@Z 1004dfe0 f i libucrt:output.obj
 0001:0004cffa       ??$extract_argument_from_va_list@PAUansi_string@?1??type_case_Z@?$output_processor@DV?$stream_output_adapter@D@__crt_stdio_output@@V?$standard_base@DV?$stream_output_adapter@D@__crt_stdio_output@@@2@@__crt_stdio_output@@AAE_NXZ@PAU1?1??234@AAE_NXZ@@?$standard_base@DV?$stream_output_adapter@D@__crt_stdio_output@@@__crt_stdio_output@@IAE_NAAPAUansi_string@?1??type_case_Z@?$output_processor@DV?$stream_output_adapter@D@__crt_stdio_output@@V?$standard_base@DV?$stream_output_adapter@D@__crt_stdio_output@@@2@@1@AAE_NXZ@@Z 1004dffa f i libucrt:output.obj
 0001:0004d014       ??$extract_argument_from_va_list@PAUansi_string@?1??type_case_Z@?$output_processor@DV?$string_output_adapter@D@__crt_stdio_output@@V?$format_validation_base@DV?$string_output_adapter@D@__crt_stdio_output@@@2@@__crt_stdio_output@@AAE_NXZ@PAU1?1??234@AAE_NXZ@@?$standard_base@DV?$string_output_adapter@D@__crt_stdio_output@@@__crt_stdio_output@@IAE_NAAPAUansi_string@?1??type_case_Z@?$output_processor@DV?$string_output_adapter@D@__crt_stdio_output@@V?$format_validation_base@DV?$string_output_adapter@D@__crt_stdio_output@@@2@@1@AAE_NXZ@@Z 1004e014 f i libucrt:output.obj
 0001:0004d02e       ??$extract_argument_from_va_list@PAUansi_string@?1??type_case_Z@?$output_processor@DV?$string_output_adapter@D@__crt_stdio_output@@V?$positional_parameter_base@DV?$string_output_adapter@D@__crt_stdio_output@@@2@@__crt_stdio_output@@AAE_NXZ@PAU1?1??234@AAE_NXZ@@?$positional_parameter_base@DV?$string_output_adapter@D@__crt_stdio_output@@@__crt_stdio_output@@IAE_NAAPAUansi_string@?1??type_case_Z@?$output_processor@DV?$string_output_adapter@D@__crt_stdio_output@@V?$positional_parameter_base@DV?$string_output_adapter@D@__crt_stdio_output@@@2@@1@AAE_NXZ@@Z 1004e02e f i libucrt:output.obj
 0001:0004d0a6       ??$extract_argument_from_va_list@PAUansi_string@?1??type_case_Z@?$output_processor@DV?$string_output_adapter@D@__crt_stdio_output@@V?$positional_parameter_base@DV?$string_output_adapter@D@__crt_stdio_output@@@2@@__crt_stdio_output@@AAE_NXZ@PAU1?1??234@AAE_NXZ@@?$standard_base@DV?$string_output_adapter@D@__crt_stdio_output@@@__crt_stdio_output@@IAE_NAAPAUansi_string@?1??type_case_Z@?$output_processor@DV?$string_output_adapter@D@__crt_stdio_output@@V?$positional_parameter_base@DV?$string_output_adapter@D@__crt_stdio_output@@@2@@1@AAE_NXZ@@Z 1004e0a6 f i libucrt:output.obj
 0001:0004d0c0       ??$extract_argument_from_va_list@PAUansi_string@?1??type_case_Z@?$output_processor@DV?$string_output_adapter@D@__crt_stdio_output@@V?$standard_base@DV?$string_output_adapter@D@__crt_stdio_output@@@2@@__crt_stdio_output@@AAE_NXZ@PAU1?1??234@AAE_NXZ@@?$standard_base@DV?$string_output_adapter@D@__crt_stdio_output@@@__crt_stdio_output@@IAE_NAAPAUansi_string@?1??type_case_Z@?$output_processor@DV?$string_output_adapter@D@__crt_stdio_output@@V?$standard_base@DV?$string_output_adapter@D@__crt_stdio_output@@@2@@1@AAE_NXZ@@Z 1004e0c0 f i libucrt:output.obj
 0001:0004d0da       ??$extract_argument_from_va_list@PAUansi_string@?1??type_case_Z@?$output_processor@_WV?$stream_output_adapter@_W@__crt_stdio_output@@V?$format_validation_base@_WV?$stream_output_adapter@_W@__crt_stdio_output@@@2@@__crt_stdio_output@@AAE_NXZ@PAU1?1??234@AAE_NXZ@@?$standard_base@_WV?$stream_output_adapter@_W@__crt_stdio_output@@@__crt_stdio_output@@IAE_NAAPAUansi_string@?1??type_case_Z@?$output_processor@_WV?$stream_output_adapter@_W@__crt_stdio_output@@V?$format_validation_base@_WV?$stream_output_adapter@_W@__crt_stdio_output@@@2@@1@AAE_NXZ@@Z 1004e0da f i libucrt:output.obj
 0001:0004d0f4       ??$extract_argument_from_va_list@PAUansi_string@?1??type_case_Z@?$output_processor@_WV?$stream_output_adapter@_W@__crt_stdio_output@@V?$positional_parameter_base@_WV?$stream_output_adapter@_W@__crt_stdio_output@@@2@@__crt_stdio_output@@AAE_NXZ@PAU1?1??234@AAE_NXZ@@?$positional_parameter_base@_WV?$stream_output_adapter@_W@__crt_stdio_output@@@__crt_stdio_output@@IAE_NAAPAUansi_string@?1??type_case_Z@?$output_processor@_WV?$stream_output_adapter@_W@__crt_stdio_output@@V?$positional_parameter_base@_WV?$stream_output_adapter@_W@__crt_stdio_output@@@2@@1@AAE_NXZ@@Z 1004e0f4 f i libucrt:output.obj
 0001:0004d16c       ??$extract_argument_from_va_list@PAUansi_string@?1??type_case_Z@?$output_processor@_WV?$stream_output_adapter@_W@__crt_stdio_output@@V?$positional_parameter_base@_WV?$stream_output_adapter@_W@__crt_stdio_output@@@2@@__crt_stdio_output@@AAE_NXZ@PAU1?1??234@AAE_NXZ@@?$standard_base@_WV?$stream_output_adapter@_W@__crt_stdio_output@@@__crt_stdio_output@@IAE_NAAPAUansi_string@?1??type_case_Z@?$output_processor@_WV?$stream_output_adapter@_W@__crt_stdio_output@@V?$positional_parameter_base@_WV?$stream_output_adapter@_W@__crt_stdio_output@@@2@@1@AAE_NXZ@@Z 1004e16c f i libucrt:output.obj
 0001:0004d186       ??$extract_argument_from_va_list@PAUansi_string@?1??type_case_Z@?$output_processor@_WV?$stream_output_adapter@_W@__crt_stdio_output@@V?$standard_base@_WV?$stream_output_adapter@_W@__crt_stdio_output@@@2@@__crt_stdio_output@@AAE_NXZ@PAU1?1??234@AAE_NXZ@@?$standard_base@_WV?$stream_output_adapter@_W@__crt_stdio_output@@@__crt_stdio_output@@IAE_NAAPAUansi_string@?1??type_case_Z@?$output_processor@_WV?$stream_output_adapter@_W@__crt_stdio_output@@V?$standard_base@_WV?$stream_output_adapter@_W@__crt_stdio_output@@@2@@1@AAE_NXZ@@Z 1004e186 f i libucrt:output.obj
 0001:0004d1a0       ??$extract_argument_from_va_list@PAUansi_string@?1??type_case_Z@?$output_processor@_WV?$string_output_adapter@_W@__crt_stdio_output@@V?$format_validation_base@_WV?$string_output_adapter@_W@__crt_stdio_output@@@2@@__crt_stdio_output@@AAE_NXZ@PAU1?1??234@AAE_NXZ@@?$standard_base@_WV?$string_output_adapter@_W@__crt_stdio_output@@@__crt_stdio_output@@IAE_NAAPAUansi_string@?1??type_case_Z@?$output_processor@_WV?$string_output_adapter@_W@__crt_stdio_output@@V?$format_validation_base@_WV?$string_output_adapter@_W@__crt_stdio_output@@@2@@1@AAE_NXZ@@Z 1004e1a0 f i libucrt:output.obj
 0001:0004d1ba       ??$extract_argument_from_va_list@PAUansi_string@?1??type_case_Z@?$output_processor@_WV?$string_output_adapter@_W@__crt_stdio_output@@V?$positional_parameter_base@_WV?$string_output_adapter@_W@__crt_stdio_output@@@2@@__crt_stdio_output@@AAE_NXZ@PAU1?1??234@AAE_NXZ@@?$positional_parameter_base@_WV?$string_output_adapter@_W@__crt_stdio_output@@@__crt_stdio_output@@IAE_NAAPAUansi_string@?1??type_case_Z@?$output_processor@_WV?$string_output_adapter@_W@__crt_stdio_output@@V?$positional_parameter_base@_WV?$string_output_adapter@_W@__crt_stdio_output@@@2@@1@AAE_NXZ@@Z 1004e1ba f i libucrt:output.obj
 0001:0004d232       ??$extract_argument_from_va_list@PAUansi_string@?1??type_case_Z@?$output_processor@_WV?$string_output_adapter@_W@__crt_stdio_output@@V?$positional_parameter_base@_WV?$string_output_adapter@_W@__crt_stdio_output@@@2@@__crt_stdio_output@@AAE_NXZ@PAU1?1??234@AAE_NXZ@@?$standard_base@_WV?$string_output_adapter@_W@__crt_stdio_output@@@__crt_stdio_output@@IAE_NAAPAUansi_string@?1??type_case_Z@?$output_processor@_WV?$string_output_adapter@_W@__crt_stdio_output@@V?$positional_parameter_base@_WV?$string_output_adapter@_W@__crt_stdio_output@@@2@@1@AAE_NXZ@@Z 1004e232 f i libucrt:output.obj
 0001:0004d24c       ??$extract_argument_from_va_list@PAUansi_string@?1??type_case_Z@?$output_processor@_WV?$string_output_adapter@_W@__crt_stdio_output@@V?$standard_base@_WV?$string_output_adapter@_W@__crt_stdio_output@@@2@@__crt_stdio_output@@AAE_NXZ@PAU1?1??234@AAE_NXZ@@?$standard_base@_WV?$string_output_adapter@_W@__crt_stdio_output@@@__crt_stdio_output@@IAE_NAAPAUansi_string@?1??type_case_Z@?$output_processor@_WV?$string_output_adapter@_W@__crt_stdio_output@@V?$standard_base@_WV?$string_output_adapter@_W@__crt_stdio_output@@@2@@1@AAE_NXZ@@Z 1004e24c f i libucrt:output.obj
 0001:0004d266       ??$extract_argument_from_va_list@PAXPAX@?$positional_parameter_base@DV?$stream_output_adapter@D@__crt_stdio_output@@@__crt_stdio_output@@IAE_NAAPAX@Z 1004e266 f i libucrt:output.obj
 0001:0004d2de       ??$extract_argument_from_va_list@PAXPAX@?$positional_parameter_base@DV?$string_output_adapter@D@__crt_stdio_output@@@__crt_stdio_output@@IAE_NAAPAX@Z 1004e2de f i libucrt:output.obj
 0001:0004d356       ??$extract_argument_from_va_list@PAXPAX@?$positional_parameter_base@_WV?$stream_output_adapter@_W@__crt_stdio_output@@@__crt_stdio_output@@IAE_NAAPAX@Z 1004e356 f i libucrt:output.obj
 0001:0004d3ce       ??$extract_argument_from_va_list@PAXPAX@?$positional_parameter_base@_WV?$string_output_adapter@_W@__crt_stdio_output@@@__crt_stdio_output@@IAE_NAAPAX@Z 1004e3ce f i libucrt:output.obj
 0001:0004d446       ??$extract_argument_from_va_list@PAXPAX@?$standard_base@DV?$stream_output_adapter@D@__crt_stdio_output@@@__crt_stdio_output@@IAE_NAAPAX@Z 1004e446 f i libucrt:output.obj
 0001:0004d460       ??$extract_argument_from_va_list@PAXPAX@?$standard_base@DV?$string_output_adapter@D@__crt_stdio_output@@@__crt_stdio_output@@IAE_NAAPAX@Z 1004e460 f i libucrt:output.obj
 0001:0004d47a       ??$extract_argument_from_va_list@PAXPAX@?$standard_base@_WV?$stream_output_adapter@_W@__crt_stdio_output@@@__crt_stdio_output@@IAE_NAAPAX@Z 1004e47a f i libucrt:output.obj
 0001:0004d494       ??$extract_argument_from_va_list@PAXPAX@?$standard_base@_WV?$string_output_adapter@_W@__crt_stdio_output@@@__crt_stdio_output@@IAE_NAAPAX@Z 1004e494 f i libucrt:output.obj
 0001:0004d4ae       ??$extract_argument_from_va_list@U_CRT_DOUBLE@@U1@@?$positional_parameter_base@DV?$stream_output_adapter@D@__crt_stdio_output@@@__crt_stdio_output@@IAE_NAAU_CRT_DOUBLE@@@Z 1004e4ae f i libucrt:output.obj
 0001:0004d534       ??$extract_argument_from_va_list@U_CRT_DOUBLE@@U1@@?$positional_parameter_base@DV?$string_output_adapter@D@__crt_stdio_output@@@__crt_stdio_output@@IAE_NAAU_CRT_DOUBLE@@@Z 1004e534 f i libucrt:output.obj
 0001:0004d5ba       ??$extract_argument_from_va_list@U_CRT_DOUBLE@@U1@@?$positional_parameter_base@_WV?$stream_output_adapter@_W@__crt_stdio_output@@@__crt_stdio_output@@IAE_NAAU_CRT_DOUBLE@@@Z 1004e5ba f i libucrt:output.obj
 0001:0004d640       ??$extract_argument_from_va_list@U_CRT_DOUBLE@@U1@@?$positional_parameter_base@_WV?$string_output_adapter@_W@__crt_stdio_output@@@__crt_stdio_output@@IAE_NAAU_CRT_DOUBLE@@@Z 1004e640 f i libucrt:output.obj
 0001:0004d6c6       ??$extract_argument_from_va_list@U_CRT_DOUBLE@@U1@@?$standard_base@DV?$stream_output_adapter@D@__crt_stdio_output@@@__crt_stdio_output@@IAE_NAAU_CRT_DOUBLE@@@Z 1004e6c6 f i libucrt:output.obj
 0001:0004d6e6       ??$extract_argument_from_va_list@U_CRT_DOUBLE@@U1@@?$standard_base@DV?$string_output_adapter@D@__crt_stdio_output@@@__crt_stdio_output@@IAE_NAAU_CRT_DOUBLE@@@Z 1004e6e6 f i libucrt:output.obj
 0001:0004d706       ??$extract_argument_from_va_list@U_CRT_DOUBLE@@U1@@?$standard_base@_WV?$stream_output_adapter@_W@__crt_stdio_output@@@__crt_stdio_output@@IAE_NAAU_CRT_DOUBLE@@@Z 1004e706 f i libucrt:output.obj
 0001:0004d726       ??$extract_argument_from_va_list@U_CRT_DOUBLE@@U1@@?$standard_base@_WV?$string_output_adapter@_W@__crt_stdio_output@@@__crt_stdio_output@@IAE_NAAU_CRT_DOUBLE@@@Z 1004e726 f i libucrt:output.obj
 0001:0004d746       ??$extract_argument_from_va_list@_J_J@?$positional_parameter_base@DV?$stream_output_adapter@D@__crt_stdio_output@@@__crt_stdio_output@@IAE_NAA_J@Z 1004e746 f i libucrt:output.obj
 0001:0004d7cc       ??$extract_argument_from_va_list@_J_J@?$positional_parameter_base@DV?$string_output_adapter@D@__crt_stdio_output@@@__crt_stdio_output@@IAE_NAA_J@Z 1004e7cc f i libucrt:output.obj
 0001:0004d852       ??$extract_argument_from_va_list@_J_J@?$positional_parameter_base@_WV?$stream_output_adapter@_W@__crt_stdio_output@@@__crt_stdio_output@@IAE_NAA_J@Z 1004e852 f i libucrt:output.obj
 0001:0004d8d8       ??$extract_argument_from_va_list@_J_J@?$positional_parameter_base@_WV?$string_output_adapter@_W@__crt_stdio_output@@@__crt_stdio_output@@IAE_NAA_J@Z 1004e8d8 f i libucrt:output.obj
 0001:0004d95e       ??$extract_argument_from_va_list@_J_J@?$standard_base@DV?$stream_output_adapter@D@__crt_stdio_output@@@__crt_stdio_output@@IAE_NAA_J@Z 1004e95e f i libucrt:output.obj
 0001:0004d97e       ??$extract_argument_from_va_list@_J_J@?$standard_base@DV?$string_output_adapter@D@__crt_stdio_output@@@__crt_stdio_output@@IAE_NAA_J@Z 1004e97e f i libucrt:output.obj
 0001:0004d99e       ??$extract_argument_from_va_list@_J_J@?$standard_base@_WV?$stream_output_adapter@_W@__crt_stdio_output@@@__crt_stdio_output@@IAE_NAA_J@Z 1004e99e f i libucrt:output.obj
 0001:0004d9be       ??$extract_argument_from_va_list@_J_J@?$standard_base@_WV?$string_output_adapter@_W@__crt_stdio_output@@@__crt_stdio_output@@IAE_NAA_J@Z 1004e9be f i libucrt:output.obj
 0001:0004d9de       ??$extract_argument_from_va_list@_K_J@?$positional_parameter_base@DV?$stream_output_adapter@D@__crt_stdio_output@@@__crt_stdio_output@@IAE_NAA_J@Z 1004e9de f i libucrt:output.obj
 0001:0004da64       ??$extract_argument_from_va_list@_K_J@?$positional_parameter_base@DV?$string_output_adapter@D@__crt_stdio_output@@@__crt_stdio_output@@IAE_NAA_J@Z 1004ea64 f i libucrt:output.obj
 0001:0004daea       ??$extract_argument_from_va_list@_K_J@?$positional_parameter_base@_WV?$stream_output_adapter@_W@__crt_stdio_output@@@__crt_stdio_output@@IAE_NAA_J@Z 1004eaea f i libucrt:output.obj
 0001:0004db70       ??$extract_argument_from_va_list@_K_J@?$positional_parameter_base@_WV?$string_output_adapter@_W@__crt_stdio_output@@@__crt_stdio_output@@IAE_NAA_J@Z 1004eb70 f i libucrt:output.obj
 0001:0004dbf6       ??$extract_argument_from_va_list@_K_J@?$standard_base@DV?$stream_output_adapter@D@__crt_stdio_output@@@__crt_stdio_output@@IAE_NAA_J@Z 1004ebf6 f i libucrt:output.obj
 0001:0004dc16       ??$extract_argument_from_va_list@_K_J@?$standard_base@DV?$string_output_adapter@D@__crt_stdio_output@@@__crt_stdio_output@@IAE_NAA_J@Z 1004ec16 f i libucrt:output.obj
 0001:0004dc36       ??$extract_argument_from_va_list@_K_J@?$standard_base@_WV?$stream_output_adapter@_W@__crt_stdio_output@@@__crt_stdio_output@@IAE_NAA_J@Z 1004ec36 f i libucrt:output.obj
 0001:0004dc56       ??$extract_argument_from_va_list@_K_J@?$standard_base@_WV?$string_output_adapter@_W@__crt_stdio_output@@@__crt_stdio_output@@IAE_NAA_J@Z 1004ec56 f i libucrt:output.obj
 0001:0004dc76       ??$extract_argument_from_va_list@_W_W@?$positional_parameter_base@DV?$stream_output_adapter@D@__crt_stdio_output@@@__crt_stdio_output@@IAE_NAA_W@Z 1004ec76 f i libucrt:output.obj
 0001:0004dcf2       ??$extract_argument_from_va_list@_W_W@?$positional_parameter_base@DV?$string_output_adapter@D@__crt_stdio_output@@@__crt_stdio_output@@IAE_NAA_W@Z 1004ecf2 f i libucrt:output.obj
 0001:0004dd6e       ??$extract_argument_from_va_list@_W_W@?$positional_parameter_base@_WV?$stream_output_adapter@_W@__crt_stdio_output@@@__crt_stdio_output@@IAE_NAA_W@Z 1004ed6e f i libucrt:output.obj
 0001:0004ddea       ??$extract_argument_from_va_list@_W_W@?$positional_parameter_base@_WV?$string_output_adapter@_W@__crt_stdio_output@@@__crt_stdio_output@@IAE_NAA_W@Z 1004edea f i libucrt:output.obj
 0001:0004de66       ??$extract_argument_from_va_list@_W_W@?$standard_base@DV?$stream_output_adapter@D@__crt_stdio_output@@@__crt_stdio_output@@IAE_NAA_W@Z 1004ee66 f i libucrt:output.obj
 0001:0004de82       ??$extract_argument_from_va_list@_W_W@?$standard_base@DV?$string_output_adapter@D@__crt_stdio_output@@@__crt_stdio_output@@IAE_NAA_W@Z 1004ee82 f i libucrt:output.obj
 0001:0004de9e       ??$extract_argument_from_va_list@_W_W@?$standard_base@_WV?$stream_output_adapter@_W@__crt_stdio_output@@@__crt_stdio_output@@IAE_NAA_W@Z 1004ee9e f i libucrt:output.obj
 0001:0004deba       ??$extract_argument_from_va_list@_W_W@?$standard_base@_WV?$string_output_adapter@_W@__crt_stdio_output@@@__crt_stdio_output@@IAE_NAA_W@Z 1004eeba f i libucrt:output.obj
 0001:0004ded6       ??$get_parameter_type@D@?$positional_parameter_base@DV?$stream_output_adapter@D@__crt_stdio_output@@@__crt_stdio_output@@CA?AW4parameter_type@01@PAD@Z 1004eed6 f i libucrt:output.obj
 0001:0004deda       ??$get_parameter_type@D@?$positional_parameter_base@DV?$string_output_adapter@D@__crt_stdio_output@@@__crt_stdio_output@@CA?AW4parameter_type@01@PAD@Z 1004eeda f i libucrt:output.obj
 0001:0004dede       ??$get_parameter_type@D@?$positional_parameter_base@_WV?$stream_output_adapter@_W@__crt_stdio_output@@@__crt_stdio_output@@CA?AW4parameter_type@01@PAD@Z 1004eede f i libucrt:output.obj
 0001:0004dee2       ??$get_parameter_type@D@?$positional_parameter_base@_WV?$string_output_adapter@_W@__crt_stdio_output@@@__crt_stdio_output@@CA?AW4parameter_type@01@PAD@Z 1004eee2 f i libucrt:output.obj
 0001:0004dee6       ??$get_parameter_type@Uansi_string@?1??type_case_Z@?$output_processor@DV?$stream_output_adapter@D@__crt_stdio_output@@V?$positional_parameter_base@DV?$stream_output_adapter@D@__crt_stdio_output@@@2@@__crt_stdio_output@@AAE_NXZ@@?$positional_parameter_base@DV?$stream_output_adapter@D@__crt_stdio_output@@@__crt_stdio_output@@CA?AW4parameter_type@01@PAUansi_string@?1??type_case_Z@?$output_processor@DV?$stream_output_adapter@D@__crt_stdio_output@@V?$positional_parameter_base@DV?$stream_output_adapter@D@__crt_stdio_output@@@2@@1@AAE_NXZ@@Z 1004eee6 f i libucrt:output.obj
 0001:0004deea       ??$get_parameter_type@Uansi_string@?1??type_case_Z@?$output_processor@DV?$string_output_adapter@D@__crt_stdio_output@@V?$positional_parameter_base@DV?$string_output_adapter@D@__crt_stdio_output@@@2@@__crt_stdio_output@@AAE_NXZ@@?$positional_parameter_base@DV?$string_output_adapter@D@__crt_stdio_output@@@__crt_stdio_output@@CA?AW4parameter_type@01@PAUansi_string@?1??type_case_Z@?$output_processor@DV?$string_output_adapter@D@__crt_stdio_output@@V?$positional_parameter_base@DV?$string_output_adapter@D@__crt_stdio_output@@@2@@1@AAE_NXZ@@Z 1004eeea f i libucrt:output.obj
 0001:0004deee       ??$get_parameter_type@Uansi_string@?1??type_case_Z@?$output_processor@_WV?$stream_output_adapter@_W@__crt_stdio_output@@V?$positional_parameter_base@_WV?$stream_output_adapter@_W@__crt_stdio_output@@@2@@__crt_stdio_output@@AAE_NXZ@@?$positional_parameter_base@_WV?$stream_output_adapter@_W@__crt_stdio_output@@@__crt_stdio_output@@CA?AW4parameter_type@01@PAUansi_string@?1??type_case_Z@?$output_processor@_WV?$stream_output_adapter@_W@__crt_stdio_output@@V?$positional_parameter_base@_WV?$stream_output_adapter@_W@__crt_stdio_output@@@2@@1@AAE_NXZ@@Z 1004eeee f i libucrt:output.obj
 0001:0004def2       ??$get_parameter_type@Uansi_string@?1??type_case_Z@?$output_processor@_WV?$string_output_adapter@_W@__crt_stdio_output@@V?$positional_parameter_base@_WV?$string_output_adapter@_W@__crt_stdio_output@@@2@@__crt_stdio_output@@AAE_NXZ@@?$positional_parameter_base@_WV?$string_output_adapter@_W@__crt_stdio_output@@@__crt_stdio_output@@CA?AW4parameter_type@01@PAUansi_string@?1??type_case_Z@?$output_processor@_WV?$string_output_adapter@_W@__crt_stdio_output@@V?$positional_parameter_base@_WV?$string_output_adapter@_W@__crt_stdio_output@@@2@@1@AAE_NXZ@@Z 1004eef2 f i libucrt:output.obj
 0001:0004def6       ??$get_parameter_type@X@?$positional_parameter_base@DV?$stream_output_adapter@D@__crt_stdio_output@@@__crt_stdio_output@@CA?AW4parameter_type@01@PAX@Z 1004eef6 f i libucrt:output.obj
 0001:0004defa       ??$get_parameter_type@X@?$positional_parameter_base@DV?$string_output_adapter@D@__crt_stdio_output@@@__crt_stdio_output@@CA?AW4parameter_type@01@PAX@Z 1004eefa f i libucrt:output.obj
 0001:0004defe       ??$get_parameter_type@X@?$positional_parameter_base@_WV?$stream_output_adapter@_W@__crt_stdio_output@@@__crt_stdio_output@@CA?AW4parameter_type@01@PAX@Z 1004eefe f i libucrt:output.obj
 0001:0004df02       ??$get_parameter_type@X@?$positional_parameter_base@_WV?$string_output_adapter@_W@__crt_stdio_output@@@__crt_stdio_output@@CA?AW4parameter_type@01@PAX@Z 1004ef02 f i libucrt:output.obj
 0001:0004df06       ??$is_character_specifier@D@?$positional_parameter_base@DV?$stream_output_adapter@D@__crt_stdio_output@@@__crt_stdio_output@@CA_ND@Z 1004ef06 f i libucrt:output.obj
 0001:0004df1e       ??$is_character_specifier@D@?$positional_parameter_base@DV?$string_output_adapter@D@__crt_stdio_output@@@__crt_stdio_output@@CA_ND@Z 1004ef1e f i libucrt:output.obj
 0001:0004df36       ??$is_character_specifier@_W@?$positional_parameter_base@_WV?$stream_output_adapter@_W@__crt_stdio_output@@@__crt_stdio_output@@CA_N_W@Z 1004ef36 f i libucrt:output.obj
 0001:0004df51       ??$is_character_specifier@_W@?$positional_parameter_base@_WV?$string_output_adapter@_W@__crt_stdio_output@@@__crt_stdio_output@@CA_N_W@Z 1004ef51 f i libucrt:output.obj
 0001:0004df6c       ??$is_integral_specifier@D@?$positional_parameter_base@DV?$stream_output_adapter@D@__crt_stdio_output@@@__crt_stdio_output@@CA_ND@Z 1004ef6c f i libucrt:output.obj
 0001:0004df98       ??$is_integral_specifier@D@?$positional_parameter_base@DV?$string_output_adapter@D@__crt_stdio_output@@@__crt_stdio_output@@CA_ND@Z 1004ef98 f i libucrt:output.obj
 0001:0004dfc4       ??$is_integral_specifier@_W@?$positional_parameter_base@_WV?$stream_output_adapter@_W@__crt_stdio_output@@@__crt_stdio_output@@CA_N_W@Z 1004efc4 f i libucrt:output.obj
 0001:0004dfff       ??$is_integral_specifier@_W@?$positional_parameter_base@_WV?$string_output_adapter@_W@__crt_stdio_output@@@__crt_stdio_output@@CA_N_W@Z 1004efff f i libucrt:output.obj
 0001:0004e03a       ??$is_pointer_specifier@D@?$positional_parameter_base@DV?$stream_output_adapter@D@__crt_stdio_output@@@__crt_stdio_output@@CA_ND@Z 1004f03a f i libucrt:output.obj
 0001:0004e048       ??$is_pointer_specifier@D@?$positional_parameter_base@DV?$string_output_adapter@D@__crt_stdio_output@@@__crt_stdio_output@@CA_ND@Z 1004f048 f i libucrt:output.obj
 0001:0004e056       ??$is_pointer_specifier@_W@?$positional_parameter_base@_WV?$stream_output_adapter@_W@__crt_stdio_output@@@__crt_stdio_output@@CA_N_W@Z 1004f056 f i libucrt:output.obj
 0001:0004e065       ??$is_pointer_specifier@_W@?$positional_parameter_base@_WV?$string_output_adapter@_W@__crt_stdio_output@@@__crt_stdio_output@@CA_N_W@Z 1004f065 f i libucrt:output.obj
 0001:0004e074       ??$is_string_specifier@D@?$positional_parameter_base@DV?$stream_output_adapter@D@__crt_stdio_output@@@__crt_stdio_output@@CA_ND@Z 1004f074 f i libucrt:output.obj
 0001:0004e08c       ??$is_string_specifier@D@?$positional_parameter_base@DV?$string_output_adapter@D@__crt_stdio_output@@@__crt_stdio_output@@CA_ND@Z 1004f08c f i libucrt:output.obj
 0001:0004e0a4       ??$is_string_specifier@_W@?$positional_parameter_base@_WV?$stream_output_adapter@_W@__crt_stdio_output@@@__crt_stdio_output@@CA_N_W@Z 1004f0a4 f i libucrt:output.obj
 0001:0004e0bf       ??$is_string_specifier@_W@?$positional_parameter_base@_WV?$string_output_adapter@_W@__crt_stdio_output@@@__crt_stdio_output@@CA_N_W@Z 1004f0bf f i libucrt:output.obj
 0001:0004e0da       ??$is_wide_character_specifier@D@__crt_stdio_output@@YA_N_KDW4length_modifier@0@@Z 1004f0da f i libucrt:output.obj
 0001:0004e10b       ??$is_wide_character_specifier@_W@__crt_stdio_output@@YA_N_K_WW4length_modifier@0@@Z 1004f10b f i libucrt:output.obj
 0001:0004e159       ??$peek_va_arg@C@__crt_stdio_output@@YACPAD@Z 1004f159 f i libucrt:output.obj
 0001:0004e165       ??$peek_va_arg@E@__crt_stdio_output@@YAEPAD@Z 1004f165 f i libucrt:output.obj
 0001:0004e171       ??$peek_va_arg@F@__crt_stdio_output@@YAFPAD@Z 1004f171 f i libucrt:output.obj
 0001:0004e17e       ??$peek_va_arg@G@__crt_stdio_output@@YAGPAD@Z 1004f17e f i libucrt:output.obj
 0001:0004e18b       ??$peek_va_arg@H@__crt_stdio_output@@YAHPAD@Z 1004f18b f i libucrt:output.obj
 0001:0004e197       ??$peek_va_arg@I@__crt_stdio_output@@YAIPAD@Z 1004f197 f i libucrt:output.obj
 0001:0004e1a3       ??$peek_va_arg@PAD@__crt_stdio_output@@YAPADPAD@Z 1004f1a3 f i libucrt:output.obj
 0001:0004e1af       ??$peek_va_arg@PAUansi_string@?1??type_case_Z@?$output_processor@DV?$stream_output_adapter@D@__crt_stdio_output@@V?$positional_parameter_base@DV?$stream_output_adapter@D@__crt_stdio_output@@@2@@__crt_stdio_output@@AAE_NXZ@@__crt_stdio_output@@YAPAUansi_string@?1??type_case_Z@?$output_processor@DV?$stream_output_adapter@D@__crt_stdio_output@@V?$positional_parameter_base@DV?$stream_output_adapter@D@__crt_stdio_output@@@2@@0@AAE_NXZ@PAD@Z 1004f1af f i libucrt:output.obj
 0001:0004e1bb       ??$peek_va_arg@PAUansi_string@?1??type_case_Z@?$output_processor@DV?$string_output_adapter@D@__crt_stdio_output@@V?$positional_parameter_base@DV?$string_output_adapter@D@__crt_stdio_output@@@2@@__crt_stdio_output@@AAE_NXZ@@__crt_stdio_output@@YAPAUansi_string@?1??type_case_Z@?$output_processor@DV?$string_output_adapter@D@__crt_stdio_output@@V?$positional_parameter_base@DV?$string_output_adapter@D@__crt_stdio_output@@@2@@0@AAE_NXZ@PAD@Z 1004f1bb f i libucrt:output.obj
 0001:0004e1c7       ??$peek_va_arg@PAUansi_string@?1??type_case_Z@?$output_processor@_WV?$stream_output_adapter@_W@__crt_stdio_output@@V?$positional_parameter_base@_WV?$stream_output_adapter@_W@__crt_stdio_output@@@2@@__crt_stdio_output@@AAE_NXZ@@__crt_stdio_output@@YAPAUansi_string@?1??type_case_Z@?$output_processor@_WV?$stream_output_adapter@_W@__crt_stdio_output@@V?$positional_parameter_base@_WV?$stream_output_adapter@_W@__crt_stdio_output@@@2@@0@AAE_NXZ@PAD@Z 1004f1c7 f i libucrt:output.obj
 0001:0004e1d3       ??$peek_va_arg@PAUansi_string@?1??type_case_Z@?$output_processor@_WV?$string_output_adapter@_W@__crt_stdio_output@@V?$positional_parameter_base@_WV?$string_output_adapter@_W@__crt_stdio_output@@@2@@__crt_stdio_output@@AAE_NXZ@@__crt_stdio_output@@YAPAUansi_string@?1??type_case_Z@?$output_processor@_WV?$string_output_adapter@_W@__crt_stdio_output@@V?$positional_parameter_base@_WV?$string_output_adapter@_W@__crt_stdio_output@@@2@@0@AAE_NXZ@PAD@Z 1004f1d3 f i libucrt:output.obj
 0001:0004e1df       ??$peek_va_arg@PAX@__crt_stdio_output@@YAPAXPAD@Z 1004f1df f i libucrt:output.obj
 0001:0004e1eb       ??$peek_va_arg@U_CRT_DOUBLE@@@__crt_stdio_output@@YA?AU_CRT_DOUBLE@@PAD@Z 1004f1eb f i libucrt:output.obj
 0001:0004e1fa       ??$peek_va_arg@_J@__crt_stdio_output@@YA_JPAD@Z 1004f1fa f i libucrt:output.obj
 0001:0004e209       ??$peek_va_arg@_K@__crt_stdio_output@@YA_KPAD@Z 1004f209 f i libucrt:output.obj
 0001:0004e218       ??$peek_va_arg@_W@__crt_stdio_output@@YA_WPAD@Z 1004f218 f i libucrt:output.obj
 0001:0004e225       ??$puttc_nolock@ABDPAU_iobuf@@@?$__crt_char_traits@D@@SAHABD$$QAPAU_iobuf@@@Z 1004f225 f i libucrt:output.obj
 0001:0004e23f       ??$puttc_nolock@AB_WPAU_iobuf@@@?$__crt_char_traits@_W@@SAGAB_W$$QAPAU_iobuf@@@Z 1004f23f f i libucrt:output.obj
 0001:0004e259       ??$read_va_arg@C@__crt_stdio_output@@YACAAPAD@Z 1004f259 f i libucrt:output.obj
 0001:0004e26b       ??$read_va_arg@E@__crt_stdio_output@@YAEAAPAD@Z 1004f26b f i libucrt:output.obj
 0001:0004e27d       ??$read_va_arg@F@__crt_stdio_output@@YAFAAPAD@Z 1004f27d f i libucrt:output.obj
 0001:0004e290       ??$read_va_arg@G@__crt_stdio_output@@YAGAAPAD@Z 1004f290 f i libucrt:output.obj
 0001:0004e2a3       ??$read_va_arg@H@__crt_stdio_output@@YAHAAPAD@Z 1004f2a3 f i libucrt:output.obj
 0001:0004e2b5       ??$read_va_arg@I@__crt_stdio_output@@YAIAAPAD@Z 1004f2b5 f i libucrt:output.obj
 0001:0004e2c7       ??$read_va_arg@PAD@__crt_stdio_output@@YAPADAAPAD@Z 1004f2c7 f i libucrt:output.obj
 0001:0004e2d9       ??$read_va_arg@PAUansi_string@?1??type_case_Z@?$output_processor@DV?$stream_output_adapter@D@__crt_stdio_output@@V?$format_validation_base@DV?$stream_output_adapter@D@__crt_stdio_output@@@2@@__crt_stdio_output@@AAE_NXZ@@__crt_stdio_output@@YAPAUansi_string@?1??type_case_Z@?$output_processor@DV?$stream_output_adapter@D@__crt_stdio_output@@V?$format_validation_base@DV?$stream_output_adapter@D@__crt_stdio_output@@@2@@0@AAE_NXZ@AAPAD@Z 1004f2d9 f i libucrt:output.obj
 0001:0004e2eb       ??$read_va_arg@PAUansi_string@?1??type_case_Z@?$output_processor@DV?$stream_output_adapter@D@__crt_stdio_output@@V?$positional_parameter_base@DV?$stream_output_adapter@D@__crt_stdio_output@@@2@@__crt_stdio_output@@AAE_NXZ@@__crt_stdio_output@@YAPAUansi_string@?1??type_case_Z@?$output_processor@DV?$stream_output_adapter@D@__crt_stdio_output@@V?$positional_parameter_base@DV?$stream_output_adapter@D@__crt_stdio_output@@@2@@0@AAE_NXZ@AAPAD@Z 1004f2eb f i libucrt:output.obj
 0001:0004e2fd       ??$read_va_arg@PAUansi_string@?1??type_case_Z@?$output_processor@DV?$stream_output_adapter@D@__crt_stdio_output@@V?$standard_base@DV?$stream_output_adapter@D@__crt_stdio_output@@@2@@__crt_stdio_output@@AAE_NXZ@@__crt_stdio_output@@YAPAUansi_string@?1??type_case_Z@?$output_processor@DV?$stream_output_adapter@D@__crt_stdio_output@@V?$standard_base@DV?$stream_output_adapter@D@__crt_stdio_output@@@2@@0@AAE_NXZ@AAPAD@Z 1004f2fd f i libucrt:output.obj
 0001:0004e30f       ??$read_va_arg@PAUansi_string@?1??type_case_Z@?$output_processor@DV?$string_output_adapter@D@__crt_stdio_output@@V?$format_validation_base@DV?$string_output_adapter@D@__crt_stdio_output@@@2@@__crt_stdio_output@@AAE_NXZ@@__crt_stdio_output@@YAPAUansi_string@?1??type_case_Z@?$output_processor@DV?$string_output_adapter@D@__crt_stdio_output@@V?$format_validation_base@DV?$string_output_adapter@D@__crt_stdio_output@@@2@@0@AAE_NXZ@AAPAD@Z 1004f30f f i libucrt:output.obj
 0001:0004e321       ??$read_va_arg@PAUansi_string@?1??type_case_Z@?$output_processor@DV?$string_output_adapter@D@__crt_stdio_output@@V?$positional_parameter_base@DV?$string_output_adapter@D@__crt_stdio_output@@@2@@__crt_stdio_output@@AAE_NXZ@@__crt_stdio_output@@YAPAUansi_string@?1??type_case_Z@?$output_processor@DV?$string_output_adapter@D@__crt_stdio_output@@V?$positional_parameter_base@DV?$string_output_adapter@D@__crt_stdio_output@@@2@@0@AAE_NXZ@AAPAD@Z 1004f321 f i libucrt:output.obj
 0001:0004e333       ??$read_va_arg@PAUansi_string@?1??type_case_Z@?$output_processor@DV?$string_output_adapter@D@__crt_stdio_output@@V?$standard_base@DV?$string_output_adapter@D@__crt_stdio_output@@@2@@__crt_stdio_output@@AAE_NXZ@@__crt_stdio_output@@YAPAUansi_string@?1??type_case_Z@?$output_processor@DV?$string_output_adapter@D@__crt_stdio_output@@V?$standard_base@DV?$string_output_adapter@D@__crt_stdio_output@@@2@@0@AAE_NXZ@AAPAD@Z 1004f333 f i libucrt:output.obj
 0001:0004e345       ??$read_va_arg@PAUansi_string@?1??type_case_Z@?$output_processor@_WV?$stream_output_adapter@_W@__crt_stdio_output@@V?$format_validation_base@_WV?$stream_output_adapter@_W@__crt_stdio_output@@@2@@__crt_stdio_output@@AAE_NXZ@@__crt_stdio_output@@YAPAUansi_string@?1??type_case_Z@?$output_processor@_WV?$stream_output_adapter@_W@__crt_stdio_output@@V?$format_validation_base@_WV?$stream_output_adapter@_W@__crt_stdio_output@@@2@@0@AAE_NXZ@AAPAD@Z 1004f345 f i libucrt:output.obj
 0001:0004e357       ??$read_va_arg@PAUansi_string@?1??type_case_Z@?$output_processor@_WV?$stream_output_adapter@_W@__crt_stdio_output@@V?$positional_parameter_base@_WV?$stream_output_adapter@_W@__crt_stdio_output@@@2@@__crt_stdio_output@@AAE_NXZ@@__crt_stdio_output@@YAPAUansi_string@?1??type_case_Z@?$output_processor@_WV?$stream_output_adapter@_W@__crt_stdio_output@@V?$positional_parameter_base@_WV?$stream_output_adapter@_W@__crt_stdio_output@@@2@@0@AAE_NXZ@AAPAD@Z 1004f357 f i libucrt:output.obj
 0001:0004e369       ??$read_va_arg@PAUansi_string@?1??type_case_Z@?$output_processor@_WV?$stream_output_adapter@_W@__crt_stdio_output@@V?$standard_base@_WV?$stream_output_adapter@_W@__crt_stdio_output@@@2@@__crt_stdio_output@@AAE_NXZ@@__crt_stdio_output@@YAPAUansi_string@?1??type_case_Z@?$output_processor@_WV?$stream_output_adapter@_W@__crt_stdio_output@@V?$standard_base@_WV?$stream_output_adapter@_W@__crt_stdio_output@@@2@@0@AAE_NXZ@AAPAD@Z 1004f369 f i libucrt:output.obj
 0001:0004e37b       ??$read_va_arg@PAUansi_string@?1??type_case_Z@?$output_processor@_WV?$string_output_adapter@_W@__crt_stdio_output@@V?$format_validation_base@_WV?$string_output_adapter@_W@__crt_stdio_output@@@2@@__crt_stdio_output@@AAE_NXZ@@__crt_stdio_output@@YAPAUansi_string@?1??type_case_Z@?$output_processor@_WV?$string_output_adapter@_W@__crt_stdio_output@@V?$format_validation_base@_WV?$string_output_adapter@_W@__crt_stdio_output@@@2@@0@AAE_NXZ@AAPAD@Z 1004f37b f i libucrt:output.obj
 0001:0004e38d       ??$read_va_arg@PAUansi_string@?1??type_case_Z@?$output_processor@_WV?$string_output_adapter@_W@__crt_stdio_output@@V?$positional_parameter_base@_WV?$string_output_adapter@_W@__crt_stdio_output@@@2@@__crt_stdio_output@@AAE_NXZ@@__crt_stdio_output@@YAPAUansi_string@?1??type_case_Z@?$output_processor@_WV?$string_output_adapter@_W@__crt_stdio_output@@V?$positional_parameter_base@_WV?$string_output_adapter@_W@__crt_stdio_output@@@2@@0@AAE_NXZ@AAPAD@Z 1004f38d f i libucrt:output.obj
 0001:0004e39f       ??$read_va_arg@PAUansi_string@?1??type_case_Z@?$output_processor@_WV?$string_output_adapter@_W@__crt_stdio_output@@V?$standard_base@_WV?$string_output_adapter@_W@__crt_stdio_output@@@2@@__crt_stdio_output@@AAE_NXZ@@__crt_stdio_output@@YAPAUansi_string@?1??type_case_Z@?$output_processor@_WV?$string_output_adapter@_W@__crt_stdio_output@@V?$standard_base@_WV?$string_output_adapter@_W@__crt_stdio_output@@@2@@0@AAE_NXZ@AAPAD@Z 1004f39f f i libucrt:output.obj
 0001:0004e3b1       ??$read_va_arg@PAX@__crt_stdio_output@@YAPAXAAPAD@Z 1004f3b1 f i libucrt:output.obj
 0001:0004e3c3       ??$read_va_arg@U_CRT_DOUBLE@@@__crt_stdio_output@@YA?AU_CRT_DOUBLE@@AAPAD@Z 1004f3c3 f i libucrt:output.obj
 0001:0004e3d9       ??$read_va_arg@_J@__crt_stdio_output@@YA_JAAPAD@Z 1004f3d9 f i libucrt:output.obj
 0001:0004e3ee       ??$read_va_arg@_K@__crt_stdio_output@@YA_KAAPAD@Z 1004f3ee f i libucrt:output.obj
 0001:0004e403       ??$read_va_arg@_W@__crt_stdio_output@@YA_WAAPAD@Z 1004f403 f i libucrt:output.obj
 0001:0004e416       ??$scratch_count@D@formatting_buffer@__crt_stdio_output@@QBEIXZ 1004f416 f i libucrt:output.obj
 0001:0004e41b       ??$scratch_data@D@formatting_buffer@__crt_stdio_output@@QAEPADXZ 1004f41b f i libucrt:output.obj
 0001:0004e439       ??$tcstol@AAPBDPAPADH@?$__crt_char_traits@D@@SAJAAPBD$$QAPAPAD$$QAH@Z 1004f439 f i libucrt:output.obj
 0001:0004e457       ??$tcstol@AAPB_WPAPA_WH@?$__crt_char_traits@_W@@SAJAAPB_W$$QAPAPA_W$$QAH@Z 1004f457 f i libucrt:output.obj
 0001:0004e475       ??$tcstol@PBDPAPADH@?$__crt_char_traits@D@@SAJ$$QAPBD$$QAPAPAD$$QAH@Z 1004f475 f i libucrt:output.obj
 0001:0004e493       ??$tcstol@PB_WPAPA_WH@?$__crt_char_traits@_W@@SAJ$$QAPB_W$$QAPAPA_W$$QAH@Z 1004f493 f i libucrt:output.obj
 0001:0004e4b1       ??$type_case_integer_parse_into_buffer@I@?$output_processor@DV?$stream_output_adapter@D@__crt_stdio_output@@V?$format_validation_base@DV?$stream_output_adapter@D@__crt_stdio_output@@@2@@__crt_stdio_output@@AAEXII_N@Z 1004f4b1 f i libucrt:output.obj
 0001:0004e524       ??$type_case_integer_parse_into_buffer@I@?$output_processor@DV?$stream_output_adapter@D@__crt_stdio_output@@V?$positional_parameter_base@DV?$stream_output_adapter@D@__crt_stdio_output@@@2@@__crt_stdio_output@@AAEXII_N@Z 1004f524 f i libucrt:output.obj
 0001:0004e597       ??$type_case_integer_parse_into_buffer@I@?$output_processor@DV?$stream_output_adapter@D@__crt_stdio_output@@V?$standard_base@DV?$stream_output_adapter@D@__crt_stdio_output@@@2@@__crt_stdio_output@@AAEXII_N@Z 1004f597 f i libucrt:output.obj
 0001:0004e60a       ??$type_case_integer_parse_into_buffer@I@?$output_processor@DV?$string_output_adapter@D@__crt_stdio_output@@V?$format_validation_base@DV?$string_output_adapter@D@__crt_stdio_output@@@2@@__crt_stdio_output@@AAEXII_N@Z 1004f60a f i libucrt:output.obj
 0001:0004e67d       ??$type_case_integer_parse_into_buffer@I@?$output_processor@DV?$string_output_adapter@D@__crt_stdio_output@@V?$positional_parameter_base@DV?$string_output_adapter@D@__crt_stdio_output@@@2@@__crt_stdio_output@@AAEXII_N@Z 1004f67d f i libucrt:output.obj
 0001:0004e6f0       ??$type_case_integer_parse_into_buffer@I@?$output_processor@DV?$string_output_adapter@D@__crt_stdio_output@@V?$standard_base@DV?$string_output_adapter@D@__crt_stdio_output@@@2@@__crt_stdio_output@@AAEXII_N@Z 1004f6f0 f i libucrt:output.obj
 0001:0004e763       ??$type_case_integer_parse_into_buffer@I@?$output_processor@_WV?$stream_output_adapter@_W@__crt_stdio_output@@V?$format_validation_base@_WV?$stream_output_adapter@_W@__crt_stdio_output@@@2@@__crt_stdio_output@@AAEXII_N@Z 1004f763 f i libucrt:output.obj
 0001:0004e7ea       ??$type_case_integer_parse_into_buffer@I@?$output_processor@_WV?$stream_output_adapter@_W@__crt_stdio_output@@V?$positional_parameter_base@_WV?$stream_output_adapter@_W@__crt_stdio_output@@@2@@__crt_stdio_output@@AAEXII_N@Z 1004f7ea f i libucrt:output.obj
 0001:0004e871       ??$type_case_integer_parse_into_buffer@I@?$output_processor@_WV?$stream_output_adapter@_W@__crt_stdio_output@@V?$standard_base@_WV?$stream_output_adapter@_W@__crt_stdio_output@@@2@@__crt_stdio_output@@AAEXII_N@Z 1004f871 f i libucrt:output.obj
 0001:0004e8f8       ??$type_case_integer_parse_into_buffer@I@?$output_processor@_WV?$string_output_adapter@_W@__crt_stdio_output@@V?$format_validation_base@_WV?$string_output_adapter@_W@__crt_stdio_output@@@2@@__crt_stdio_output@@AAEXII_N@Z 1004f8f8 f i libucrt:output.obj
 0001:0004e97f       ??$type_case_integer_parse_into_buffer@I@?$output_processor@_WV?$string_output_adapter@_W@__crt_stdio_output@@V?$positional_parameter_base@_WV?$string_output_adapter@_W@__crt_stdio_output@@@2@@__crt_stdio_output@@AAEXII_N@Z 1004f97f f i libucrt:output.obj
 0001:0004ea06       ??$type_case_integer_parse_into_buffer@I@?$output_processor@_WV?$string_output_adapter@_W@__crt_stdio_output@@V?$standard_base@_WV?$string_output_adapter@_W@__crt_stdio_output@@@2@@__crt_stdio_output@@AAEXII_N@Z 1004fa06 f i libucrt:output.obj
 0001:0004ea8d       ??$type_case_integer_parse_into_buffer@_K@?$output_processor@DV?$stream_output_adapter@D@__crt_stdio_output@@V?$format_validation_base@DV?$stream_output_adapter@D@__crt_stdio_output@@@2@@__crt_stdio_output@@AAEX_KI_N@Z 1004fa8d f i libucrt:output.obj
 0001:0004eb1b       ??$type_case_integer_parse_into_buffer@_K@?$output_processor@DV?$stream_output_adapter@D@__crt_stdio_output@@V?$positional_parameter_base@DV?$stream_output_adapter@D@__crt_stdio_output@@@2@@__crt_stdio_output@@AAEX_KI_N@Z 1004fb1b f i libucrt:output.obj
 0001:0004eba9       ??$type_case_integer_parse_into_buffer@_K@?$output_processor@DV?$stream_output_adapter@D@__crt_stdio_output@@V?$standard_base@DV?$stream_output_adapter@D@__crt_stdio_output@@@2@@__crt_stdio_output@@AAEX_KI_N@Z 1004fba9 f i libucrt:output.obj
 0001:0004ec37       ??$type_case_integer_parse_into_buffer@_K@?$output_processor@DV?$string_output_adapter@D@__crt_stdio_output@@V?$format_validation_base@DV?$string_output_adapter@D@__crt_stdio_output@@@2@@__crt_stdio_output@@AAEX_KI_N@Z 1004fc37 f i libucrt:output.obj
 0001:0004ecc5       ??$type_case_integer_parse_into_buffer@_K@?$output_processor@DV?$string_output_adapter@D@__crt_stdio_output@@V?$positional_parameter_base@DV?$string_output_adapter@D@__crt_stdio_output@@@2@@__crt_stdio_output@@AAEX_KI_N@Z 1004fcc5 f i libucrt:output.obj
 0001:0004ed53       ??$type_case_integer_parse_into_buffer@_K@?$output_processor@DV?$string_output_adapter@D@__crt_stdio_output@@V?$standard_base@DV?$string_output_adapter@D@__crt_stdio_output@@@2@@__crt_stdio_output@@AAEX_KI_N@Z 1004fd53 f i libucrt:output.obj
 0001:0004ede1       ??$type_case_integer_parse_into_buffer@_K@?$output_processor@_WV?$stream_output_adapter@_W@__crt_stdio_output@@V?$format_validation_base@_WV?$stream_output_adapter@_W@__crt_stdio_output@@@2@@__crt_stdio_output@@AAEX_KI_N@Z 1004fde1 f i libucrt:output.obj
 0001:0004ee83       ??$type_case_integer_parse_into_buffer@_K@?$output_processor@_WV?$stream_output_adapter@_W@__crt_stdio_output@@V?$positional_parameter_base@_WV?$stream_output_adapter@_W@__crt_stdio_output@@@2@@__crt_stdio_output@@AAEX_KI_N@Z 1004fe83 f i libucrt:output.obj
 0001:0004ef25       ??$type_case_integer_parse_into_buffer@_K@?$output_processor@_WV?$stream_output_adapter@_W@__crt_stdio_output@@V?$standard_base@_WV?$stream_output_adapter@_W@__crt_stdio_output@@@2@@__crt_stdio_output@@AAEX_KI_N@Z 1004ff25 f i libucrt:output.obj
 0001:0004efc7       ??$type_case_integer_parse_into_buffer@_K@?$output_processor@_WV?$string_output_adapter@_W@__crt_stdio_output@@V?$format_validation_base@_WV?$string_output_adapter@_W@__crt_stdio_output@@@2@@__crt_stdio_output@@AAEX_KI_N@Z 1004ffc7 f i libucrt:output.obj
 0001:0004f069       ??$type_case_integer_parse_into_buffer@_K@?$output_processor@_WV?$string_output_adapter@_W@__crt_stdio_output@@V?$positional_parameter_base@_WV?$string_output_adapter@_W@__crt_stdio_output@@@2@@__crt_stdio_output@@AAEX_KI_N@Z 10050069 f i libucrt:output.obj
 0001:0004f10b       ??$type_case_integer_parse_into_buffer@_K@?$output_processor@_WV?$string_output_adapter@_W@__crt_stdio_output@@V?$standard_base@_WV?$string_output_adapter@_W@__crt_stdio_output@@@2@@__crt_stdio_output@@AAEX_KI_N@Z 1005010b f i libucrt:output.obj
 0001:0004f1ad       ??$write_multiple_characters@V?$stream_output_adapter@D@__crt_stdio_output@@D@__crt_stdio_output@@YAXABV?$stream_output_adapter@D@0@DHQAH@Z 100501ad f i libucrt:output.obj
 0001:0004f1e8       ??$write_multiple_characters@V?$stream_output_adapter@_W@__crt_stdio_output@@D@__crt_stdio_output@@YAXABV?$stream_output_adapter@_W@0@DHQAH@Z 100501e8 f i libucrt:output.obj
 0001:0004f228       ??$write_multiple_characters@V?$string_output_adapter@D@__crt_stdio_output@@D@__crt_stdio_output@@YAXABV?$string_output_adapter@D@0@DHQAH@Z 10050228 f i libucrt:output.obj
 0001:0004f254       ??$write_multiple_characters@V?$string_output_adapter@_W@__crt_stdio_output@@D@__crt_stdio_output@@YAXABV?$string_output_adapter@_W@0@DHQAH@Z 10050254 f i libucrt:output.obj
 0001:0004f44d       ??0?$common_data@D@__crt_stdio_output@@IAE@XZ 1005044d f i libucrt:output.obj
 0001:0004f492       ??0?$common_data@_W@__crt_stdio_output@@IAE@XZ 10050492 f i libucrt:output.obj
 0001:0004f4dc       ??0?$output_adapter_data@DV?$stream_output_adapter@D@__crt_stdio_output@@@__crt_stdio_output@@IAE@ABV?$stream_output_adapter@D@1@_KQBDQAU__crt_locale_pointers@@QAD@Z 100504dc f i libucrt:output.obj
 0001:0004f518       ??0?$output_adapter_data@DV?$string_output_adapter@D@__crt_stdio_output@@@__crt_stdio_output@@IAE@ABV?$string_output_adapter@D@1@_KQBDQAU__crt_locale_pointers@@QAD@Z 10050518 f i libucrt:output.obj
 0001:0004f554       ??0?$output_adapter_data@_WV?$stream_output_adapter@_W@__crt_stdio_output@@@__crt_stdio_output@@IAE@ABV?$stream_output_adapter@_W@1@_KQB_WQAU__crt_locale_pointers@@QAD@Z 10050554 f i libucrt:output.obj
 0001:0004f590       ??0?$output_adapter_data@_WV?$string_output_adapter@_W@__crt_stdio_output@@@__crt_stdio_output@@IAE@ABV?$string_output_adapter@_W@1@_KQB_WQAU__crt_locale_pointers@@QAD@Z 10050590 f i libucrt:output.obj
 0001:0004f5cc       ??0?$output_processor@DV?$stream_output_adapter@D@__crt_stdio_output@@V?$format_validation_base@DV?$stream_output_adapter@D@__crt_stdio_output@@@2@@__crt_stdio_output@@QAE@ABV?$stream_output_adapter@D@1@_KQBDQAU__crt_locale_pointers@@QAD@Z 100505cc f i libucrt:output.obj
 0001:0004f5f9       ??0?$output_processor@DV?$stream_output_adapter@D@__crt_stdio_output@@V?$positional_parameter_base@DV?$stream_output_adapter@D@__crt_stdio_output@@@2@@__crt_stdio_output@@QAE@ABV?$stream_output_adapter@D@1@_KQBDQAU__crt_locale_pointers@@QAD@Z 100505f9 f i libucrt:output.obj
 0001:0004f620       ??0?$output_processor@DV?$stream_output_adapter@D@__crt_stdio_output@@V?$standard_base@DV?$stream_output_adapter@D@__crt_stdio_output@@@2@@__crt_stdio_output@@QAE@ABV?$stream_output_adapter@D@1@_KQBDQAU__crt_locale_pointers@@QAD@Z 10050620 f i libucrt:output.obj
 0001:0004f64d       ??0?$output_processor@DV?$string_output_adapter@D@__crt_stdio_output@@V?$format_validation_base@DV?$string_output_adapter@D@__crt_stdio_output@@@2@@__crt_stdio_output@@QAE@ABV?$string_output_adapter@D@1@_KQBDQAU__crt_locale_pointers@@QAD@Z 1005064d f i libucrt:output.obj
 0001:0004f67a       ??0?$output_processor@DV?$string_output_adapter@D@__crt_stdio_output@@V?$positional_parameter_base@DV?$string_output_adapter@D@__crt_stdio_output@@@2@@__crt_stdio_output@@QAE@ABV?$string_output_adapter@D@1@_KQBDQAU__crt_locale_pointers@@QAD@Z 1005067a f i libucrt:output.obj
 0001:0004f6a1       ??0?$output_processor@DV?$string_output_adapter@D@__crt_stdio_output@@V?$standard_base@DV?$string_output_adapter@D@__crt_stdio_output@@@2@@__crt_stdio_output@@QAE@ABV?$string_output_adapter@D@1@_KQBDQAU__crt_locale_pointers@@QAD@Z 100506a1 f i libucrt:output.obj
 0001:0004f6ce       ??0?$output_processor@_WV?$stream_output_adapter@_W@__crt_stdio_output@@V?$format_validation_base@_WV?$stream_output_adapter@_W@__crt_stdio_output@@@2@@__crt_stdio_output@@QAE@ABV?$stream_output_adapter@_W@1@_KQB_WQAU__crt_locale_pointers@@QAD@Z 100506ce f i libucrt:output.obj
 0001:0004f6fb       ??0?$output_processor@_WV?$stream_output_adapter@_W@__crt_stdio_output@@V?$positional_parameter_base@_WV?$stream_output_adapter@_W@__crt_stdio_output@@@2@@__crt_stdio_output@@QAE@ABV?$stream_output_adapter@_W@1@_KQB_WQAU__crt_locale_pointers@@QAD@Z 100506fb f i libucrt:output.obj
 0001:0004f722       ??0?$output_processor@_WV?$stream_output_adapter@_W@__crt_stdio_output@@V?$standard_base@_WV?$stream_output_adapter@_W@__crt_stdio_output@@@2@@__crt_stdio_output@@QAE@ABV?$stream_output_adapter@_W@1@_KQB_WQAU__crt_locale_pointers@@QAD@Z 10050722 f i libucrt:output.obj
 0001:0004f74f       ??0?$output_processor@_WV?$string_output_adapter@_W@__crt_stdio_output@@V?$format_validation_base@_WV?$string_output_adapter@_W@__crt_stdio_output@@@2@@__crt_stdio_output@@QAE@ABV?$string_output_adapter@_W@1@_KQB_WQAU__crt_locale_pointers@@QAD@Z 1005074f f i libucrt:output.obj
 0001:0004f77c       ??0?$output_processor@_WV?$string_output_adapter@_W@__crt_stdio_output@@V?$positional_parameter_base@_WV?$string_output_adapter@_W@__crt_stdio_output@@@2@@__crt_stdio_output@@QAE@ABV?$string_output_adapter@_W@1@_KQB_WQAU__crt_locale_pointers@@QAD@Z 1005077c f i libucrt:output.obj
 0001:0004f7a3       ??0?$output_processor@_WV?$string_output_adapter@_W@__crt_stdio_output@@V?$standard_base@_WV?$string_output_adapter@_W@__crt_stdio_output@@@2@@__crt_stdio_output@@QAE@ABV?$string_output_adapter@_W@1@_KQB_WQAU__crt_locale_pointers@@QAD@Z 100507a3 f i libucrt:output.obj
 0001:0004f7d0       ??0?$stream_output_adapter@D@__crt_stdio_output@@QAE@QAU_iobuf@@@Z 100507d0 f i libucrt:output.obj
 0001:0004f7e0       ??0?$stream_output_adapter@_W@__crt_stdio_output@@QAE@QAU_iobuf@@@Z 100507e0 f i libucrt:output.obj
 0001:0004f7f0       ??0?$string_output_adapter@D@__crt_stdio_output@@QAE@QAU?$string_output_adapter_context@D@1@@Z 100507f0 f i libucrt:output.obj
 0001:0004f800       ??0?$string_output_adapter@_W@__crt_stdio_output@@QAE@QAU?$string_output_adapter_context@_W@1@@Z 10050800 f i libucrt:output.obj
 0001:0004f810       ??0_LocaleUpdate@@QAE@QAU__crt_locale_pointers@@@Z 10050810 f i libucrt:output.obj
 0001:0004f893       ??0__acrt_stdio_temporary_buffering_guard@@QAE@QAU_iobuf@@@Z 10050893 f i libucrt:output.obj
 0001:0004f8b1       ??0__crt_deferred_errno_cache@@QAE@XZ 100508b1 f i libucrt:output.obj
 0001:0004f8b7       ??0__crt_errno_guard@@QAE@QAH@Z 100508b7 f i libucrt:output.obj
 0001:0004f8cf       ??0__crt_stdio_stream@@QAE@QAU_iobuf@@@Z 100508cf f i libucrt:output.obj
 0001:0004f8e0       ??0formatting_buffer@__crt_stdio_output@@QAE@XZ 100508e0 f i libucrt:output.obj
 0001:0004f8f7       ??1?$common_data@D@__crt_stdio_output@@QAE@XZ 100508f7 f i libucrt:output.obj
 0001:0004f8ff       ??1?$common_data@_W@__crt_stdio_output@@QAE@XZ 100508ff f i libucrt:output.obj
 0001:0004f907       ??1?$format_validation_base@DV?$stream_output_adapter@D@__crt_stdio_output@@@__crt_stdio_output@@QAE@XZ 10050907 f i libucrt:output.obj
 0001:0004f90f       ??1?$format_validation_base@DV?$string_output_adapter@D@__crt_stdio_output@@@__crt_stdio_output@@QAE@XZ 1005090f f i libucrt:output.obj
 0001:0004f917       ??1?$format_validation_base@_WV?$stream_output_adapter@_W@__crt_stdio_output@@@__crt_stdio_output@@QAE@XZ 10050917 f i libucrt:output.obj
 0001:0004f91f       ??1?$format_validation_base@_WV?$string_output_adapter@_W@__crt_stdio_output@@@__crt_stdio_output@@QAE@XZ 1005091f f i libucrt:output.obj
 0001:0004f927       ??1?$output_adapter_data@DV?$stream_output_adapter@D@__crt_stdio_output@@@__crt_stdio_output@@QAE@XZ 10050927 f i libucrt:output.obj
 0001:0004f92f       ??1?$output_adapter_data@DV?$string_output_adapter@D@__crt_stdio_output@@@__crt_stdio_output@@QAE@XZ 1005092f f i libucrt:output.obj
 0001:0004f937       ??1?$output_adapter_data@_WV?$stream_output_adapter@_W@__crt_stdio_output@@@__crt_stdio_output@@QAE@XZ 10050937 f i libucrt:output.obj
 0001:0004f93f       ??1?$output_adapter_data@_WV?$string_output_adapter@_W@__crt_stdio_output@@@__crt_stdio_output@@QAE@XZ 1005093f f i libucrt:output.obj
 0001:0004f947       ??1?$output_processor@DV?$stream_output_adapter@D@__crt_stdio_output@@V?$format_validation_base@DV?$stream_output_adapter@D@__crt_stdio_output@@@2@@__crt_stdio_output@@QAE@XZ 10050947 f i libucrt:output.obj
 0001:0004f94f       ??1?$output_processor@DV?$stream_output_adapter@D@__crt_stdio_output@@V?$positional_parameter_base@DV?$stream_output_adapter@D@__crt_stdio_output@@@2@@__crt_stdio_output@@QAE@XZ 1005094f f i libucrt:output.obj
 0001:0004f957       ??1?$output_processor@DV?$stream_output_adapter@D@__crt_stdio_output@@V?$standard_base@DV?$stream_output_adapter@D@__crt_stdio_output@@@2@@__crt_stdio_output@@QAE@XZ 10050957 f i libucrt:output.obj
 0001:0004f95f       ??1?$output_processor@DV?$string_output_adapter@D@__crt_stdio_output@@V?$format_validation_base@DV?$string_output_adapter@D@__crt_stdio_output@@@2@@__crt_stdio_output@@QAE@XZ 1005095f f i libucrt:output.obj
 0001:0004f967       ??1?$output_processor@DV?$string_output_adapter@D@__crt_stdio_output@@V?$positional_parameter_base@DV?$string_output_adapter@D@__crt_stdio_output@@@2@@__crt_stdio_output@@QAE@XZ 10050967 f i libucrt:output.obj
 0001:0004f96f       ??1?$output_processor@DV?$string_output_adapter@D@__crt_stdio_output@@V?$standard_base@DV?$string_output_adapter@D@__crt_stdio_output@@@2@@__crt_stdio_output@@QAE@XZ 1005096f f i libucrt:output.obj
 0001:0004f977       ??1?$output_processor@_WV?$stream_output_adapter@_W@__crt_stdio_output@@V?$format_validation_base@_WV?$stream_output_adapter@_W@__crt_stdio_output@@@2@@__crt_stdio_output@@QAE@XZ 10050977 f i libucrt:output.obj
 0001:0004f97f       ??1?$output_processor@_WV?$stream_output_adapter@_W@__crt_stdio_output@@V?$positional_parameter_base@_WV?$stream_output_adapter@_W@__crt_stdio_output@@@2@@__crt_stdio_output@@QAE@XZ 1005097f f i libucrt:output.obj
 0001:0004f987       ??1?$output_processor@_WV?$stream_output_adapter@_W@__crt_stdio_output@@V?$standard_base@_WV?$stream_output_adapter@_W@__crt_stdio_output@@@2@@__crt_stdio_output@@QAE@XZ 10050987 f i libucrt:output.obj
 0001:0004f98f       ??1?$output_processor@_WV?$string_output_adapter@_W@__crt_stdio_output@@V?$format_validation_base@_WV?$string_output_adapter@_W@__crt_stdio_output@@@2@@__crt_stdio_output@@QAE@XZ 1005098f f i libucrt:output.obj
 0001:0004f997       ??1?$output_processor@_WV?$string_output_adapter@_W@__crt_stdio_output@@V?$positional_parameter_base@_WV?$string_output_adapter@_W@__crt_stdio_output@@@2@@__crt_stdio_output@@QAE@XZ 10050997 f i libucrt:output.obj
 0001:0004f99f       ??1?$output_processor@_WV?$string_output_adapter@_W@__crt_stdio_output@@V?$standard_base@_WV?$string_output_adapter@_W@__crt_stdio_output@@@2@@__crt_stdio_output@@QAE@XZ 1005099f f i libucrt:output.obj
 0001:0004f9a7       ??1?$positional_parameter_base@DV?$stream_output_adapter@D@__crt_stdio_output@@@__crt_stdio_output@@QAE@XZ 100509a7 f i libucrt:output.obj
 0001:0004f9af       ??1?$positional_parameter_base@DV?$string_output_adapter@D@__crt_stdio_output@@@__crt_stdio_output@@QAE@XZ 100509af f i libucrt:output.obj
 0001:0004f9b7       ??1?$positional_parameter_base@_WV?$stream_output_adapter@_W@__crt_stdio_output@@@__crt_stdio_output@@QAE@XZ 100509b7 f i libucrt:output.obj
 0001:0004f9bf       ??1?$positional_parameter_base@_WV?$string_output_adapter@_W@__crt_stdio_output@@@__crt_stdio_output@@QAE@XZ 100509bf f i libucrt:output.obj
 0001:0004f9c7       ??1?$standard_base@DV?$stream_output_adapter@D@__crt_stdio_output@@@__crt_stdio_output@@QAE@XZ 100509c7 f i libucrt:output.obj
 0001:0004f9cf       ??1?$standard_base@DV?$string_output_adapter@D@__crt_stdio_output@@@__crt_stdio_output@@QAE@XZ 100509cf f i libucrt:output.obj
 0001:0004f9d7       ??1?$standard_base@_WV?$stream_output_adapter@_W@__crt_stdio_output@@@__crt_stdio_output@@QAE@XZ 100509d7 f i libucrt:output.obj
 0001:0004f9df       ??1?$standard_base@_WV?$string_output_adapter@_W@__crt_stdio_output@@@__crt_stdio_output@@QAE@XZ 100509df f i libucrt:output.obj
 0001:0004f9e7       ??1_LocaleUpdate@@QAE@XZ   100509e7 f i libucrt:output.obj
 0001:0004f9f7       ??1__acrt_stdio_temporary_buffering_guard@@QAE@XZ 100509f7 f i libucrt:output.obj
 0001:0004fa06       ??1__crt_errno_guard@@QAE@XZ 10050a06 f i libucrt:output.obj
 0001:0004fa17       ??1formatting_buffer@__crt_stdio_output@@QAE@XZ 10050a17 f i libucrt:output.obj
 0001:0004fa31       ??4?$__crt_unique_heap_ptr@DU__crt_internal_free_policy@@@@QAEAAV0@$$QAV0@@Z 10050a31 f i libucrt:output.obj
 0001:0004fa55       ??A?$spectre_mitigated_lookup_table@Ustate_transition_pair@__crt_stdio_output@@$0IA@@__crt_stdio_output@@QBEABUstate_transition_pair@1@I@Z 10050a55 f i libucrt:output.obj
 0001:0004fa67       ??C__crt_stdio_stream@@QBEPAU__crt_stdio_stream_data@@XZ 10050a67 f i libucrt:output.obj
 0001:0004ffba       ?GetLocaleT@_LocaleUpdate@@QAEPAU__crt_locale_pointers@@XZ 10050fba f i libucrt:output.obj
 0001:0004ffbe       ?adjust_hexit@?$output_processor@DV?$stream_output_adapter@D@__crt_stdio_output@@V?$format_validation_base@DV?$stream_output_adapter@D@__crt_stdio_output@@@2@@__crt_stdio_output@@CADH_N@Z 10050fbe f i libucrt:output.obj
 0001:0004ffd2       ?adjust_hexit@?$output_processor@DV?$stream_output_adapter@D@__crt_stdio_output@@V?$positional_parameter_base@DV?$stream_output_adapter@D@__crt_stdio_output@@@2@@__crt_stdio_output@@CADH_N@Z 10050fd2 f i libucrt:output.obj
 0001:0004ffe6       ?adjust_hexit@?$output_processor@DV?$stream_output_adapter@D@__crt_stdio_output@@V?$standard_base@DV?$stream_output_adapter@D@__crt_stdio_output@@@2@@__crt_stdio_output@@CADH_N@Z 10050fe6 f i libucrt:output.obj
 0001:0004fffa       ?adjust_hexit@?$output_processor@DV?$string_output_adapter@D@__crt_stdio_output@@V?$format_validation_base@DV?$string_output_adapter@D@__crt_stdio_output@@@2@@__crt_stdio_output@@CADH_N@Z 10050ffa f i libucrt:output.obj
 0001:0005000e       ?adjust_hexit@?$output_processor@DV?$string_output_adapter@D@__crt_stdio_output@@V?$positional_parameter_base@DV?$string_output_adapter@D@__crt_stdio_output@@@2@@__crt_stdio_output@@CADH_N@Z 1005100e f i libucrt:output.obj
 0001:00050022       ?adjust_hexit@?$output_processor@DV?$string_output_adapter@D@__crt_stdio_output@@V?$standard_base@DV?$string_output_adapter@D@__crt_stdio_output@@@2@@__crt_stdio_output@@CADH_N@Z 10051022 f i libucrt:output.obj
 0001:00050036       ?adjust_hexit@?$output_processor@_WV?$stream_output_adapter@_W@__crt_stdio_output@@V?$format_validation_base@_WV?$stream_output_adapter@_W@__crt_stdio_output@@@2@@__crt_stdio_output@@CADH_N@Z 10051036 f i libucrt:output.obj
 0001:0005004a       ?adjust_hexit@?$output_processor@_WV?$stream_output_adapter@_W@__crt_stdio_output@@V?$positional_parameter_base@_WV?$stream_output_adapter@_W@__crt_stdio_output@@@2@@__crt_stdio_output@@CADH_N@Z 1005104a f i libucrt:output.obj
 0001:0005005e       ?adjust_hexit@?$output_processor@_WV?$stream_output_adapter@_W@__crt_stdio_output@@V?$standard_base@_WV?$stream_output_adapter@_W@__crt_stdio_output@@@2@@__crt_stdio_output@@CADH_N@Z 1005105e f i libucrt:output.obj
 0001:00050072       ?adjust_hexit@?$output_processor@_WV?$string_output_adapter@_W@__crt_stdio_output@@V?$format_validation_base@_WV?$string_output_adapter@_W@__crt_stdio_output@@@2@@__crt_stdio_output@@CADH_N@Z 10051072 f i libucrt:output.obj
 0001:00050086       ?adjust_hexit@?$output_processor@_WV?$string_output_adapter@_W@__crt_stdio_output@@V?$positional_parameter_base@_WV?$string_output_adapter@_W@__crt_stdio_output@@@2@@__crt_stdio_output@@CADH_N@Z 10051086 f i libucrt:output.obj
 0001:0005009a       ?adjust_hexit@?$output_processor@_WV?$string_output_adapter@_W@__crt_stdio_output@@V?$standard_base@_WV?$string_output_adapter@_W@__crt_stdio_output@@@2@@__crt_stdio_output@@CADH_N@Z 1005109a f i libucrt:output.obj
 0001:000500ae       ?advance_to_next_pass@?$positional_parameter_base@DV?$stream_output_adapter@D@__crt_stdio_output@@@__crt_stdio_output@@IAE_NXZ 100510ae f i libucrt:output.obj
 0001:000500fa       ?advance_to_next_pass@?$positional_parameter_base@DV?$string_output_adapter@D@__crt_stdio_output@@@__crt_stdio_output@@IAE_NXZ 100510fa f i libucrt:output.obj
 0001:00050146       ?advance_to_next_pass@?$positional_parameter_base@_WV?$stream_output_adapter@_W@__crt_stdio_output@@@__crt_stdio_output@@IAE_NXZ 10051146 f i libucrt:output.obj
 0001:00050192       ?advance_to_next_pass@?$positional_parameter_base@_WV?$string_output_adapter@_W@__crt_stdio_output@@@__crt_stdio_output@@IAE_NXZ 10051192 f i libucrt:output.obj
 0001:000501de       ?advance_to_next_pass@?$standard_base@DV?$stream_output_adapter@D@__crt_stdio_output@@@__crt_stdio_output@@IAE_NXZ 100511de f i libucrt:output.obj
 0001:000501ef       ?advance_to_next_pass@?$standard_base@DV?$string_output_adapter@D@__crt_stdio_output@@@__crt_stdio_output@@IAE_NXZ 100511ef f i libucrt:output.obj
 0001:00050200       ?advance_to_next_pass@?$standard_base@_WV?$stream_output_adapter@_W@__crt_stdio_output@@@__crt_stdio_output@@IAE_NXZ 10051200 f i libucrt:output.obj
 0001:00050211       ?advance_to_next_pass@?$standard_base@_WV?$string_output_adapter@_W@__crt_stdio_output@@@__crt_stdio_output@@IAE_NXZ 10051211 f i libucrt:output.obj
 0001:00050230       ?crop_zeroes@__crt_stdio_output@@YAXPADQAU__crt_locale_pointers@@@Z 10051230 f i libucrt:output.obj
 0001:000502b1       ?find_next_state@?$output_processor@DV?$stream_output_adapter@D@__crt_stdio_output@@V?$format_validation_base@DV?$stream_output_adapter@D@__crt_stdio_output@@@2@@__crt_stdio_output@@ABE?AW4state@2@DW432@@Z 100512b1 f i libucrt:output.obj
 0001:000502e8       ?find_next_state@?$output_processor@DV?$stream_output_adapter@D@__crt_stdio_output@@V?$positional_parameter_base@DV?$stream_output_adapter@D@__crt_stdio_output@@@2@@__crt_stdio_output@@ABE?AW4state@2@DW432@@Z 100512e8 f i libucrt:output.obj
 0001:0005031f       ?find_next_state@?$output_processor@DV?$stream_output_adapter@D@__crt_stdio_output@@V?$standard_base@DV?$stream_output_adapter@D@__crt_stdio_output@@@2@@__crt_stdio_output@@ABE?AW4state@2@DW432@@Z 1005131f f i libucrt:output.obj
 0001:00050356       ?find_next_state@?$output_processor@DV?$string_output_adapter@D@__crt_stdio_output@@V?$format_validation_base@DV?$string_output_adapter@D@__crt_stdio_output@@@2@@__crt_stdio_output@@ABE?AW4state@2@DW432@@Z 10051356 f i libucrt:output.obj
 0001:0005038d       ?find_next_state@?$output_processor@DV?$string_output_adapter@D@__crt_stdio_output@@V?$positional_parameter_base@DV?$string_output_adapter@D@__crt_stdio_output@@@2@@__crt_stdio_output@@ABE?AW4state@2@DW432@@Z 1005138d f i libucrt:output.obj
 0001:000503c4       ?find_next_state@?$output_processor@DV?$string_output_adapter@D@__crt_stdio_output@@V?$standard_base@DV?$string_output_adapter@D@__crt_stdio_output@@@2@@__crt_stdio_output@@ABE?AW4state@2@DW432@@Z 100513c4 f i libucrt:output.obj
 0001:000503fb       ?find_next_state@?$output_processor@_WV?$stream_output_adapter@_W@__crt_stdio_output@@V?$format_validation_base@_WV?$stream_output_adapter@_W@__crt_stdio_output@@@2@@__crt_stdio_output@@ABE?AW4state@2@_WW432@@Z 100513fb f i libucrt:output.obj
 0001:00050431       ?find_next_state@?$output_processor@_WV?$stream_output_adapter@_W@__crt_stdio_output@@V?$positional_parameter_base@_WV?$stream_output_adapter@_W@__crt_stdio_output@@@2@@__crt_stdio_output@@ABE?AW4state@2@_WW432@@Z 10051431 f i libucrt:output.obj
 0001:00050467       ?find_next_state@?$output_processor@_WV?$stream_output_adapter@_W@__crt_stdio_output@@V?$standard_base@_WV?$stream_output_adapter@_W@__crt_stdio_output@@@2@@__crt_stdio_output@@ABE?AW4state@2@_WW432@@Z 10051467 f i libucrt:output.obj
 0001:0005049d       ?find_next_state@?$output_processor@_WV?$string_output_adapter@_W@__crt_stdio_output@@V?$format_validation_base@_WV?$string_output_adapter@_W@__crt_stdio_output@@@2@@__crt_stdio_output@@ABE?AW4state@2@_WW432@@Z 1005149d f i libucrt:output.obj
 0001:000504d3       ?find_next_state@?$output_processor@_WV?$string_output_adapter@_W@__crt_stdio_output@@V?$positional_parameter_base@_WV?$string_output_adapter@_W@__crt_stdio_output@@@2@@__crt_stdio_output@@ABE?AW4state@2@_WW432@@Z 100514d3 f i libucrt:output.obj
 0001:00050509       ?find_next_state@?$output_processor@_WV?$string_output_adapter@_W@__crt_stdio_output@@V?$standard_base@_WV?$string_output_adapter@_W@__crt_stdio_output@@@2@@__crt_stdio_output@@ABE?AW4state@2@_WW432@@Z 10051509 f i libucrt:output.obj
 0001:00050540       ?force_decimal_point@__crt_stdio_output@@YAXPADQAU__crt_locale_pointers@@@Z 10051540 f i libucrt:output.obj
 0001:000505a5       ?get@__crt_deferred_errno_cache@@QAEAAHXZ 100515a5 f i libucrt:output.obj
 0001:000505b9       ?get_flags@__crt_stdio_stream@@QBEJXZ 100515b9 f i libucrt:output.obj
 0001:000505c0       ?get_parameter_type@?$positional_parameter_base@DV?$stream_output_adapter@D@__crt_stdio_output@@@__crt_stdio_output@@CA?AW4parameter_type@12@F@Z 100515c0 f i libucrt:output.obj
 0001:000505c4       ?get_parameter_type@?$positional_parameter_base@DV?$stream_output_adapter@D@__crt_stdio_output@@@__crt_stdio_output@@CA?AW4parameter_type@12@G@Z 100515c4 f i libucrt:output.obj
 0001:000505c8       ?get_parameter_type@?$positional_parameter_base@DV?$stream_output_adapter@D@__crt_stdio_output@@@__crt_stdio_output@@CA?AW4parameter_type@12@H@Z 100515c8 f i libucrt:output.obj
 0001:000505cc       ?get_parameter_type@?$positional_parameter_base@DV?$stream_output_adapter@D@__crt_stdio_output@@@__crt_stdio_output@@CA?AW4parameter_type@12@I@Z 100515cc f i libucrt:output.obj
 0001:000505d0       ?get_parameter_type@?$positional_parameter_base@DV?$stream_output_adapter@D@__crt_stdio_output@@@__crt_stdio_output@@CA?AW4parameter_type@12@U_CRT_DOUBLE@@@Z 100515d0 f i libucrt:output.obj
 0001:000505d4       ?get_parameter_type@?$positional_parameter_base@DV?$stream_output_adapter@D@__crt_stdio_output@@@__crt_stdio_output@@CA?AW4parameter_type@12@_J@Z 100515d4 f i libucrt:output.obj
 0001:000505d8       ?get_parameter_type@?$positional_parameter_base@DV?$stream_output_adapter@D@__crt_stdio_output@@@__crt_stdio_output@@CA?AW4parameter_type@12@_K@Z 100515d8 f i libucrt:output.obj
 0001:000505dc       ?get_parameter_type@?$positional_parameter_base@DV?$stream_output_adapter@D@__crt_stdio_output@@@__crt_stdio_output@@CA?AW4parameter_type@12@_W@Z 100515dc f i libucrt:output.obj
 0001:000505e0       ?get_parameter_type@?$positional_parameter_base@DV?$string_output_adapter@D@__crt_stdio_output@@@__crt_stdio_output@@CA?AW4parameter_type@12@F@Z 100515e0 f i libucrt:output.obj
 0001:000505e4       ?get_parameter_type@?$positional_parameter_base@DV?$string_output_adapter@D@__crt_stdio_output@@@__crt_stdio_output@@CA?AW4parameter_type@12@G@Z 100515e4 f i libucrt:output.obj
 0001:000505e8       ?get_parameter_type@?$positional_parameter_base@DV?$string_output_adapter@D@__crt_stdio_output@@@__crt_stdio_output@@CA?AW4parameter_type@12@H@Z 100515e8 f i libucrt:output.obj
 0001:000505ec       ?get_parameter_type@?$positional_parameter_base@DV?$string_output_adapter@D@__crt_stdio_output@@@__crt_stdio_output@@CA?AW4parameter_type@12@I@Z 100515ec f i libucrt:output.obj
 0001:000505f0       ?get_parameter_type@?$positional_parameter_base@DV?$string_output_adapter@D@__crt_stdio_output@@@__crt_stdio_output@@CA?AW4parameter_type@12@U_CRT_DOUBLE@@@Z 100515f0 f i libucrt:output.obj
 0001:000505f4       ?get_parameter_type@?$positional_parameter_base@DV?$string_output_adapter@D@__crt_stdio_output@@@__crt_stdio_output@@CA?AW4parameter_type@12@_J@Z 100515f4 f i libucrt:output.obj
 0001:000505f8       ?get_parameter_type@?$positional_parameter_base@DV?$string_output_adapter@D@__crt_stdio_output@@@__crt_stdio_output@@CA?AW4parameter_type@12@_K@Z 100515f8 f i libucrt:output.obj
 0001:000505fc       ?get_parameter_type@?$positional_parameter_base@DV?$string_output_adapter@D@__crt_stdio_output@@@__crt_stdio_output@@CA?AW4parameter_type@12@_W@Z 100515fc f i libucrt:output.obj
 0001:00050600       ?get_parameter_type@?$positional_parameter_base@_WV?$stream_output_adapter@_W@__crt_stdio_output@@@__crt_stdio_output@@CA?AW4parameter_type@12@F@Z 10051600 f i libucrt:output.obj
 0001:00050604       ?get_parameter_type@?$positional_parameter_base@_WV?$stream_output_adapter@_W@__crt_stdio_output@@@__crt_stdio_output@@CA?AW4parameter_type@12@G@Z 10051604 f i libucrt:output.obj
 0001:00050608       ?get_parameter_type@?$positional_parameter_base@_WV?$stream_output_adapter@_W@__crt_stdio_output@@@__crt_stdio_output@@CA?AW4parameter_type@12@H@Z 10051608 f i libucrt:output.obj
 0001:0005060c       ?get_parameter_type@?$positional_parameter_base@_WV?$stream_output_adapter@_W@__crt_stdio_output@@@__crt_stdio_output@@CA?AW4parameter_type@12@I@Z 1005160c f i libucrt:output.obj
 0001:00050610       ?get_parameter_type@?$positional_parameter_base@_WV?$stream_output_adapter@_W@__crt_stdio_output@@@__crt_stdio_output@@CA?AW4parameter_type@12@U_CRT_DOUBLE@@@Z 10051610 f i libucrt:output.obj
 0001:00050614       ?get_parameter_type@?$positional_parameter_base@_WV?$stream_output_adapter@_W@__crt_stdio_output@@@__crt_stdio_output@@CA?AW4parameter_type@12@_J@Z 10051614 f i libucrt:output.obj
 0001:00050618       ?get_parameter_type@?$positional_parameter_base@_WV?$stream_output_adapter@_W@__crt_stdio_output@@@__crt_stdio_output@@CA?AW4parameter_type@12@_K@Z 10051618 f i libucrt:output.obj
 0001:0005061c       ?get_parameter_type@?$positional_parameter_base@_WV?$stream_output_adapter@_W@__crt_stdio_output@@@__crt_stdio_output@@CA?AW4parameter_type@12@_W@Z 1005161c f i libucrt:output.obj
 0001:00050620       ?get_parameter_type@?$positional_parameter_base@_WV?$string_output_adapter@_W@__crt_stdio_output@@@__crt_stdio_output@@CA?AW4parameter_type@12@F@Z 10051620 f i libucrt:output.obj
 0001:00050624       ?get_parameter_type@?$positional_parameter_base@_WV?$string_output_adapter@_W@__crt_stdio_output@@@__crt_stdio_output@@CA?AW4parameter_type@12@G@Z 10051624 f i libucrt:output.obj
 0001:00050628       ?get_parameter_type@?$positional_parameter_base@_WV?$string_output_adapter@_W@__crt_stdio_output@@@__crt_stdio_output@@CA?AW4parameter_type@12@H@Z 10051628 f i libucrt:output.obj
 0001:0005062c       ?get_parameter_type@?$positional_parameter_base@_WV?$string_output_adapter@_W@__crt_stdio_output@@@__crt_stdio_output@@CA?AW4parameter_type@12@I@Z 1005162c f i libucrt:output.obj
 0001:00050630       ?get_parameter_type@?$positional_parameter_base@_WV?$string_output_adapter@_W@__crt_stdio_output@@@__crt_stdio_output@@CA?AW4parameter_type@12@U_CRT_DOUBLE@@@Z 10051630 f i libucrt:output.obj
 0001:00050634       ?get_parameter_type@?$positional_parameter_base@_WV?$string_output_adapter@_W@__crt_stdio_output@@@__crt_stdio_output@@CA?AW4parameter_type@12@_J@Z 10051634 f i libucrt:output.obj
 0001:00050638       ?get_parameter_type@?$positional_parameter_base@_WV?$string_output_adapter@_W@__crt_stdio_output@@@__crt_stdio_output@@CA?AW4parameter_type@12@_K@Z 10051638 f i libucrt:output.obj
 0001:0005063c       ?get_parameter_type@?$positional_parameter_base@_WV?$string_output_adapter@_W@__crt_stdio_output@@@__crt_stdio_output@@CA?AW4parameter_type@12@_W@Z 1005163c f i libucrt:output.obj
 0001:00050640       ?has_flag@?$output_processor@DV?$stream_output_adapter@D@__crt_stdio_output@@V?$format_validation_base@DV?$stream_output_adapter@D@__crt_stdio_output@@@2@@__crt_stdio_output@@ABE_NI@Z 10051640 f i libucrt:output.obj
 0001:00050652       ?has_flag@?$output_processor@DV?$stream_output_adapter@D@__crt_stdio_output@@V?$positional_parameter_base@DV?$stream_output_adapter@D@__crt_stdio_output@@@2@@__crt_stdio_output@@ABE_NI@Z 10051652 f i libucrt:output.obj
 0001:00050664       ?has_flag@?$output_processor@DV?$stream_output_adapter@D@__crt_stdio_output@@V?$standard_base@DV?$stream_output_adapter@D@__crt_stdio_output@@@2@@__crt_stdio_output@@ABE_NI@Z 10051664 f i libucrt:output.obj
 0001:00050676       ?has_flag@?$output_processor@DV?$string_output_adapter@D@__crt_stdio_output@@V?$format_validation_base@DV?$string_output_adapter@D@__crt_stdio_output@@@2@@__crt_stdio_output@@ABE_NI@Z 10051676 f i libucrt:output.obj
 0001:00050688       ?has_flag@?$output_processor@DV?$string_output_adapter@D@__crt_stdio_output@@V?$positional_parameter_base@DV?$string_output_adapter@D@__crt_stdio_output@@@2@@__crt_stdio_output@@ABE_NI@Z 10051688 f i libucrt:output.obj
 0001:0005069a       ?has_flag@?$output_processor@DV?$string_output_adapter@D@__crt_stdio_output@@V?$standard_base@DV?$string_output_adapter@D@__crt_stdio_output@@@2@@__crt_stdio_output@@ABE_NI@Z 1005169a f i libucrt:output.obj
 0001:000506ac       ?has_flag@?$output_processor@_WV?$stream_output_adapter@_W@__crt_stdio_output@@V?$format_validation_base@_WV?$stream_output_adapter@_W@__crt_stdio_output@@@2@@__crt_stdio_output@@ABE_NI@Z 100516ac f i libucrt:output.obj
 0001:000506be       ?has_flag@?$output_processor@_WV?$stream_output_adapter@_W@__crt_stdio_output@@V?$positional_parameter_base@_WV?$stream_output_adapter@_W@__crt_stdio_output@@@2@@__crt_stdio_output@@ABE_NI@Z 100516be f i libucrt:output.obj
 0001:000506d0       ?has_flag@?$output_processor@_WV?$stream_output_adapter@_W@__crt_stdio_output@@V?$standard_base@_WV?$stream_output_adapter@_W@__crt_stdio_output@@@2@@__crt_stdio_output@@ABE_NI@Z 100516d0 f i libucrt:output.obj
 0001:000506e2       ?has_flag@?$output_processor@_WV?$string_output_adapter@_W@__crt_stdio_output@@V?$format_validation_base@_WV?$string_output_adapter@_W@__crt_stdio_output@@@2@@__crt_stdio_output@@ABE_NI@Z 100516e2 f i libucrt:output.obj
 0001:000506f4       ?has_flag@?$output_processor@_WV?$string_output_adapter@_W@__crt_stdio_output@@V?$positional_parameter_base@_WV?$string_output_adapter@_W@__crt_stdio_output@@@2@@__crt_stdio_output@@ABE_NI@Z 100516f4 f i libucrt:output.obj
 0001:00050706       ?has_flag@?$output_processor@_WV?$string_output_adapter@_W@__crt_stdio_output@@V?$standard_base@_WV?$string_output_adapter@_W@__crt_stdio_output@@@2@@__crt_stdio_output@@ABE_NI@Z 10051706 f i libucrt:output.obj
 0001:00050718       ?is_positional_parameter_reappearance_consistent@?$positional_parameter_base@DV?$stream_output_adapter@D@__crt_stdio_output@@@__crt_stdio_output@@AAE_NABUparameter_data@12@W4parameter_type@12@DW4length_modifier@2@@Z 10051718 f i libucrt:output.obj
 0001:00050832       ?is_positional_parameter_reappearance_consistent@?$positional_parameter_base@DV?$string_output_adapter@D@__crt_stdio_output@@@__crt_stdio_output@@AAE_NABUparameter_data@12@W4parameter_type@12@DW4length_modifier@2@@Z 10051832 f i libucrt:output.obj
 0001:0005094c       ?is_positional_parameter_reappearance_consistent@?$positional_parameter_base@_WV?$stream_output_adapter@_W@__crt_stdio_output@@@__crt_stdio_output@@AAE_NABUparameter_data@12@W4parameter_type@12@_WW4length_modifier@2@@Z 1005194c f i libucrt:output.obj
 0001:00050a67       ?is_positional_parameter_reappearance_consistent@?$positional_parameter_base@_WV?$string_output_adapter@_W@__crt_stdio_output@@@__crt_stdio_output@@AAE_NABUparameter_data@12@W4parameter_type@12@_WW4length_modifier@2@@Z 10051a67 f i libucrt:output.obj
 0001:00050b82       ?is_string_backed@__crt_stdio_stream@@QBE_NXZ 10051b82 f i libucrt:output.obj
 0001:00050b8e       ?narrow_null_string@?$output_processor@DV?$stream_output_adapter@D@__crt_stdio_output@@V?$format_validation_base@DV?$stream_output_adapter@D@__crt_stdio_output@@@2@@__crt_stdio_output@@CAPADXZ 10051b8e f i libucrt:output.obj
 0001:00050b94       ?narrow_null_string@?$output_processor@DV?$stream_output_adapter@D@__crt_stdio_output@@V?$positional_parameter_base@DV?$stream_output_adapter@D@__crt_stdio_output@@@2@@__crt_stdio_output@@CAPADXZ 10051b94 f i libucrt:output.obj
 0001:00050b9a       ?narrow_null_string@?$output_processor@DV?$stream_output_adapter@D@__crt_stdio_output@@V?$standard_base@DV?$stream_output_adapter@D@__crt_stdio_output@@@2@@__crt_stdio_output@@CAPADXZ 10051b9a f i libucrt:output.obj
 0001:00050ba0       ?narrow_null_string@?$output_processor@DV?$string_output_adapter@D@__crt_stdio_output@@V?$format_validation_base@DV?$string_output_adapter@D@__crt_stdio_output@@@2@@__crt_stdio_output@@CAPADXZ 10051ba0 f i libucrt:output.obj
 0001:00050ba6       ?narrow_null_string@?$output_processor@DV?$string_output_adapter@D@__crt_stdio_output@@V?$positional_parameter_base@DV?$string_output_adapter@D@__crt_stdio_output@@@2@@__crt_stdio_output@@CAPADXZ 10051ba6 f i libucrt:output.obj
 0001:00050bac       ?narrow_null_string@?$output_processor@DV?$string_output_adapter@D@__crt_stdio_output@@V?$standard_base@DV?$string_output_adapter@D@__crt_stdio_output@@@2@@__crt_stdio_output@@CAPADXZ 10051bac f i libucrt:output.obj
 0001:00050bb2       ?narrow_null_string@?$output_processor@_WV?$stream_output_adapter@_W@__crt_stdio_output@@V?$format_validation_base@_WV?$stream_output_adapter@_W@__crt_stdio_output@@@2@@__crt_stdio_output@@CAPADXZ 10051bb2 f i libucrt:output.obj
 0001:00050bb8       ?narrow_null_string@?$output_processor@_WV?$stream_output_adapter@_W@__crt_stdio_output@@V?$positional_parameter_base@_WV?$stream_output_adapter@_W@__crt_stdio_output@@@2@@__crt_stdio_output@@CAPADXZ 10051bb8 f i libucrt:output.obj
 0001:00050bbe       ?narrow_null_string@?$output_processor@_WV?$stream_output_adapter@_W@__crt_stdio_output@@V?$standard_base@_WV?$stream_output_adapter@_W@__crt_stdio_output@@@2@@__crt_stdio_output@@CAPADXZ 10051bbe f i libucrt:output.obj
 0001:00050bc4       ?narrow_null_string@?$output_processor@_WV?$string_output_adapter@_W@__crt_stdio_output@@V?$format_validation_base@_WV?$string_output_adapter@_W@__crt_stdio_output@@@2@@__crt_stdio_output@@CAPADXZ 10051bc4 f i libucrt:output.obj
 0001:00050bca       ?narrow_null_string@?$output_processor@_WV?$string_output_adapter@_W@__crt_stdio_output@@V?$positional_parameter_base@_WV?$string_output_adapter@_W@__crt_stdio_output@@@2@@__crt_stdio_output@@CAPADXZ 10051bca f i libucrt:output.obj
 0001:00050bd0       ?narrow_null_string@?$output_processor@_WV?$string_output_adapter@_W@__crt_stdio_output@@V?$standard_base@_WV?$string_output_adapter@_W@__crt_stdio_output@@@2@@__crt_stdio_output@@CAPADXZ 10051bd0 f i libucrt:output.obj
 0001:00050bd6       ?parse_int_from_format_string@?$output_processor@DV?$stream_output_adapter@D@__crt_stdio_output@@V?$format_validation_base@DV?$stream_output_adapter@D@__crt_stdio_output@@@2@@__crt_stdio_output@@AAE_NQAH@Z 10051bd6 f i libucrt:output.obj
 0001:00050c4a       ?parse_int_from_format_string@?$output_processor@DV?$stream_output_adapter@D@__crt_stdio_output@@V?$positional_parameter_base@DV?$stream_output_adapter@D@__crt_stdio_output@@@2@@__crt_stdio_output@@AAE_NQAH@Z 10051c4a f i libucrt:output.obj
 0001:00050cbe       ?parse_int_from_format_string@?$output_processor@DV?$stream_output_adapter@D@__crt_stdio_output@@V?$standard_base@DV?$stream_output_adapter@D@__crt_stdio_output@@@2@@__crt_stdio_output@@AAE_NQAH@Z 10051cbe f i libucrt:output.obj
 0001:00050d32       ?parse_int_from_format_string@?$output_processor@DV?$string_output_adapter@D@__crt_stdio_output@@V?$format_validation_base@DV?$string_output_adapter@D@__crt_stdio_output@@@2@@__crt_stdio_output@@AAE_NQAH@Z 10051d32 f i libucrt:output.obj
 0001:00050da6       ?parse_int_from_format_string@?$output_processor@DV?$string_output_adapter@D@__crt_stdio_output@@V?$positional_parameter_base@DV?$string_output_adapter@D@__crt_stdio_output@@@2@@__crt_stdio_output@@AAE_NQAH@Z 10051da6 f i libucrt:output.obj
 0001:00050e1a       ?parse_int_from_format_string@?$output_processor@DV?$string_output_adapter@D@__crt_stdio_output@@V?$standard_base@DV?$string_output_adapter@D@__crt_stdio_output@@@2@@__crt_stdio_output@@AAE_NQAH@Z 10051e1a f i libucrt:output.obj
 0001:00050e8e       ?parse_int_from_format_string@?$output_processor@_WV?$stream_output_adapter@_W@__crt_stdio_output@@V?$format_validation_base@_WV?$stream_output_adapter@_W@__crt_stdio_output@@@2@@__crt_stdio_output@@AAE_NQAH@Z 10051e8e f i libucrt:output.obj
 0001:00050f04       ?parse_int_from_format_string@?$output_processor@_WV?$stream_output_adapter@_W@__crt_stdio_output@@V?$positional_parameter_base@_WV?$stream_output_adapter@_W@__crt_stdio_output@@@2@@__crt_stdio_output@@AAE_NQAH@Z 10051f04 f i libucrt:output.obj
 0001:00050f7a       ?parse_int_from_format_string@?$output_processor@_WV?$stream_output_adapter@_W@__crt_stdio_output@@V?$standard_base@_WV?$stream_output_adapter@_W@__crt_stdio_output@@@2@@__crt_stdio_output@@AAE_NQAH@Z 10051f7a f i libucrt:output.obj
 0001:00050ff0       ?parse_int_from_format_string@?$output_processor@_WV?$string_output_adapter@_W@__crt_stdio_output@@V?$format_validation_base@_WV?$string_output_adapter@_W@__crt_stdio_output@@@2@@__crt_stdio_output@@AAE_NQAH@Z 10051ff0 f i libucrt:output.obj
 0001:00051066       ?parse_int_from_format_string@?$output_processor@_WV?$string_output_adapter@_W@__crt_stdio_output@@V?$positional_parameter_base@_WV?$string_output_adapter@_W@__crt_stdio_output@@@2@@__crt_stdio_output@@AAE_NQAH@Z 10052066 f i libucrt:output.obj
 0001:000510dc       ?parse_int_from_format_string@?$output_processor@_WV?$string_output_adapter@_W@__crt_stdio_output@@V?$standard_base@_WV?$string_output_adapter@_W@__crt_stdio_output@@@2@@__crt_stdio_output@@AAE_NQAH@Z 100520dc f i libucrt:output.obj
 0001:00051152       ?process@?$output_processor@DV?$stream_output_adapter@D@__crt_stdio_output@@V?$format_validation_base@DV?$stream_output_adapter@D@__crt_stdio_output@@@2@@__crt_stdio_output@@QAEHXZ 10052152 f i libucrt:output.obj
 0001:00051276       ?process@?$output_processor@DV?$stream_output_adapter@D@__crt_stdio_output@@V?$positional_parameter_base@DV?$stream_output_adapter@D@__crt_stdio_output@@@2@@__crt_stdio_output@@QAEHXZ 10052276 f i libucrt:output.obj
 0001:000513a6       ?process@?$output_processor@DV?$stream_output_adapter@D@__crt_stdio_output@@V?$standard_base@DV?$stream_output_adapter@D@__crt_stdio_output@@@2@@__crt_stdio_output@@QAEHXZ 100523a6 f i libucrt:output.obj
 0001:000514ba       ?process@?$output_processor@DV?$string_output_adapter@D@__crt_stdio_output@@V?$format_validation_base@DV?$string_output_adapter@D@__crt_stdio_output@@@2@@__crt_stdio_output@@QAEHXZ 100524ba f i libucrt:output.obj
 0001:000515de       ?process@?$output_processor@DV?$string_output_adapter@D@__crt_stdio_output@@V?$positional_parameter_base@DV?$string_output_adapter@D@__crt_stdio_output@@@2@@__crt_stdio_output@@QAEHXZ 100525de f i libucrt:output.obj
 0001:0005170e       ?process@?$output_processor@DV?$string_output_adapter@D@__crt_stdio_output@@V?$standard_base@DV?$string_output_adapter@D@__crt_stdio_output@@@2@@__crt_stdio_output@@QAEHXZ 1005270e f i libucrt:output.obj
 0001:00051822       ?process@?$output_processor@_WV?$stream_output_adapter@_W@__crt_stdio_output@@V?$format_validation_base@_WV?$stream_output_adapter@_W@__crt_stdio_output@@@2@@__crt_stdio_output@@QAEHXZ 10052822 f i libucrt:output.obj
 0001:0005194a       ?process@?$output_processor@_WV?$stream_output_adapter@_W@__crt_stdio_output@@V?$positional_parameter_base@_WV?$stream_output_adapter@_W@__crt_stdio_output@@@2@@__crt_stdio_output@@QAEHXZ 1005294a f i libucrt:output.obj
 0001:00051a7e       ?process@?$output_processor@_WV?$stream_output_adapter@_W@__crt_stdio_output@@V?$standard_base@_WV?$stream_output_adapter@_W@__crt_stdio_output@@@2@@__crt_stdio_output@@QAEHXZ 10052a7e f i libucrt:output.obj
 0001:00051b9a       ?process@?$output_processor@_WV?$string_output_adapter@_W@__crt_stdio_output@@V?$format_validation_base@_WV?$string_output_adapter@_W@__crt_stdio_output@@@2@@__crt_stdio_output@@QAEHXZ 10052b9a f i libucrt:output.obj
 0001:00051cc2       ?process@?$output_processor@_WV?$string_output_adapter@_W@__crt_stdio_output@@V?$positional_parameter_base@_WV?$string_output_adapter@_W@__crt_stdio_output@@@2@@__crt_stdio_output@@QAEHXZ 10052cc2 f i libucrt:output.obj
 0001:00051df6       ?process@?$output_processor@_WV?$string_output_adapter@_W@__crt_stdio_output@@V?$standard_base@_WV?$string_output_adapter@_W@__crt_stdio_output@@@2@@__crt_stdio_output@@QAEHXZ 10052df6 f i libucrt:output.obj
 0001:00051f12       ?public_stream@__crt_stdio_stream@@QBEPAU_iobuf@@XZ 10052f12 f i libucrt:output.obj
 0001:00051f15       ?set_flag@?$output_processor@DV?$stream_output_adapter@D@__crt_stdio_output@@V?$format_validation_base@DV?$stream_output_adapter@D@__crt_stdio_output@@@2@@__crt_stdio_output@@AAEXI@Z 10052f15 f i libucrt:output.obj
 0001:00051f24       ?set_flag@?$output_processor@DV?$stream_output_adapter@D@__crt_stdio_output@@V?$positional_parameter_base@DV?$stream_output_adapter@D@__crt_stdio_output@@@2@@__crt_stdio_output@@AAEXI@Z 10052f24 f i libucrt:output.obj
 0001:00051f33       ?set_flag@?$output_processor@DV?$stream_output_adapter@D@__crt_stdio_output@@V?$standard_base@DV?$stream_output_adapter@D@__crt_stdio_output@@@2@@__crt_stdio_output@@AAEXI@Z 10052f33 f i libucrt:output.obj
 0001:00051f42       ?set_flag@?$output_processor@DV?$string_output_adapter@D@__crt_stdio_output@@V?$format_validation_base@DV?$string_output_adapter@D@__crt_stdio_output@@@2@@__crt_stdio_output@@AAEXI@Z 10052f42 f i libucrt:output.obj
 0001:00051f51       ?set_flag@?$output_processor@DV?$string_output_adapter@D@__crt_stdio_output@@V?$positional_parameter_base@DV?$string_output_adapter@D@__crt_stdio_output@@@2@@__crt_stdio_output@@AAEXI@Z 10052f51 f i libucrt:output.obj
 0001:00051f60       ?set_flag@?$output_processor@DV?$string_output_adapter@D@__crt_stdio_output@@V?$standard_base@DV?$string_output_adapter@D@__crt_stdio_output@@@2@@__crt_stdio_output@@AAEXI@Z 10052f60 f i libucrt:output.obj
 0001:00051f6f       ?set_flag@?$output_processor@_WV?$stream_output_adapter@_W@__crt_stdio_output@@V?$format_validation_base@_WV?$stream_output_adapter@_W@__crt_stdio_output@@@2@@__crt_stdio_output@@AAEXI@Z 10052f6f f i libucrt:output.obj
 0001:00051f7e       ?set_flag@?$output_processor@_WV?$stream_output_adapter@_W@__crt_stdio_output@@V?$positional_parameter_base@_WV?$stream_output_adapter@_W@__crt_stdio_output@@@2@@__crt_stdio_output@@AAEXI@Z 10052f7e f i libucrt:output.obj
 0001:00051f8d       ?set_flag@?$output_processor@_WV?$stream_output_adapter@_W@__crt_stdio_output@@V?$standard_base@_WV?$stream_output_adapter@_W@__crt_stdio_output@@@2@@__crt_stdio_output@@AAEXI@Z 10052f8d f i libucrt:output.obj
 0001:00051f9c       ?set_flag@?$output_processor@_WV?$string_output_adapter@_W@__crt_stdio_output@@V?$format_validation_base@_WV?$string_output_adapter@_W@__crt_stdio_output@@@2@@__crt_stdio_output@@AAEXI@Z 10052f9c f i libucrt:output.obj
 0001:00051fab       ?set_flag@?$output_processor@_WV?$string_output_adapter@_W@__crt_stdio_output@@V?$positional_parameter_base@_WV?$string_output_adapter@_W@__crt_stdio_output@@@2@@__crt_stdio_output@@AAEXI@Z 10052fab f i libucrt:output.obj
 0001:00051fba       ?set_flag@?$output_processor@_WV?$string_output_adapter@_W@__crt_stdio_output@@V?$standard_base@_WV?$string_output_adapter@_W@__crt_stdio_output@@@2@@__crt_stdio_output@@AAEXI@Z 10052fba f i libucrt:output.obj
 0001:00051fc9       ?should_format@?$positional_parameter_base@DV?$stream_output_adapter@D@__crt_stdio_output@@@__crt_stdio_output@@IAE_NXZ 10052fc9 f i libucrt:output.obj
 0001:00051fdf       ?should_format@?$positional_parameter_base@DV?$string_output_adapter@D@__crt_stdio_output@@@__crt_stdio_output@@IAE_NXZ 10052fdf f i libucrt:output.obj
 0001:00051ff5       ?should_format@?$positional_parameter_base@_WV?$stream_output_adapter@_W@__crt_stdio_output@@@__crt_stdio_output@@IAE_NXZ 10052ff5 f i libucrt:output.obj
 0001:0005200b       ?should_format@?$positional_parameter_base@_WV?$string_output_adapter@_W@__crt_stdio_output@@@__crt_stdio_output@@IAE_NXZ 1005300b f i libucrt:output.obj
 0001:00052021       ?should_format@?$standard_base@DV?$stream_output_adapter@D@__crt_stdio_output@@@__crt_stdio_output@@IAE_NXZ 10053021 f i libucrt:output.obj
 0001:00052024       ?should_format@?$standard_base@DV?$string_output_adapter@D@__crt_stdio_output@@@__crt_stdio_output@@IAE_NXZ 10053024 f i libucrt:output.obj
 0001:00052027       ?should_format@?$standard_base@_WV?$stream_output_adapter@_W@__crt_stdio_output@@@__crt_stdio_output@@IAE_NXZ 10053027 f i libucrt:output.obj
 0001:0005202a       ?should_format@?$standard_base@_WV?$string_output_adapter@_W@__crt_stdio_output@@@__crt_stdio_output@@IAE_NXZ 1005302a f i libucrt:output.obj
 0001:0005202d       ?should_skip_normal_state_processing@?$positional_parameter_base@DV?$stream_output_adapter@D@__crt_stdio_output@@@__crt_stdio_output@@IAE_NXZ 1005302d f i libucrt:output.obj
 0001:00052055       ?should_skip_normal_state_processing@?$positional_parameter_base@DV?$string_output_adapter@D@__crt_stdio_output@@@__crt_stdio_output@@IAE_NXZ 10053055 f i libucrt:output.obj
 0001:0005207d       ?should_skip_normal_state_processing@?$positional_parameter_base@_WV?$stream_output_adapter@_W@__crt_stdio_output@@@__crt_stdio_output@@IAE_NXZ 1005307d f i libucrt:output.obj
 0001:000520a5       ?should_skip_normal_state_processing@?$positional_parameter_base@_WV?$string_output_adapter@_W@__crt_stdio_output@@@__crt_stdio_output@@IAE_NXZ 100530a5 f i libucrt:output.obj
 0001:000520cd       ?should_skip_normal_state_processing@?$standard_base@DV?$stream_output_adapter@D@__crt_stdio_output@@@__crt_stdio_output@@IAE_NXZ 100530cd f i libucrt:output.obj
 0001:000520d0       ?should_skip_normal_state_processing@?$standard_base@DV?$string_output_adapter@D@__crt_stdio_output@@@__crt_stdio_output@@IAE_NXZ 100530d0 f i libucrt:output.obj
 0001:000520d3       ?should_skip_normal_state_processing@?$standard_base@_WV?$stream_output_adapter@_W@__crt_stdio_output@@@__crt_stdio_output@@IAE_NXZ 100530d3 f i libucrt:output.obj
 0001:000520d6       ?should_skip_normal_state_processing@?$standard_base@_WV?$string_output_adapter@_W@__crt_stdio_output@@@__crt_stdio_output@@IAE_NXZ 100530d6 f i libucrt:output.obj
 0001:000520d9       ?should_skip_type_state_output@?$positional_parameter_base@DV?$stream_output_adapter@D@__crt_stdio_output@@@__crt_stdio_output@@IBE_NXZ 100530d9 f i libucrt:output.obj
 0001:000520f0       ?should_skip_type_state_output@?$positional_parameter_base@DV?$string_output_adapter@D@__crt_stdio_output@@@__crt_stdio_output@@IBE_NXZ 100530f0 f i libucrt:output.obj
 0001:00052107       ?should_skip_type_state_output@?$positional_parameter_base@_WV?$stream_output_adapter@_W@__crt_stdio_output@@@__crt_stdio_output@@IBE_NXZ 10053107 f i libucrt:output.obj
 0001:0005211e       ?should_skip_type_state_output@?$positional_parameter_base@_WV?$string_output_adapter@_W@__crt_stdio_output@@@__crt_stdio_output@@IBE_NXZ 1005311e f i libucrt:output.obj
 0001:00052135       ?should_skip_type_state_output@?$standard_base@DV?$stream_output_adapter@D@__crt_stdio_output@@@__crt_stdio_output@@IBE_NXZ 10053135 f i libucrt:output.obj
 0001:00052138       ?should_skip_type_state_output@?$standard_base@DV?$string_output_adapter@D@__crt_stdio_output@@@__crt_stdio_output@@IBE_NXZ 10053138 f i libucrt:output.obj
 0001:0005213b       ?should_skip_type_state_output@?$standard_base@_WV?$stream_output_adapter@_W@__crt_stdio_output@@@__crt_stdio_output@@IBE_NXZ 1005313b f i libucrt:output.obj
 0001:0005213e       ?should_skip_type_state_output@?$standard_base@_WV?$string_output_adapter@_W@__crt_stdio_output@@@__crt_stdio_output@@IBE_NXZ 1005313e f i libucrt:output.obj
 0001:00052141       ?state_case_dot@?$output_processor@DV?$stream_output_adapter@D@__crt_stdio_output@@V?$format_validation_base@DV?$stream_output_adapter@D@__crt_stdio_output@@@2@@__crt_stdio_output@@AAE_NXZ 10053141 f i libucrt:output.obj
 0001:00052148       ?state_case_dot@?$output_processor@DV?$stream_output_adapter@D@__crt_stdio_output@@V?$positional_parameter_base@DV?$stream_output_adapter@D@__crt_stdio_output@@@2@@__crt_stdio_output@@AAE_NXZ 10053148 f i libucrt:output.obj
 0001:0005214f       ?state_case_dot@?$output_processor@DV?$stream_output_adapter@D@__crt_stdio_output@@V?$standard_base@DV?$stream_output_adapter@D@__crt_stdio_output@@@2@@__crt_stdio_output@@AAE_NXZ 1005314f f i libucrt:output.obj
 0001:00052156       ?state_case_dot@?$output_processor@DV?$string_output_adapter@D@__crt_stdio_output@@V?$format_validation_base@DV?$string_output_adapter@D@__crt_stdio_output@@@2@@__crt_stdio_output@@AAE_NXZ 10053156 f i libucrt:output.obj
 0001:0005215d       ?state_case_dot@?$output_processor@DV?$string_output_adapter@D@__crt_stdio_output@@V?$positional_parameter_base@DV?$string_output_adapter@D@__crt_stdio_output@@@2@@__crt_stdio_output@@AAE_NXZ 1005315d f i libucrt:output.obj
 0001:00052164       ?state_case_dot@?$output_processor@DV?$string_output_adapter@D@__crt_stdio_output@@V?$standard_base@DV?$string_output_adapter@D@__crt_stdio_output@@@2@@__crt_stdio_output@@AAE_NXZ 10053164 f i libucrt:output.obj
 0001:0005216b       ?state_case_dot@?$output_processor@_WV?$stream_output_adapter@_W@__crt_stdio_output@@V?$format_validation_base@_WV?$stream_output_adapter@_W@__crt_stdio_output@@@2@@__crt_stdio_output@@AAE_NXZ 1005316b f i libucrt:output.obj
 0001:00052172       ?state_case_dot@?$output_processor@_WV?$stream_output_adapter@_W@__crt_stdio_output@@V?$positional_parameter_base@_WV?$stream_output_adapter@_W@__crt_stdio_output@@@2@@__crt_stdio_output@@AAE_NXZ 10053172 f i libucrt:output.obj
 0001:00052179       ?state_case_dot@?$output_processor@_WV?$stream_output_adapter@_W@__crt_stdio_output@@V?$standard_base@_WV?$stream_output_adapter@_W@__crt_stdio_output@@@2@@__crt_stdio_output@@AAE_NXZ 10053179 f i libucrt:output.obj
 0001:00052180       ?state_case_dot@?$output_processor@_WV?$string_output_adapter@_W@__crt_stdio_output@@V?$format_validation_base@_WV?$string_output_adapter@_W@__crt_stdio_output@@@2@@__crt_stdio_output@@AAE_NXZ 10053180 f i libucrt:output.obj
 0001:00052187       ?state_case_dot@?$output_processor@_WV?$string_output_adapter@_W@__crt_stdio_output@@V?$positional_parameter_base@_WV?$string_output_adapter@_W@__crt_stdio_output@@@2@@__crt_stdio_output@@AAE_NXZ 10053187 f i libucrt:output.obj
 0001:0005218e       ?state_case_dot@?$output_processor@_WV?$string_output_adapter@_W@__crt_stdio_output@@V?$standard_base@_WV?$string_output_adapter@_W@__crt_stdio_output@@@2@@__crt_stdio_output@@AAE_NXZ 1005318e f i libucrt:output.obj
 0001:00052195       ?state_case_flag@?$output_processor@DV?$stream_output_adapter@D@__crt_stdio_output@@V?$format_validation_base@DV?$stream_output_adapter@D@__crt_stdio_output@@@2@@__crt_stdio_output@@AAE_NXZ 10053195 f i libucrt:output.obj
 0001:000521d2       ?state_case_flag@?$output_processor@DV?$stream_output_adapter@D@__crt_stdio_output@@V?$positional_parameter_base@DV?$stream_output_adapter@D@__crt_stdio_output@@@2@@__crt_stdio_output@@AAE_NXZ 100531d2 f i libucrt:output.obj
 0001:0005220f       ?state_case_flag@?$output_processor@DV?$stream_output_adapter@D@__crt_stdio_output@@V?$standard_base@DV?$stream_output_adapter@D@__crt_stdio_output@@@2@@__crt_stdio_output@@AAE_NXZ 1005320f f i libucrt:output.obj
 0001:0005224c       ?state_case_flag@?$output_processor@DV?$string_output_adapter@D@__crt_stdio_output@@V?$format_validation_base@DV?$string_output_adapter@D@__crt_stdio_output@@@2@@__crt_stdio_output@@AAE_NXZ 1005324c f i libucrt:output.obj
 0001:00052289       ?state_case_flag@?$output_processor@DV?$string_output_adapter@D@__crt_stdio_output@@V?$positional_parameter_base@DV?$string_output_adapter@D@__crt_stdio_output@@@2@@__crt_stdio_output@@AAE_NXZ 10053289 f i libucrt:output.obj
 0001:000522c6       ?state_case_flag@?$output_processor@DV?$string_output_adapter@D@__crt_stdio_output@@V?$standard_base@DV?$string_output_adapter@D@__crt_stdio_output@@@2@@__crt_stdio_output@@AAE_NXZ 100532c6 f i libucrt:output.obj
 0001:00052303       ?state_case_flag@?$output_processor@_WV?$stream_output_adapter@_W@__crt_stdio_output@@V?$format_validation_base@_WV?$stream_output_adapter@_W@__crt_stdio_output@@@2@@__crt_stdio_output@@AAE_NXZ 10053303 f i libucrt:output.obj
 0001:00052340       ?state_case_flag@?$output_processor@_WV?$stream_output_adapter@_W@__crt_stdio_output@@V?$positional_parameter_base@_WV?$stream_output_adapter@_W@__crt_stdio_output@@@2@@__crt_stdio_output@@AAE_NXZ 10053340 f i libucrt:output.obj
 0001:0005237d       ?state_case_flag@?$output_processor@_WV?$stream_output_adapter@_W@__crt_stdio_output@@V?$standard_base@_WV?$stream_output_adapter@_W@__crt_stdio_output@@@2@@__crt_stdio_output@@AAE_NXZ 1005337d f i libucrt:output.obj
 0001:000523ba       ?state_case_flag@?$output_processor@_WV?$string_output_adapter@_W@__crt_stdio_output@@V?$format_validation_base@_WV?$string_output_adapter@_W@__crt_stdio_output@@@2@@__crt_stdio_output@@AAE_NXZ 100533ba f i libucrt:output.obj
 0001:000523f7       ?state_case_flag@?$output_processor@_WV?$string_output_adapter@_W@__crt_stdio_output@@V?$positional_parameter_base@_WV?$string_output_adapter@_W@__crt_stdio_output@@@2@@__crt_stdio_output@@AAE_NXZ 100533f7 f i libucrt:output.obj
 0001:00052434       ?state_case_flag@?$output_processor@_WV?$string_output_adapter@_W@__crt_stdio_output@@V?$standard_base@_WV?$string_output_adapter@_W@__crt_stdio_output@@@2@@__crt_stdio_output@@AAE_NXZ 10053434 f i libucrt:output.obj
 0001:00052471       ?state_case_normal@?$output_processor@DV?$stream_output_adapter@D@__crt_stdio_output@@V?$format_validation_base@DV?$stream_output_adapter@D@__crt_stdio_output@@@2@@__crt_stdio_output@@AAE_NXZ 10053471 f i libucrt:output.obj
 0001:00052490       ?state_case_normal@?$output_processor@DV?$stream_output_adapter@D@__crt_stdio_output@@V?$positional_parameter_base@DV?$stream_output_adapter@D@__crt_stdio_output@@@2@@__crt_stdio_output@@AAE_NXZ 10053490 f i libucrt:output.obj
 0001:000524c1       ?state_case_normal@?$output_processor@DV?$stream_output_adapter@D@__crt_stdio_output@@V?$standard_base@DV?$stream_output_adapter@D@__crt_stdio_output@@@2@@__crt_stdio_output@@AAE_NXZ 100534c1 f i libucrt:output.obj
 0001:000524e0       ?state_case_normal@?$output_processor@DV?$string_output_adapter@D@__crt_stdio_output@@V?$format_validation_base@DV?$string_output_adapter@D@__crt_stdio_output@@@2@@__crt_stdio_output@@AAE_NXZ 100534e0 f i libucrt:output.obj
 0001:000524ff       ?state_case_normal@?$output_processor@DV?$string_output_adapter@D@__crt_stdio_output@@V?$positional_parameter_base@DV?$string_output_adapter@D@__crt_stdio_output@@@2@@__crt_stdio_output@@AAE_NXZ 100534ff f i libucrt:output.obj
 0001:00052530       ?state_case_normal@?$output_processor@DV?$string_output_adapter@D@__crt_stdio_output@@V?$standard_base@DV?$string_output_adapter@D@__crt_stdio_output@@@2@@__crt_stdio_output@@AAE_NXZ 10053530 f i libucrt:output.obj
 0001:0005254f       ?state_case_normal@?$output_processor@_WV?$stream_output_adapter@_W@__crt_stdio_output@@V?$format_validation_base@_WV?$stream_output_adapter@_W@__crt_stdio_output@@@2@@__crt_stdio_output@@AAE_NXZ 1005354f f i libucrt:output.obj
 0001:0005256e       ?state_case_normal@?$output_processor@_WV?$stream_output_adapter@_W@__crt_stdio_output@@V?$positional_parameter_base@_WV?$stream_output_adapter@_W@__crt_stdio_output@@@2@@__crt_stdio_output@@AAE_NXZ 1005356e f i libucrt:output.obj
 0001:0005259f       ?state_case_normal@?$output_processor@_WV?$stream_output_adapter@_W@__crt_stdio_output@@V?$standard_base@_WV?$stream_output_adapter@_W@__crt_stdio_output@@@2@@__crt_stdio_output@@AAE_NXZ 1005359f f i libucrt:output.obj
 0001:000525be       ?state_case_normal@?$output_processor@_WV?$string_output_adapter@_W@__crt_stdio_output@@V?$format_validation_base@_WV?$string_output_adapter@_W@__crt_stdio_output@@@2@@__crt_stdio_output@@AAE_NXZ 100535be f i libucrt:output.obj
 0001:000525dd       ?state_case_normal@?$output_processor@_WV?$string_output_adapter@_W@__crt_stdio_output@@V?$positional_parameter_base@_WV?$string_output_adapter@_W@__crt_stdio_output@@@2@@__crt_stdio_output@@AAE_NXZ 100535dd f i libucrt:output.obj
 0001:0005260e       ?state_case_normal@?$output_processor@_WV?$string_output_adapter@_W@__crt_stdio_output@@V?$standard_base@_WV?$string_output_adapter@_W@__crt_stdio_output@@@2@@__crt_stdio_output@@AAE_NXZ 1005360e f i libucrt:output.obj
 0001:0005262d       ?state_case_normal_common@?$output_processor@DV?$stream_output_adapter@D@__crt_stdio_output@@V?$format_validation_base@DV?$stream_output_adapter@D@__crt_stdio_output@@@2@@__crt_stdio_output@@AAE_NXZ 1005362d f i libucrt:output.obj
 0001:00052667       ?state_case_normal_common@?$output_processor@DV?$stream_output_adapter@D@__crt_stdio_output@@V?$positional_parameter_base@DV?$stream_output_adapter@D@__crt_stdio_output@@@2@@__crt_stdio_output@@AAE_NXZ 10053667 f i libucrt:output.obj
 0001:000526a1       ?state_case_normal_common@?$output_processor@DV?$stream_output_adapter@D@__crt_stdio_output@@V?$standard_base@DV?$stream_output_adapter@D@__crt_stdio_output@@@2@@__crt_stdio_output@@AAE_NXZ 100536a1 f i libucrt:output.obj
 0001:000526db       ?state_case_normal_common@?$output_processor@DV?$string_output_adapter@D@__crt_stdio_output@@V?$format_validation_base@DV?$string_output_adapter@D@__crt_stdio_output@@@2@@__crt_stdio_output@@AAE_NXZ 100536db f i libucrt:output.obj
 0001:00052705       ?state_case_normal_common@?$output_processor@DV?$string_output_adapter@D@__crt_stdio_output@@V?$positional_parameter_base@DV?$string_output_adapter@D@__crt_stdio_output@@@2@@__crt_stdio_output@@AAE_NXZ 10053705 f i libucrt:output.obj
 0001:0005272f       ?state_case_normal_common@?$output_processor@DV?$string_output_adapter@D@__crt_stdio_output@@V?$standard_base@DV?$string_output_adapter@D@__crt_stdio_output@@@2@@__crt_stdio_output@@AAE_NXZ 1005372f f i libucrt:output.obj
 0001:00052759       ?state_case_normal_common@?$output_processor@_WV?$stream_output_adapter@_W@__crt_stdio_output@@V?$format_validation_base@_WV?$stream_output_adapter@_W@__crt_stdio_output@@@2@@__crt_stdio_output@@AAE_NXZ 10053759 f i libucrt:output.obj
 0001:00052783       ?state_case_normal_common@?$output_processor@_WV?$stream_output_adapter@_W@__crt_stdio_output@@V?$positional_parameter_base@_WV?$stream_output_adapter@_W@__crt_stdio_output@@@2@@__crt_stdio_output@@AAE_NXZ 10053783 f i libucrt:output.obj
 0001:000527ad       ?state_case_normal_common@?$output_processor@_WV?$stream_output_adapter@_W@__crt_stdio_output@@V?$standard_base@_WV?$stream_output_adapter@_W@__crt_stdio_output@@@2@@__crt_stdio_output@@AAE_NXZ 100537ad f i libucrt:output.obj
 0001:000527d7       ?state_case_normal_common@?$output_processor@_WV?$string_output_adapter@_W@__crt_stdio_output@@V?$format_validation_base@_WV?$string_output_adapter@_W@__crt_stdio_output@@@2@@__crt_stdio_output@@AAE_NXZ 100537d7 f i libucrt:output.obj
 0001:000527f2       ?state_case_normal_common@?$output_processor@_WV?$string_output_adapter@_W@__crt_stdio_output@@V?$positional_parameter_base@_WV?$string_output_adapter@_W@__crt_stdio_output@@@2@@__crt_stdio_output@@AAE_NXZ 100537f2 f i libucrt:output.obj
 0001:0005280d       ?state_case_normal_common@?$output_processor@_WV?$string_output_adapter@_W@__crt_stdio_output@@V?$standard_base@_WV?$string_output_adapter@_W@__crt_stdio_output@@@2@@__crt_stdio_output@@AAE_NXZ 1005380d f i libucrt:output.obj
 0001:00052828       ?state_case_normal_tchar@?$output_processor@DV?$stream_output_adapter@D@__crt_stdio_output@@V?$format_validation_base@DV?$stream_output_adapter@D@__crt_stdio_output@@@2@@__crt_stdio_output@@AAE_ND@Z 10053828 f i libucrt:output.obj
 0001:00052895       ?state_case_normal_tchar@?$output_processor@DV?$stream_output_adapter@D@__crt_stdio_output@@V?$positional_parameter_base@DV?$stream_output_adapter@D@__crt_stdio_output@@@2@@__crt_stdio_output@@AAE_ND@Z 10053895 f i libucrt:output.obj
 0001:00052902       ?state_case_normal_tchar@?$output_processor@DV?$stream_output_adapter@D@__crt_stdio_output@@V?$standard_base@DV?$stream_output_adapter@D@__crt_stdio_output@@@2@@__crt_stdio_output@@AAE_ND@Z 10053902 f i libucrt:output.obj
 0001:0005296f       ?state_case_normal_tchar@?$output_processor@DV?$string_output_adapter@D@__crt_stdio_output@@V?$format_validation_base@DV?$string_output_adapter@D@__crt_stdio_output@@@2@@__crt_stdio_output@@AAE_ND@Z 1005396f f i libucrt:output.obj
 0001:000529d3       ?state_case_normal_tchar@?$output_processor@DV?$string_output_adapter@D@__crt_stdio_output@@V?$positional_parameter_base@DV?$string_output_adapter@D@__crt_stdio_output@@@2@@__crt_stdio_output@@AAE_ND@Z 100539d3 f i libucrt:output.obj
 0001:00052a37       ?state_case_normal_tchar@?$output_processor@DV?$string_output_adapter@D@__crt_stdio_output@@V?$standard_base@DV?$string_output_adapter@D@__crt_stdio_output@@@2@@__crt_stdio_output@@AAE_ND@Z 10053a37 f i libucrt:output.obj
 0001:00052a9b       ?state_case_normal_tchar@?$output_processor@_WV?$stream_output_adapter@_W@__crt_stdio_output@@V?$format_validation_base@_WV?$stream_output_adapter@_W@__crt_stdio_output@@@2@@__crt_stdio_output@@AAE_N_W@Z 10053a9b f i libucrt:output.obj
 0001:00052aa4       ?state_case_normal_tchar@?$output_processor@_WV?$stream_output_adapter@_W@__crt_stdio_output@@V?$positional_parameter_base@_WV?$stream_output_adapter@_W@__crt_stdio_output@@@2@@__crt_stdio_output@@AAE_N_W@Z 10053aa4 f i libucrt:output.obj
 0001:00052aad       ?state_case_normal_tchar@?$output_processor@_WV?$stream_output_adapter@_W@__crt_stdio_output@@V?$standard_base@_WV?$stream_output_adapter@_W@__crt_stdio_output@@@2@@__crt_stdio_output@@AAE_N_W@Z 10053aad f i libucrt:output.obj
 0001:00052ab6       ?state_case_normal_tchar@?$output_processor@_WV?$string_output_adapter@_W@__crt_stdio_output@@V?$format_validation_base@_WV?$string_output_adapter@_W@__crt_stdio_output@@@2@@__crt_stdio_output@@AAE_N_W@Z 10053ab6 f i libucrt:output.obj
 0001:00052abf       ?state_case_normal_tchar@?$output_processor@_WV?$string_output_adapter@_W@__crt_stdio_output@@V?$positional_parameter_base@_WV?$string_output_adapter@_W@__crt_stdio_output@@@2@@__crt_stdio_output@@AAE_N_W@Z 10053abf f i libucrt:output.obj
 0001:00052ac8       ?state_case_normal_tchar@?$output_processor@_WV?$string_output_adapter@_W@__crt_stdio_output@@V?$standard_base@_WV?$string_output_adapter@_W@__crt_stdio_output@@@2@@__crt_stdio_output@@AAE_N_W@Z 10053ac8 f i libucrt:output.obj
 0001:00052ad1       ?state_case_percent@?$output_processor@DV?$stream_output_adapter@D@__crt_stdio_output@@V?$format_validation_base@DV?$stream_output_adapter@D@__crt_stdio_output@@@2@@__crt_stdio_output@@AAE_NXZ 10053ad1 f i libucrt:output.obj
 0001:00052ae9       ?state_case_percent@?$output_processor@DV?$stream_output_adapter@D@__crt_stdio_output@@V?$positional_parameter_base@DV?$stream_output_adapter@D@__crt_stdio_output@@@2@@__crt_stdio_output@@AAE_NXZ 10053ae9 f i libucrt:output.obj
 0001:00052b01       ?state_case_percent@?$output_processor@DV?$stream_output_adapter@D@__crt_stdio_output@@V?$standard_base@DV?$stream_output_adapter@D@__crt_stdio_output@@@2@@__crt_stdio_output@@AAE_NXZ 10053b01 f i libucrt:output.obj
 0001:00052b19       ?state_case_percent@?$output_processor@DV?$string_output_adapter@D@__crt_stdio_output@@V?$format_validation_base@DV?$string_output_adapter@D@__crt_stdio_output@@@2@@__crt_stdio_output@@AAE_NXZ 10053b19 f i libucrt:output.obj
 0001:00052b31       ?state_case_percent@?$output_processor@DV?$string_output_adapter@D@__crt_stdio_output@@V?$positional_parameter_base@DV?$string_output_adapter@D@__crt_stdio_output@@@2@@__crt_stdio_output@@AAE_NXZ 10053b31 f i libucrt:output.obj
 0001:00052b49       ?state_case_percent@?$output_processor@DV?$string_output_adapter@D@__crt_stdio_output@@V?$standard_base@DV?$string_output_adapter@D@__crt_stdio_output@@@2@@__crt_stdio_output@@AAE_NXZ 10053b49 f i libucrt:output.obj
 0001:00052b61       ?state_case_percent@?$output_processor@_WV?$stream_output_adapter@_W@__crt_stdio_output@@V?$format_validation_base@_WV?$stream_output_adapter@_W@__crt_stdio_output@@@2@@__crt_stdio_output@@AAE_NXZ 10053b61 f i libucrt:output.obj
 0001:00052b79       ?state_case_percent@?$output_processor@_WV?$stream_output_adapter@_W@__crt_stdio_output@@V?$positional_parameter_base@_WV?$stream_output_adapter@_W@__crt_stdio_output@@@2@@__crt_stdio_output@@AAE_NXZ 10053b79 f i libucrt:output.obj
 0001:00052b91       ?state_case_percent@?$output_processor@_WV?$stream_output_adapter@_W@__crt_stdio_output@@V?$standard_base@_WV?$stream_output_adapter@_W@__crt_stdio_output@@@2@@__crt_stdio_output@@AAE_NXZ 10053b91 f i libucrt:output.obj
 0001:00052ba9       ?state_case_percent@?$output_processor@_WV?$string_output_adapter@_W@__crt_stdio_output@@V?$format_validation_base@_WV?$string_output_adapter@_W@__crt_stdio_output@@@2@@__crt_stdio_output@@AAE_NXZ 10053ba9 f i libucrt:output.obj
 0001:00052bc1       ?state_case_percent@?$output_processor@_WV?$string_output_adapter@_W@__crt_stdio_output@@V?$positional_parameter_base@_WV?$string_output_adapter@_W@__crt_stdio_output@@@2@@__crt_stdio_output@@AAE_NXZ 10053bc1 f i libucrt:output.obj
 0001:00052bd9       ?state_case_percent@?$output_processor@_WV?$string_output_adapter@_W@__crt_stdio_output@@V?$standard_base@_WV?$string_output_adapter@_W@__crt_stdio_output@@@2@@__crt_stdio_output@@AAE_NXZ 10053bd9 f i libucrt:output.obj
 0001:00052bf1       ?state_case_precision@?$output_processor@DV?$stream_output_adapter@D@__crt_stdio_output@@V?$format_validation_base@DV?$stream_output_adapter@D@__crt_stdio_output@@@2@@__crt_stdio_output@@AAE_NXZ 10053bf1 f i libucrt:output.obj
 0001:00052c17       ?state_case_precision@?$output_processor@DV?$stream_output_adapter@D@__crt_stdio_output@@V?$positional_parameter_base@DV?$stream_output_adapter@D@__crt_stdio_output@@@2@@__crt_stdio_output@@AAE_NXZ 10053c17 f i libucrt:output.obj
 0001:00052c51       ?state_case_precision@?$output_processor@DV?$stream_output_adapter@D@__crt_stdio_output@@V?$standard_base@DV?$stream_output_adapter@D@__crt_stdio_output@@@2@@__crt_stdio_output@@AAE_NXZ 10053c51 f i libucrt:output.obj
 0001:00052c77       ?state_case_precision@?$output_processor@DV?$string_output_adapter@D@__crt_stdio_output@@V?$format_validation_base@DV?$string_output_adapter@D@__crt_stdio_output@@@2@@__crt_stdio_output@@AAE_NXZ 10053c77 f i libucrt:output.obj
 0001:00052c9d       ?state_case_precision@?$output_processor@DV?$string_output_adapter@D@__crt_stdio_output@@V?$positional_parameter_base@DV?$string_output_adapter@D@__crt_stdio_output@@@2@@__crt_stdio_output@@AAE_NXZ 10053c9d f i libucrt:output.obj
 0001:00052cd7       ?state_case_precision@?$output_processor@DV?$string_output_adapter@D@__crt_stdio_output@@V?$standard_base@DV?$string_output_adapter@D@__crt_stdio_output@@@2@@__crt_stdio_output@@AAE_NXZ 10053cd7 f i libucrt:output.obj
 0001:00052cfd       ?state_case_precision@?$output_processor@_WV?$stream_output_adapter@_W@__crt_stdio_output@@V?$format_validation_base@_WV?$stream_output_adapter@_W@__crt_stdio_output@@@2@@__crt_stdio_output@@AAE_NXZ 10053cfd f i libucrt:output.obj
 0001:00052d24       ?state_case_precision@?$output_processor@_WV?$stream_output_adapter@_W@__crt_stdio_output@@V?$positional_parameter_base@_WV?$stream_output_adapter@_W@__crt_stdio_output@@@2@@__crt_stdio_output@@AAE_NXZ 10053d24 f i libucrt:output.obj
 0001:00052d5f       ?state_case_precision@?$output_processor@_WV?$stream_output_adapter@_W@__crt_stdio_output@@V?$standard_base@_WV?$stream_output_adapter@_W@__crt_stdio_output@@@2@@__crt_stdio_output@@AAE_NXZ 10053d5f f i libucrt:output.obj
 0001:00052d86       ?state_case_precision@?$output_processor@_WV?$string_output_adapter@_W@__crt_stdio_output@@V?$format_validation_base@_WV?$string_output_adapter@_W@__crt_stdio_output@@@2@@__crt_stdio_output@@AAE_NXZ 10053d86 f i libucrt:output.obj
 0001:00052dad       ?state_case_precision@?$output_processor@_WV?$string_output_adapter@_W@__crt_stdio_output@@V?$positional_parameter_base@_WV?$string_output_adapter@_W@__crt_stdio_output@@@2@@__crt_stdio_output@@AAE_NXZ 10053dad f i libucrt:output.obj
 0001:00052de8       ?state_case_precision@?$output_processor@_WV?$string_output_adapter@_W@__crt_stdio_output@@V?$standard_base@_WV?$string_output_adapter@_W@__crt_stdio_output@@@2@@__crt_stdio_output@@AAE_NXZ 10053de8 f i libucrt:output.obj
 0001:00052e0f       ?state_case_size@?$output_processor@DV?$stream_output_adapter@D@__crt_stdio_output@@V?$format_validation_base@DV?$stream_output_adapter@D@__crt_stdio_output@@@2@@__crt_stdio_output@@AAE_NXZ 10053e0f f i libucrt:output.obj
 0001:00052f5d       ?state_case_size@?$output_processor@DV?$stream_output_adapter@D@__crt_stdio_output@@V?$positional_parameter_base@DV?$stream_output_adapter@D@__crt_stdio_output@@@2@@__crt_stdio_output@@AAE_NXZ 10053f5d f i libucrt:output.obj
 0001:000530ab       ?state_case_size@?$output_processor@DV?$stream_output_adapter@D@__crt_stdio_output@@V?$standard_base@DV?$stream_output_adapter@D@__crt_stdio_output@@@2@@__crt_stdio_output@@AAE_NXZ 100540ab f i libucrt:output.obj
 0001:000531f9       ?state_case_size@?$output_processor@DV?$string_output_adapter@D@__crt_stdio_output@@V?$format_validation_base@DV?$string_output_adapter@D@__crt_stdio_output@@@2@@__crt_stdio_output@@AAE_NXZ 100541f9 f i libucrt:output.obj
 0001:00053347       ?state_case_size@?$output_processor@DV?$string_output_adapter@D@__crt_stdio_output@@V?$positional_parameter_base@DV?$string_output_adapter@D@__crt_stdio_output@@@2@@__crt_stdio_output@@AAE_NXZ 10054347 f i libucrt:output.obj
 0001:00053495       ?state_case_size@?$output_processor@DV?$string_output_adapter@D@__crt_stdio_output@@V?$standard_base@DV?$string_output_adapter@D@__crt_stdio_output@@@2@@__crt_stdio_output@@AAE_NXZ 10054495 f i libucrt:output.obj
 0001:000535e3       ?state_case_size@?$output_processor@_WV?$stream_output_adapter@_W@__crt_stdio_output@@V?$format_validation_base@_WV?$stream_output_adapter@_W@__crt_stdio_output@@@2@@__crt_stdio_output@@AAE_NXZ 100545e3 f i libucrt:output.obj
 0001:0005375b       ?state_case_size@?$output_processor@_WV?$stream_output_adapter@_W@__crt_stdio_output@@V?$positional_parameter_base@_WV?$stream_output_adapter@_W@__crt_stdio_output@@@2@@__crt_stdio_output@@AAE_NXZ 1005475b f i libucrt:output.obj
 0001:000538d3       ?state_case_size@?$output_processor@_WV?$stream_output_adapter@_W@__crt_stdio_output@@V?$standard_base@_WV?$stream_output_adapter@_W@__crt_stdio_output@@@2@@__crt_stdio_output@@AAE_NXZ 100548d3 f i libucrt:output.obj
 0001:00053a4b       ?state_case_size@?$output_processor@_WV?$string_output_adapter@_W@__crt_stdio_output@@V?$format_validation_base@_WV?$string_output_adapter@_W@__crt_stdio_output@@@2@@__crt_stdio_output@@AAE_NXZ 10054a4b f i libucrt:output.obj
 0001:00053bc3       ?state_case_size@?$output_processor@_WV?$string_output_adapter@_W@__crt_stdio_output@@V?$positional_parameter_base@_WV?$string_output_adapter@_W@__crt_stdio_output@@@2@@__crt_stdio_output@@AAE_NXZ 10054bc3 f i libucrt:output.obj
 0001:00053d3b       ?state_case_size@?$output_processor@_WV?$string_output_adapter@_W@__crt_stdio_output@@V?$standard_base@_WV?$string_output_adapter@_W@__crt_stdio_output@@@2@@__crt_stdio_output@@AAE_NXZ 10054d3b f i libucrt:output.obj
 0001:00053eb3       ?state_case_type@?$output_processor@DV?$stream_output_adapter@D@__crt_stdio_output@@V?$format_validation_base@DV?$stream_output_adapter@D@__crt_stdio_output@@@2@@__crt_stdio_output@@AAE_NXZ 10054eb3 f i libucrt:output.obj
 0001:000540e5       ?state_case_type@?$output_processor@DV?$stream_output_adapter@D@__crt_stdio_output@@V?$positional_parameter_base@DV?$stream_output_adapter@D@__crt_stdio_output@@@2@@__crt_stdio_output@@AAE_NXZ 100550e5 f i libucrt:output.obj
 0001:00054326       ?state_case_type@?$output_processor@DV?$stream_output_adapter@D@__crt_stdio_output@@V?$standard_base@DV?$stream_output_adapter@D@__crt_stdio_output@@@2@@__crt_stdio_output@@AAE_NXZ 10055326 f i libucrt:output.obj
 0001:00054558       ?state_case_type@?$output_processor@DV?$string_output_adapter@D@__crt_stdio_output@@V?$format_validation_base@DV?$string_output_adapter@D@__crt_stdio_output@@@2@@__crt_stdio_output@@AAE_NXZ 10055558 f i libucrt:output.obj
 0001:0005478a       ?state_case_type@?$output_processor@DV?$string_output_adapter@D@__crt_stdio_output@@V?$positional_parameter_base@DV?$string_output_adapter@D@__crt_stdio_output@@@2@@__crt_stdio_output@@AAE_NXZ 1005578a f i libucrt:output.obj
 0001:000549cb       ?state_case_type@?$output_processor@DV?$string_output_adapter@D@__crt_stdio_output@@V?$standard_base@DV?$string_output_adapter@D@__crt_stdio_output@@@2@@__crt_stdio_output@@AAE_NXZ 100559cb f i libucrt:output.obj
 0001:00054bfd       ?state_case_type@?$output_processor@_WV?$stream_output_adapter@_W@__crt_stdio_output@@V?$format_validation_base@_WV?$stream_output_adapter@_W@__crt_stdio_output@@@2@@__crt_stdio_output@@AAE_NXZ 10055bfd f i libucrt:output.obj
 0001:00054e5a       ?state_case_type@?$output_processor@_WV?$stream_output_adapter@_W@__crt_stdio_output@@V?$positional_parameter_base@_WV?$stream_output_adapter@_W@__crt_stdio_output@@@2@@__crt_stdio_output@@AAE_NXZ 10055e5a f i libucrt:output.obj
 0001:000550c6       ?state_case_type@?$output_processor@_WV?$stream_output_adapter@_W@__crt_stdio_output@@V?$standard_base@_WV?$stream_output_adapter@_W@__crt_stdio_output@@@2@@__crt_stdio_output@@AAE_NXZ 100560c6 f i libucrt:output.obj
 0001:00055323       ?state_case_type@?$output_processor@_WV?$string_output_adapter@_W@__crt_stdio_output@@V?$format_validation_base@_WV?$string_output_adapter@_W@__crt_stdio_output@@@2@@__crt_stdio_output@@AAE_NXZ 10056323 f i libucrt:output.obj
 0001:00055580       ?state_case_type@?$output_processor@_WV?$string_output_adapter@_W@__crt_stdio_output@@V?$positional_parameter_base@_WV?$string_output_adapter@_W@__crt_stdio_output@@@2@@__crt_stdio_output@@AAE_NXZ 10056580 f i libucrt:output.obj
 0001:000557ec       ?state_case_type@?$output_processor@_WV?$string_output_adapter@_W@__crt_stdio_output@@V?$standard_base@_WV?$string_output_adapter@_W@__crt_stdio_output@@@2@@__crt_stdio_output@@AAE_NXZ 100567ec f i libucrt:output.obj
 0001:00055a49       ?state_case_width@?$output_processor@DV?$stream_output_adapter@D@__crt_stdio_output@@V?$format_validation_base@DV?$stream_output_adapter@D@__crt_stdio_output@@@2@@__crt_stdio_output@@AAE_NXZ 10056a49 f i libucrt:output.obj
 0001:00055a74       ?state_case_width@?$output_processor@DV?$stream_output_adapter@D@__crt_stdio_output@@V?$positional_parameter_base@DV?$stream_output_adapter@D@__crt_stdio_output@@@2@@__crt_stdio_output@@AAE_NXZ 10056a74 f i libucrt:output.obj
 0001:00055ab4       ?state_case_width@?$output_processor@DV?$stream_output_adapter@D@__crt_stdio_output@@V?$standard_base@DV?$stream_output_adapter@D@__crt_stdio_output@@@2@@__crt_stdio_output@@AAE_NXZ 10056ab4 f i libucrt:output.obj
 0001:00055adf       ?state_case_width@?$output_processor@DV?$string_output_adapter@D@__crt_stdio_output@@V?$format_validation_base@DV?$string_output_adapter@D@__crt_stdio_output@@@2@@__crt_stdio_output@@AAE_NXZ 10056adf f i libucrt:output.obj
 0001:00055b0a       ?state_case_width@?$output_processor@DV?$string_output_adapter@D@__crt_stdio_output@@V?$positional_parameter_base@DV?$string_output_adapter@D@__crt_stdio_output@@@2@@__crt_stdio_output@@AAE_NXZ 10056b0a f i libucrt:output.obj
 0001:00055b4a       ?state_case_width@?$output_processor@DV?$string_output_adapter@D@__crt_stdio_output@@V?$standard_base@DV?$string_output_adapter@D@__crt_stdio_output@@@2@@__crt_stdio_output@@AAE_NXZ 10056b4a f i libucrt:output.obj
 0001:00055b75       ?state_case_width@?$output_processor@_WV?$stream_output_adapter@_W@__crt_stdio_output@@V?$format_validation_base@_WV?$stream_output_adapter@_W@__crt_stdio_output@@@2@@__crt_stdio_output@@AAE_NXZ 10056b75 f i libucrt:output.obj
 0001:00055ba1       ?state_case_width@?$output_processor@_WV?$stream_output_adapter@_W@__crt_stdio_output@@V?$positional_parameter_base@_WV?$stream_output_adapter@_W@__crt_stdio_output@@@2@@__crt_stdio_output@@AAE_NXZ 10056ba1 f i libucrt:output.obj
 0001:00055be2       ?state_case_width@?$output_processor@_WV?$stream_output_adapter@_W@__crt_stdio_output@@V?$standard_base@_WV?$stream_output_adapter@_W@__crt_stdio_output@@@2@@__crt_stdio_output@@AAE_NXZ 10056be2 f i libucrt:output.obj
 0001:00055c0e       ?state_case_width@?$output_processor@_WV?$string_output_adapter@_W@__crt_stdio_output@@V?$format_validation_base@_WV?$string_output_adapter@_W@__crt_stdio_output@@@2@@__crt_stdio_output@@AAE_NXZ 10056c0e f i libucrt:output.obj
 0001:00055c3a       ?state_case_width@?$output_processor@_WV?$string_output_adapter@_W@__crt_stdio_output@@V?$positional_parameter_base@_WV?$string_output_adapter@_W@__crt_stdio_output@@@2@@__crt_stdio_output@@AAE_NXZ 10056c3a f i libucrt:output.obj
 0001:00055c7b       ?state_case_width@?$output_processor@_WV?$string_output_adapter@_W@__crt_stdio_output@@V?$standard_base@_WV?$string_output_adapter@_W@__crt_stdio_output@@@2@@__crt_stdio_output@@AAE_NXZ 10056c7b f i libucrt:output.obj
 0001:00055ca7       ?state_count@?$format_validation_base@DV?$stream_output_adapter@D@__crt_stdio_output@@@__crt_stdio_output@@KAIXZ 10056ca7 f i libucrt:output.obj
 0001:00055cab       ?state_count@?$format_validation_base@DV?$string_output_adapter@D@__crt_stdio_output@@@__crt_stdio_output@@KAIXZ 10056cab f i libucrt:output.obj
 0001:00055caf       ?state_count@?$format_validation_base@_WV?$stream_output_adapter@_W@__crt_stdio_output@@@__crt_stdio_output@@KAIXZ 10056caf f i libucrt:output.obj
 0001:00055cb3       ?state_count@?$format_validation_base@_WV?$string_output_adapter@_W@__crt_stdio_output@@@__crt_stdio_output@@KAIXZ 10056cb3 f i libucrt:output.obj
 0001:00055cb7       ?state_count@?$standard_base@DV?$stream_output_adapter@D@__crt_stdio_output@@@__crt_stdio_output@@KAIXZ 10056cb7 f i libucrt:output.obj
 0001:00055cbb       ?state_count@?$standard_base@DV?$string_output_adapter@D@__crt_stdio_output@@@__crt_stdio_output@@KAIXZ 10056cbb f i libucrt:output.obj
 0001:00055cbf       ?state_count@?$standard_base@_WV?$stream_output_adapter@_W@__crt_stdio_output@@@__crt_stdio_output@@KAIXZ 10056cbf f i libucrt:output.obj
 0001:00055cc3       ?state_count@?$standard_base@_WV?$string_output_adapter@_W@__crt_stdio_output@@@__crt_stdio_output@@KAIXZ 10056cc3 f i libucrt:output.obj
 0001:00055cc7       ?state_transition_table@?$format_validation_base@DV?$stream_output_adapter@D@__crt_stdio_output@@@__crt_stdio_output@@KAABV?$spectre_mitigated_lookup_table@Ustate_transition_pair@__crt_stdio_output@@$0IA@@2@XZ 10056cc7 f i libucrt:output.obj
 0001:00055ccd       ?state_transition_table@?$format_validation_base@DV?$string_output_adapter@D@__crt_stdio_output@@@__crt_stdio_output@@KAABV?$spectre_mitigated_lookup_table@Ustate_transition_pair@__crt_stdio_output@@$0IA@@2@XZ 10056ccd f i libucrt:output.obj
 0001:00055cd3       ?state_transition_table@?$format_validation_base@_WV?$stream_output_adapter@_W@__crt_stdio_output@@@__crt_stdio_output@@KAABV?$spectre_mitigated_lookup_table@Ustate_transition_pair@__crt_stdio_output@@$0IA@@2@XZ 10056cd3 f i libucrt:output.obj
 0001:00055cd9       ?state_transition_table@?$format_validation_base@_WV?$string_output_adapter@_W@__crt_stdio_output@@@__crt_stdio_output@@KAABV?$spectre_mitigated_lookup_table@Ustate_transition_pair@__crt_stdio_output@@$0IA@@2@XZ 10056cd9 f i libucrt:output.obj
 0001:00055cdf       ?state_transition_table@?$standard_base@DV?$stream_output_adapter@D@__crt_stdio_output@@@__crt_stdio_output@@KAABV?$spectre_mitigated_lookup_table@Ustate_transition_pair@__crt_stdio_output@@$0IA@@2@XZ 10056cdf f i libucrt:output.obj
 0001:00055ce5       ?state_transition_table@?$standard_base@DV?$string_output_adapter@D@__crt_stdio_output@@@__crt_stdio_output@@KAABV?$spectre_mitigated_lookup_table@Ustate_transition_pair@__crt_stdio_output@@$0IA@@2@XZ 10056ce5 f i libucrt:output.obj
 0001:00055ceb       ?state_transition_table@?$standard_base@_WV?$stream_output_adapter@_W@__crt_stdio_output@@@__crt_stdio_output@@KAABV?$spectre_mitigated_lookup_table@Ustate_transition_pair@__crt_stdio_output@@$0IA@@2@XZ 10056ceb f i libucrt:output.obj
 0001:00055cf1       ?state_transition_table@?$standard_base@_WV?$string_output_adapter@_W@__crt_stdio_output@@@__crt_stdio_output@@KAABV?$spectre_mitigated_lookup_table@Ustate_transition_pair@__crt_stdio_output@@$0IA@@2@XZ 10056cf1 f i libucrt:output.obj
 0001:00055cf7       ?tchar_string@?$common_data@D@__crt_stdio_output@@IAEAAPADD@Z 10056cf7 f i libucrt:output.obj
 0001:00055cfd       ?tchar_string@?$common_data@D@__crt_stdio_output@@IAEAAPADXZ 10056cfd f i libucrt:output.obj
 0001:00055d01       ?tchar_string@?$common_data@_W@__crt_stdio_output@@IAEAAPA_WXZ 10056d01 f i libucrt:output.obj
 0001:00055d05       ?tchar_string@?$common_data@_W@__crt_stdio_output@@IAEAAPA_W_W@Z 10056d05 f i libucrt:output.obj
 0001:00055d10       ?to_integer_size@__crt_stdio_output@@YAIW4length_modifier@1@@Z 10056d10 f i libucrt:output.obj
 0001:00055d6c       ?type_case_X@?$output_processor@DV?$stream_output_adapter@D@__crt_stdio_output@@V?$format_validation_base@DV?$stream_output_adapter@D@__crt_stdio_output@@@2@@__crt_stdio_output@@AAE_NXZ 10056d6c f i libucrt:output.obj
 0001:00055d76       ?type_case_X@?$output_processor@DV?$stream_output_adapter@D@__crt_stdio_output@@V?$positional_parameter_base@DV?$stream_output_adapter@D@__crt_stdio_output@@@2@@__crt_stdio_output@@AAE_NXZ 10056d76 f i libucrt:output.obj
 0001:00055d80       ?type_case_X@?$output_processor@DV?$stream_output_adapter@D@__crt_stdio_output@@V?$standard_base@DV?$stream_output_adapter@D@__crt_stdio_output@@@2@@__crt_stdio_output@@AAE_NXZ 10056d80 f i libucrt:output.obj
 0001:00055d8a       ?type_case_X@?$output_processor@DV?$string_output_adapter@D@__crt_stdio_output@@V?$format_validation_base@DV?$string_output_adapter@D@__crt_stdio_output@@@2@@__crt_stdio_output@@AAE_NXZ 10056d8a f i libucrt:output.obj
 0001:00055d94       ?type_case_X@?$output_processor@DV?$string_output_adapter@D@__crt_stdio_output@@V?$positional_parameter_base@DV?$string_output_adapter@D@__crt_stdio_output@@@2@@__crt_stdio_output@@AAE_NXZ 10056d94 f i libucrt:output.obj
 0001:00055d9e       ?type_case_X@?$output_processor@DV?$string_output_adapter@D@__crt_stdio_output@@V?$standard_base@DV?$string_output_adapter@D@__crt_stdio_output@@@2@@__crt_stdio_output@@AAE_NXZ 10056d9e f i libucrt:output.obj
 0001:00055da8       ?type_case_X@?$output_processor@_WV?$stream_output_adapter@_W@__crt_stdio_output@@V?$format_validation_base@_WV?$stream_output_adapter@_W@__crt_stdio_output@@@2@@__crt_stdio_output@@AAE_NXZ 10056da8 f i libucrt:output.obj
 0001:00055db2       ?type_case_X@?$output_processor@_WV?$stream_output_adapter@_W@__crt_stdio_output@@V?$positional_parameter_base@_WV?$stream_output_adapter@_W@__crt_stdio_output@@@2@@__crt_stdio_output@@AAE_NXZ 10056db2 f i libucrt:output.obj
 0001:00055dbc       ?type_case_X@?$output_processor@_WV?$stream_output_adapter@_W@__crt_stdio_output@@V?$standard_base@_WV?$stream_output_adapter@_W@__crt_stdio_output@@@2@@__crt_stdio_output@@AAE_NXZ 10056dbc f i libucrt:output.obj
 0001:00055dc6       ?type_case_X@?$output_processor@_WV?$string_output_adapter@_W@__crt_stdio_output@@V?$format_validation_base@_WV?$string_output_adapter@_W@__crt_stdio_output@@@2@@__crt_stdio_output@@AAE_NXZ 10056dc6 f i libucrt:output.obj
 0001:00055dd0       ?type_case_X@?$output_processor@_WV?$string_output_adapter@_W@__crt_stdio_output@@V?$positional_parameter_base@_WV?$string_output_adapter@_W@__crt_stdio_output@@@2@@__crt_stdio_output@@AAE_NXZ 10056dd0 f i libucrt:output.obj
 0001:00055dda       ?type_case_X@?$output_processor@_WV?$string_output_adapter@_W@__crt_stdio_output@@V?$standard_base@_WV?$string_output_adapter@_W@__crt_stdio_output@@@2@@__crt_stdio_output@@AAE_NXZ 10056dda f i libucrt:output.obj
 0001:00055de4       ?type_case_Z@?$output_processor@DV?$stream_output_adapter@D@__crt_stdio_output@@V?$format_validation_base@DV?$stream_output_adapter@D@__crt_stdio_output@@@2@@__crt_stdio_output@@AAE_NXZ 10056de4 f i libucrt:output.obj
 0001:00055e3e       ?type_case_Z@?$output_processor@DV?$stream_output_adapter@D@__crt_stdio_output@@V?$positional_parameter_base@DV?$stream_output_adapter@D@__crt_stdio_output@@@2@@__crt_stdio_output@@AAE_NXZ 10056e3e f i libucrt:output.obj
 0001:00055eb2       ?type_case_Z@?$output_processor@DV?$stream_output_adapter@D@__crt_stdio_output@@V?$standard_base@DV?$stream_output_adapter@D@__crt_stdio_output@@@2@@__crt_stdio_output@@AAE_NXZ 10056eb2 f i libucrt:output.obj
 0001:00055f0c       ?type_case_Z@?$output_processor@DV?$string_output_adapter@D@__crt_stdio_output@@V?$format_validation_base@DV?$string_output_adapter@D@__crt_stdio_output@@@2@@__crt_stdio_output@@AAE_NXZ 10056f0c f i libucrt:output.obj
 0001:00055f66       ?type_case_Z@?$output_processor@DV?$string_output_adapter@D@__crt_stdio_output@@V?$positional_parameter_base@DV?$string_output_adapter@D@__crt_stdio_output@@@2@@__crt_stdio_output@@AAE_NXZ 10056f66 f i libucrt:output.obj
 0001:00055fda       ?type_case_Z@?$output_processor@DV?$string_output_adapter@D@__crt_stdio_output@@V?$standard_base@DV?$string_output_adapter@D@__crt_stdio_output@@@2@@__crt_stdio_output@@AAE_NXZ 10056fda f i libucrt:output.obj
 0001:00056034       ?type_case_Z@?$output_processor@_WV?$stream_output_adapter@_W@__crt_stdio_output@@V?$format_validation_base@_WV?$stream_output_adapter@_W@__crt_stdio_output@@@2@@__crt_stdio_output@@AAE_NXZ 10057034 f i libucrt:output.obj
 0001:0005608e       ?type_case_Z@?$output_processor@_WV?$stream_output_adapter@_W@__crt_stdio_output@@V?$positional_parameter_base@_WV?$stream_output_adapter@_W@__crt_stdio_output@@@2@@__crt_stdio_output@@AAE_NXZ 1005708e f i libucrt:output.obj
 0001:00056102       ?type_case_Z@?$output_processor@_WV?$stream_output_adapter@_W@__crt_stdio_output@@V?$standard_base@_WV?$stream_output_adapter@_W@__crt_stdio_output@@@2@@__crt_stdio_output@@AAE_NXZ 10057102 f i libucrt:output.obj
 0001:0005615c       ?type_case_Z@?$output_processor@_WV?$string_output_adapter@_W@__crt_stdio_output@@V?$format_validation_base@_WV?$string_output_adapter@_W@__crt_stdio_output@@@2@@__crt_stdio_output@@AAE_NXZ 1005715c f i libucrt:output.obj
 0001:000561b6       ?type_case_Z@?$output_processor@_WV?$string_output_adapter@_W@__crt_stdio_output@@V?$positional_parameter_base@_WV?$string_output_adapter@_W@__crt_stdio_output@@@2@@__crt_stdio_output@@AAE_NXZ 100571b6 f i libucrt:output.obj
 0001:0005622a       ?type_case_Z@?$output_processor@_WV?$string_output_adapter@_W@__crt_stdio_output@@V?$standard_base@_WV?$string_output_adapter@_W@__crt_stdio_output@@@2@@__crt_stdio_output@@AAE_NXZ 1005722a f i libucrt:output.obj
 0001:00056284       ?type_case_a@?$output_processor@DV?$stream_output_adapter@D@__crt_stdio_output@@V?$format_validation_base@DV?$stream_output_adapter@D@__crt_stdio_output@@@2@@__crt_stdio_output@@AAE_NXZ 10057284 f i libucrt:output.obj
 0001:000563d5       ?type_case_a@?$output_processor@DV?$stream_output_adapter@D@__crt_stdio_output@@V?$positional_parameter_base@DV?$stream_output_adapter@D@__crt_stdio_output@@@2@@__crt_stdio_output@@AAE_NXZ 100573d5 f i libucrt:output.obj
 0001:00056552       ?type_case_a@?$output_processor@DV?$stream_output_adapter@D@__crt_stdio_output@@V?$standard_base@DV?$stream_output_adapter@D@__crt_stdio_output@@@2@@__crt_stdio_output@@AAE_NXZ 10057552 f i libucrt:output.obj
 0001:000566a3       ?type_case_a@?$output_processor@DV?$string_output_adapter@D@__crt_stdio_output@@V?$format_validation_base@DV?$string_output_adapter@D@__crt_stdio_output@@@2@@__crt_stdio_output@@AAE_NXZ 100576a3 f i libucrt:output.obj
 0001:000567f4       ?type_case_a@?$output_processor@DV?$string_output_adapter@D@__crt_stdio_output@@V?$positional_parameter_base@DV?$string_output_adapter@D@__crt_stdio_output@@@2@@__crt_stdio_output@@AAE_NXZ 100577f4 f i libucrt:output.obj
 0001:00056971       ?type_case_a@?$output_processor@DV?$string_output_adapter@D@__crt_stdio_output@@V?$standard_base@DV?$string_output_adapter@D@__crt_stdio_output@@@2@@__crt_stdio_output@@AAE_NXZ 10057971 f i libucrt:output.obj
 0001:00056ac2       ?type_case_a@?$output_processor@_WV?$stream_output_adapter@_W@__crt_stdio_output@@V?$format_validation_base@_WV?$stream_output_adapter@_W@__crt_stdio_output@@@2@@__crt_stdio_output@@AAE_NXZ 10057ac2 f i libucrt:output.obj
 0001:00056c29       ?type_case_a@?$output_processor@_WV?$stream_output_adapter@_W@__crt_stdio_output@@V?$positional_parameter_base@_WV?$stream_output_adapter@_W@__crt_stdio_output@@@2@@__crt_stdio_output@@AAE_NXZ 10057c29 f i libucrt:output.obj
 0001:00056dbc       ?type_case_a@?$output_processor@_WV?$stream_output_adapter@_W@__crt_stdio_output@@V?$standard_base@_WV?$stream_output_adapter@_W@__crt_stdio_output@@@2@@__crt_stdio_output@@AAE_NXZ 10057dbc f i libucrt:output.obj
 0001:00056f23       ?type_case_a@?$output_processor@_WV?$string_output_adapter@_W@__crt_stdio_output@@V?$format_validation_base@_WV?$string_output_adapter@_W@__crt_stdio_output@@@2@@__crt_stdio_output@@AAE_NXZ 10057f23 f i libucrt:output.obj
 0001:0005708a       ?type_case_a@?$output_processor@_WV?$string_output_adapter@_W@__crt_stdio_output@@V?$positional_parameter_base@_WV?$string_output_adapter@_W@__crt_stdio_output@@@2@@__crt_stdio_output@@AAE_NXZ 1005808a f i libucrt:output.obj
 0001:0005721d       ?type_case_a@?$output_processor@_WV?$string_output_adapter@_W@__crt_stdio_output@@V?$standard_base@_WV?$string_output_adapter@_W@__crt_stdio_output@@@2@@__crt_stdio_output@@AAE_NXZ 1005821d f i libucrt:output.obj
 0001:00057384       ?type_case_c@?$output_processor@DV?$stream_output_adapter@D@__crt_stdio_output@@V?$format_validation_base@DV?$stream_output_adapter@D@__crt_stdio_output@@@2@@__crt_stdio_output@@AAE_NXZ 10058384 f i libucrt:output.obj
 0001:0005738c       ?type_case_c@?$output_processor@DV?$stream_output_adapter@D@__crt_stdio_output@@V?$positional_parameter_base@DV?$stream_output_adapter@D@__crt_stdio_output@@@2@@__crt_stdio_output@@AAE_NXZ 1005838c f i libucrt:output.obj
 0001:00057394       ?type_case_c@?$output_processor@DV?$stream_output_adapter@D@__crt_stdio_output@@V?$standard_base@DV?$stream_output_adapter@D@__crt_stdio_output@@@2@@__crt_stdio_output@@AAE_NXZ 10058394 f i libucrt:output.obj
 0001:0005739c       ?type_case_c@?$output_processor@DV?$string_output_adapter@D@__crt_stdio_output@@V?$format_validation_base@DV?$string_output_adapter@D@__crt_stdio_output@@@2@@__crt_stdio_output@@AAE_NXZ 1005839c f i libucrt:output.obj
 0001:000573a4       ?type_case_c@?$output_processor@DV?$string_output_adapter@D@__crt_stdio_output@@V?$positional_parameter_base@DV?$string_output_adapter@D@__crt_stdio_output@@@2@@__crt_stdio_output@@AAE_NXZ 100583a4 f i libucrt:output.obj
 0001:000573ac       ?type_case_c@?$output_processor@DV?$string_output_adapter@D@__crt_stdio_output@@V?$standard_base@DV?$string_output_adapter@D@__crt_stdio_output@@@2@@__crt_stdio_output@@AAE_NXZ 100583ac f i libucrt:output.obj
 0001:000573b4       ?type_case_c@?$output_processor@_WV?$stream_output_adapter@_W@__crt_stdio_output@@V?$format_validation_base@_WV?$stream_output_adapter@_W@__crt_stdio_output@@@2@@__crt_stdio_output@@AAE_NXZ 100583b4 f i libucrt:output.obj
 0001:000573bc       ?type_case_c@?$output_processor@_WV?$stream_output_adapter@_W@__crt_stdio_output@@V?$positional_parameter_base@_WV?$stream_output_adapter@_W@__crt_stdio_output@@@2@@__crt_stdio_output@@AAE_NXZ 100583bc f i libucrt:output.obj
 0001:000573c4       ?type_case_c@?$output_processor@_WV?$stream_output_adapter@_W@__crt_stdio_output@@V?$standard_base@_WV?$stream_output_adapter@_W@__crt_stdio_output@@@2@@__crt_stdio_output@@AAE_NXZ 100583c4 f i libucrt:output.obj
 0001:000573cc       ?type_case_c@?$output_processor@_WV?$string_output_adapter@_W@__crt_stdio_output@@V?$format_validation_base@_WV?$string_output_adapter@_W@__crt_stdio_output@@@2@@__crt_stdio_output@@AAE_NXZ 100583cc f i libucrt:output.obj
 0001:000573d4       ?type_case_c@?$output_processor@_WV?$string_output_adapter@_W@__crt_stdio_output@@V?$positional_parameter_base@_WV?$string_output_adapter@_W@__crt_stdio_output@@@2@@__crt_stdio_output@@AAE_NXZ 100583d4 f i libucrt:output.obj
 0001:000573dc       ?type_case_c@?$output_processor@_WV?$string_output_adapter@_W@__crt_stdio_output@@V?$standard_base@_WV?$string_output_adapter@_W@__crt_stdio_output@@@2@@__crt_stdio_output@@AAE_NXZ 100583dc f i libucrt:output.obj
 0001:000573e4       ?type_case_c_tchar@?$output_processor@DV?$stream_output_adapter@D@__crt_stdio_output@@V?$format_validation_base@DV?$stream_output_adapter@D@__crt_stdio_output@@@2@@__crt_stdio_output@@AAE_ND@Z 100583e4 f i libucrt:output.obj
 0001:00057477       ?type_case_c_tchar@?$output_processor@DV?$stream_output_adapter@D@__crt_stdio_output@@V?$positional_parameter_base@DV?$stream_output_adapter@D@__crt_stdio_output@@@2@@__crt_stdio_output@@AAE_ND@Z 10058477 f i libucrt:output.obj
 0001:00057538       ?type_case_c_tchar@?$output_processor@DV?$stream_output_adapter@D@__crt_stdio_output@@V?$standard_base@DV?$stream_output_adapter@D@__crt_stdio_output@@@2@@__crt_stdio_output@@AAE_ND@Z 10058538 f i libucrt:output.obj
 0001:000575cb       ?type_case_c_tchar@?$output_processor@DV?$string_output_adapter@D@__crt_stdio_output@@V?$format_validation_base@DV?$string_output_adapter@D@__crt_stdio_output@@@2@@__crt_stdio_output@@AAE_ND@Z 100585cb f i libucrt:output.obj
 0001:0005765e       ?type_case_c_tchar@?$output_processor@DV?$string_output_adapter@D@__crt_stdio_output@@V?$positional_parameter_base@DV?$string_output_adapter@D@__crt_stdio_output@@@2@@__crt_stdio_output@@AAE_ND@Z 1005865e f i libucrt:output.obj
 0001:0005771f       ?type_case_c_tchar@?$output_processor@DV?$string_output_adapter@D@__crt_stdio_output@@V?$standard_base@DV?$string_output_adapter@D@__crt_stdio_output@@@2@@__crt_stdio_output@@AAE_ND@Z 1005871f f i libucrt:output.obj
 0001:000577b2       ?type_case_c_tchar@?$output_processor@_WV?$stream_output_adapter@_W@__crt_stdio_output@@V?$format_validation_base@_WV?$stream_output_adapter@_W@__crt_stdio_output@@@2@@__crt_stdio_output@@AAE_N_W@Z 100587b2 f i libucrt:output.obj
 0001:00057848       ?type_case_c_tchar@?$output_processor@_WV?$stream_output_adapter@_W@__crt_stdio_output@@V?$positional_parameter_base@_WV?$stream_output_adapter@_W@__crt_stdio_output@@@2@@__crt_stdio_output@@AAE_N_W@Z 10058848 f i libucrt:output.obj
 0001:000578f5       ?type_case_c_tchar@?$output_processor@_WV?$stream_output_adapter@_W@__crt_stdio_output@@V?$standard_base@_WV?$stream_output_adapter@_W@__crt_stdio_output@@@2@@__crt_stdio_output@@AAE_N_W@Z 100588f5 f i libucrt:output.obj
 0001:0005798b       ?type_case_c_tchar@?$output_processor@_WV?$string_output_adapter@_W@__crt_stdio_output@@V?$format_validation_base@_WV?$string_output_adapter@_W@__crt_stdio_output@@@2@@__crt_stdio_output@@AAE_N_W@Z 1005898b f i libucrt:output.obj
 0001:00057a21       ?type_case_c_tchar@?$output_processor@_WV?$string_output_adapter@_W@__crt_stdio_output@@V?$positional_parameter_base@_WV?$string_output_adapter@_W@__crt_stdio_output@@@2@@__crt_stdio_output@@AAE_N_W@Z 10058a21 f i libucrt:output.obj
 0001:00057ace       ?type_case_c_tchar@?$output_processor@_WV?$string_output_adapter@_W@__crt_stdio_output@@V?$standard_base@_WV?$string_output_adapter@_W@__crt_stdio_output@@@2@@__crt_stdio_output@@AAE_N_W@Z 10058ace f i libucrt:output.obj
 0001:00057b64       ?type_case_d@?$output_processor@DV?$stream_output_adapter@D@__crt_stdio_output@@V?$format_validation_base@DV?$stream_output_adapter@D@__crt_stdio_output@@@2@@__crt_stdio_output@@AAE_NXZ 10058b64 f i libucrt:output.obj
 0001:00057b72       ?type_case_d@?$output_processor@DV?$stream_output_adapter@D@__crt_stdio_output@@V?$positional_parameter_base@DV?$stream_output_adapter@D@__crt_stdio_output@@@2@@__crt_stdio_output@@AAE_NXZ 10058b72 f i libucrt:output.obj
 0001:00057b80       ?type_case_d@?$output_processor@DV?$stream_output_adapter@D@__crt_stdio_output@@V?$standard_base@DV?$stream_output_adapter@D@__crt_stdio_output@@@2@@__crt_stdio_output@@AAE_NXZ 10058b80 f i libucrt:output.obj
 0001:00057b8e       ?type_case_d@?$output_processor@DV?$string_output_adapter@D@__crt_stdio_output@@V?$format_validation_base@DV?$string_output_adapter@D@__crt_stdio_output@@@2@@__crt_stdio_output@@AAE_NXZ 10058b8e f i libucrt:output.obj
 0001:00057b9c       ?type_case_d@?$output_processor@DV?$string_output_adapter@D@__crt_stdio_output@@V?$positional_parameter_base@DV?$string_output_adapter@D@__crt_stdio_output@@@2@@__crt_stdio_output@@AAE_NXZ 10058b9c f i libucrt:output.obj
 0001:00057baa       ?type_case_d@?$output_processor@DV?$string_output_adapter@D@__crt_stdio_output@@V?$standard_base@DV?$string_output_adapter@D@__crt_stdio_output@@@2@@__crt_stdio_output@@AAE_NXZ 10058baa f i libucrt:output.obj
 0001:00057bb8       ?type_case_d@?$output_processor@_WV?$stream_output_adapter@_W@__crt_stdio_output@@V?$format_validation_base@_WV?$stream_output_adapter@_W@__crt_stdio_output@@@2@@__crt_stdio_output@@AAE_NXZ 10058bb8 f i libucrt:output.obj
 0001:00057bc6       ?type_case_d@?$output_processor@_WV?$stream_output_adapter@_W@__crt_stdio_output@@V?$positional_parameter_base@_WV?$stream_output_adapter@_W@__crt_stdio_output@@@2@@__crt_stdio_output@@AAE_NXZ 10058bc6 f i libucrt:output.obj
 0001:00057bd4       ?type_case_d@?$output_processor@_WV?$stream_output_adapter@_W@__crt_stdio_output@@V?$standard_base@_WV?$stream_output_adapter@_W@__crt_stdio_output@@@2@@__crt_stdio_output@@AAE_NXZ 10058bd4 f i libucrt:output.obj
 0001:00057be2       ?type_case_d@?$output_processor@_WV?$string_output_adapter@_W@__crt_stdio_output@@V?$format_validation_base@_WV?$string_output_adapter@_W@__crt_stdio_output@@@2@@__crt_stdio_output@@AAE_NXZ 10058be2 f i libucrt:output.obj
 0001:00057bf0       ?type_case_d@?$output_processor@_WV?$string_output_adapter@_W@__crt_stdio_output@@V?$positional_parameter_base@_WV?$string_output_adapter@_W@__crt_stdio_output@@@2@@__crt_stdio_output@@AAE_NXZ 10058bf0 f i libucrt:output.obj
 0001:00057bfe       ?type_case_d@?$output_processor@_WV?$string_output_adapter@_W@__crt_stdio_output@@V?$standard_base@_WV?$string_output_adapter@_W@__crt_stdio_output@@@2@@__crt_stdio_output@@AAE_NXZ 10058bfe f i libucrt:output.obj
 0001:00057c0c       ?type_case_integer@?$output_processor@DV?$stream_output_adapter@D@__crt_stdio_output@@V?$format_validation_base@DV?$stream_output_adapter@D@__crt_stdio_output@@@2@@__crt_stdio_output@@AAE_NI_N@Z 10058c0c f i libucrt:output.obj
 0001:00057d5d       ?type_case_integer@?$output_processor@DV?$stream_output_adapter@D@__crt_stdio_output@@V?$positional_parameter_base@DV?$stream_output_adapter@D@__crt_stdio_output@@@2@@__crt_stdio_output@@AAE_NI_N@Z 10058d5d f i libucrt:output.obj
 0001:00057ede       ?type_case_integer@?$output_processor@DV?$stream_output_adapter@D@__crt_stdio_output@@V?$standard_base@DV?$stream_output_adapter@D@__crt_stdio_output@@@2@@__crt_stdio_output@@AAE_NI_N@Z 10058ede f i libucrt:output.obj
 0001:0005802f       ?type_case_integer@?$output_processor@DV?$string_output_adapter@D@__crt_stdio_output@@V?$format_validation_base@DV?$string_output_adapter@D@__crt_stdio_output@@@2@@__crt_stdio_output@@AAE_NI_N@Z 1005902f f i libucrt:output.obj
 0001:00058180       ?type_case_integer@?$output_processor@DV?$string_output_adapter@D@__crt_stdio_output@@V?$positional_parameter_base@DV?$string_output_adapter@D@__crt_stdio_output@@@2@@__crt_stdio_output@@AAE_NI_N@Z 10059180 f i libucrt:output.obj
 0001:00058301       ?type_case_integer@?$output_processor@DV?$string_output_adapter@D@__crt_stdio_output@@V?$standard_base@DV?$string_output_adapter@D@__crt_stdio_output@@@2@@__crt_stdio_output@@AAE_NI_N@Z 10059301 f i libucrt:output.obj
 0001:00058452       ?type_case_integer@?$output_processor@_WV?$stream_output_adapter@_W@__crt_stdio_output@@V?$format_validation_base@_WV?$stream_output_adapter@_W@__crt_stdio_output@@@2@@__crt_stdio_output@@AAE_NI_N@Z 10059452 f i libucrt:output.obj
 0001:000585a7       ?type_case_integer@?$output_processor@_WV?$stream_output_adapter@_W@__crt_stdio_output@@V?$positional_parameter_base@_WV?$stream_output_adapter@_W@__crt_stdio_output@@@2@@__crt_stdio_output@@AAE_NI_N@Z 100595a7 f i libucrt:output.obj
 0001:0005872c       ?type_case_integer@?$output_processor@_WV?$stream_output_adapter@_W@__crt_stdio_output@@V?$standard_base@_WV?$stream_output_adapter@_W@__crt_stdio_output@@@2@@__crt_stdio_output@@AAE_NI_N@Z 1005972c f i libucrt:output.obj
 0001:00058881       ?type_case_integer@?$output_processor@_WV?$string_output_adapter@_W@__crt_stdio_output@@V?$format_validation_base@_WV?$string_output_adapter@_W@__crt_stdio_output@@@2@@__crt_stdio_output@@AAE_NI_N@Z 10059881 f i libucrt:output.obj
 0001:000589d6       ?type_case_integer@?$output_processor@_WV?$string_output_adapter@_W@__crt_stdio_output@@V?$positional_parameter_base@_WV?$string_output_adapter@_W@__crt_stdio_output@@@2@@__crt_stdio_output@@AAE_NI_N@Z 100599d6 f i libucrt:output.obj
 0001:00058b5b       ?type_case_integer@?$output_processor@_WV?$string_output_adapter@_W@__crt_stdio_output@@V?$standard_base@_WV?$string_output_adapter@_W@__crt_stdio_output@@@2@@__crt_stdio_output@@AAE_NI_N@Z 10059b5b f i libucrt:output.obj
 0001:00058cb0       ?type_case_n@?$output_processor@DV?$stream_output_adapter@D@__crt_stdio_output@@V?$format_validation_base@DV?$stream_output_adapter@D@__crt_stdio_output@@@2@@__crt_stdio_output@@AAE_NXZ 10059cb0 f i libucrt:output.obj
 0001:00058d24       ?type_case_n@?$output_processor@DV?$stream_output_adapter@D@__crt_stdio_output@@V?$positional_parameter_base@DV?$stream_output_adapter@D@__crt_stdio_output@@@2@@__crt_stdio_output@@AAE_NXZ 10059d24 f i libucrt:output.obj
 0001:00058dbb       ?type_case_n@?$output_processor@DV?$stream_output_adapter@D@__crt_stdio_output@@V?$standard_base@DV?$stream_output_adapter@D@__crt_stdio_output@@@2@@__crt_stdio_output@@AAE_NXZ 10059dbb f i libucrt:output.obj
 0001:00058e2f       ?type_case_n@?$output_processor@DV?$string_output_adapter@D@__crt_stdio_output@@V?$format_validation_base@DV?$string_output_adapter@D@__crt_stdio_output@@@2@@__crt_stdio_output@@AAE_NXZ 10059e2f f i libucrt:output.obj
 0001:00058ea3       ?type_case_n@?$output_processor@DV?$string_output_adapter@D@__crt_stdio_output@@V?$positional_parameter_base@DV?$string_output_adapter@D@__crt_stdio_output@@@2@@__crt_stdio_output@@AAE_NXZ 10059ea3 f i libucrt:output.obj
 0001:00058f3a       ?type_case_n@?$output_processor@DV?$string_output_adapter@D@__crt_stdio_output@@V?$standard_base@DV?$string_output_adapter@D@__crt_stdio_output@@@2@@__crt_stdio_output@@AAE_NXZ 10059f3a f i libucrt:output.obj
 0001:00058fae       ?type_case_n@?$output_processor@_WV?$stream_output_adapter@_W@__crt_stdio_output@@V?$format_validation_base@_WV?$stream_output_adapter@_W@__crt_stdio_output@@@2@@__crt_stdio_output@@AAE_NXZ 10059fae f i libucrt:output.obj
 0001:00059022       ?type_case_n@?$output_processor@_WV?$stream_output_adapter@_W@__crt_stdio_output@@V?$positional_parameter_base@_WV?$stream_output_adapter@_W@__crt_stdio_output@@@2@@__crt_stdio_output@@AAE_NXZ 1005a022 f i libucrt:output.obj
 0001:000590b9       ?type_case_n@?$output_processor@_WV?$stream_output_adapter@_W@__crt_stdio_output@@V?$standard_base@_WV?$stream_output_adapter@_W@__crt_stdio_output@@@2@@__crt_stdio_output@@AAE_NXZ 1005a0b9 f i libucrt:output.obj
 0001:0005912d       ?type_case_n@?$output_processor@_WV?$string_output_adapter@_W@__crt_stdio_output@@V?$format_validation_base@_WV?$string_output_adapter@_W@__crt_stdio_output@@@2@@__crt_stdio_output@@AAE_NXZ 1005a12d f i libucrt:output.obj
 0001:000591a1       ?type_case_n@?$output_processor@_WV?$string_output_adapter@_W@__crt_stdio_output@@V?$positional_parameter_base@_WV?$string_output_adapter@_W@__crt_stdio_output@@@2@@__crt_stdio_output@@AAE_NXZ 1005a1a1 f i libucrt:output.obj
 0001:00059238       ?type_case_n@?$output_processor@_WV?$string_output_adapter@_W@__crt_stdio_output@@V?$standard_base@_WV?$string_output_adapter@_W@__crt_stdio_output@@@2@@__crt_stdio_output@@AAE_NXZ 1005a238 f i libucrt:output.obj
 0001:000592ac       ?type_case_o@?$output_processor@DV?$stream_output_adapter@D@__crt_stdio_output@@V?$format_validation_base@DV?$stream_output_adapter@D@__crt_stdio_output@@@2@@__crt_stdio_output@@AAE_NXZ 1005a2ac f i libucrt:output.obj
 0001:000592cb       ?type_case_o@?$output_processor@DV?$stream_output_adapter@D@__crt_stdio_output@@V?$positional_parameter_base@DV?$stream_output_adapter@D@__crt_stdio_output@@@2@@__crt_stdio_output@@AAE_NXZ 1005a2cb f i libucrt:output.obj
 0001:000592ea       ?type_case_o@?$output_processor@DV?$stream_output_adapter@D@__crt_stdio_output@@V?$standard_base@DV?$stream_output_adapter@D@__crt_stdio_output@@@2@@__crt_stdio_output@@AAE_NXZ 1005a2ea f i libucrt:output.obj
 0001:00059309       ?type_case_o@?$output_processor@DV?$string_output_adapter@D@__crt_stdio_output@@V?$format_validation_base@DV?$string_output_adapter@D@__crt_stdio_output@@@2@@__crt_stdio_output@@AAE_NXZ 1005a309 f i libucrt:output.obj
 0001:00059328       ?type_case_o@?$output_processor@DV?$string_output_adapter@D@__crt_stdio_output@@V?$positional_parameter_base@DV?$string_output_adapter@D@__crt_stdio_output@@@2@@__crt_stdio_output@@AAE_NXZ 1005a328 f i libucrt:output.obj
 0001:00059347       ?type_case_o@?$output_processor@DV?$string_output_adapter@D@__crt_stdio_output@@V?$standard_base@DV?$string_output_adapter@D@__crt_stdio_output@@@2@@__crt_stdio_output@@AAE_NXZ 1005a347 f i libucrt:output.obj
 0001:00059366       ?type_case_o@?$output_processor@_WV?$stream_output_adapter@_W@__crt_stdio_output@@V?$format_validation_base@_WV?$stream_output_adapter@_W@__crt_stdio_output@@@2@@__crt_stdio_output@@AAE_NXZ 1005a366 f i libucrt:output.obj
 0001:00059385       ?type_case_o@?$output_processor@_WV?$stream_output_adapter@_W@__crt_stdio_output@@V?$positional_parameter_base@_WV?$stream_output_adapter@_W@__crt_stdio_output@@@2@@__crt_stdio_output@@AAE_NXZ 1005a385 f i libucrt:output.obj
 0001:000593a4       ?type_case_o@?$output_processor@_WV?$stream_output_adapter@_W@__crt_stdio_output@@V?$standard_base@_WV?$stream_output_adapter@_W@__crt_stdio_output@@@2@@__crt_stdio_output@@AAE_NXZ 1005a3a4 f i libucrt:output.obj
 0001:000593c3       ?type_case_o@?$output_processor@_WV?$string_output_adapter@_W@__crt_stdio_output@@V?$format_validation_base@_WV?$string_output_adapter@_W@__crt_stdio_output@@@2@@__crt_stdio_output@@AAE_NXZ 1005a3c3 f i libucrt:output.obj
 0001:000593e2       ?type_case_o@?$output_processor@_WV?$string_output_adapter@_W@__crt_stdio_output@@V?$positional_parameter_base@_WV?$string_output_adapter@_W@__crt_stdio_output@@@2@@__crt_stdio_output@@AAE_NXZ 1005a3e2 f i libucrt:output.obj
 0001:00059401       ?type_case_o@?$output_processor@_WV?$string_output_adapter@_W@__crt_stdio_output@@V?$standard_base@_WV?$string_output_adapter@_W@__crt_stdio_output@@@2@@__crt_stdio_output@@AAE_NXZ 1005a401 f i libucrt:output.obj
 0001:00059420       ?type_case_p@?$output_processor@DV?$stream_output_adapter@D@__crt_stdio_output@@V?$format_validation_base@DV?$stream_output_adapter@D@__crt_stdio_output@@@2@@__crt_stdio_output@@AAE_NXZ 1005a420 f i libucrt:output.obj
 0001:00059438       ?type_case_p@?$output_processor@DV?$stream_output_adapter@D@__crt_stdio_output@@V?$positional_parameter_base@DV?$stream_output_adapter@D@__crt_stdio_output@@@2@@__crt_stdio_output@@AAE_NXZ 1005a438 f i libucrt:output.obj
 0001:00059450       ?type_case_p@?$output_processor@DV?$stream_output_adapter@D@__crt_stdio_output@@V?$standard_base@DV?$stream_output_adapter@D@__crt_stdio_output@@@2@@__crt_stdio_output@@AAE_NXZ 1005a450 f i libucrt:output.obj
 0001:00059468       ?type_case_p@?$output_processor@DV?$string_output_adapter@D@__crt_stdio_output@@V?$format_validation_base@DV?$string_output_adapter@D@__crt_stdio_output@@@2@@__crt_stdio_output@@AAE_NXZ 1005a468 f i libucrt:output.obj
 0001:00059480       ?type_case_p@?$output_processor@DV?$string_output_adapter@D@__crt_stdio_output@@V?$positional_parameter_base@DV?$string_output_adapter@D@__crt_stdio_output@@@2@@__crt_stdio_output@@AAE_NXZ 1005a480 f i libucrt:output.obj
 0001:00059498       ?type_case_p@?$output_processor@DV?$string_output_adapter@D@__crt_stdio_output@@V?$standard_base@DV?$string_output_adapter@D@__crt_stdio_output@@@2@@__crt_stdio_output@@AAE_NXZ 1005a498 f i libucrt:output.obj
 0001:000594b0       ?type_case_p@?$output_processor@_WV?$stream_output_adapter@_W@__crt_stdio_output@@V?$format_validation_base@_WV?$stream_output_adapter@_W@__crt_stdio_output@@@2@@__crt_stdio_output@@AAE_NXZ 1005a4b0 f i libucrt:output.obj
 0001:000594c8       ?type_case_p@?$output_processor@_WV?$stream_output_adapter@_W@__crt_stdio_output@@V?$positional_parameter_base@_WV?$stream_output_adapter@_W@__crt_stdio_output@@@2@@__crt_stdio_output@@AAE_NXZ 1005a4c8 f i libucrt:output.obj
 0001:000594e0       ?type_case_p@?$output_processor@_WV?$stream_output_adapter@_W@__crt_stdio_output@@V?$standard_base@_WV?$stream_output_adapter@_W@__crt_stdio_output@@@2@@__crt_stdio_output@@AAE_NXZ 1005a4e0 f i libucrt:output.obj
 0001:000594f8       ?type_case_p@?$output_processor@_WV?$string_output_adapter@_W@__crt_stdio_output@@V?$format_validation_base@_WV?$string_output_adapter@_W@__crt_stdio_output@@@2@@__crt_stdio_output@@AAE_NXZ 1005a4f8 f i libucrt:output.obj
 0001:00059510       ?type_case_p@?$output_processor@_WV?$string_output_adapter@_W@__crt_stdio_output@@V?$positional_parameter_base@_WV?$string_output_adapter@_W@__crt_stdio_output@@@2@@__crt_stdio_output@@AAE_NXZ 1005a510 f i libucrt:output.obj
 0001:00059528       ?type_case_p@?$output_processor@_WV?$string_output_adapter@_W@__crt_stdio_output@@V?$standard_base@_WV?$string_output_adapter@_W@__crt_stdio_output@@@2@@__crt_stdio_output@@AAE_NXZ 1005a528 f i libucrt:output.obj
 0001:00059540       ?type_case_s@?$output_processor@DV?$stream_output_adapter@D@__crt_stdio_output@@V?$format_validation_base@DV?$stream_output_adapter@D@__crt_stdio_output@@@2@@__crt_stdio_output@@AAE_NXZ 1005a540 f i libucrt:output.obj
 0001:000595b1       ?type_case_s@?$output_processor@DV?$stream_output_adapter@D@__crt_stdio_output@@V?$positional_parameter_base@DV?$stream_output_adapter@D@__crt_stdio_output@@@2@@__crt_stdio_output@@AAE_NXZ 1005a5b1 f i libucrt:output.obj
 0001:0005962f       ?type_case_s@?$output_processor@DV?$stream_output_adapter@D@__crt_stdio_output@@V?$standard_base@DV?$stream_output_adapter@D@__crt_stdio_output@@@2@@__crt_stdio_output@@AAE_NXZ 1005a62f f i libucrt:output.obj
 0001:000596a0       ?type_case_s@?$output_processor@DV?$string_output_adapter@D@__crt_stdio_output@@V?$format_validation_base@DV?$string_output_adapter@D@__crt_stdio_output@@@2@@__crt_stdio_output@@AAE_NXZ 1005a6a0 f i libucrt:output.obj
 0001:00059711       ?type_case_s@?$output_processor@DV?$string_output_adapter@D@__crt_stdio_output@@V?$positional_parameter_base@DV?$string_output_adapter@D@__crt_stdio_output@@@2@@__crt_stdio_output@@AAE_NXZ 1005a711 f i libucrt:output.obj
 0001:0005978f       ?type_case_s@?$output_processor@DV?$string_output_adapter@D@__crt_stdio_output@@V?$standard_base@DV?$string_output_adapter@D@__crt_stdio_output@@@2@@__crt_stdio_output@@AAE_NXZ 1005a78f f i libucrt:output.obj
 0001:00059800       ?type_case_s@?$output_processor@_WV?$stream_output_adapter@_W@__crt_stdio_output@@V?$format_validation_base@_WV?$stream_output_adapter@_W@__crt_stdio_output@@@2@@__crt_stdio_output@@AAE_NXZ 1005a800 f i libucrt:output.obj
 0001:00059873       ?type_case_s@?$output_processor@_WV?$stream_output_adapter@_W@__crt_stdio_output@@V?$positional_parameter_base@_WV?$stream_output_adapter@_W@__crt_stdio_output@@@2@@__crt_stdio_output@@AAE_NXZ 1005a873 f i libucrt:output.obj
 0001:000598f3       ?type_case_s@?$output_processor@_WV?$stream_output_adapter@_W@__crt_stdio_output@@V?$standard_base@_WV?$stream_output_adapter@_W@__crt_stdio_output@@@2@@__crt_stdio_output@@AAE_NXZ 1005a8f3 f i libucrt:output.obj
 0001:00059966       ?type_case_s@?$output_processor@_WV?$string_output_adapter@_W@__crt_stdio_output@@V?$format_validation_base@_WV?$string_output_adapter@_W@__crt_stdio_output@@@2@@__crt_stdio_output@@AAE_NXZ 1005a966 f i libucrt:output.obj
 0001:000599d9       ?type_case_s@?$output_processor@_WV?$string_output_adapter@_W@__crt_stdio_output@@V?$positional_parameter_base@_WV?$string_output_adapter@_W@__crt_stdio_output@@@2@@__crt_stdio_output@@AAE_NXZ 1005a9d9 f i libucrt:output.obj
 0001:00059a59       ?type_case_s@?$output_processor@_WV?$string_output_adapter@_W@__crt_stdio_output@@V?$standard_base@_WV?$string_output_adapter@_W@__crt_stdio_output@@@2@@__crt_stdio_output@@AAE_NXZ 1005aa59 f i libucrt:output.obj
 0001:00059acc       ?type_case_s_compute_narrow_string_length@?$output_processor@DV?$stream_output_adapter@D@__crt_stdio_output@@V?$format_validation_base@DV?$stream_output_adapter@D@__crt_stdio_output@@@2@@__crt_stdio_output@@ABEHHD@Z 1005aacc f i libucrt:output.obj
 0001:00059ae2       ?type_case_s_compute_narrow_string_length@?$output_processor@DV?$stream_output_adapter@D@__crt_stdio_output@@V?$positional_parameter_base@DV?$stream_output_adapter@D@__crt_stdio_output@@@2@@__crt_stdio_output@@ABEHHD@Z 1005aae2 f i libucrt:output.obj
 0001:00059af8       ?type_case_s_compute_narrow_string_length@?$output_processor@DV?$stream_output_adapter@D@__crt_stdio_output@@V?$standard_base@DV?$stream_output_adapter@D@__crt_stdio_output@@@2@@__crt_stdio_output@@ABEHHD@Z 1005aaf8 f i libucrt:output.obj
 0001:00059b0e       ?type_case_s_compute_narrow_string_length@?$output_processor@DV?$string_output_adapter@D@__crt_stdio_output@@V?$format_validation_base@DV?$string_output_adapter@D@__crt_stdio_output@@@2@@__crt_stdio_output@@ABEHHD@Z 1005ab0e f i libucrt:output.obj
 0001:00059b24       ?type_case_s_compute_narrow_string_length@?$output_processor@DV?$string_output_adapter@D@__crt_stdio_output@@V?$positional_parameter_base@DV?$string_output_adapter@D@__crt_stdio_output@@@2@@__crt_stdio_output@@ABEHHD@Z 1005ab24 f i libucrt:output.obj
 0001:00059b3a       ?type_case_s_compute_narrow_string_length@?$output_processor@DV?$string_output_adapter@D@__crt_stdio_output@@V?$standard_base@DV?$string_output_adapter@D@__crt_stdio_output@@@2@@__crt_stdio_output@@ABEHHD@Z 1005ab3a f i libucrt:output.obj
 0001:00059b50       ?type_case_s_compute_narrow_string_length@?$output_processor@_WV?$stream_output_adapter@_W@__crt_stdio_output@@V?$format_validation_base@_WV?$stream_output_adapter@_W@__crt_stdio_output@@@2@@__crt_stdio_output@@ABEHH_W@Z 1005ab50 f i libucrt:output.obj
 0001:00059b97       ?type_case_s_compute_narrow_string_length@?$output_processor@_WV?$stream_output_adapter@_W@__crt_stdio_output@@V?$positional_parameter_base@_WV?$stream_output_adapter@_W@__crt_stdio_output@@@2@@__crt_stdio_output@@ABEHH_W@Z 1005ab97 f i libucrt:output.obj
 0001:00059bde       ?type_case_s_compute_narrow_string_length@?$output_processor@_WV?$stream_output_adapter@_W@__crt_stdio_output@@V?$standard_base@_WV?$stream_output_adapter@_W@__crt_stdio_output@@@2@@__crt_stdio_output@@ABEHH_W@Z 1005abde f i libucrt:output.obj
 0001:00059c25       ?type_case_s_compute_narrow_string_length@?$output_processor@_WV?$string_output_adapter@_W@__crt_stdio_output@@V?$format_validation_base@_WV?$string_output_adapter@_W@__crt_stdio_output@@@2@@__crt_stdio_output@@ABEHH_W@Z 1005ac25 f i libucrt:output.obj
 0001:00059c6c       ?type_case_s_compute_narrow_string_length@?$output_processor@_WV?$string_output_adapter@_W@__crt_stdio_output@@V?$positional_parameter_base@_WV?$string_output_adapter@_W@__crt_stdio_output@@@2@@__crt_stdio_output@@ABEHH_W@Z 1005ac6c f i libucrt:output.obj
 0001:00059cb3       ?type_case_s_compute_narrow_string_length@?$output_processor@_WV?$string_output_adapter@_W@__crt_stdio_output@@V?$standard_base@_WV?$string_output_adapter@_W@__crt_stdio_output@@@2@@__crt_stdio_output@@ABEHH_W@Z 1005acb3 f i libucrt:output.obj
 0001:00059cfa       ?type_case_u@?$output_processor@DV?$stream_output_adapter@D@__crt_stdio_output@@V?$format_validation_base@DV?$stream_output_adapter@D@__crt_stdio_output@@@2@@__crt_stdio_output@@AAE_NXZ 1005acfa f i libucrt:output.obj
 0001:00059d04       ?type_case_u@?$output_processor@DV?$stream_output_adapter@D@__crt_stdio_output@@V?$positional_parameter_base@DV?$stream_output_adapter@D@__crt_stdio_output@@@2@@__crt_stdio_output@@AAE_NXZ 1005ad04 f i libucrt:output.obj
 0001:00059d0e       ?type_case_u@?$output_processor@DV?$stream_output_adapter@D@__crt_stdio_output@@V?$standard_base@DV?$stream_output_adapter@D@__crt_stdio_output@@@2@@__crt_stdio_output@@AAE_NXZ 1005ad0e f i libucrt:output.obj
 0001:00059d18       ?type_case_u@?$output_processor@DV?$string_output_adapter@D@__crt_stdio_output@@V?$format_validation_base@DV?$string_output_adapter@D@__crt_stdio_output@@@2@@__crt_stdio_output@@AAE_NXZ 1005ad18 f i libucrt:output.obj
 0001:00059d22       ?type_case_u@?$output_processor@DV?$string_output_adapter@D@__crt_stdio_output@@V?$positional_parameter_base@DV?$string_output_adapter@D@__crt_stdio_output@@@2@@__crt_stdio_output@@AAE_NXZ 1005ad22 f i libucrt:output.obj
 0001:00059d2c       ?type_case_u@?$output_processor@DV?$string_output_adapter@D@__crt_stdio_output@@V?$standard_base@DV?$string_output_adapter@D@__crt_stdio_output@@@2@@__crt_stdio_output@@AAE_NXZ 1005ad2c f i libucrt:output.obj
 0001:00059d36       ?type_case_u@?$output_processor@_WV?$stream_output_adapter@_W@__crt_stdio_output@@V?$format_validation_base@_WV?$stream_output_adapter@_W@__crt_stdio_output@@@2@@__crt_stdio_output@@AAE_NXZ 1005ad36 f i libucrt:output.obj
 0001:00059d40       ?type_case_u@?$output_processor@_WV?$stream_output_adapter@_W@__crt_stdio_output@@V?$positional_parameter_base@_WV?$stream_output_adapter@_W@__crt_stdio_output@@@2@@__crt_stdio_output@@AAE_NXZ 1005ad40 f i libucrt:output.obj
 0001:00059d4a       ?type_case_u@?$output_processor@_WV?$stream_output_adapter@_W@__crt_stdio_output@@V?$standard_base@_WV?$stream_output_adapter@_W@__crt_stdio_output@@@2@@__crt_stdio_output@@AAE_NXZ 1005ad4a f i libucrt:output.obj
 0001:00059d54       ?type_case_u@?$output_processor@_WV?$string_output_adapter@_W@__crt_stdio_output@@V?$format_validation_base@_WV?$string_output_adapter@_W@__crt_stdio_output@@@2@@__crt_stdio_output@@AAE_NXZ 1005ad54 f i libucrt:output.obj
 0001:00059d5e       ?type_case_u@?$output_processor@_WV?$string_output_adapter@_W@__crt_stdio_output@@V?$positional_parameter_base@_WV?$string_output_adapter@_W@__crt_stdio_output@@@2@@__crt_stdio_output@@AAE_NXZ 1005ad5e f i libucrt:output.obj
 0001:00059d68       ?type_case_u@?$output_processor@_WV?$string_output_adapter@_W@__crt_stdio_output@@V?$standard_base@_WV?$string_output_adapter@_W@__crt_stdio_output@@@2@@__crt_stdio_output@@AAE_NXZ 1005ad68 f i libucrt:output.obj
 0001:00059d72       ?type_case_x@?$output_processor@DV?$stream_output_adapter@D@__crt_stdio_output@@V?$format_validation_base@DV?$stream_output_adapter@D@__crt_stdio_output@@@2@@__crt_stdio_output@@AAE_NXZ 1005ad72 f i libucrt:output.obj
 0001:00059d7c       ?type_case_x@?$output_processor@DV?$stream_output_adapter@D@__crt_stdio_output@@V?$positional_parameter_base@DV?$stream_output_adapter@D@__crt_stdio_output@@@2@@__crt_stdio_output@@AAE_NXZ 1005ad7c f i libucrt:output.obj
 0001:00059d86       ?type_case_x@?$output_processor@DV?$stream_output_adapter@D@__crt_stdio_output@@V?$standard_base@DV?$stream_output_adapter@D@__crt_stdio_output@@@2@@__crt_stdio_output@@AAE_NXZ 1005ad86 f i libucrt:output.obj
 0001:00059d90       ?type_case_x@?$output_processor@DV?$string_output_adapter@D@__crt_stdio_output@@V?$format_validation_base@DV?$string_output_adapter@D@__crt_stdio_output@@@2@@__crt_stdio_output@@AAE_NXZ 1005ad90 f i libucrt:output.obj
 0001:00059d9a       ?type_case_x@?$output_processor@DV?$string_output_adapter@D@__crt_stdio_output@@V?$positional_parameter_base@DV?$string_output_adapter@D@__crt_stdio_output@@@2@@__crt_stdio_output@@AAE_NXZ 1005ad9a f i libucrt:output.obj
 0001:00059da4       ?type_case_x@?$output_processor@DV?$string_output_adapter@D@__crt_stdio_output@@V?$standard_base@DV?$string_output_adapter@D@__crt_stdio_output@@@2@@__crt_stdio_output@@AAE_NXZ 1005ada4 f i libucrt:output.obj
 0001:00059dae       ?type_case_x@?$output_processor@_WV?$stream_output_adapter@_W@__crt_stdio_output@@V?$format_validation_base@_WV?$stream_output_adapter@_W@__crt_stdio_output@@@2@@__crt_stdio_output@@AAE_NXZ 1005adae f i libucrt:output.obj
 0001:00059db8       ?type_case_x@?$output_processor@_WV?$stream_output_adapter@_W@__crt_stdio_output@@V?$positional_parameter_base@_WV?$stream_output_adapter@_W@__crt_stdio_output@@@2@@__crt_stdio_output@@AAE_NXZ 1005adb8 f i libucrt:output.obj
 0001:00059dc2       ?type_case_x@?$output_processor@_WV?$stream_output_adapter@_W@__crt_stdio_output@@V?$standard_base@_WV?$stream_output_adapter@_W@__crt_stdio_output@@@2@@__crt_stdio_output@@AAE_NXZ 1005adc2 f i libucrt:output.obj
 0001:00059dcc       ?type_case_x@?$output_processor@_WV?$string_output_adapter@_W@__crt_stdio_output@@V?$format_validation_base@_WV?$string_output_adapter@_W@__crt_stdio_output@@@2@@__crt_stdio_output@@AAE_NXZ 1005adcc f i libucrt:output.obj
 0001:00059dd6       ?type_case_x@?$output_processor@_WV?$string_output_adapter@_W@__crt_stdio_output@@V?$positional_parameter_base@_WV?$string_output_adapter@_W@__crt_stdio_output@@@2@@__crt_stdio_output@@AAE_NXZ 1005add6 f i libucrt:output.obj
 0001:00059de0       ?type_case_x@?$output_processor@_WV?$string_output_adapter@_W@__crt_stdio_output@@V?$standard_base@_WV?$string_output_adapter@_W@__crt_stdio_output@@@2@@__crt_stdio_output@@AAE_NXZ 1005ade0 f i libucrt:output.obj
 0001:00059dea       ?unset_flag@?$output_processor@DV?$stream_output_adapter@D@__crt_stdio_output@@V?$format_validation_base@DV?$stream_output_adapter@D@__crt_stdio_output@@@2@@__crt_stdio_output@@AAEXI@Z 1005adea f i libucrt:output.obj
 0001:00059dfb       ?unset_flag@?$output_processor@DV?$stream_output_adapter@D@__crt_stdio_output@@V?$positional_parameter_base@DV?$stream_output_adapter@D@__crt_stdio_output@@@2@@__crt_stdio_output@@AAEXI@Z 1005adfb f i libucrt:output.obj
 0001:00059e0c       ?unset_flag@?$output_processor@DV?$stream_output_adapter@D@__crt_stdio_output@@V?$standard_base@DV?$stream_output_adapter@D@__crt_stdio_output@@@2@@__crt_stdio_output@@AAEXI@Z 1005ae0c f i libucrt:output.obj
 0001:00059e1d       ?unset_flag@?$output_processor@DV?$string_output_adapter@D@__crt_stdio_output@@V?$format_validation_base@DV?$string_output_adapter@D@__crt_stdio_output@@@2@@__crt_stdio_output@@AAEXI@Z 1005ae1d f i libucrt:output.obj
 0001:00059e2e       ?unset_flag@?$output_processor@DV?$string_output_adapter@D@__crt_stdio_output@@V?$positional_parameter_base@DV?$string_output_adapter@D@__crt_stdio_output@@@2@@__crt_stdio_output@@AAEXI@Z 1005ae2e f i libucrt:output.obj
 0001:00059e3f       ?unset_flag@?$output_processor@DV?$string_output_adapter@D@__crt_stdio_output@@V?$standard_base@DV?$string_output_adapter@D@__crt_stdio_output@@@2@@__crt_stdio_output@@AAEXI@Z 1005ae3f f i libucrt:output.obj
 0001:00059e50       ?unset_flag@?$output_processor@_WV?$stream_output_adapter@_W@__crt_stdio_output@@V?$format_validation_base@_WV?$stream_output_adapter@_W@__crt_stdio_output@@@2@@__crt_stdio_output@@AAEXI@Z 1005ae50 f i libucrt:output.obj
 0001:00059e61       ?unset_flag@?$output_processor@_WV?$stream_output_adapter@_W@__crt_stdio_output@@V?$positional_parameter_base@_WV?$stream_output_adapter@_W@__crt_stdio_output@@@2@@__crt_stdio_output@@AAEXI@Z 1005ae61 f i libucrt:output.obj
 0001:00059e72       ?unset_flag@?$output_processor@_WV?$stream_output_adapter@_W@__crt_stdio_output@@V?$standard_base@_WV?$stream_output_adapter@_W@__crt_stdio_output@@@2@@__crt_stdio_output@@AAEXI@Z 1005ae72 f i libucrt:output.obj
 0001:00059e83       ?unset_flag@?$output_processor@_WV?$string_output_adapter@_W@__crt_stdio_output@@V?$format_validation_base@_WV?$string_output_adapter@_W@__crt_stdio_output@@@2@@__crt_stdio_output@@AAEXI@Z 1005ae83 f i libucrt:output.obj
 0001:00059e94       ?unset_flag@?$output_processor@_WV?$string_output_adapter@_W@__crt_stdio_output@@V?$positional_parameter_base@_WV?$string_output_adapter@_W@__crt_stdio_output@@@2@@__crt_stdio_output@@AAEXI@Z 1005ae94 f i libucrt:output.obj
 0001:00059ea5       ?unset_flag@?$output_processor@_WV?$string_output_adapter@_W@__crt_stdio_output@@V?$standard_base@_WV?$string_output_adapter@_W@__crt_stdio_output@@@2@@__crt_stdio_output@@AAEXI@Z 1005aea5 f i libucrt:output.obj
 0001:00059eb6       ?update_field_width@?$positional_parameter_base@DV?$stream_output_adapter@D@__crt_stdio_output@@@__crt_stdio_output@@IAE_NXZ 1005aeb6 f i libucrt:output.obj
 0001:00059f6a       ?update_field_width@?$positional_parameter_base@DV?$string_output_adapter@D@__crt_stdio_output@@@__crt_stdio_output@@IAE_NXZ 1005af6a f i libucrt:output.obj
 0001:0005a01e       ?update_field_width@?$positional_parameter_base@_WV?$stream_output_adapter@_W@__crt_stdio_output@@@__crt_stdio_output@@IAE_NXZ 1005b01e f i libucrt:output.obj
 0001:0005a0d3       ?update_field_width@?$positional_parameter_base@_WV?$string_output_adapter@_W@__crt_stdio_output@@@__crt_stdio_output@@IAE_NXZ 1005b0d3 f i libucrt:output.obj
 0001:0005a188       ?update_field_width@?$standard_base@DV?$stream_output_adapter@D@__crt_stdio_output@@@__crt_stdio_output@@IAE_NXZ 1005b188 f i libucrt:output.obj
 0001:0005a198       ?update_field_width@?$standard_base@DV?$string_output_adapter@D@__crt_stdio_output@@@__crt_stdio_output@@IAE_NXZ 1005b198 f i libucrt:output.obj
 0001:0005a1a8       ?update_field_width@?$standard_base@_WV?$stream_output_adapter@_W@__crt_stdio_output@@@__crt_stdio_output@@IAE_NXZ 1005b1a8 f i libucrt:output.obj
 0001:0005a1b8       ?update_field_width@?$standard_base@_WV?$string_output_adapter@_W@__crt_stdio_output@@@__crt_stdio_output@@IAE_NXZ 1005b1b8 f i libucrt:output.obj
 0001:0005a1c8       ?update_precision@?$positional_parameter_base@DV?$stream_output_adapter@D@__crt_stdio_output@@@__crt_stdio_output@@IAE_NXZ 1005b1c8 f i libucrt:output.obj
 0001:0005a27c       ?update_precision@?$positional_parameter_base@DV?$string_output_adapter@D@__crt_stdio_output@@@__crt_stdio_output@@IAE_NXZ 1005b27c f i libucrt:output.obj
 0001:0005a330       ?update_precision@?$positional_parameter_base@_WV?$stream_output_adapter@_W@__crt_stdio_output@@@__crt_stdio_output@@IAE_NXZ 1005b330 f i libucrt:output.obj
 0001:0005a3e5       ?update_precision@?$positional_parameter_base@_WV?$string_output_adapter@_W@__crt_stdio_output@@@__crt_stdio_output@@IAE_NXZ 1005b3e5 f i libucrt:output.obj
 0001:0005a49a       ?update_precision@?$standard_base@DV?$stream_output_adapter@D@__crt_stdio_output@@@__crt_stdio_output@@IAE_NXZ 1005b49a f i libucrt:output.obj
 0001:0005a4aa       ?update_precision@?$standard_base@DV?$string_output_adapter@D@__crt_stdio_output@@@__crt_stdio_output@@IAE_NXZ 1005b4aa f i libucrt:output.obj
 0001:0005a4ba       ?update_precision@?$standard_base@_WV?$stream_output_adapter@_W@__crt_stdio_output@@@__crt_stdio_output@@IAE_NXZ 1005b4ba f i libucrt:output.obj
 0001:0005a4ca       ?update_precision@?$standard_base@_WV?$string_output_adapter@_W@__crt_stdio_output@@@__crt_stdio_output@@IAE_NXZ 1005b4ca f i libucrt:output.obj
 0001:0005a4da       ?valid@__crt_stdio_stream@@QBE_NXZ 1005b4da f i libucrt:output.obj
 0001:0005a4e1       ?validate@?$stream_output_adapter@D@__crt_stdio_output@@QBE_NXZ 1005b4e1 f i libucrt:output.obj
 0001:0005a502       ?validate@?$stream_output_adapter@_W@__crt_stdio_output@@QBE_NXZ 1005b502 f i libucrt:output.obj
 0001:0005a51d       ?validate@?$string_output_adapter@D@__crt_stdio_output@@QBE_NXZ 1005b51d f i libucrt:output.obj
 0001:0005a538       ?validate@?$string_output_adapter@_W@__crt_stdio_output@@QBE_NXZ 1005b538 f i libucrt:output.obj
 0001:0005a553       ?validate_and_store_parameter_data@?$positional_parameter_base@DV?$stream_output_adapter@D@__crt_stdio_output@@@__crt_stdio_output@@AAE_NAAUparameter_data@12@W4parameter_type@12@DW4length_modifier@2@@Z 1005b553 f i libucrt:output.obj
 0001:0005a59e       ?validate_and_store_parameter_data@?$positional_parameter_base@DV?$string_output_adapter@D@__crt_stdio_output@@@__crt_stdio_output@@AAE_NAAUparameter_data@12@W4parameter_type@12@DW4length_modifier@2@@Z 1005b59e f i libucrt:output.obj
 0001:0005a5e9       ?validate_and_store_parameter_data@?$positional_parameter_base@_WV?$stream_output_adapter@_W@__crt_stdio_output@@@__crt_stdio_output@@AAE_NAAUparameter_data@12@W4parameter_type@12@_WW4length_modifier@2@@Z 1005b5e9 f i libucrt:output.obj
 0001:0005a636       ?validate_and_store_parameter_data@?$positional_parameter_base@_WV?$string_output_adapter@_W@__crt_stdio_output@@@__crt_stdio_output@@AAE_NAAUparameter_data@12@W4parameter_type@12@_WW4length_modifier@2@@Z 1005b636 f i libucrt:output.obj
 0001:0005a683       ?validate_and_update_state_at_beginning_of_format_character@?$positional_parameter_base@DV?$stream_output_adapter@D@__crt_stdio_output@@@__crt_stdio_output@@IAE_NXZ 1005b683 f i libucrt:output.obj
 0001:0005a77b       ?validate_and_update_state_at_beginning_of_format_character@?$positional_parameter_base@DV?$string_output_adapter@D@__crt_stdio_output@@@__crt_stdio_output@@IAE_NXZ 1005b77b f i libucrt:output.obj
 0001:0005a873       ?validate_and_update_state_at_beginning_of_format_character@?$positional_parameter_base@_WV?$stream_output_adapter@_W@__crt_stdio_output@@@__crt_stdio_output@@IAE_NXZ 1005b873 f i libucrt:output.obj
 0001:0005a974       ?validate_and_update_state_at_beginning_of_format_character@?$positional_parameter_base@_WV?$string_output_adapter@_W@__crt_stdio_output@@@__crt_stdio_output@@IAE_NXZ 1005b974 f i libucrt:output.obj
 0001:0005aa75       ?validate_and_update_state_at_beginning_of_format_character@?$standard_base@DV?$stream_output_adapter@D@__crt_stdio_output@@@__crt_stdio_output@@IAE_NXZ 1005ba75 f i libucrt:output.obj
 0001:0005aa78       ?validate_and_update_state_at_beginning_of_format_character@?$standard_base@DV?$string_output_adapter@D@__crt_stdio_output@@@__crt_stdio_output@@IAE_NXZ 1005ba78 f i libucrt:output.obj
 0001:0005aa7b       ?validate_and_update_state_at_beginning_of_format_character@?$standard_base@_WV?$stream_output_adapter@_W@__crt_stdio_output@@@__crt_stdio_output@@IAE_NXZ 1005ba7b f i libucrt:output.obj
 0001:0005aa7e       ?validate_and_update_state_at_beginning_of_format_character@?$standard_base@_WV?$string_output_adapter@_W@__crt_stdio_output@@@__crt_stdio_output@@IAE_NXZ 1005ba7e f i libucrt:output.obj
 0001:0005aa81       ?validate_and_update_state_at_end_of_format_string@?$format_validation_base@DV?$stream_output_adapter@D@__crt_stdio_output@@@__crt_stdio_output@@IBE_NXZ 1005ba81 f i libucrt:output.obj
 0001:0005aaa3       ?validate_and_update_state_at_end_of_format_string@?$format_validation_base@DV?$string_output_adapter@D@__crt_stdio_output@@@__crt_stdio_output@@IBE_NXZ 1005baa3 f i libucrt:output.obj
 0001:0005aac5       ?validate_and_update_state_at_end_of_format_string@?$format_validation_base@_WV?$stream_output_adapter@_W@__crt_stdio_output@@@__crt_stdio_output@@IBE_NXZ 1005bac5 f i libucrt:output.obj
 0001:0005aae7       ?validate_and_update_state_at_end_of_format_string@?$format_validation_base@_WV?$string_output_adapter@_W@__crt_stdio_output@@@__crt_stdio_output@@IBE_NXZ 1005bae7 f i libucrt:output.obj
 0001:0005ab09       ?validate_and_update_state_at_end_of_format_string@?$positional_parameter_base@DV?$stream_output_adapter@D@__crt_stdio_output@@@__crt_stdio_output@@IAE_NXZ 1005bb09 f i libucrt:output.obj
 0001:0005ab99       ?validate_and_update_state_at_end_of_format_string@?$positional_parameter_base@DV?$string_output_adapter@D@__crt_stdio_output@@@__crt_stdio_output@@IAE_NXZ 1005bb99 f i libucrt:output.obj
 0001:0005ac29       ?validate_and_update_state_at_end_of_format_string@?$positional_parameter_base@_WV?$stream_output_adapter@_W@__crt_stdio_output@@@__crt_stdio_output@@IAE_NXZ 1005bc29 f i libucrt:output.obj
 0001:0005acb9       ?validate_and_update_state_at_end_of_format_string@?$positional_parameter_base@_WV?$string_output_adapter@_W@__crt_stdio_output@@@__crt_stdio_output@@IAE_NXZ 1005bcb9 f i libucrt:output.obj
 0001:0005ad49       ?validate_and_update_state_at_end_of_format_string@?$standard_base@DV?$stream_output_adapter@D@__crt_stdio_output@@@__crt_stdio_output@@IBE_NXZ 1005bd49 f i libucrt:output.obj
 0001:0005ad4c       ?validate_and_update_state_at_end_of_format_string@?$standard_base@DV?$string_output_adapter@D@__crt_stdio_output@@@__crt_stdio_output@@IBE_NXZ 1005bd4c f i libucrt:output.obj
 0001:0005ad4f       ?validate_and_update_state_at_end_of_format_string@?$standard_base@_WV?$stream_output_adapter@_W@__crt_stdio_output@@@__crt_stdio_output@@IBE_NXZ 1005bd4f f i libucrt:output.obj
 0001:0005ad52       ?validate_and_update_state_at_end_of_format_string@?$standard_base@_WV?$string_output_adapter@_W@__crt_stdio_output@@@__crt_stdio_output@@IBE_NXZ 1005bd52 f i libucrt:output.obj
 0001:0005ad55       ?validate_state_for_type_case_a@?$positional_parameter_base@DV?$stream_output_adapter@D@__crt_stdio_output@@@__crt_stdio_output@@IAE_NXZ 1005bd55 f i libucrt:output.obj
 0001:0005ada4       ?validate_state_for_type_case_a@?$positional_parameter_base@DV?$string_output_adapter@D@__crt_stdio_output@@@__crt_stdio_output@@IAE_NXZ 1005bda4 f i libucrt:output.obj
 0001:0005adf3       ?validate_state_for_type_case_a@?$positional_parameter_base@_WV?$stream_output_adapter@_W@__crt_stdio_output@@@__crt_stdio_output@@IAE_NXZ 1005bdf3 f i libucrt:output.obj
 0001:0005ae42       ?validate_state_for_type_case_a@?$positional_parameter_base@_WV?$string_output_adapter@_W@__crt_stdio_output@@@__crt_stdio_output@@IAE_NXZ 1005be42 f i libucrt:output.obj
 0001:0005ae91       ?validate_state_for_type_case_a@?$standard_base@DV?$stream_output_adapter@D@__crt_stdio_output@@@__crt_stdio_output@@IBE_NXZ 1005be91 f i libucrt:output.obj
 0001:0005ae94       ?validate_state_for_type_case_a@?$standard_base@DV?$string_output_adapter@D@__crt_stdio_output@@@__crt_stdio_output@@IBE_NXZ 1005be94 f i libucrt:output.obj
 0001:0005ae97       ?validate_state_for_type_case_a@?$standard_base@_WV?$stream_output_adapter@_W@__crt_stdio_output@@@__crt_stdio_output@@IBE_NXZ 1005be97 f i libucrt:output.obj
 0001:0005ae9a       ?validate_state_for_type_case_a@?$standard_base@_WV?$string_output_adapter@_W@__crt_stdio_output@@@__crt_stdio_output@@IBE_NXZ 1005be9a f i libucrt:output.obj
 0001:0005ae9d       ?validate_stream_is_ansi_if_required@?$__acrt_stdio_char_traits@D@@SA_NQAU_iobuf@@@Z 1005be9d f i libucrt:output.obj
 0001:0005af24       ?validate_stream_is_ansi_if_required@?$__acrt_stdio_char_traits@_W@@SA_NQAU_iobuf@@@Z 1005bf24 f i libucrt:output.obj
 0001:0005af27       ?wide_null_string@?$output_processor@DV?$stream_output_adapter@D@__crt_stdio_output@@V?$format_validation_base@DV?$stream_output_adapter@D@__crt_stdio_output@@@2@@__crt_stdio_output@@CAPA_WXZ 1005bf27 f i libucrt:output.obj
 0001:0005af2d       ?wide_null_string@?$output_processor@DV?$stream_output_adapter@D@__crt_stdio_output@@V?$positional_parameter_base@DV?$stream_output_adapter@D@__crt_stdio_output@@@2@@__crt_stdio_output@@CAPA_WXZ 1005bf2d f i libucrt:output.obj
 0001:0005af33       ?wide_null_string@?$output_processor@DV?$stream_output_adapter@D@__crt_stdio_output@@V?$standard_base@DV?$stream_output_adapter@D@__crt_stdio_output@@@2@@__crt_stdio_output@@CAPA_WXZ 1005bf33 f i libucrt:output.obj
 0001:0005af39       ?wide_null_string@?$output_processor@DV?$string_output_adapter@D@__crt_stdio_output@@V?$format_validation_base@DV?$string_output_adapter@D@__crt_stdio_output@@@2@@__crt_stdio_output@@CAPA_WXZ 1005bf39 f i libucrt:output.obj
 0001:0005af3f       ?wide_null_string@?$output_processor@DV?$string_output_adapter@D@__crt_stdio_output@@V?$positional_parameter_base@DV?$string_output_adapter@D@__crt_stdio_output@@@2@@__crt_stdio_output@@CAPA_WXZ 1005bf3f f i libucrt:output.obj
 0001:0005af45       ?wide_null_string@?$output_processor@DV?$string_output_adapter@D@__crt_stdio_output@@V?$standard_base@DV?$string_output_adapter@D@__crt_stdio_output@@@2@@__crt_stdio_output@@CAPA_WXZ 1005bf45 f i libucrt:output.obj
 0001:0005af4b       ?wide_null_string@?$output_processor@_WV?$stream_output_adapter@_W@__crt_stdio_output@@V?$format_validation_base@_WV?$stream_output_adapter@_W@__crt_stdio_output@@@2@@__crt_stdio_output@@CAPA_WXZ 1005bf4b f i libucrt:output.obj
 0001:0005af51       ?wide_null_string@?$output_processor@_WV?$stream_output_adapter@_W@__crt_stdio_output@@V?$positional_parameter_base@_WV?$stream_output_adapter@_W@__crt_stdio_output@@@2@@__crt_stdio_output@@CAPA_WXZ 1005bf51 f i libucrt:output.obj
 0001:0005af57       ?wide_null_string@?$output_processor@_WV?$stream_output_adapter@_W@__crt_stdio_output@@V?$standard_base@_WV?$stream_output_adapter@_W@__crt_stdio_output@@@2@@__crt_stdio_output@@CAPA_WXZ 1005bf57 f i libucrt:output.obj
 0001:0005af5d       ?wide_null_string@?$output_processor@_WV?$string_output_adapter@_W@__crt_stdio_output@@V?$format_validation_base@_WV?$string_output_adapter@_W@__crt_stdio_output@@@2@@__crt_stdio_output@@CAPA_WXZ 1005bf5d f i libucrt:output.obj
 0001:0005af63       ?wide_null_string@?$output_processor@_WV?$string_output_adapter@_W@__crt_stdio_output@@V?$positional_parameter_base@_WV?$string_output_adapter@_W@__crt_stdio_output@@@2@@__crt_stdio_output@@CAPA_WXZ 1005bf63 f i libucrt:output.obj
 0001:0005af69       ?wide_null_string@?$output_processor@_WV?$string_output_adapter@_W@__crt_stdio_output@@V?$standard_base@_WV?$string_output_adapter@_W@__crt_stdio_output@@@2@@__crt_stdio_output@@CAPA_WXZ 1005bf69 f i libucrt:output.obj
 0001:0005af6f       ?write_character@?$output_adapter_common@DV?$stream_output_adapter@D@__crt_stdio_output@@@__crt_stdio_output@@QBEXDQAH@Z 1005bf6f f i libucrt:output.obj
 0001:0005af8e       ?write_character@?$output_adapter_common@_WV?$stream_output_adapter@_W@__crt_stdio_output@@@__crt_stdio_output@@QBEX_WQAH@Z 1005bf8e f i libucrt:output.obj
 0001:0005afad       ?write_character@?$string_output_adapter@D@__crt_stdio_output@@QBE_NDQAH@Z 1005bfad f i libucrt:output.obj
 0001:0005afef       ?write_character@?$string_output_adapter@_W@__crt_stdio_output@@QBE_N_WQAH@Z 1005bfef f i libucrt:output.obj
 0001:0005b034       ?write_character_without_count_update@?$stream_output_adapter@D@__crt_stdio_output@@QBE_ND@Z 1005c034 f i libucrt:output.obj
 0001:0005b06a       ?write_character_without_count_update@?$stream_output_adapter@_W@__crt_stdio_output@@QBE_N_W@Z 1005c06a f i libucrt:output.obj
 0001:0005b0a3       ?write_stored_string_tchar@?$output_processor@DV?$stream_output_adapter@D@__crt_stdio_output@@V?$format_validation_base@DV?$stream_output_adapter@D@__crt_stdio_output@@@2@@__crt_stdio_output@@AAE_ND@Z 1005c0a3 f i libucrt:output.obj
 0001:0005b148       ?write_stored_string_tchar@?$output_processor@DV?$stream_output_adapter@D@__crt_stdio_output@@V?$positional_parameter_base@DV?$stream_output_adapter@D@__crt_stdio_output@@@2@@__crt_stdio_output@@AAE_ND@Z 1005c148 f i libucrt:output.obj
 0001:0005b1ed       ?write_stored_string_tchar@?$output_processor@DV?$stream_output_adapter@D@__crt_stdio_output@@V?$standard_base@DV?$stream_output_adapter@D@__crt_stdio_output@@@2@@__crt_stdio_output@@AAE_ND@Z 1005c1ed f i libucrt:output.obj
 0001:0005b292       ?write_stored_string_tchar@?$output_processor@DV?$string_output_adapter@D@__crt_stdio_output@@V?$format_validation_base@DV?$string_output_adapter@D@__crt_stdio_output@@@2@@__crt_stdio_output@@AAE_ND@Z 1005c292 f i libucrt:output.obj
 0001:0005b337       ?write_stored_string_tchar@?$output_processor@DV?$string_output_adapter@D@__crt_stdio_output@@V?$positional_parameter_base@DV?$string_output_adapter@D@__crt_stdio_output@@@2@@__crt_stdio_output@@AAE_ND@Z 1005c337 f i libucrt:output.obj
 0001:0005b3dc       ?write_stored_string_tchar@?$output_processor@DV?$string_output_adapter@D@__crt_stdio_output@@V?$standard_base@DV?$string_output_adapter@D@__crt_stdio_output@@@2@@__crt_stdio_output@@AAE_ND@Z 1005c3dc f i libucrt:output.obj
 0001:0005b481       ?write_stored_string_tchar@?$output_processor@_WV?$stream_output_adapter@_W@__crt_stdio_output@@V?$format_validation_base@_WV?$stream_output_adapter@_W@__crt_stdio_output@@@2@@__crt_stdio_output@@AAE_N_W@Z 1005c481 f i libucrt:output.obj
 0001:0005b50e       ?write_stored_string_tchar@?$output_processor@_WV?$stream_output_adapter@_W@__crt_stdio_output@@V?$positional_parameter_base@_WV?$stream_output_adapter@_W@__crt_stdio_output@@@2@@__crt_stdio_output@@AAE_N_W@Z 1005c50e f i libucrt:output.obj
 0001:0005b59b       ?write_stored_string_tchar@?$output_processor@_WV?$stream_output_adapter@_W@__crt_stdio_output@@V?$standard_base@_WV?$stream_output_adapter@_W@__crt_stdio_output@@@2@@__crt_stdio_output@@AAE_N_W@Z 1005c59b f i libucrt:output.obj
 0001:0005b628       ?write_stored_string_tchar@?$output_processor@_WV?$string_output_adapter@_W@__crt_stdio_output@@V?$format_validation_base@_WV?$string_output_adapter@_W@__crt_stdio_output@@@2@@__crt_stdio_output@@AAE_N_W@Z 1005c628 f i libucrt:output.obj
 0001:0005b6b5       ?write_stored_string_tchar@?$output_processor@_WV?$string_output_adapter@_W@__crt_stdio_output@@V?$positional_parameter_base@_WV?$string_output_adapter@_W@__crt_stdio_output@@@2@@__crt_stdio_output@@AAE_N_W@Z 1005c6b5 f i libucrt:output.obj
 0001:0005b742       ?write_stored_string_tchar@?$output_processor@_WV?$string_output_adapter@_W@__crt_stdio_output@@V?$standard_base@_WV?$string_output_adapter@_W@__crt_stdio_output@@@2@@__crt_stdio_output@@AAE_N_W@Z 1005c742 f i libucrt:output.obj
 0001:0005b7cf       ?write_string@?$stream_output_adapter@D@__crt_stdio_output@@QBEXQBDHQAHAAV__crt_deferred_errno_cache@@@Z 1005c7cf f i libucrt:output.obj
 0001:0005b7fb       ?write_string@?$stream_output_adapter@_W@__crt_stdio_output@@QBEXQB_WHQAHAAV__crt_deferred_errno_cache@@@Z 1005c7fb f i libucrt:output.obj
 0001:0005b827       ?write_string@?$string_output_adapter@D@__crt_stdio_output@@QBEXQBDHQAHAAV__crt_deferred_errno_cache@@@Z 1005c827 f i libucrt:output.obj
 0001:0005b88e       ?write_string@?$string_output_adapter@_W@__crt_stdio_output@@QBEXQB_WHQAHAAV__crt_deferred_errno_cache@@@Z 1005c88e f i libucrt:output.obj
 0001:0005b8ff       ?write_string_impl@?$output_adapter_common@DV?$stream_output_adapter@D@__crt_stdio_output@@@__crt_stdio_output@@IBEXQBDHQAHAAV__crt_deferred_errno_cache@@@Z 1005c8ff f i libucrt:output.obj
 0001:0005b99d       ?write_string_impl@?$output_adapter_common@_WV?$stream_output_adapter@_W@__crt_stdio_output@@@__crt_stdio_output@@IBEXQB_WHQAHAAV__crt_deferred_errno_cache@@@Z 1005c99d f i libucrt:output.obj
 0001:0005ba3e       ___acrt_disable_global_locale_sync 1005ca3e f i libucrt:output.obj
 0001:0005ba51       ___acrt_enable_global_locale_sync 1005ca51 f i libucrt:output.obj
 0001:0005ba66       ___acrt_isleadbyte_l_noupdate 1005ca66 f i libucrt:output.obj
 0001:0005ba84       ___acrt_locale_changed     1005ca84 f i libucrt:output.obj
 0001:0005ba8f       ___acrt_locale_get_ctype_array_value 1005ca8f f i libucrt:output.obj
 0001:0005bab1       ___stdio_common_vfprintf   1005cab1 f   libucrt:output.obj
 0001:0005bb34       ___stdio_common_vfprintf_p 1005cb34 f   libucrt:output.obj
 0001:0005bbb7       ___stdio_common_vfprintf_s 1005cbb7 f   libucrt:output.obj
 0001:0005bc3a       ___stdio_common_vfwprintf  1005cc3a f   libucrt:output.obj
 0001:0005bcbd       ___stdio_common_vfwprintf_p 1005ccbd f   libucrt:output.obj
 0001:0005bd40       ___stdio_common_vfwprintf_s 1005cd40 f   libucrt:output.obj
 0001:0005bdc3       ___stdio_common_vsnprintf_s 1005cdc3 f   libucrt:output.obj
 0001:0005bdea       ___stdio_common_vsnwprintf_s 1005cdea f   libucrt:output.obj
 0001:0005be11       ___stdio_common_vsprintf   1005ce11 f   libucrt:output.obj
 0001:0005be35       ___stdio_common_vsprintf_p 1005ce35 f   libucrt:output.obj
 0001:0005be59       ___stdio_common_vsprintf_s 1005ce59 f   libucrt:output.obj
 0001:0005be7d       ___stdio_common_vswprintf  1005ce7d f   libucrt:output.obj
 0001:0005bea1       ___stdio_common_vswprintf_p 1005cea1 f   libucrt:output.obj
 0001:0005bec5       ___stdio_common_vswprintf_s 1005cec5 f   libucrt:output.obj
 0001:0005bee9       __ctype_fast_check_internal 1005cee9 f i libucrt:output.obj
 0001:0005bf03       __isdigit_fast_internal    1005cf03 f i libucrt:output.obj
 0001:0005bf1d       __tolower_fast_internal    1005cf1d f i libucrt:output.obj
 0001:0005bf90       _strcpy_s                  1005cf90 f   libucrt:strcpy_s.obj
 0001:0005bff0       _strcmp                    1005cff0 f   libucrt:strcmp.obj
 0001:0005c080       _strlen                    1005d080 f   libucrt:strlen.obj
 0001:0005c10b       ??0?$__crt_scoped_stack_ptr@D@@QAE@U?$__crt_scoped_stack_ptr_tag@D@@@Z 1005d10b f i libucrt:strlwr.obj
 0001:0005c11b       ??0?$__crt_scoped_stack_ptr_tag@D@@QAE@QAD@Z 1005d11b f i libucrt:strlwr.obj
 0001:0005c12b       ??1?$__crt_scoped_stack_ptr@D@@QAE@XZ 1005d12b f i libucrt:strlwr.obj
 0001:0005c134       ??B?$__crt_scoped_stack_ptr@D@@QBE_NXZ 1005d134 f i libucrt:strlwr.obj
 0001:0005c2a7       ?get@?$__crt_scoped_stack_ptr@D@@QBEPADXZ 1005d2a7 f i libucrt:strlwr.obj
 0001:0005c2aa       __MallocaComputeSize       1005d2aa f i libucrt:strlwr.obj
 0001:0005c2bd       __MarkAllocaS              1005d2bd f i libucrt:strlwr.obj
 0001:0005c2d3       __freea_crt                1005d2d3 f i libucrt:strlwr.obj
 0001:0005c2f3       __strlwr                   1005d2f3 f   libucrt:strlwr.obj
 0001:0005c34f       __strlwr_l                 1005d34f f   libucrt:strlwr.obj
 0001:0005c369       __strlwr_s                 1005d369 f   libucrt:strlwr.obj
 0001:0005c380       __strlwr_s_l               1005d380 f   libucrt:strlwr.obj
 0001:0005c8ab       ??$gmtime_s@ABQAUtm@@ABQBJ@?$__crt_integer_traits@J@@SAHABQAUtm@@ABQBJ@Z 1005d8ab f i libucrt:localtime.obj
 0001:0005c8c3       ??$gmtime_s@ABQAUtm@@ABQB_J@?$__crt_integer_traits@_J@@SAHABQAUtm@@ABQB_J@Z 1005d8c3 f i libucrt:localtime.obj
 0001:0005c8db       ??$gmtime_s@ABQAUtm@@PAJ@?$__crt_integer_traits@J@@SAHABQAUtm@@$$QAPAJ@Z 1005d8db f i libucrt:localtime.obj
 0001:0005c8f3       ??$gmtime_s@ABQAUtm@@PA_J@?$__crt_integer_traits@_J@@SAHABQAUtm@@$$QAPA_J@Z 1005d8f3 f i libucrt:localtime.obj
 0001:0005c90b       ??$localtime_s@ABQAUtm@@ABQBJ@?$__crt_integer_traits@J@@SAHABQAUtm@@ABQBJ@Z 1005d90b f i libucrt:localtime.obj
 0001:0005c924       ??$localtime_s@ABQAUtm@@ABQB_J@?$__crt_integer_traits@_J@@SAHABQAUtm@@ABQB_J@Z 1005d924 f i libucrt:localtime.obj
 0001:0005c93d       __invoke_watson_if_error   1005d93d f i libucrt:localtime.obj
 0001:0005c95f       __localtime32              1005d95f f   libucrt:localtime.obj
 0001:0005c986       __localtime32_s            1005d986 f   libucrt:localtime.obj
 0001:0005c991       __localtime64              1005d991 f   libucrt:localtime.obj
 0001:0005c9b8       __localtime64_s            1005d9b8 f   libucrt:localtime.obj
 0001:0005c9c3       ??$?R_W@__crt_internal_free_policy@@QBEXQB_W@Z 1005d9c3 f i libucrt:strftime.obj
 0001:0005cb4e       ??$__acrt_mbs_to_wcs_cp@U__crt_win32_buffer_internal_dynamic_resizing@@@@YAHQBDAAV?$__crt_win32_buffer@_WU__crt_win32_buffer_internal_dynamic_resizing@@@@I@Z 1005db4e f i libucrt:strftime.obj
 0001:0005cb6b       ??$__acrt_wcs_to_mbs_cp@U__crt_win32_buffer_no_resizing@@@@YAHQB_WAAV?$__crt_win32_buffer@DU__crt_win32_buffer_no_resizing@@@@I@Z 1005db6b f i libucrt:strftime.obj
 0001:0005cb88       ??0?$__crt_unique_heap_ptr@_WU__crt_internal_free_policy@@@@QAE@QA_W@Z 1005db88 f i libucrt:strftime.obj
 0001:0005cb98       ??0?$__crt_win32_buffer@DU__crt_win32_buffer_no_resizing@@@@QAE@QADI@Z 1005db98 f i libucrt:strftime.obj
 0001:0005cbbc       ??0?$__crt_win32_buffer@_WU__crt_win32_buffer_internal_dynamic_resizing@@@@QAE@XZ 1005dbbc f i libucrt:strftime.obj
 0001:0005cbd2       ??1?$__crt_unique_heap_ptr@_WU__crt_internal_free_policy@@@@QAE@XZ 1005dbd2 f i libucrt:strftime.obj
 0001:0005cbe4       ??1?$__crt_win32_buffer@DU__crt_win32_buffer_no_resizing@@@@QAE@XZ 1005dbe4 f i libucrt:strftime.obj
 0001:0005cbef       ??1?$__crt_win32_buffer@_WU__crt_win32_buffer_internal_dynamic_resizing@@@@QAE@XZ 1005dbef f i libucrt:strftime.obj
 0001:0005cc39       ?_deallocate@?$__crt_win32_buffer@DU__crt_win32_buffer_no_resizing@@@@AAEXXZ 1005dc39 f i libucrt:strftime.obj
 0001:0005cc44       ?_deallocate@?$__crt_win32_buffer@_WU__crt_win32_buffer_internal_dynamic_resizing@@@@AAEXXZ 1005dc44 f i libucrt:strftime.obj
 0001:0005cc5e       ?allocate@?$__crt_win32_buffer@DU__crt_win32_buffer_no_resizing@@@@QAEHI@Z 1005dc5e f i libucrt:strftime.obj
 0001:0005cc85       ?allocate@?$__crt_win32_buffer@_WU__crt_win32_buffer_internal_dynamic_resizing@@@@QAEHI@Z 1005dc85 f i libucrt:strftime.obj
 0001:0005ccc4       ?allocate@__crt_win32_buffer_internal_dynamic_resizing@@SAHQAPAXIABV__crt_win32_buffer_empty_debug_info@@@Z 1005dcc4 f i libucrt:strftime.obj
 0001:0005cce3       ?allocate@__crt_win32_buffer_no_resizing@@SAHQAPAXIABV__crt_win32_buffer_empty_debug_info@@@Z 1005dce3 f i libucrt:strftime.obj
 0001:0005ccf0       ?capacity@?$__crt_win32_buffer@DU__crt_win32_buffer_no_resizing@@@@QBEIXZ 1005dcf0 f i libucrt:strftime.obj
 0001:0005ccf4       ?capacity@?$__crt_win32_buffer@_WU__crt_win32_buffer_internal_dynamic_resizing@@@@QBEIXZ 1005dcf4 f i libucrt:strftime.obj
 0001:0005ccf8       ?data@?$__crt_win32_buffer@DU__crt_win32_buffer_no_resizing@@@@QAEPADXZ 1005dcf8 f i libucrt:strftime.obj
 0001:0005ccfc       ?data@?$__crt_win32_buffer@_WU__crt_win32_buffer_internal_dynamic_resizing@@@@QAEPA_WXZ 1005dcfc f i libucrt:strftime.obj
 0001:0005cd00       ?deallocate@__crt_win32_buffer_internal_dynamic_resizing@@SAXQAXABV__crt_win32_buffer_empty_debug_info@@@Z 1005dd00 f i libucrt:strftime.obj
 0001:0005cd10       ?deallocate@__crt_win32_buffer_no_resizing@@SAXQAXABV__crt_win32_buffer_empty_debug_info@@@Z 1005dd10 f i libucrt:strftime.obj
 0001:0005cd13       ?debug_info@?$__crt_win32_buffer@DU__crt_win32_buffer_no_resizing@@@@QBEABV__crt_win32_buffer_empty_debug_info@@XZ 1005dd13 f i libucrt:strftime.obj
 0001:0005cd16       ?debug_info@?$__crt_win32_buffer@_WU__crt_win32_buffer_internal_dynamic_resizing@@@@QBEABV__crt_win32_buffer_empty_debug_info@@XZ 1005dd16 f i libucrt:strftime.obj
 0001:0005cd19       ?detach@?$__crt_unique_heap_ptr@DU__crt_internal_free_policy@@@@QAEPADXZ 1005dd19 f i libucrt:strftime.obj
 0001:0005cd1f       ?get@?$__crt_unique_heap_ptr@_WU__crt_internal_free_policy@@@@QBEPA_WXZ 1005dd1f f i libucrt:strftime.obj
 0001:0005cd22       ?release@?$__crt_unique_heap_ptr@_WU__crt_internal_free_policy@@@@QAEXXZ 1005dd22 f i libucrt:strftime.obj
 0001:0005cd34       ?set_to_nullptr@?$__crt_win32_buffer@DU__crt_win32_buffer_no_resizing@@@@QAEXXZ 1005dd34 f i libucrt:strftime.obj
 0001:0005cd48       ?set_to_nullptr@?$__crt_win32_buffer@_WU__crt_win32_buffer_internal_dynamic_resizing@@@@QAEXXZ 1005dd48 f i libucrt:strftime.obj
 0001:0005cd5f       ?size@?$__crt_win32_buffer@DU__crt_win32_buffer_no_resizing@@@@QAEXI@Z 1005dd5f f i libucrt:strftime.obj
 0001:0005cd6e       ?size@?$__crt_win32_buffer@DU__crt_win32_buffer_no_resizing@@@@QBEIXZ 1005dd6e f i libucrt:strftime.obj
 0001:0005cd72       ?size@?$__crt_win32_buffer@_WU__crt_win32_buffer_internal_dynamic_resizing@@@@QAEXI@Z 1005dd72 f i libucrt:strftime.obj
 0001:0005cd81       __Getdays                  1005dd81 f   libucrt:strftime.obj
 0001:0005cd8a       __Getdays_l                1005dd8a f   libucrt:strftime.obj
 0001:0005ce90       __Getmonths                1005de90 f   libucrt:strftime.obj
 0001:0005ce99       __Getmonths_l              1005de99 f   libucrt:strftime.obj
 0001:0005cfad       __Gettnames                1005dfad f   libucrt:strftime.obj
 0001:0005cfb2       __Strftime                 1005dfb2 f   libucrt:strftime.obj
 0001:0005cfd2       __Strftime_l               1005dfd2 f   libucrt:strftime.obj
 0001:0005d0cf       __strftime_l               1005e0cf f   libucrt:strftime.obj
 0001:0005d0ef       _strftime                  1005e0ef f   libucrt:strftime.obj
 0001:0005d3fd       __time32                   1005e3fd f   libucrt:time.obj
 0001:0005d456       __time64                   1005e456 f   libucrt:time.obj
 0001:0005d4b4       __timespec32_get           1005e4b4 f   libucrt:time.obj
 0001:0005d4bf       __timespec64_get           1005e4bf f   libucrt:time.obj
 0001:0005d4ca       ___acrt_errno_from_os_error 1005e4ca f   libucrt:errno.obj
 0001:0005d50d       ___acrt_errno_map_os_error 1005e50d f   libucrt:errno.obj
 0001:0005d530       ___doserrno                1005e530 f   libucrt:errno.obj
 0001:0005d543       __errno                    1005e543 f   libucrt:errno.obj
 0001:0005d556       __get_doserrno             1005e556 f   libucrt:errno.obj
 0001:0005d57b       __get_errno                1005e57b f   libucrt:errno.obj
 0001:0005d5a0       __set_doserrno             1005e5a0 f   libucrt:errno.obj
 0001:0005d5c1       __set_errno                1005e5c1 f   libucrt:errno.obj
 0001:0005d5e2       ??$is_overflow_condition@K@__crt_strtox@@YA_NIK@Z 1005e5e2 f i libucrt:atox.obj
 0001:0005d613       ??$is_overflow_condition@_K@__crt_strtox@@YA_NI_K@Z 1005e613 f i libucrt:atox.obj
 0001:0005d654       ??$make_c_string_character_source@D$$T@__crt_strtox@@YA?AV?$c_string_character_source@D@0@QBD$$T@Z 1005e654 f i libucrt:atox.obj
 0001:0005d66f       ??$make_c_string_character_source@_W$$T@__crt_strtox@@YA?AV?$c_string_character_source@_W@0@QB_W$$T@Z 1005e66f f i libucrt:atox.obj
 0001:0005d68a       ??$parse_integer@KV?$c_string_character_source@D@__crt_strtox@@@__crt_strtox@@YAKQAU__crt_locale_pointers@@V?$c_string_character_source@D@0@H_N@Z 1005e68a f i libucrt:atox.obj
 0001:0005d8ad       ??$parse_integer@KV?$c_string_character_source@_W@__crt_strtox@@@__crt_strtox@@YAKQAU__crt_locale_pointers@@V?$c_string_character_source@_W@0@H_N@Z 1005e8ad f i libucrt:atox.obj
 0001:0005deb5       ??$parse_integer@_KV?$c_string_character_source@D@__crt_strtox@@@__crt_strtox@@YA_KQAU__crt_locale_pointers@@V?$c_string_character_source@D@0@H_N@Z 1005eeb5 f i libucrt:atox.obj
 0001:0005e15b       ??$parse_integer@_KV?$c_string_character_source@_W@__crt_strtox@@@__crt_strtox@@YA_KQAU__crt_locale_pointers@@V?$c_string_character_source@_W@0@H_N@Z 1005f15b f i libucrt:atox.obj
 0001:0005e82c       ??$parse_integer_from_string@JD$$T@__crt_strtox@@YAJQBD$$THQAU__crt_locale_pointers@@@Z 1005f82c f i libucrt:atox.obj
 0001:0005e857       ??$parse_integer_from_string@J_W$$T@__crt_strtox@@YAJQB_W$$THQAU__crt_locale_pointers@@@Z 1005f857 f i libucrt:atox.obj
 0001:0005e882       ??$parse_integer_from_string@_JD$$T@__crt_strtox@@YA_JQBD$$THQAU__crt_locale_pointers@@@Z 1005f882 f i libucrt:atox.obj
 0001:0005e8ad       ??$parse_integer_from_string@_J_W$$T@__crt_strtox@@YA_JQB_W$$THQAU__crt_locale_pointers@@@Z 1005f8ad f i libucrt:atox.obj
 0001:0005e8d8       ??0?$c_string_character_source@D@__crt_strtox@@QAE@QBDQAPBD@Z 1005f8d8 f i libucrt:atox.obj
 0001:0005e8f4       ??0?$c_string_character_source@_W@__crt_strtox@@QAE@QB_WQAPB_W@Z 1005f8f4 f i libucrt:atox.obj
 0001:0005e910       ??1?$c_string_character_source@D@__crt_strtox@@QAE@XZ 1005f910 f i libucrt:atox.obj
 0001:0005e91c       ??1?$c_string_character_source@_W@__crt_strtox@@QAE@XZ 1005f91c f i libucrt:atox.obj
 0001:0005e928       ?get@?$c_string_character_source@D@__crt_strtox@@QAEDXZ 1005f928 f i libucrt:atox.obj
 0001:0005e930       ?get@?$c_string_character_source@_W@__crt_strtox@@QAE_WXZ 1005f930 f i libucrt:atox.obj
 0001:0005e93b       ?is_space@__crt_strtox@@YA_NDQAU__crt_locale_pointers@@@Z 1005f93b f i libucrt:atox.obj
 0001:0005e959       ?is_space@__crt_strtox@@YA_N_WPAU__crt_locale_pointers@@@Z 1005f959 f i libucrt:atox.obj
 0001:0005e971       ?maximum_signed_value@__crt_strtox@@YAJK@Z 1005f971 f i libucrt:atox.obj
 0001:0005e977       ?maximum_signed_value@__crt_strtox@@YA_J_K@Z 1005f977 f i libucrt:atox.obj
 0001:0005e980       ?minimum_signed_value@__crt_strtox@@YAJK@Z 1005f980 f i libucrt:atox.obj
 0001:0005e986       ?minimum_signed_value@__crt_strtox@@YA_J_K@Z 1005f986 f i libucrt:atox.obj
 0001:0005e98e       ?parse_digit@__crt_strtox@@YAID@Z 1005f98e f i libucrt:atox.obj
 0001:0005e9c8       ?parse_digit@__crt_strtox@@YAI_W@Z 1005f9c8 f i libucrt:atox.obj
 0001:0005eba7       ?restore_state@?$c_string_character_source@D@__crt_strtox@@QAE_NQBD@Z 1005fba7 f i libucrt:atox.obj
 0001:0005ebb7       ?restore_state@?$c_string_character_source@_W@__crt_strtox@@QAE_NQB_W@Z 1005fbb7 f i libucrt:atox.obj
 0001:0005ebc7       ?save_state@?$c_string_character_source@D@__crt_strtox@@QBEPBDXZ 1005fbc7 f i libucrt:atox.obj
 0001:0005ebca       ?save_state@?$c_string_character_source@_W@__crt_strtox@@QBEPB_WXZ 1005fbca f i libucrt:atox.obj
 0001:0005ebcd       ?unget@?$c_string_character_source@D@__crt_strtox@@QAEXD@Z 1005fbcd f i libucrt:atox.obj
 0001:0005ebf6       ?unget@?$c_string_character_source@_W@__crt_strtox@@QAEX_W@Z 1005fbf6 f i libucrt:atox.obj
 0001:0005ec24       ?validate@?$c_string_character_source@D@__crt_strtox@@QBE_NXZ 1005fc24 f i libucrt:atox.obj
 0001:0005ec3f       ?validate@?$c_string_character_source@_W@__crt_strtox@@QBE_NXZ 1005fc3f f i libucrt:atox.obj
 0001:0005ec5a       ?wide_character_to_digit@__crt_strtox@@YAH_W@Z 1005fc5a f i libucrt:atox.obj
 0001:0005edfb       ___acrt_get_locale_data_prefix 1005fdfb f i libucrt:atox.obj
 0001:0005ee07       ___ascii_iswalpha          1005fe07 f i libucrt:atox.obj
 0001:0005ee2a       ___ascii_toupper           1005fe2a f i libucrt:atox.obj
 0001:0005ee41       ___ascii_towupper          1005fe41 f i libucrt:atox.obj
 0001:0005ee58       __atoi64                   1005fe58 f   libucrt:atox.obj
 0001:0005ee7b       __atoi64_l                 1005fe7b f   libucrt:atox.obj
 0001:0005ee9f       __atoi_l                   1005fe9f f   libucrt:atox.obj
 0001:0005eec3       __atol_l                   1005fec3 f   libucrt:atox.obj
 0001:0005eee7       __atoll_l                  1005fee7 f   libucrt:atox.obj
 0001:0005ef0b       __chvalidchk_l             1005ff0b f i libucrt:atox.obj
 0001:0005ef33       __ischartype_l             1005ff33 f i libucrt:atox.obj
 0001:0005ef87       __wtoi                     1005ff87 f   libucrt:atox.obj
 0001:0005efaa       __wtoi64                   1005ffaa f   libucrt:atox.obj
 0001:0005efcd       __wtoi64_l                 1005ffcd f   libucrt:atox.obj
 0001:0005eff1       __wtoi_l                   1005fff1 f   libucrt:atox.obj
 0001:0005f015       __wtol                     10060015 f   libucrt:atox.obj
 0001:0005f038       __wtol_l                   10060038 f   libucrt:atox.obj
 0001:0005f05c       __wtoll                    1006005c f   libucrt:atox.obj
 0001:0005f07f       __wtoll_l                  1006007f f   libucrt:atox.obj
 0001:0005f0a3       _atoi                      100600a3 f   libucrt:atox.obj
 0001:0005f0c6       _atol                      100600c6 f   libucrt:atox.obj
 0001:0005f0e9       _atoll                     100600e9 f   libucrt:atox.obj
 0001:0005f175       _strcat_s                  10060175 f   libucrt:strcat_s.obj
 0001:0005f1e0       _strncmp                   100601e0 f   libucrt:strncmp.obj
 0001:0005f3c4       __strupr                   100603c4 f   libucrt:strupr.obj
 0001:0005f420       __strupr_l                 10060420 f   libucrt:strupr.obj
 0001:0005f43a       __strupr_s                 1006043a f   libucrt:strupr.obj
 0001:0005f451       __strupr_s_l               10060451 f   libucrt:strupr.obj
 0001:0005f488       ??$make_c_string_character_source@DPAPAD@__crt_strtox@@YA?AV?$c_string_character_source@D@0@QBDQAPAD@Z 10060488 f i libucrt:strtox.obj
 0001:0005f4a3       ??$make_c_string_character_source@_WPAPA_W@__crt_strtox@@YA?AV?$c_string_character_source@_W@0@QB_WQAPA_W@Z 100604a3 f i libucrt:strtox.obj
 0001:0005f4be       ??$parse_integer_from_string@JDPAPAD@__crt_strtox@@YAJQBDQAPADHQAU__crt_locale_pointers@@@Z 100604be f i libucrt:strtox.obj
 0001:0005f4e9       ??$parse_integer_from_string@J_WPAPA_W@__crt_strtox@@YAJQB_WQAPA_WHQAU__crt_locale_pointers@@@Z 100604e9 f i libucrt:strtox.obj
 0001:0005f514       ??$parse_integer_from_string@KDPAPAD@__crt_strtox@@YAKQBDQAPADHQAU__crt_locale_pointers@@@Z 10060514 f i libucrt:strtox.obj
 0001:0005f53f       ??$parse_integer_from_string@K_WPAPA_W@__crt_strtox@@YAKQB_WQAPA_WHQAU__crt_locale_pointers@@@Z 1006053f f i libucrt:strtox.obj
 0001:0005f56a       ??$parse_integer_from_string@_JDPAPAD@__crt_strtox@@YA_JQBDQAPADHQAU__crt_locale_pointers@@@Z 1006056a f i libucrt:strtox.obj
 0001:0005f595       ??$parse_integer_from_string@_J_WPAPA_W@__crt_strtox@@YA_JQB_WQAPA_WHQAU__crt_locale_pointers@@@Z 10060595 f i libucrt:strtox.obj
 0001:0005f5c0       ??$parse_integer_from_string@_KDPAPAD@__crt_strtox@@YA_KQBDQAPADHQAU__crt_locale_pointers@@@Z 100605c0 f i libucrt:strtox.obj
 0001:0005f5eb       ??$parse_integer_from_string@_K_WPAPA_W@__crt_strtox@@YA_KQB_WQAPA_WHQAU__crt_locale_pointers@@@Z 100605eb f i libucrt:strtox.obj
 0001:0005f616       __strtoi64                 10060616 f   libucrt:strtox.obj
 0001:0005f640       __strtoi64_l               10060640 f   libucrt:strtox.obj
 0001:0005f66b       __strtoimax_l              1006066b f   libucrt:strtox.obj
 0001:0005f696       __strtol_l                 10060696 f   libucrt:strtox.obj
 0001:0005f6c1       __strtoll_l                100606c1 f   libucrt:strtox.obj
 0001:0005f6ec       __strtoui64                100606ec f   libucrt:strtox.obj
 0001:0005f716       __strtoui64_l              10060716 f   libucrt:strtox.obj
 0001:0005f741       __strtoul_l                10060741 f   libucrt:strtox.obj
 0001:0005f76c       __strtoull_l               1006076c f   libucrt:strtox.obj
 0001:0005f797       __strtoumax_l              10060797 f   libucrt:strtox.obj
 0001:0005f7c2       __wcstoi64                 100607c2 f   libucrt:strtox.obj
 0001:0005f7ec       __wcstoi64_l               100607ec f   libucrt:strtox.obj
 0001:0005f817       __wcstoimax_l              10060817 f   libucrt:strtox.obj
 0001:0005f842       __wcstol_l                 10060842 f   libucrt:strtox.obj
 0001:0005f86d       __wcstoll_l                1006086d f   libucrt:strtox.obj
 0001:0005f898       __wcstoui64                10060898 f   libucrt:strtox.obj
 0001:0005f8c2       __wcstoui64_l              100608c2 f   libucrt:strtox.obj
 0001:0005f8ed       __wcstoul_l                100608ed f   libucrt:strtox.obj
 0001:0005f918       __wcstoull_l               10060918 f   libucrt:strtox.obj
 0001:0005f943       __wcstoumax_l              10060943 f   libucrt:strtox.obj
 0001:0005f96e       _strtoimax                 1006096e f   libucrt:strtox.obj
 0001:0005f998       _strtol                    10060998 f   libucrt:strtox.obj
 0001:0005f9c2       _strtoll                   100609c2 f   libucrt:strtox.obj
 0001:0005f9ec       _strtoul                   100609ec f   libucrt:strtox.obj
 0001:0005fa16       _strtoull                  10060a16 f   libucrt:strtox.obj
 0001:0005fa40       _strtoumax                 10060a40 f   libucrt:strtox.obj
 0001:0005fa6a       _wcstoimax                 10060a6a f   libucrt:strtox.obj
 0001:0005fa94       _wcstol                    10060a94 f   libucrt:strtox.obj
 0001:0005fabe       _wcstoll                   10060abe f   libucrt:strtox.obj
 0001:0005fae8       _wcstoul                   10060ae8 f   libucrt:strtox.obj
 0001:0005fb12       _wcstoull                  10060b12 f   libucrt:strtox.obj
 0001:0005fb3c       _wcstoumax                 10060b3c f   libucrt:strtox.obj
 0001:0006057b       ??$tcsncpy_s@AAPADIAAPBDABI@?$__crt_char_traits@D@@SAHAAPAD$$QAIAAPBDABI@Z 1006157b f i libucrt:splitpath.obj
 0001:0006059e       ??$tcsncpy_s@AAPADIAAPBDH@?$__crt_char_traits@D@@SAHAAPAD$$QAIAAPBD$$QAH@Z 1006159e f i libucrt:splitpath.obj
 0001:000605c1       ??$tcsncpy_s@AAPA_WIAAPB_WABI@?$__crt_char_traits@_W@@SAHAAPA_W$$QAIAAPB_WABI@Z 100615c1 f i libucrt:splitpath.obj
 0001:000605e4       ??$tcsncpy_s@AAPA_WIAAPB_WH@?$__crt_char_traits@_W@@SAHAAPA_W$$QAIAAPB_W$$QAH@Z 100615e4 f i libucrt:splitpath.obj
 0001:000606a1       __splitpath                100616a1 f   libucrt:splitpath.obj
 0001:0006070a       __splitpath_s              1006170a f   libucrt:splitpath.obj
 0001:00060761       __wsplitpath               10061761 f   libucrt:splitpath.obj
 0001:000607ca       __wsplitpath_s             100617ca f   libucrt:splitpath.obj
 0001:0006101c       ??1?$__crt_simd_cleanup_guard@$00@@QAE@XZ 1006201c f i libucrt:strnlen.obj
 0001:00061020       ??1?$__crt_simd_cleanup_guard@$0A@@@QAE@XZ 10062020 f i libucrt:strnlen.obj
 0001:00061023       ?compare_equals@?$__crt_simd_traits@$00E@@SA?AT__m256i@@T2@0@Z 10062023 f i libucrt:strnlen.obj
 0001:00061028       ?compare_equals@?$__crt_simd_traits@$00G@@SA?AT__m256i@@T2@0@Z 10062028 f i libucrt:strnlen.obj
 0001:0006102d       ?compare_equals@?$__crt_simd_traits@$0A@E@@SA?AT__m128i@@T2@0@Z 1006202d f i libucrt:strnlen.obj
 0001:00061032       ?compare_equals@?$__crt_simd_traits@$0A@G@@SA?AT__m128i@@T2@0@Z 10062032 f i libucrt:strnlen.obj
 0001:00061037       ?compute_byte_mask@?$__crt_simd_pack_traits@$00@@SAHT__m256i@@@Z 10062037 f i libucrt:strnlen.obj
 0001:0006103c       ?compute_byte_mask@?$__crt_simd_pack_traits@$0A@@@SAHT__m128i@@@Z 1006203c f i libucrt:strnlen.obj
 0001:00061041       ?get_zero_pack@?$__crt_simd_pack_traits@$00@@SA?AT__m256i@@XZ 10062041 f i libucrt:strnlen.obj
 0001:00061046       ?get_zero_pack@?$__crt_simd_pack_traits@$0A@@@SA?AT__m128i@@XZ 10062046 f i libucrt:strnlen.obj
 0001:0006104a       _strnlen                   1006204a f   libucrt:strnlen.obj
 0001:0006116c       _wcslen                    1006216c f   libucrt:strnlen.obj
 0001:00061294       _wcsnlen                   10062294 f   libucrt:strnlen.obj
 0001:00061444       __abs64                    10062444 f   libucrt:abs.obj
 0001:0006145e       _abs                       1006245e f   libucrt:abs.obj
 0001:00061470       _cos                       10062470 f   libucrt:cos.obj
 0001:000614c0       _sin                       100624c0 f   libucrt:sin.obj
 0001:00061503       ??$?B$$A6AHI@Z@__crt_fast_encoded_nullptr_t@@QBEP6AHI@ZXZ 10062503 f i libucrt:new_handler.obj
 0001:00061509       ??$__crt_fast_decode_pointer@P6AHI@Z@@YAP6AHI@ZQ6AHI@Z@Z 10062509 f i libucrt:new_handler.obj
 0001:0006151f       ??$__crt_fast_encode_pointer@P6AHI@Z@@YAP6AHI@ZQ6AHI@Z@Z 1006251f f i libucrt:new_handler.obj
 0001:0006153e       ?__crt_fast_encode_pointer@@YA?AU__crt_fast_encoded_nullptr_t@@$$T@Z 1006253e f i libucrt:new_handler.obj
 0001:00061549       ?_set_new_handler@@YAP6AHI@ZH@Z 10062549 f   libucrt:new_handler.obj
 0001:00061556       ?initialize@?$dual_state_global@P6AHI@Z@__crt_state_management@@QAEXQ6AHI@Z@Z 10062556 f i libucrt:new_handler.obj
 0001:0006157c       ?value@?$dual_state_global@P6AHI@Z@__crt_state_management@@QAEAAP6AHI@ZXZ 1006257c f i libucrt:new_handler.obj
 0001:0006157f       ___acrt_initialize_new_handler 1006257f f   libucrt:new_handler.obj
 0001:0006158e       __callnewh                 1006258e f   libucrt:new_handler.obj
 0001:000615bb       __query_new_handler        100625bb f   libucrt:new_handler.obj
 0001:00061617       __set_new_handler          10062617 f   libucrt:new_handler.obj
 0001:00061681       ___ascii_stricmp           10062681 f   libucrt:stricmp.obj
 0001:000616ba       ___ascii_tolower           100626ba f i libucrt:stricmp.obj
 0001:000616d1       __strcmpi                  100626d1 f   libucrt:stricmp.obj
 0001:000616d1       __stricmp                  100626d1 f   libucrt:stricmp.obj
 0001:0006171a       __stricmp_l                1006271a f   libucrt:stricmp.obj
 0001:000617a8       __errcode                  100627a8 f   libucrt:fpexcept.obj
 0001:000617dc       __except1                  100627dc f   libucrt:fpexcept.obj
 0001:000618aa       __except2                  100628aa f   libucrt:fpexcept.obj
 0001:000619b2       __handle_exc               100629b2 f   libucrt:fpexcept.obj
 0001:00061b9d       __handle_qnan2             10062b9d f   libucrt:fpexcept.obj
 0001:00061baa       __raise_exc                10062baa f   libucrt:fpexcept.obj
 0001:00061bcd       __raise_exc_ex             10062bcd f   libucrt:fpexcept.obj
 0001:00061ec3       __raise_excf               10062ec3 f   libucrt:fpexcept.obj
 0001:00061ee6       __set_errno_from_matherr   10062ee6 f   libucrt:fpexcept.obj
 0001:00061f15       __umatherr                 10062f15 f   libucrt:fpexcept.obj
 0001:00061fcb       __get_terminate            10062fcb f   libucrt:terminate.obj
 0001:00061fdd       _set_terminate             10062fdd f   libucrt:terminate.obj
 0001:00061ffd       _terminate                 10062ffd f   libucrt:terminate.obj
 0001:00062039       __initterm                 10063039 f   libucrt:initterm.obj
 0001:0006207e       __initterm_e               1006307e f   libucrt:initterm.obj
 0001:000620d0       __seh_filter_dll           100630d0 f   libucrt:exception_filter.obj
 0001:000620f0       __seh_filter_exe           100630f0 f   libucrt:exception_filter.obj
 0001:00062248       ??$?B$$A6GXPAXK0@Z@__crt_fast_encoded_nullptr_t@@QBEP6GXPAXK0@ZXZ 10063248 f i libucrt:exit.obj
 0001:000622c1       ??$__crt_fast_decode_pointer@P6GXPAXK0@Z@@YAP6GXPAXK0@ZQ6GX0K0@Z@Z 100632c1 f i libucrt:exit.obj
 0001:000622d7       ??$__crt_fast_encode_pointer@P6GXPAXK0@Z@@YAP6GXPAXK0@ZQ6GX0K0@Z@Z 100632d7 f i libucrt:exit.obj
 0001:000622f6       ??$__crt_get_proc_address@P6GXI@Z@@YAP6GXI@ZQAUHINSTANCE__@@QBD@Z 100632f6 f i libucrt:exit.obj
 0001:00062349       ??0?$__crt_unique_handle_t@U__crt_hmodule_traits@@@@QAE@QAUHINSTANCE__@@@Z 10063349 f i libucrt:exit.obj
 0001:00062359       ??1?$__crt_unique_handle_t@U__crt_hmodule_traits@@@@QAE@XZ 10063359 f i libucrt:exit.obj
 0001:0006245c       ?__acrt_select_exit_lock@@YA?AW4__acrt_lock_id@@XZ 1006345c f i libucrt:exit.obj
 0001:00062473       ?close@?$__crt_unique_handle_t@U__crt_hmodule_traits@@@@QAEXXZ 10063473 f i libucrt:exit.obj
 0001:0006248a       ?close@__crt_hmodule_traits@@SA_NPAUHINSTANCE__@@@Z 1006348a f i libucrt:exit.obj
 0001:00062545       ?get@?$__crt_unique_handle_t@U__crt_hmodule_traits@@@@QBEPAUHINSTANCE__@@XZ 10063545 f i libucrt:exit.obj
 0001:00062548       ?get_address_of@?$__crt_unique_handle_t@U__crt_hmodule_traits@@@@QAEPAPAUHINSTANCE__@@XZ 10063548 f i libucrt:exit.obj
 0001:0006254b       ?get_invalid_value@__crt_hmodule_traits@@SAPAUHINSTANCE__@@XZ 1006354b f i libucrt:exit.obj
 0001:00062606       __Exit                     10063606 f   libucrt:exit.obj
 0001:0006261c       ___acrt_initialize_thread_local_exit_callback 1006361c f   libucrt:exit.obj
 0001:0006262b       __c_exit                   1006362b f   libucrt:exit.obj
 0001:0006263a       __cexit                    1006363a f   libucrt:exit.obj
 0001:00062649       __exit                     10063649 f   libucrt:exit.obj
 0001:0006265f       __is_c_termination_complete 1006365f f   libucrt:exit.obj
 0001:00062666       __register_thread_local_exe_atexit_callback 10063666 f   libucrt:exit.obj
 0001:0006268c       _exit                      1006368c f   libucrt:exit.obj
 0001:000626a2       _quick_exit                100636a2 f   libucrt:exit.obj
 0001:000626b8       ??$?RE@__crt_internal_free_policy@@QBEXQBE@Z 100636b8 f i libucrt:argv_parsing.obj
 0001:000626ca       ??$?RPAD@__crt_internal_free_policy@@QBEXQBQAD@Z 100636ca f i libucrt:argv_parsing.obj
 0001:000626dc       ??$?RPA_W@__crt_internal_free_policy@@QBEXQBQA_W@Z 100636dc f i libucrt:argv_parsing.obj
 0001:00062953       ??$get_module_file_name@$$TAAY0BAF@DH@?$__crt_char_traits@D@@SAK$$QA$$TAAY0BAF@D$$QAH@Z 10063953 f i libucrt:argv_parsing.obj
 0001:0006296f       ??$get_module_file_name@$$TAAY0BAF@_WH@?$__crt_char_traits@_W@@SAK$$QA$$TAAY0BAF@_W$$QAH@Z 1006396f f i libucrt:argv_parsing.obj
 0001:00062c91       ??$set_program_name@PAD@?$__crt_char_traits@D@@SAX$$QAPAD@Z 10063c91 f i libucrt:argv_parsing.obj
 0001:00062ca2       ??$set_program_name@PA_W@?$__crt_char_traits@_W@@SAX$$QAPA_W@Z 10063ca2 f i libucrt:argv_parsing.obj
 0001:00062cd3       ??0?$__crt_unique_heap_ptr@EU__crt_internal_free_policy@@@@QAE@QAE@Z 10063cd3 f i libucrt:argv_parsing.obj
 0001:00062ce3       ??0?$__crt_unique_heap_ptr@PADU__crt_internal_free_policy@@@@QAE@QAPAD@Z 10063ce3 f i libucrt:argv_parsing.obj
 0001:00062cf3       ??0?$__crt_unique_heap_ptr@PA_WU__crt_internal_free_policy@@@@QAE@QAPA_W@Z 10063cf3 f i libucrt:argv_parsing.obj
 0001:00062d03       ??1?$__crt_unique_heap_ptr@EU__crt_internal_free_policy@@@@QAE@XZ 10063d03 f i libucrt:argv_parsing.obj
 0001:00062d15       ??1?$__crt_unique_heap_ptr@PADU__crt_internal_free_policy@@@@QAE@XZ 10063d15 f i libucrt:argv_parsing.obj
 0001:00062d27       ??1?$__crt_unique_heap_ptr@PA_WU__crt_internal_free_policy@@@@QAE@XZ 10063d27 f i libucrt:argv_parsing.obj
 0001:00062d39       ??B?$__crt_unique_heap_ptr@EU__crt_internal_free_policy@@@@QBE_NXZ 10063d39 f i libucrt:argv_parsing.obj
 0001:00062d6c       ?detach@?$__crt_unique_heap_ptr@EU__crt_internal_free_policy@@@@QAEPAEXZ 10063d6c f i libucrt:argv_parsing.obj
 0001:00062d72       ?detach@?$__crt_unique_heap_ptr@PADU__crt_internal_free_policy@@@@QAEPAPADXZ 10063d72 f i libucrt:argv_parsing.obj
 0001:00062d78       ?detach@?$__crt_unique_heap_ptr@PA_WU__crt_internal_free_policy@@@@QAEPAPA_WXZ 10063d78 f i libucrt:argv_parsing.obj
 0001:00062d9c       ?get@?$__crt_unique_heap_ptr@EU__crt_internal_free_policy@@@@QBEPAEXZ 10063d9c f i libucrt:argv_parsing.obj
 0001:00062d9f       ?get@?$__crt_unique_heap_ptr@PADU__crt_internal_free_policy@@@@QBEPAPADXZ 10063d9f f i libucrt:argv_parsing.obj
 0001:00062da2       ?get@?$__crt_unique_heap_ptr@PA_WU__crt_internal_free_policy@@@@QBEPAPA_WXZ 10063da2 f i libucrt:argv_parsing.obj
 0001:00062da5       ?get_address_of@?$__crt_unique_heap_ptr@PADU__crt_internal_free_policy@@@@QAEPAPAPADXZ 10063da5 f i libucrt:argv_parsing.obj
 0001:00062da8       ?get_address_of@?$__crt_unique_heap_ptr@PA_WU__crt_internal_free_policy@@@@QAEPAPAPA_WXZ 10063da8 f i libucrt:argv_parsing.obj
 0001:00062dc3       ?is_valid@?$__crt_unique_heap_ptr@EU__crt_internal_free_policy@@@@QBE_NXZ 10063dc3 f i libucrt:argv_parsing.obj
 0001:00062dca       ?release@?$__crt_unique_heap_ptr@EU__crt_internal_free_policy@@@@QAEXXZ 10063dca f i libucrt:argv_parsing.obj
 0001:00062ddc       ?release@?$__crt_unique_heap_ptr@PADU__crt_internal_free_policy@@@@QAEXXZ 10063ddc f i libucrt:argv_parsing.obj
 0001:00062dee       ?release@?$__crt_unique_heap_ptr@PA_WU__crt_internal_free_policy@@@@QAEXXZ 10063dee f i libucrt:argv_parsing.obj
 0001:00062e1a       ___acrt_allocate_buffer_for_argv 10063e1a f   libucrt:argv_parsing.obj
 0001:00062e69       __configure_narrow_argv    10063e69 f   libucrt:argv_parsing.obj
 0001:00062e74       __configure_wide_argv      10063e74 f   libucrt:argv_parsing.obj
 0001:00062e7f       __set_pgmptr               10063e7f f i libucrt:argv_parsing.obj
 0001:00062e8e       __set_wpgmptr              10063e8e f i libucrt:argv_parsing.obj
 0001:00063276       ??$get_environment_from_os@$$V@?$__crt_char_traits@D@@SAPADXZ 10064276 f i libucrt:environment_initialization.obj
 0001:0006327b       ??$get_environment_from_os@$$V@?$__crt_char_traits@_W@@SAPA_WXZ 1006427b f i libucrt:environment_initialization.obj
 0001:00063380       ??$set_variable_in_environment_nolock@PADH@?$__crt_char_traits@D@@SAH$$QAPAD$$QAH@Z 10064380 f i libucrt:environment_initialization.obj
 0001:00063398       ??$set_variable_in_environment_nolock@PA_WH@?$__crt_char_traits@_W@@SAH$$QAPA_W$$QAH@Z 10064398 f i libucrt:environment_initialization.obj
 0001:000633b0       ??$tcscpy_s@PADABIAAPAD@?$__crt_char_traits@D@@SAH$$QAPADABIAAPAD@Z 100643b0 f i libucrt:environment_initialization.obj
 0001:000633ce       ??$tcscpy_s@PA_WABIAAPA_W@?$__crt_char_traits@_W@@SAH$$QAPA_WABIAAPA_W@Z 100643ce f i libucrt:environment_initialization.obj
 0001:000633ec       ??$tcslen@AAPAD@?$__crt_char_traits@D@@SAIAAPAD@Z 100643ec f i libucrt:environment_initialization.obj
 0001:00063404       ??$tcslen@AAPA_W@?$__crt_char_traits@_W@@SAIAAPA_W@Z 10064404 f i libucrt:environment_initialization.obj
 0001:00063422       ??$uninitialize@A6AXAAPAPAD@Z@?$dual_state_global@PAPAD@__crt_state_management@@QAEXA6AXAAPAPAD@Z@Z 10064422 f i libucrt:environment_initialization.obj
 0001:0006344b       ??$uninitialize@A6AXAAPAPA_W@Z@?$dual_state_global@PAPA_W@__crt_state_management@@QAEXA6AXAAPAPA_W@Z@Z 1006444b f i libucrt:environment_initialization.obj
 0001:000634aa       ??B?$__crt_unique_heap_ptr@PADU__crt_internal_free_policy@@@@QBE_NXZ 100644aa f i libucrt:environment_initialization.obj
 0001:000634b1       ??B?$__crt_unique_heap_ptr@PA_WU__crt_internal_free_policy@@@@QBE_NXZ 100644b1 f i libucrt:environment_initialization.obj
 0001:000634b8       ??B?$__crt_unique_heap_ptr@_WU__crt_internal_free_policy@@@@QBE_NXZ 100644b8 f i libucrt:environment_initialization.obj
 0001:000634bf       ?__crt_compute_required_transform_buffer_count@@YAIIQBD@Z 100644bf f i libucrt:environment_initialization.obj
 0001:000634db       ?__crt_compute_required_transform_buffer_count@@YAIIQB_W@Z 100644db f i libucrt:environment_initialization.obj
 0001:000634f9       ?__crt_transform_string@@YAIIQBDQA_WI@Z 100644f9 f i libucrt:environment_initialization.obj
 0001:00063518       ?__crt_transform_string@@YAIIQB_WQADI@Z 10064518 f i libucrt:environment_initialization.obj
 0001:0006353a       ?detach@?$__crt_unique_heap_ptr@_WU__crt_internal_free_policy@@@@QAEPA_WXZ 1006453a f i libucrt:environment_initialization.obj
 0001:00063564       ?initialize@?$dual_state_global@PAPAD@__crt_state_management@@QAEXQAPAD@Z 10064564 f i libucrt:environment_initialization.obj
 0001:0006358a       ?initialize@?$dual_state_global@PAPA_W@__crt_state_management@@QAEXQAPA_W@Z 1006458a f i libucrt:environment_initialization.obj
 0001:000635b0       ?is_valid@?$__crt_unique_heap_ptr@PADU__crt_internal_free_policy@@@@QBE_NXZ 100645b0 f i libucrt:environment_initialization.obj
 0001:000635b7       ?is_valid@?$__crt_unique_heap_ptr@PA_WU__crt_internal_free_policy@@@@QBE_NXZ 100645b7 f i libucrt:environment_initialization.obj
 0001:000635be       ?is_valid@?$__crt_unique_heap_ptr@_WU__crt_internal_free_policy@@@@QBE_NXZ 100645be f i libucrt:environment_initialization.obj
 0001:000635cd       ?value@?$dual_state_global@PAPAD@__crt_state_management@@QAEAAPAPADXZ 100645cd f i libucrt:environment_initialization.obj
 0001:000635d0       ?value@?$dual_state_global@PAPA_W@__crt_state_management@@QAEAAPAPA_WXZ 100645d0 f i libucrt:environment_initialization.obj
 0001:000635d3       ___dcrt_get_or_create_narrow_environment_nolock 100645d3 f   libucrt:environment_initialization.obj
 0001:000635d8       ___dcrt_get_or_create_wide_environment_nolock 100645d8 f   libucrt:environment_initialization.obj
 0001:000635dd       ___dcrt_uninitialize_environments_nolock 100645dd f   libucrt:environment_initialization.obj
 0001:00063614       ___p__environ              10064614 f   libucrt:environment_initialization.obj
 0001:0006361a       ___p__wenviron             1006461a f   libucrt:environment_initialization.obj
 0001:00063620       __get_initial_narrow_environment 10064620 f   libucrt:environment_initialization.obj
 0001:00063634       __get_initial_wide_environment 10064634 f   libucrt:environment_initialization.obj
 0001:00063648       __initialize_narrow_environment 10064648 f   libucrt:environment_initialization.obj
 0001:0006364d       __initialize_wide_environment 1006464d f   libucrt:environment_initialization.obj
 0001:00063652       ??$?B$$A6AXXZ@__crt_fast_encoded_nullptr_t@@QBEP6AXXZXZ 10064652 f i libucrt:onexit.obj
 0001:00063658       ??$?BP6AXXZ@__crt_fast_encoded_nullptr_t@@QBEPAP6AXXZXZ 10064658 f i libucrt:onexit.obj
 0001:0006365e       ??$?RP6AXXZ@__crt_internal_free_policy@@QBEXQBQ6AXXZ@Z 1006465e f i libucrt:onexit.obj
 0001:00063772       ??$__crt_fast_decode_pointer@P6AXXZ@@YAP6AXXZQ6AXXZ@Z 10064772 f i libucrt:onexit.obj
 0001:00063788       ??$__crt_fast_decode_pointer@PAP6AXXZ@@YAPAP6AXXZQAP6AXXZ@Z 10064788 f i libucrt:onexit.obj
 0001:0006379e       ??$__crt_fast_encode_pointer@P6AHXZ@@YAP6AHXZQ6AHXZ@Z 1006479e f i libucrt:onexit.obj
 0001:000637bd       ??$__crt_fast_encode_pointer@P6AXXZ@@YAP6AXXZQ6AXXZ@Z 100647bd f i libucrt:onexit.obj
 0001:000637dc       ??$__crt_fast_encode_pointer@PAP6AXXZ@@YAPAP6AXXZQAP6AXXZ@Z 100647dc f i libucrt:onexit.obj
 0001:00063869       ??0?$__crt_unique_heap_ptr@P6AXXZU__crt_internal_free_policy@@@@QAE@QAP6AXXZ@Z 10064869 f i libucrt:onexit.obj
 0001:00063879       ??1?$__crt_unique_heap_ptr@P6AXXZU__crt_internal_free_policy@@@@QAE@XZ 10064879 f i libucrt:onexit.obj
 0001:0006388b       ??1scoped_global_state_reset@__crt_state_management@@QAE@XZ 1006488b f i libucrt:onexit.obj
 0001:00063ab5       ?detach@?$__crt_unique_heap_ptr@P6AXXZU__crt_internal_free_policy@@@@QAEPAP6AXXZXZ 10064ab5 f i libucrt:onexit.obj
 0001:00063abb       ?release@?$__crt_unique_heap_ptr@P6AXXZU__crt_internal_free_policy@@@@QAEXXZ 10064abb f i libucrt:onexit.obj
 0001:00063acd       __crt_at_quick_exit        10064acd f   libucrt:onexit.obj
 0001:00063ae3       __crt_atexit               10064ae3 f   libucrt:onexit.obj
 0001:00063af9       __execute_onexit_table     10064af9 f   libucrt:onexit.obj
 0001:00063b26       __initialize_onexit_table  10064b26 f   libucrt:onexit.obj
 0001:00063b4f       __register_onexit_function 10064b4f f   libucrt:onexit.obj
 0001:00063c5e       ??$?BX@__crt_fast_encoded_nullptr_t@@QBEPAXXZ 10064c5e f i libucrt:initialization.obj
 0001:00063c64       ??$__crt_fast_encode_pointer@PAX@@YAPAXQAX@Z 10064c64 f i libucrt:initialization.obj
 0001:00063cd5       ?__acrt_stdio_is_initialized@@YA_NXZ 10064cd5 f i libucrt:initialization.obj
 0001:00063ce0       ?initialize@?$dual_state_global@PAU__crt_locale_data@@@__crt_state_management@@QAEXQAU__crt_locale_data@@@Z 10064ce0 f i libucrt:initialization.obj
 0001:00063d06       ___acrt_initialize         10064d06 f   libucrt:initialization.obj
 0001:00063d18       ___acrt_thread_attach      10064d18 f   libucrt:initialization.obj
 0001:00063d23       ___acrt_thread_detach      10064d23 f   libucrt:initialization.obj
 0001:00063d2b       ___acrt_uninitialize       10064d2b f   libucrt:initialization.obj
 0001:00063d5b       ___acrt_uninitialize_critical 10064d5b f   libucrt:initialization.obj
 0001:00063d6d       __set_abort_behavior       10064d6d f   libucrt:abort.obj
 0001:00063d8e       _abort                     10064d8e f   libucrt:abort.obj
 0001:00063dd2       _calloc                    10064dd2 f   libucrt:calloc.obj
 0001:00063ddd       _wcsncmp                   10064ddd f   libucrt:wcsncmp.obj
 0001:00063e17       __malloc_base              10064e17 f   libucrt:malloc_base.obj
 0001:00063e65       ??$?RU__acrt_ptd@@@__crt_internal_free_policy@@QBEXQBU__acrt_ptd@@@Z 10064e65 f i libucrt:per_thread_data.obj
 0001:00064151       ??0?$__crt_unique_heap_ptr@U__acrt_ptd@@U__crt_internal_free_policy@@@@QAE@QAU__acrt_ptd@@@Z 10065151 f i libucrt:per_thread_data.obj
 0001:00064161       ??0__crt_scoped_get_last_error_reset@@QAE@XZ 10065161 f i libucrt:per_thread_data.obj
 0001:00064172       ??1?$__crt_unique_heap_ptr@U__acrt_ptd@@U__crt_internal_free_policy@@@@QAE@XZ 10065172 f i libucrt:per_thread_data.obj
 0001:00064184       ??1__crt_scoped_get_last_error_reset@@QAE@XZ 10065184 f i libucrt:per_thread_data.obj
 0001:0006418d       ??B?$__crt_unique_heap_ptr@U__acrt_ptd@@U__crt_internal_free_policy@@@@QBE_NXZ 1006518d f i libucrt:per_thread_data.obj
 0001:000642db       ?dangerous_get_state_array@?$dual_state_global@PAU__crt_locale_data@@@__crt_state_management@@QAEPAPAU__crt_locale_data@@XZ 100652db f i libucrt:per_thread_data.obj
 0001:000643d1       ?detach@?$__crt_unique_heap_ptr@U__acrt_ptd@@U__crt_internal_free_policy@@@@QAEPAU__acrt_ptd@@XZ 100653d1 f i libucrt:per_thread_data.obj
 0001:000643d7       ?get@?$__crt_unique_heap_ptr@U__acrt_ptd@@U__crt_internal_free_policy@@@@QBEPAU__acrt_ptd@@XZ 100653d7 f i libucrt:per_thread_data.obj
 0001:000643da       ?get_current_state_index@__crt_state_management@@YAIABV__crt_scoped_get_last_error_reset@@@Z 100653da f i libucrt:per_thread_data.obj
 0001:0006450f       ?is_valid@?$__crt_unique_heap_ptr@U__acrt_ptd@@U__crt_internal_free_policy@@@@QBE_NXZ 1006550f f i libucrt:per_thread_data.obj
 0001:00064516       ?release@?$__crt_unique_heap_ptr@U__acrt_ptd@@U__crt_internal_free_policy@@@@QAEXXZ 10065516 f i libucrt:per_thread_data.obj
 0001:0006458a       ?value@?$dual_state_global@PAU__crt_locale_data@@@__crt_state_management@@QAEAAPAU__crt_locale_data@@XZ 1006558a f i libucrt:per_thread_data.obj
 0001:0006458d       ___acrt_freeptd            1006558d f   libucrt:per_thread_data.obj
 0001:000645b9       ___acrt_getptd             100655b9 f   libucrt:per_thread_data.obj
 0001:00064676       ___acrt_getptd_head        10065676 f   libucrt:per_thread_data.obj
 0001:00064710       ___acrt_getptd_noexit      10065710 f   libucrt:per_thread_data.obj
 0001:000647c5       ___acrt_initialize_ptd     100657c5 f   libucrt:per_thread_data.obj
 0001:000647f1       ___acrt_uninitialize_ptd   100657f1 f   libucrt:per_thread_data.obj
 0001:0006480b       ___threadhandle            1006580b f   libucrt:per_thread_data.obj
 0001:00064811       ___threadid                10065811 f   libucrt:per_thread_data.obj
 0001:0006481d       __free_base                1006581d f   libucrt:free_base.obj
 0001:00064860       __twoToTOS                 10065860 f   libucrt:common.obj
 0001:00064875       __load_CW                  10065875 f   libucrt:common.obj
 0001:0006488c       __convertTOStoQNaN         1006588c f   libucrt:common.obj
 0001:000648a5       __fload_withFB             100658a5 f   libucrt:common.obj
 0001:000648e8       __checkTOS_withFB          100658e8 f   libucrt:common.obj
 0001:000648fe       __fast_exit                100658fe f   libucrt:common.obj
 0001:0006490b       __math_exit                1006590b f   libucrt:common.obj
 0001:00064935       __check_overflow_exit      10065935 f   libucrt:common.obj
 0001:00064949       __check_range_exit         10065949 f   libucrt:common.obj
 0001:000649f0       __CIsqrt                   100659f0 f   libucrt:sqrt_impl.obj
 0001:00064a04       __sqrt_common              10065a04     libucrt:sqrt_impl.obj
 0001:00064aa1       __mbtowc_l                 10065aa1 f   libucrt:mbtowc.obj
 0001:00064be3       _mbtowc                    10065be3 f   libucrt:mbtowc.obj
 0001:00064bfd       __wctomb_l                 10065bfd f   libucrt:wctomb.obj
 0001:00064c4e       __wctomb_s_l               10065c4e f   libucrt:wctomb.obj
 0001:00064da9       _wctomb                    10065da9 f   libucrt:wctomb.obj
 0001:00064ddb       _wctomb_s                  10065ddb f   libucrt:wctomb.obj
 0001:00064df8       ?value@?$dual_state_global@PAU__crt_multibyte_data@@@__crt_state_management@@QAEAAPAU__crt_multibyte_data@@XZ 10065df8 f i libucrt:locale_update.obj
 0001:00064dfb       ___acrt_should_sync_with_global_locale 10065dfb f i libucrt:locale_update.obj
 0001:00064e17       ___acrt_update_locale_info 10065e17 f   libucrt:locale_update.obj
 0001:00064e44       ___acrt_update_multibyte_info 10065e44 f   libucrt:locale_update.obj
 0001:00064e71       ?__acrt_fp_classify@@YA?AW4__acrt_fp_class@@ABN@Z 10065e71 f i libucrt:cvt.obj
 0001:00064ed3       ?__acrt_fp_is_negative@@YA_NABN@Z 10065ed3 f i libucrt:cvt.obj
 0001:0006583d       ___acrt_fp_format          1006683d f   libucrt:cvt.obj
 0001:000659c9       __fputwc_nolock            100669c9 f   libucrt:fputwc.obj
 0001:00065af2       __fputwchar                10066af2 f   libucrt:fputwc.obj
 0001:00065b0c       __putwc_nolock             10066b0c f   libucrt:fputwc.obj
 0001:00065b17       _fputwc                    10066b17 f   libucrt:fputwc.obj
 0001:00065b95       _putwc                     10066b95 f   libucrt:fputwc.obj
 0001:00065ba0       _putwchar                  10066ba0 f   libucrt:fputwc.obj
 0001:00065bab       ?lowio_handle@__crt_stdio_stream@@QBEHXZ 10066bab f i libucrt:fileno.obj
 0001:00065bb2       __fileno                   10066bb2 f   libucrt:fileno.obj
 0001:00065bd9       ??$?RPAU__crt_stdio_stream_data@@@__crt_internal_free_policy@@QBEXQBQAU__crt_stdio_stream_data@@@Z 10066bd9 f i libucrt:_file.obj
 0001:00065beb       ??0?$__crt_unique_heap_ptr@PAU__crt_stdio_stream_data@@U__crt_internal_free_policy@@@@QAE@QAPAU__crt_stdio_stream_data@@@Z 10066beb f i libucrt:_file.obj
 0001:00065bfb       ??1?$__crt_unique_heap_ptr@PAU__crt_stdio_stream_data@@U__crt_internal_free_policy@@@@QAE@XZ 10066bfb f i libucrt:_file.obj
 0001:00065c0d       ?detach@?$__crt_unique_heap_ptr@PAU__crt_stdio_stream_data@@U__crt_internal_free_policy@@@@QAEPAPAU__crt_stdio_stream_data@@XZ 10066c0d f i libucrt:_file.obj
 0001:00065c13       ?release@?$__crt_unique_heap_ptr@PAU__crt_stdio_stream_data@@U__crt_internal_free_policy@@@@QAEXXZ 10066c13 f i libucrt:_file.obj
 0001:00065c25       ___acrt_initialize_stdio   10066c25 f   libucrt:_file.obj
 0001:00065ced       ___acrt_iob_func           10066ced f   libucrt:_file.obj
 0001:00065cfd       ___acrt_uninitialize_stdio 10066cfd f   libucrt:_file.obj
 0001:00065d49       __get_stream_buffer_pointers 10066d49 f   libucrt:_file.obj
 0001:00065d8f       __lock_file                10066d8f f   libucrt:_file.obj
 0001:00065da3       __unlock_file              10066da3 f   libucrt:_file.obj
 0001:00065db7       __fputc_nolock             10066db7 f   libucrt:fputc.obj
 0001:00065de0       __fputchar                 10066de0 f   libucrt:fputc.obj
 0001:00065dfa       __putc_nolock              10066dfa f   libucrt:fputc.obj
 0001:00065e05       _fputc                     10066e05 f   libucrt:fputc.obj
 0001:00065f0f       _putc                      10066f0f f   libucrt:fputc.obj
 0001:00065f1a       _putchar                   10066f1a f   libucrt:fputc.obj
 0001:00065f25       __get_printf_count_output  10066f25 f   libucrt:printf_count_output.obj
 0001:00065f3a       __set_printf_count_output  10066f3a f   libucrt:printf_count_output.obj
 0001:00065f64       ?has_any_buffer@__crt_stdio_stream@@QBE_NXZ 10066f64 f i libucrt:_sftbuf.obj
 0001:00065f73       ?has_any_of@__crt_stdio_stream@@QBE_NJ@Z 10066f73 f i libucrt:_sftbuf.obj
 0001:00065f88       ?has_temporary_buffer@__crt_stdio_stream@@QBE_NXZ 10066f88 f i libucrt:_sftbuf.obj
 0001:00065f94       ?set_flags@__crt_stdio_stream@@QBE_NJ@Z 10066f94 f i libucrt:_sftbuf.obj
 0001:00065fb8       ?unset_flags@__crt_stdio_stream@@QBE_NJ@Z 10066fb8 f i libucrt:_sftbuf.obj
 0001:00065fe1       ___acrt_should_use_temporary_buffer 10066fe1 f   libucrt:_sftbuf.obj
 0001:0006601c       ___acrt_stdio_begin_temporary_buffering_nolock 1006701c f   libucrt:_sftbuf.obj
 0001:000660c8       ___acrt_stdio_end_temporary_buffering_nolock 100670c8 f   libucrt:_sftbuf.obj
 0001:00066105       ??$?RU__crt_locale_data@@@__crt_internal_free_policy@@QBEXQBU__crt_locale_data@@@Z 10067105 f i libucrt:wsetlocale.obj
 0001:00066117       ??$?RU__crt_locale_pointers@@@__crt_internal_free_policy@@QBEXQBU__crt_locale_pointers@@@Z 10067117 f i libucrt:wsetlocale.obj
 0001:00066129       ??$?RU__crt_multibyte_data@@@__crt_internal_free_policy@@QBEXQBU__crt_multibyte_data@@@Z 10067129 f i libucrt:wsetlocale.obj
 0001:000664d2       ??0?$__crt_unique_heap_ptr@U__crt_locale_data@@U__crt_internal_free_policy@@@@QAE@QAU__crt_locale_data@@@Z 100674d2 f i libucrt:wsetlocale.obj
 0001:000664e2       ??0?$__crt_unique_heap_ptr@U__crt_locale_pointers@@U__crt_internal_free_policy@@@@QAE@QAU__crt_locale_pointers@@@Z 100674e2 f i libucrt:wsetlocale.obj
 0001:000664f2       ??0?$__crt_unique_heap_ptr@U__crt_multibyte_data@@U__crt_internal_free_policy@@@@QAE@QAU__crt_multibyte_data@@@Z 100674f2 f i libucrt:wsetlocale.obj
 0001:00066502       ??0_expandlocale_locale_name_cache@@QAE@QA_WIQAU__crt_qualified_locale_data@@@Z 10067502 f i libucrt:wsetlocale.obj
 0001:0006654c       ??1?$__crt_unique_heap_ptr@U__crt_locale_data@@U__crt_internal_free_policy@@@@QAE@XZ 1006754c f i libucrt:wsetlocale.obj
 0001:0006655e       ??1?$__crt_unique_heap_ptr@U__crt_locale_pointers@@U__crt_internal_free_policy@@@@QAE@XZ 1006755e f i libucrt:wsetlocale.obj
 0001:00066570       ??1?$__crt_unique_heap_ptr@U__crt_multibyte_data@@U__crt_internal_free_policy@@@@QAE@XZ 10067570 f i libucrt:wsetlocale.obj
 0001:00066582       ??1_expandlocale_locale_name_cache@@QAE@XZ 10067582 f i libucrt:wsetlocale.obj
 0001:000665b2       ??B?$__crt_unique_heap_ptr@U__crt_locale_data@@U__crt_internal_free_policy@@@@QBE_NXZ 100675b2 f i libucrt:wsetlocale.obj
 0001:000665b9       ??B?$__crt_unique_heap_ptr@U__crt_locale_pointers@@U__crt_internal_free_policy@@@@QBE_NXZ 100675b9 f i libucrt:wsetlocale.obj
 0001:000665c0       ??B?$__crt_unique_heap_ptr@U__crt_multibyte_data@@U__crt_internal_free_policy@@@@QBE_NXZ 100675c0 f i libucrt:wsetlocale.obj
 0001:000667e0       ?commit_locale_name@_expandlocale_locale_name_cache@@QAEXQB_WI@Z 100677e0 f i libucrt:wsetlocale.obj
 0001:00066824       ?commit_locale_name_cache_already_updated@_expandlocale_locale_name_cache@@QAEXQB_WI@Z 10067824 f i libucrt:wsetlocale.obj
 0001:00066859       ?detach@?$__crt_unique_heap_ptr@U__crt_locale_data@@U__crt_internal_free_policy@@@@QAEPAU__crt_locale_data@@XZ 10067859 f i libucrt:wsetlocale.obj
 0001:0006685f       ?detach@?$__crt_unique_heap_ptr@U__crt_locale_pointers@@U__crt_internal_free_policy@@@@QAEPAU__crt_locale_pointers@@XZ 1006785f f i libucrt:wsetlocale.obj
 0001:00066865       ?detach@?$__crt_unique_heap_ptr@U__crt_multibyte_data@@U__crt_internal_free_policy@@@@QAEPAU__crt_multibyte_data@@XZ 10067865 f i libucrt:wsetlocale.obj
 0001:0006686b       ?get@?$__crt_unique_heap_ptr@U__crt_locale_data@@U__crt_internal_free_policy@@@@QBEPAU__crt_locale_data@@XZ 1006786b f i libucrt:wsetlocale.obj
 0001:0006686e       ?get@?$__crt_unique_heap_ptr@U__crt_locale_pointers@@U__crt_internal_free_policy@@@@QBEPAU__crt_locale_pointers@@XZ 1006786e f i libucrt:wsetlocale.obj
 0001:00066871       ?get@?$__crt_unique_heap_ptr@U__crt_multibyte_data@@U__crt_internal_free_policy@@@@QBEPAU__crt_multibyte_data@@XZ 10067871 f i libucrt:wsetlocale.obj
 0001:00066874       ?is_valid@?$__crt_unique_heap_ptr@U__crt_locale_data@@U__crt_internal_free_policy@@@@QBE_NXZ 10067874 f i libucrt:wsetlocale.obj
 0001:0006687b       ?is_valid@?$__crt_unique_heap_ptr@U__crt_locale_pointers@@U__crt_internal_free_policy@@@@QBE_NXZ 1006787b f i libucrt:wsetlocale.obj
 0001:00066882       ?is_valid@?$__crt_unique_heap_ptr@U__crt_multibyte_data@@U__crt_internal_free_policy@@@@QBE_NXZ 10067882 f i libucrt:wsetlocale.obj
 0001:00066889       ?release@?$__crt_unique_heap_ptr@U__crt_locale_data@@U__crt_internal_free_policy@@@@QAEXXZ 10067889 f i libucrt:wsetlocale.obj
 0001:0006689b       ?release@?$__crt_unique_heap_ptr@U__crt_locale_pointers@@U__crt_internal_free_policy@@@@QAEXXZ 1006789b f i libucrt:wsetlocale.obj
 0001:000668ad       ?release@?$__crt_unique_heap_ptr@U__crt_multibyte_data@@U__crt_internal_free_policy@@@@QAEXXZ 100678ad f i libucrt:wsetlocale.obj
 0001:000668bf       ___acrt_copy_locale_name   100678bf f   libucrt:wsetlocale.obj
 0001:0006691f       ___acrt_set_locale_changed 1006791f f   libucrt:wsetlocale.obj
 0001:0006692a       ___acrt_uninitialize_locale 1006792a f   libucrt:wsetlocale.obj
 0001:00066951       ___ascii_towlower          10067951 f i libucrt:wsetlocale.obj
 0001:00066968       ___lc_lctowcs              10067968 f   libucrt:wsetlocale.obj
 0001:000669d8       ___lc_wcstolc              100679d8 f   libucrt:wsetlocale.obj
 0001:00066b28       __configthreadlocale       10067b28 f   libucrt:wsetlocale.obj
 0001:00066bb9       __create_locale            10067bb9 f   libucrt:wsetlocale.obj
 0001:00066fe3       __free_locale              10067fe3 f   libucrt:wsetlocale.obj
 0001:000670a5       __get_current_locale       100680a5 f   libucrt:wsetlocale.obj
 0001:00067140       __wcreate_locale           10068140 f   libucrt:wsetlocale.obj
 0001:00067247       __wcscats                  10068247 f   libucrt:wsetlocale.obj
 0001:00067288       __wsetlocale               10068288 f   libucrt:wsetlocale.obj
 0001:00067fed       ___p___mb_cur_max          10068fed f   libucrt:nlsdata.obj
 0001:0006819e       ___acrt_initialize_lowio   1006919e f   libucrt:ioinit.obj
 0001:000681fe       ___acrt_uninitialize_lowio 100691fe f   libucrt:ioinit.obj
 0001:0006822a       ??0?$__crt_scoped_stack_ptr@_W@@QAE@U?$__crt_scoped_stack_ptr_tag@_W@@@Z 1006922a f i libucrt:lcmapstringa.obj
 0001:0006823a       ??0?$__crt_scoped_stack_ptr_tag@_W@@QAE@QA_W@Z 1006923a f i libucrt:lcmapstringa.obj
 0001:0006824a       ??1?$__crt_scoped_stack_ptr@_W@@QAE@XZ 1006924a f i libucrt:lcmapstringa.obj
 0001:00068253       ??B?$__crt_scoped_stack_ptr@_W@@QBE_NXZ 10069253 f i libucrt:lcmapstringa.obj
 0001:00068444       ?get@?$__crt_scoped_stack_ptr@_W@@QBEPA_WXZ 10069444 f i libucrt:lcmapstringa.obj
 0001:00068447       ___acrt_LCMapStringA       10069447 f   libucrt:lcmapstringa.obj
 0001:00068490       ?dangerous_get_state_array@?$dual_state_global@PAPAD@__crt_state_management@@QAEPAPAPADXZ 10069490 f i libucrt:timeset.obj
 0001:00068493       ?dangerous_get_state_array@?$dual_state_global@PAPA_W@__crt_state_management@@QAEPAPAPA_WXZ 10069493 f i libucrt:timeset.obj
 0001:00068496       ?initialize@?$dual_state_global@H@__crt_state_management@@QAEXH@Z 10069496 f i libucrt:timeset.obj
 0001:000684bc       ?initialize@?$dual_state_global@J@__crt_state_management@@QAEXJ@Z 100694bc f i libucrt:timeset.obj
 0001:000684e2       ?value@?$dual_state_global@H@__crt_state_management@@QAEAAHXZ 100694e2 f i libucrt:timeset.obj
 0001:000684e5       ?value@?$dual_state_global@J@__crt_state_management@@QAEAAJXZ 100694e5 f i libucrt:timeset.obj
 0001:000684e8       ___acrt_initialize_timeset 100694e8 f   libucrt:timeset.obj
 0001:0006851d       ___daylight                1006951d f   libucrt:timeset.obj
 0001:00068523       ___dstbias                 10069523 f   libucrt:timeset.obj
 0001:00068529       ___timezone                10069529 f   libucrt:timeset.obj
 0001:0006852f       ___tzname                  1006952f f   libucrt:timeset.obj
 0001:00068535       ___wide_tzname             10069535 f   libucrt:timeset.obj
 0001:0006853b       __get_daylight             1006953b f   libucrt:timeset.obj
 0001:00068567       __get_dstbias              10069567 f   libucrt:timeset.obj
 0001:00068593       __get_timezone             10069593 f   libucrt:timeset.obj
 0001:000685bf       __get_tzname               100695bf f   libucrt:timeset.obj
 0001:00068670       ??$?RUtm@@@__crt_internal_free_policy@@QBEXQBUtm@@@Z 10069670 f i libucrt:gmtime.obj
 0001:00068682       ??$__crt_time_elapsed_leap_years@H@@YAHH@Z 10069682 f i libucrt:gmtime.obj
 0001:000686bc       ??$__crt_time_is_leap_year@H@@YA_NH@Z 100696bc f i libucrt:gmtime.obj
 0001:0006899e       ??0?$__crt_unique_heap_ptr@Utm@@U__crt_internal_free_policy@@@@QAE@QAUtm@@@Z 1006999e f i libucrt:gmtime.obj
 0001:000689ae       ??1?$__crt_unique_heap_ptr@Utm@@U__crt_internal_free_policy@@@@QAE@XZ 100699ae f i libucrt:gmtime.obj
 0001:00068adb       ?detach@?$__crt_unique_heap_ptr@Utm@@U__crt_internal_free_policy@@@@QAEPAUtm@@XZ 10069adb f i libucrt:gmtime.obj
 0001:00068ae1       ?release@?$__crt_unique_heap_ptr@Utm@@U__crt_internal_free_policy@@@@QAEXXZ 10069ae1 f i libucrt:gmtime.obj
 0001:00068af3       ___getgmtimebuf            10069af3 f   libucrt:gmtime.obj
 0001:00068b31       __gmtime32                 10069b31 f   libucrt:gmtime.obj
 0001:00068b58       __gmtime32_s               10069b58 f   libucrt:gmtime.obj
 0001:00068b63       __gmtime64                 10069b63 f   libucrt:gmtime.obj
 0001:00068b8a       __gmtime64_s               10069b8a f   libucrt:gmtime.obj
 0001:00068b95       ?__acrt_get_utf8_acp_compatibility_codepage@@YAIXZ 10069b95 f i libucrt:tzset.obj
 0001:00068dee       ?_set_daylight@@YAXH@Z     10069dee f i libucrt:tzset.obj
 0001:00068dff       ?_set_dstbias@@YAXJ@Z      10069dff f i libucrt:tzset.obj
 0001:00068e10       ?_set_timezone@@YAXJ@Z     10069e10 f i libucrt:tzset.obj
 0001:00068f61       ?dangerous_get_state_array@?$dual_state_global@J@__crt_state_management@@QAEPAJXZ 10069f61 f i libucrt:tzset.obj
 0001:0006953e       ___tzset                   1006a53e f   libucrt:tzset.obj
 0001:0006959b       __isindst                  1006a59b f   libucrt:tzset.obj
 0001:000695ef       __tzset                    1006a5ef f   libucrt:tzset.obj
 0001:00069699       ___acrt_MultiByteToWideChar 1006a699 f   libucrt:multibytetowidechar.obj
 0001:0006977a       ___acrt_WideCharToMultiByte 1006a77a f   libucrt:widechartomultibyte.obj
 0001:00069831       ?__crt_get_2digit_year@@YAHH@Z 1006a831 f i libucrt:wcsftime.obj
 0001:00069848       ?__crt_get_century@@YAHH@Z 1006a848 f i libucrt:wcsftime.obj
 0001:0006a8c0       __W_Getdays                1006b8c0 f   libucrt:wcsftime.obj
 0001:0006aa1f       __W_Getmonths              1006ba1f f   libucrt:wcsftime.obj
 0001:0006ab7e       __W_Gettnames              1006bb7e f   libucrt:wcsftime.obj
 0001:0006b27a       __Wcsftime                 1006c27a f   libucrt:wcsftime.obj
 0001:0006b29a       __Wcsftime_l               1006c29a f   libucrt:wcsftime.obj
 0001:0006b40b       __wcsftime_l               1006c40b f   libucrt:wcsftime.obj
 0001:0006b42b       _wcsftime                  1006c42b f   libucrt:wcsftime.obj
 0001:0006b457       ??$?B$$A6GHPA_WKJ@Z@__crt_fast_encoded_nullptr_t@@QBEP6GHPA_WKJ@ZXZ 1006c457 f i libucrt:winapi_thunks.obj
 0001:0006b4ff       ??$__crt_fast_decode_pointer@P6GHPA_WKJ@Z@@YAP6GHPA_WKJ@ZQ6GH0KJ@Z@Z 1006c4ff f i libucrt:winapi_thunks.obj
 0001:0006b515       ??$__crt_fast_decode_pointer@PAX@@YAPAXQAX@Z 1006c515 f i libucrt:winapi_thunks.obj
 0001:0006b52b       ??$__crt_fast_encode_pointer@P6GHPA_WKJ@Z@@YAP6GHPA_WKJ@ZQ6GH0KJ@Z@Z 1006c52b f i libucrt:winapi_thunks.obj
 0001:0006bbb7       _GetCurrentThreadEffectiveToken 1006cbb7 f i libucrt:winapi_thunks.obj
 0001:0006bbbb       ___acrt_AppPolicyGetProcessTerminationMethodInternal@4 1006cbbb f   libucrt:winapi_thunks.obj
 0001:0006bbfb       ___acrt_AppPolicyGetShowDeveloperDiagnosticInternal@4 1006cbfb f   libucrt:winapi_thunks.obj
 0001:0006bc3b       ___acrt_AppPolicyGetThreadInitializationTypeInternal@4 1006cc3b f   libucrt:winapi_thunks.obj
 0001:0006bc7b       ___acrt_AppPolicyGetWindowingModelInternal@4 1006cc7b f   libucrt:winapi_thunks.obj
 0001:0006bcbb       ___acrt_AreFileApisANSI@0  1006ccbb f   libucrt:winapi_thunks.obj
 0001:0006bcda       ___acrt_CompareStringEx@36 1006ccda f   libucrt:winapi_thunks.obj
 0001:0006bd37       ___acrt_EnumSystemLocalesEx@16 1006cd37 f   libucrt:winapi_thunks.obj
 0001:0006bd8b       ___acrt_FlsAlloc@4         1006cd8b f   libucrt:winapi_thunks.obj
 0001:0006bdca       ___acrt_FlsFree@4          1006cdca f   libucrt:winapi_thunks.obj
 0001:0006be09       ___acrt_FlsGetValue@4      1006ce09 f   libucrt:winapi_thunks.obj
 0001:0006be48       ___acrt_FlsSetValue@8      1006ce48 f   libucrt:winapi_thunks.obj
 0001:0006be8a       ___acrt_GetDateFormatEx@28 1006ce8a f   libucrt:winapi_thunks.obj
 0001:0006bee1       ___acrt_GetEnabledXStateFeatures@0 1006cee1 f   libucrt:winapi_thunks.obj
 0001:0006bf15       ___acrt_GetLocaleInfoEx@16 1006cf15 f   libucrt:winapi_thunks.obj
 0001:0006bf54       ___acrt_GetSystemTimePreciseAsFileTime@4 1006cf54 f   libucrt:winapi_thunks.obj
 0001:0006bf93       ___acrt_GetTimeFormatEx@24 1006cf93 f   libucrt:winapi_thunks.obj
 0001:0006bfd8       ___acrt_GetUserDefaultLocaleName@8 1006cfd8 f   libucrt:winapi_thunks.obj
 0001:0006c014       ___acrt_GetXStateFeaturesMask@8 1006d014 f   libucrt:winapi_thunks.obj
 0001:0006c054       ___acrt_InitializeCriticalSectionEx@12 1006d054 f   libucrt:winapi_thunks.obj
 0001:0006c09f       ___acrt_IsValidLocaleName@4 1006d09f f   libucrt:winapi_thunks.obj
 0001:0006c0d7       ___acrt_LCIDToLocaleName@16 1006d0d7 f   libucrt:winapi_thunks.obj
 0001:0006c116       ___acrt_LCMapStringEx@36   1006d116 f   libucrt:winapi_thunks.obj
 0001:0006c173       ___acrt_LocaleNameToLCID@8 1006d173 f   libucrt:winapi_thunks.obj
 0001:0006c1a4       ___acrt_LocateXStateFeature@12 1006d1a4 f   libucrt:winapi_thunks.obj
 0001:0006c1d3       ___acrt_MessageBoxA@16     1006d1d3 f   libucrt:winapi_thunks.obj
 0001:0006c205       ___acrt_MessageBoxW@16     1006d205 f   libucrt:winapi_thunks.obj
 0001:0006c237       ___acrt_RoInitialize@4     1006d237 f   libucrt:winapi_thunks.obj
 0001:0006c272       ___acrt_RoUninitialize@0   1006d272 f   libucrt:winapi_thunks.obj
 0001:0006c2a0       ___acrt_RtlGenRandom@8     1006d2a0 f   libucrt:winapi_thunks.obj
 0001:0006c2e0       ___acrt_SetThreadStackGuarantee@4 1006d2e0 f   libucrt:winapi_thunks.obj
 0001:0006c31b       ___acrt_can_show_message_box 1006d31b f   libucrt:winapi_thunks.obj
 0001:0006c342       ___acrt_can_use_vista_locale_apis 1006d342 f   libucrt:winapi_thunks.obj
 0001:0006c34d       ___acrt_can_use_xstate_apis 1006d34d f   libucrt:winapi_thunks.obj
 0001:0006c358       ___acrt_eagerly_load_locale_apis 1006d358 f   libucrt:winapi_thunks.obj
 0001:0006c38f       ___acrt_get_parent_window  1006d38f f   libucrt:winapi_thunks.obj
 0001:0006c3f7       ___acrt_initialize_winapi_thunks 1006d3f7 f   libucrt:winapi_thunks.obj
 0001:0006c422       ___acrt_is_interactive     1006d422 f   libucrt:winapi_thunks.obj
 0001:0006c4c1       ___acrt_uninitialize_winapi_thunks 1006d4c1 f   libucrt:winapi_thunks.obj
 0001:0006c4f7       ___pctype_func             1006d4f7 f   libucrt:ctype.obj
 0001:0006c51b       ___pwctype_func            1006d51b f   libucrt:ctype.obj
 0001:0006c521       __iswctype_l               1006d521 f   libucrt:iswctype.obj
 0001:0006c535       _iswctype                  1006d535 f   libucrt:iswctype.obj
 0001:0006c59e       __isctype                  1006d59e f   libucrt:isctype.obj
 0001:0006c5d1       __isctype_l                1006d5d1 f   libucrt:isctype.obj
