 idraw

 Timestamp is 62df3164 (Mon Jul 25 20:12:20 2022)

 Preferred load address is 10000000

 Start         Length     Name                   Class
 0001:00000000 000002e0H .text$di                CODE
 0001:000002e0 00080830H .text$mn                CODE
 0001:00080b10 000011e3H .text$x                 CODE
 0002:00000000 00000284H .idata$5                DATA
 0002:00000284 0000000cH .00cfg                  DATA
 0002:00000290 00000004H .CRT$XCA                DATA
 0002:00000294 0000005cH .CRT$XCU                DATA
 0002:000002f0 00000004H .CRT$XCZ                DATA
 0002:000002f4 00000004H .CRT$XIA                DATA
 0002:000002f8 00000010H .CRT$XIC                DATA
 0002:00000308 00000004H .CRT$XIZ                DATA
 0002:0000030c 00000004H .CRT$XPA                DATA
 0002:00000310 00000008H .CRT$XPX                DATA
 0002:00000318 00000004H .CRT$XPXA               DATA
 0002:0000031c 00000004H .CRT$XPZ                DATA
 0002:00000320 00000004H .CRT$XTA                DATA
 0002:00000324 0000000cH .CRT$XTZ                DATA
 0002:00000328 00000000H .gfids$y                DATA
 0002:00000330 0000b050H .rdata                  DATA
 0002:0000b380 00000040H .rdata$CastGuardVftablesA DATA
 0002:0000b3c0 00000040H .rdata$CastGuardVftablesC DATA
 0002:0000b400 00000a28H .rdata$r                DATA
 0002:0000be28 000001d4H .rdata$sxdata           DATA
 0002:0000bffc 00000164H .rdata$voltmd           DATA
 0002:0000c160 000003a0H .rdata$zzzdbg           DATA
 0002:0000c500 00000004H .rtc$IAA                DATA
 0002:0000c504 00000004H .rtc$IZZ                DATA
 0002:0000c508 00000004H .rtc$TAA                DATA
 0002:0000c50c 00000004H .rtc$TZZ                DATA
 0002:0000c510 00002550H .xdata$x                DATA
 0002:0000ea60 000002bcH .edata                  DATA
 0002:0000ed1c 00000064H .idata$2                DATA
 0002:0000ed80 00000014H .idata$3                DATA
 0002:0000ed94 00000284H .idata$4                DATA
 0002:0000f018 00000b78H .idata$6                DATA
 0003:00000000 00003540H .data                   DATA
 0003:00003540 000001acH .data$r                 DATA
 0003:000036ec 0000028cH .data$rs                DATA
 0003:00003978 00001d68H .bss                    DATA
 0004:00000000 00000360H .rsrc$01                DATA
 0004:00000360 0001da08H .rsrc$02                DATA

  Address         Publics by Value              Rva+Base       Lib:Object

 0000:00000000       ___AbsoluteZero            00000000     <absolute>
 0000:00000000       ___arm64x_extra_rfe_table  00000000     <absolute>
 0000:00000000       ___arm64x_extra_rfe_table_size 00000000     <absolute>
 0000:00000000       ___arm64x_native_entrypoint 00000000     <absolute>
 0000:00000000       ___arm64x_redirection_metadata 00000000     <absolute>
 0000:00000000       ___arm64x_redirection_metadata_count 00000000     <absolute>
 0000:00000000       ___dynamic_value_reloc_table 00000000     <absolute>
 0000:00000000       ___enclave_config          00000000     <absolute>
 0000:00000000       ___guard_check_icall_a64n_fptr 00000000     <absolute>
 0000:00000000       ___guard_eh_cont_count     00000000     <absolute>
 0000:00000000       ___guard_eh_cont_table     00000000     <absolute>
 0000:00000000       ___guard_fids_count        00000000     <absolute>
 0000:00000000       ___guard_fids_table        00000000     <absolute>
 0000:00000000       ___guard_iat_count         00000000     <absolute>
 0000:00000000       ___guard_iat_table         00000000     <absolute>
 0000:00000000       ___guard_longjmp_count     00000000     <absolute>
 0000:00000000       ___guard_longjmp_table     00000000     <absolute>
 0000:00000000       ___hybrid_auxiliary_iat    00000000     <absolute>
 0000:00000000       ___hybrid_auxiliary_iat_copy 00000000     <absolute>
 0000:00000000       ___hybrid_code_map         00000000     <absolute>
 0000:00000000       ___hybrid_code_map_count   00000000     <absolute>
 0000:00000000       ___x64_code_ranges_to_entry_points 00000000     <absolute>
 0000:00000000       ___x64_code_ranges_to_entry_points_count 00000000     <absolute>
 0000:00000000       __except_list              00000000     <absolute>
 0000:00000075       ___safe_se_handler_count   00000075     <absolute>
 0000:00000100       ___guard_flags             00000100     <absolute>
 0000:00000000       ___ImageBase               10000000     <linker-defined>
 0001:000002e0       ??0MappedMap@@QAE@HH@Z     100012e0 f   MappedMAP.obj
 0001:00000340       ??1MappedMap@@QAE@XZ       10001340 f   MappedMAP.obj
 0001:00000390       ?NowDrawMapped@MappedMap@@QAEHPAEPAUtagPOINT@@@Z 10001390 f   MappedMAP.obj
 0001:00000a70       ?PictureInfo@MappedMap@@QAEPAEPAPAEPAUtagPOINT@@@Z 10001a70 f   MappedMAP.obj
 0001:00000aa0       ??0MegaMapControl@@QAE@PAVFullScreenMinimap@@PAUtagRECT@@11HHHHHH@Z 10001aa0 f   MegamapControl.obj
 0001:00000c60       ??1MegaMapControl@@QAE@XZ  10001c60 f   MegamapControl.obj
 0001:00000d00       ??_GInlineSingleHook@@QAEPAXI@Z 10001d00 f i MegamapControl.obj
 0001:00000d30       ?CheckInControl@MegaMapControl@@AAEHHH@Z 10001d30 f   MegamapControl.obj
 0001:00000e40       ?CheckInMap@MegaMapControl@@AAEHHH@Z 10001e40 f   MegamapControl.obj
 0001:00000e90       ?DoubleClick@MegaMapControl@@AAEHHH_N@Z 10001e90 f   MegamapControl.obj
 0001:00000fe0       ?EnterMegaMap@MegaMapControl@@QAEXXZ 10001fe0 f   MegamapControl.obj
 0001:000010d0       ?FindMouseUnitRounte@@YGHPAUtagInlineX86StackBuffer@@@Z 100020d0 f   MegamapControl.obj
 0001:00001110       ?GetGridPosFeatureRounte@@YGHPAUtagInlineX86StackBuffer@@@Z 10002110 f   MegamapControl.obj
 0001:00001150       ?GetPosition_DwordRounte@@YGHPAUtagInlineX86StackBuffer@@@Z 10002150 f   MegamapControl.obj
 0001:00001180       ?Init@MegaMapControl@@QAEXPAVFullScreenMinimap@@PAUtagRECT@@11HHHHHH@Z 10002180 f   MegamapControl.obj
 0001:00001320       ?IsBliting@MegaMapControl@@QAEHXZ 10002320 f   MegamapControl.obj
 0001:00001340       ?IsDrawCursor@MegaMapControl@@QAEHHH@Z 10002340 f   MegamapControl.obj
 0001:000014b0       ?IsDrawOrder@MegaMapControl@@QAEHXZ 100024b0 f   MegamapControl.obj
 0001:000014e0       ?IsDrawRect@MegaMapControl@@QAEHH@Z 100024e0 f   MegamapControl.obj
 0001:000015b0       ?IsInControl@MegaMapControl@@QAEHXZ 100025b0 f   MegamapControl.obj
 0001:000015d0       ?IsInMap@MegaMapControl@@QAEHXZ 100025d0 f   MegamapControl.obj
 0001:000015f0       ?LeftDown@MegaMapControl@@AAEHHH_N@Z 100025f0 f   MegamapControl.obj
 0001:00001610       ?LeftUp@MegaMapControl@@AAEHHH_N@Z 10002610 f   MegamapControl.obj
 0001:00001910       ?MegamapMoveSceen@MegaMapControl@@AAEXHH@Z 10002910 f   MegamapControl.obj
 0001:00001a00       ?Message@MegaMapControl@@QAE_NPAUHWND__@@IIJ@Z 10002a00 f   MegamapControl.obj
 0001:00001e30       ?MouseMove@MegaMapControl@@AAEHHH@Z 10002e30 f   MegamapControl.obj
 0001:000020a0       ?MoveScreen@MegaMapControl@@AAEXHHH@Z 100030a0 f   MegamapControl.obj
 0001:000021b0       ?QuitMegaMap@MegaMapControl@@QAEXXZ 100031b0 f   MegamapControl.obj
 0001:00002220       ?ReadSelectRect@MegaMapControl@@QAEPAUtagRECT@@PAU2@@Z 10003220 f   MegamapControl.obj
 0001:00002250       ?ReadSelectState@MegaMapControl@@QAE?AW4SELECTBUTTOM@selectbuttom@@XZ 10003250 f   MegamapControl.obj
 0001:00002270       ?RightDown@MegaMapControl@@AAEHHH_N@Z 10003270 f   MegamapControl.obj
 0001:00002290       ?RightUp@MegaMapControl@@AAEHHH_N@Z 10003290 f   MegamapControl.obj
 0001:000023d0       ?ScreenPos2TAPos@MegaMapControl@@AAEPAU_Position_Dword@@PAU2@HHH@Z 100033d0 f   MegamapControl.obj
 0001:00002460       ?SelectDown@MegaMapControl@@AAEHHH_N@Z 10003460 f   MegamapControl.obj
 0001:000024a0       ?SelectMove@MegaMapControl@@AAEHHH_N0@Z 100034a0 f   MegamapControl.obj
 0001:00002560       ?SelectUp@MegaMapControl@@AAEHHH_N0@Z 10003560 f   MegamapControl.obj
 0001:00002760       ?Set@MegaMapControl@@QAEXH@Z 10003760 f   MegamapControl.obj
 0001:00002780       ?TAPos2ScreenPos@MegaMapControl@@AAEPAUtagPOINT@@PAU2@III@Z 10003780 f   MegamapControl.obj
 0001:000027f0       ?WheelBack@MegaMapControl@@AAEHHH@Z 100037f0 f   MegamapControl.obj
 0001:00002830       ?WheelFont@MegaMapControl@@AAEHHH@Z 10003830 f   MegamapControl.obj
 0001:00002890       ?abs@@YGJJ@Z               10003890 f i MegamapControl.obj
 0001:000028b0       ??$?0$$V@?$_Compressed_pair@V?$allocator@U_Position_Dword@@@std@@V?$_Vector_val@U?$_Simple_types@U_Position_Dword@@@std@@@2@$00@std@@QAE@U_Zero_then_variadic_args_t@1@@Z 100038b0 f i MegamapTAStuff.obj
 0001:000028d0       ??$_Allocate@$07U_Default_allocate_traits@std@@$0A@@std@@YGPAXI@Z 100038d0 f i MegamapTAStuff.obj
 0001:00002900       ??$_Allocate_manually_vector_aligned@U_Default_allocate_traits@std@@@std@@YGPAXI@Z 10003900 f i MegamapTAStuff.obj
 0001:00002970       ??$_Construct_in_place@U_Position_Dword@@ABU1@@std@@YGXAAU_Position_Dword@@ABU1@@Z 10003970 f i MegamapTAStuff.obj
 0001:000029c0       ??$_Copy_memmove@PAU_Position_Dword@@PAU1@@std@@YGPAU_Position_Dword@@PAU1@00@Z 100039c0 f i MegamapTAStuff.obj
 0001:00002a30       ??$_Deallocate@$07$0A@@std@@YGXPAXI@Z 10003a30 f i MegamapTAStuff.obj
 0001:00002a90       ??$_Destroy_range@V?$allocator@U_Position_Dword@@@std@@@std@@YGXPAU_Position_Dword@@QAU1@AAV?$allocator@U_Position_Dword@@@0@@Z 10003a90 f i MegamapTAStuff.obj
 0001:00002aa0       ??$_Emplace_back@U_Position_Dword@@@?$_Uninitialized_backout_al@V?$allocator@U_Position_Dword@@@std@@@std@@QAEX$$QAU_Position_Dword@@@Z 10003aa0 f i MegamapTAStuff.obj
 0001:00002ae0       ??$_Emplace_back_with_unused_capacity@ABU_Position_Dword@@@?$vector@U_Position_Dword@@V?$allocator@U_Position_Dword@@@std@@@std@@AAEAAU_Position_Dword@@ABU2@@Z 10003ae0 f i MegamapTAStuff.obj
 0001:00002b40       ??$_Emplace_one_at_back@ABU_Position_Dword@@@?$vector@U_Position_Dword@@V?$allocator@U_Position_Dword@@@std@@@std@@AAEAAU_Position_Dword@@ABU2@@Z 10003b40 f i MegamapTAStuff.obj
 0001:00002ba0       ??$_Emplace_reallocate@ABU_Position_Dword@@@?$vector@U_Position_Dword@@V?$allocator@U_Position_Dword@@@std@@@std@@AAEPAU_Position_Dword@@QAU2@ABU2@@Z 10003ba0 f i MegamapTAStuff.obj
 0001:00002d70       ??$_Get_size_of_n@$0M@@std@@YGII@Z 10003d70 f i MegamapTAStuff.obj
 0001:00002da0       ??$_Get_unwrapped@ABQAU_Position_Dword@@@std@@YG?A_TABQAU_Position_Dword@@@Z 10003da0 f i MegamapTAStuff.obj
 0001:00002db0       ??$_To_address@PAU_Position_Dword@@@std@@YG?A_PABQAU_Position_Dword@@@Z 10003db0 f i MegamapTAStuff.obj
 0001:00002dc0       ??$_Unfancy@U_Position_Dword@@@std@@YGPAU_Position_Dword@@PAU1@@Z 10003dc0 f i MegamapTAStuff.obj
 0001:00002dd0       ??$_Uninitialized_move@PAU_Position_Dword@@V?$allocator@U_Position_Dword@@@std@@@std@@YGPAU_Position_Dword@@QAU1@0PAU1@AAV?$allocator@U_Position_Dword@@@0@@Z 10003dd0 f i MegamapTAStuff.obj
 0001:00002ea0       ??$_Voidify_iter@PAU_Position_Dword@@@std@@YGPAXPAU_Position_Dword@@@Z 10003ea0 f i MegamapTAStuff.obj
 0001:00002eb0       ??$addressof@U_Position_Dword@@@std@@YGPAU_Position_Dword@@AAU1@@Z 10003eb0 f i MegamapTAStuff.obj
 0001:00002ec0       ??$addressof@V?$_Vector_val@U?$_Simple_types@U_Position_Dword@@@std@@@std@@@std@@YGPAV?$_Vector_val@U?$_Simple_types@U_Position_Dword@@@std@@@0@AAV10@@Z 10003ec0 f i MegamapTAStuff.obj
 0001:00002ed0       ??$construct@U_Position_Dword@@ABU1@@?$_Default_allocator_traits@V?$allocator@U_Position_Dword@@@std@@@std@@SGXAAV?$allocator@U_Position_Dword@@@1@QAU_Position_Dword@@ABU3@@Z 10003ed0 f i MegamapTAStuff.obj
 0001:00002f10       ??$construct@U_Position_Dword@@U1@@?$_Default_allocator_traits@V?$allocator@U_Position_Dword@@@std@@@std@@SGXAAV?$allocator@U_Position_Dword@@@1@QAU_Position_Dword@@$$QAU3@@Z 10003f10 f i MegamapTAStuff.obj
 0001:00002f50       ??$emplace_back@ABU_Position_Dword@@@?$vector@U_Position_Dword@@V?$allocator@U_Position_Dword@@@std@@@std@@QAE?A_TABU_Position_Dword@@@Z 10003f50 f i MegamapTAStuff.obj
 0001:00002f80       ??$forward@ABU_Position_Dword@@@std@@YGABU_Position_Dword@@ABU1@@Z 10003f80 f i MegamapTAStuff.obj
 0001:00002f90       ??$forward@U_Position_Dword@@@std@@YG$$QAU_Position_Dword@@AAU1@@Z 10003f90 f i MegamapTAStuff.obj
 0001:00002fa0       ??$min@I@std@@YGABIABI0@Z  10003fa0 f i MegamapTAStuff.obj
 0001:00002fd0       ??$move@AAU_Position_Dword@@@std@@YG$$QAU_Position_Dword@@AAU1@@Z 10003fd0 f i MegamapTAStuff.obj
 0001:00002fe0       ??$sprintf_s@$0BAA@@@YAHAAY0BAA@DPBDZZ 10003fe0 f i MegamapTAStuff.obj
 0001:00003010       ??0?$_Uninitialized_backout_al@V?$allocator@U_Position_Dword@@@std@@@std@@QAE@PAU_Position_Dword@@AAV?$allocator@U_Position_Dword@@@1@@Z 10004010 f i MegamapTAStuff.obj
 0001:00003040       ??0?$_Vector_const_iterator@V?$_Vector_val@U?$_Simple_types@U_Position_Dword@@@std@@@std@@@std@@QAE@PAU_Position_Dword@@PBU_Container_base0@1@@Z 10004040 f i MegamapTAStuff.obj
 0001:00003070       ??0?$_Vector_iterator@V?$_Vector_val@U?$_Simple_types@U_Position_Dword@@@std@@@std@@@std@@QAE@PAU_Position_Dword@@PBU_Container_base0@1@@Z 10004070 f i MegamapTAStuff.obj
 0001:00003090       ??0?$_Vector_val@U?$_Simple_types@U_Position_Dword@@@std@@@std@@QAE@XZ 10004090 f i MegamapTAStuff.obj
 0001:000030c0       ??0?$allocator@U_Position_Dword@@@std@@QAE@XZ 100040c0 f i MegamapTAStuff.obj
 0001:000030d0       ??0?$vector@U_Position_Dword@@V?$allocator@U_Position_Dword@@@std@@@std@@QAE@XZ 100040d0 f i MegamapTAStuff.obj
 0001:00003100       ??0MegamapTAStuff@@QAE@PAVFullScreenMinimap@@PAUtagRECT@@11HHH@Z 10004100 f   MegamapTAStuff.obj
 0001:00003180       ??0bad_alloc@std@@AAE@QBD@Z 10004180 f i MegamapTAStuff.obj
 0001:000031b0       ??0bad_alloc@std@@QAE@ABV01@@Z 100041b0 f i MegamapTAStuff.obj
 0001:000031e0       ??0bad_array_new_length@std@@QAE@ABV01@@Z 100041e0 f i MegamapTAStuff.obj
 0001:00003210       ??0bad_array_new_length@std@@QAE@XZ 10004210 f i MegamapTAStuff.obj
 0001:00003240       ??0exception@std@@QAE@ABV01@@Z 10004240 f i MegamapTAStuff.obj
 0001:00003280       ??0exception@std@@QAE@QBDH@Z 10004280 f i MegamapTAStuff.obj
 0001:000032b0       ??1?$_Uninitialized_backout_al@V?$allocator@U_Position_Dword@@@std@@@std@@QAE@XZ 100042b0 f i MegamapTAStuff.obj
 0001:000032e0       ??1?$vector@U_Position_Dword@@V?$allocator@U_Position_Dword@@@std@@@std@@QAE@XZ 100042e0 f i MegamapTAStuff.obj
 0001:00003300       ??1MegamapTAStuff@@QAE@XZ  10004300 f   MegamapTAStuff.obj
 0001:00003340       ??1bad_alloc@std@@UAE@XZ   10004340 f i MegamapTAStuff.obj
 0001:00003360       ??1bad_array_new_length@std@@UAE@XZ 10004360 f i MegamapTAStuff.obj
 0001:00003380       ??1exception@std@@UAE@XZ   10004380 f i MegamapTAStuff.obj
 0001:000033b0       ??2@YAPAXIPAX@Z            100043b0 f i MegamapTAStuff.obj
 0001:000033c0       ??8?$_Vector_const_iterator@V?$_Vector_val@U?$_Simple_types@U_Position_Dword@@@std@@@std@@@std@@QBE_NABV01@@Z 100043c0 f i MegamapTAStuff.obj
 0001:00003400       ??9?$_Vector_const_iterator@V?$_Vector_val@U?$_Simple_types@U_Position_Dword@@@std@@@std@@@std@@QBE_NABV01@@Z 10004400 f i MegamapTAStuff.obj
 0001:00003440       ??C?$_Vector_iterator@V?$_Vector_val@U?$_Simple_types@U_Position_Dword@@@std@@@std@@@std@@QBEPAU_Position_Dword@@XZ 10004440 f i MegamapTAStuff.obj
 0001:00003450       ??E?$_Vector_const_iterator@V?$_Vector_val@U?$_Simple_types@U_Position_Dword@@@std@@@std@@@std@@QAEAAV01@XZ 10004450 f i MegamapTAStuff.obj
 0001:00003470       ??E?$_Vector_iterator@V?$_Vector_val@U?$_Simple_types@U_Position_Dword@@@std@@@std@@@std@@QAEAAV01@XZ 10004470 f i MegamapTAStuff.obj
 0001:00003490       ??_Ebad_alloc@std@@UAEPAXI@Z 10004490 f i MegamapTAStuff.obj
 0001:00003490       ??_Gbad_alloc@std@@UAEPAXI@Z 10004490 f i MegamapTAStuff.obj
 0001:000034c0       ??_Ebad_array_new_length@std@@UAEPAXI@Z 100044c0 f i MegamapTAStuff.obj
 0001:000034c0       ??_Gbad_array_new_length@std@@UAEPAXI@Z 100044c0 f i MegamapTAStuff.obj
 0001:000034f0       ??_Eexception@std@@UAEPAXI@Z 100044f0 f i MegamapTAStuff.obj
 0001:000034f0       ??_Gexception@std@@UAEPAXI@Z 100044f0 f i MegamapTAStuff.obj
 0001:00003520       ?BlitOrder@MegamapTAStuff@@QAEXPAXHHH@Z 10004520 f   MegamapTAStuff.obj
 0001:00003c60       ?BlitSelect@MegamapTAStuff@@QAEXPAXHHH@Z 10004c60 f   MegamapTAStuff.obj
 0001:00003e40       ?DrawBuildRect@MegamapTAStuff@@QAEXPAU_OFFSCREEN@@EPAUUnitDefStruct@@HHH@Z 10004e40 f   MegamapTAStuff.obj
 0001:00003f50       ?DrawCursor@MegamapTAStuff@@QAEXPAXHHHII@Z 10004f50 f   MegamapTAStuff.obj
 0001:00003fb0       ?DrawOrderPath@MegamapTAStuff@@QAEXPAU_OFFSCREEN@@PAUUnitOrdersStruct@@PAU_Position_Dword@@@Z 10004fb0 f   MegamapTAStuff.obj
 0001:000042b0       ?DrawTargatOrder@MegamapTAStuff@@QAEXPAU_OFFSCREEN@@PAUUnitOrdersStruct@@PAUPlayerStruct@@@Z 100052b0 f   MegamapTAStuff.obj
 0001:00004420       ?GetTAStuffSurface@MegamapTAStuff@@QAEPAEXZ 10005420 f   MegamapTAStuff.obj
 0001:00004440       ?Init@MegamapTAStuff@@QAEXPAVFullScreenMinimap@@PAUtagRECT@@11HHH@Z 10005440 f   MegamapTAStuff.obj
 0001:00004650       ?InitSurface@MegamapTAStuff@@QAEXPAUIDirectDraw@@H@Z 10005650 f   MegamapTAStuff.obj
 0001:00004a50       ?LockBlit@MegamapTAStuff@@QAEXPAXHHH@Z 10005a50 f   MegamapTAStuff.obj
 0001:00004b90       ?LockBlit_MEGA@MegamapTAStuff@@QAEXPAXHHH@Z 10005b90 f   MegamapTAStuff.obj
 0001:00004c00       ?LockBlit_TA@MegamapTAStuff@@QAEXPAXHHHPAH@Z 10005c00 f   MegamapTAStuff.obj
 0001:00004f10       ?ReleaseSurface@MegamapTAStuff@@QAEXXZ 10005f10 f   MegamapTAStuff.obj
 0001:00004fc0       ?ScreenPos2TAPos@MegamapTAStuff@@AAEPAU_Position_Dword@@PAU2@HHH@Z 10005fc0 f   MegamapTAStuff.obj
 0001:00005050       ?TADrawRect@MegamapTAStuff@@QAEXPAU_OFFSCREEN@@HHHHHHH@Z 10006050 f   MegamapTAStuff.obj
 0001:00005160       ?TAPos2ScreenPos@MegamapTAStuff@@AAEPAUtagPOINT@@PAU2@III@Z 10006160 f   MegamapTAStuff.obj
 0001:000051c0       ?UpdateTAGameStuffMEGA@MegamapTAStuff@@QAEXPAXHHPAH@Z 100061c0 f   MegamapTAStuff.obj
 0001:00005260       ?UpdateTAGameStuffTA@MegamapTAStuff@@QAEXPAU_DDSURFACEDESC@@HHPAH@Z 10006260 f   MegamapTAStuff.obj
 0001:00005310       ?_Adjust_manually_vector_aligned@std@@YGXAAPAXAAI@Z 10006310 f i MegamapTAStuff.obj
 0001:00005380       ?_Adopt@_Iterator_base0@std@@QAEXPBX@Z 10006380 f i MegamapTAStuff.obj
 0001:00005390       ?_Alloc_proxy@_Container_base0@std@@QAEXABU_Fake_allocator@2@@Z 10006390 f i MegamapTAStuff.obj
 0001:000053a0       ?_Allocate@_Default_allocate_traits@std@@SGPAXI@Z 100063a0 f i MegamapTAStuff.obj
 0001:000053c0       ?_Calculate_growth@?$vector@U_Position_Dword@@V?$allocator@U_Position_Dword@@@std@@@std@@ABEII@Z 100063c0 f i MegamapTAStuff.obj
 0001:00005420       ?_Change_array@?$vector@U_Position_Dword@@V?$allocator@U_Position_Dword@@@std@@@std@@AAEXQAU_Position_Dword@@II@Z 10006420 f i MegamapTAStuff.obj
 0001:000054c0       ?_Compat@?$_Vector_const_iterator@V?$_Vector_val@U?$_Simple_types@U_Position_Dword@@@std@@@std@@@std@@QBEXABV12@@Z 100064c0 f i MegamapTAStuff.obj
 0001:000054d0       ?_Get_first@?$_Compressed_pair@V?$allocator@U_Position_Dword@@@std@@V?$_Vector_val@U?$_Simple_types@U_Position_Dword@@@std@@@2@$00@std@@QAEAAV?$allocator@U_Position_Dword@@@2@XZ 100064d0 f i MegamapTAStuff.obj
 0001:000054e0       ?_Get_first@?$_Compressed_pair@V?$allocator@U_Position_Dword@@@std@@V?$_Vector_val@U?$_Simple_types@U_Position_Dword@@@std@@@2@$00@std@@QBEABV?$allocator@U_Position_Dword@@@2@XZ 100064e0 f i MegamapTAStuff.obj
 0001:000054f0       ?_Getal@?$vector@U_Position_Dword@@V?$allocator@U_Position_Dword@@@std@@@std@@AAEAAV?$allocator@U_Position_Dword@@@2@XZ 100064f0 f i MegamapTAStuff.obj
 0001:00005510       ?_Getal@?$vector@U_Position_Dword@@V?$allocator@U_Position_Dword@@@std@@@std@@ABEABV?$allocator@U_Position_Dword@@@2@XZ 10006510 f i MegamapTAStuff.obj
 0001:00005530       ?_Orphan_all@_Container_base0@std@@QAEXXZ 10006530 f i MegamapTAStuff.obj
 0001:00005540       ?_Orphan_range@?$vector@U_Position_Dword@@V?$allocator@U_Position_Dword@@@std@@@std@@ABEXPAU_Position_Dword@@0@Z 10006540 f i MegamapTAStuff.obj
 0001:00005550       ?_Release@?$_Uninitialized_backout_al@V?$allocator@U_Position_Dword@@@std@@@std@@QAEPAU_Position_Dword@@XZ 10006550 f i MegamapTAStuff.obj
 0001:00005570       ?_Throw_bad_array_new_length@std@@YGXXZ 10006570 f i MegamapTAStuff.obj
 0001:00005590       ?_Tidy@?$vector@U_Position_Dword@@V?$allocator@U_Position_Dword@@@std@@@std@@AAEXXZ 10006590 f i MegamapTAStuff.obj
 0001:00005650       ?_Xlength@?$vector@U_Position_Dword@@V?$allocator@U_Position_Dword@@@std@@@std@@CGXXZ 10006650 f i MegamapTAStuff.obj
 0001:00005660       ?allocate@?$allocator@U_Position_Dword@@@std@@QAEPAU_Position_Dword@@I@Z 10006660 f i MegamapTAStuff.obj
 0001:00005680       ?begin@?$vector@U_Position_Dword@@V?$allocator@U_Position_Dword@@@std@@@std@@QAE?AV?$_Vector_iterator@V?$_Vector_val@U?$_Simple_types@U_Position_Dword@@@std@@@std@@@2@XZ 10006680 f i MegamapTAStuff.obj
 0001:000056b0       ?capacity@?$vector@U_Position_Dword@@V?$allocator@U_Position_Dword@@@std@@@std@@QBEIXZ 100066b0 f i MegamapTAStuff.obj
 0001:000056e0       ?deallocate@?$allocator@U_Position_Dword@@@std@@QAEXQAU_Position_Dword@@I@Z 100066e0 f i MegamapTAStuff.obj
 0001:00005700       ?end@?$vector@U_Position_Dword@@V?$allocator@U_Position_Dword@@@std@@@std@@QAE?AV?$_Vector_iterator@V?$_Vector_val@U?$_Simple_types@U_Position_Dword@@@std@@@std@@@2@XZ 10006700 f i MegamapTAStuff.obj
 0001:00005740       ?max@?$numeric_limits@H@std@@SGHXZ 10006740 f i MegamapTAStuff.obj
 0001:00005750       ?max_size@?$_Default_allocator_traits@V?$allocator@U_Position_Dword@@@std@@@std@@SGIABV?$allocator@U_Position_Dword@@@2@@Z 10006750 f i MegamapTAStuff.obj
 0001:00005760       ?max_size@?$vector@U_Position_Dword@@V?$allocator@U_Position_Dword@@@std@@@std@@QBEIXZ 10006760 f i MegamapTAStuff.obj
 0001:000057a0       ?push_back@?$vector@U_Position_Dword@@V?$allocator@U_Position_Dword@@@std@@@std@@QAEXABU_Position_Dword@@@Z 100067a0 f i MegamapTAStuff.obj
 0001:000057c0       ?what@exception@std@@UBEPBDXZ 100067c0 f i MegamapTAStuff.obj
 0001:000057f0       ___local_stdio_printf_options 100067f0 f i MegamapTAStuff.obj
 0001:00005800       __vsprintf_s_l             10006800 f i MegamapTAStuff.obj
 0001:00005850       _vsprintf_s                10006850 f i MegamapTAStuff.obj
 0001:00005870       ??0ProjectileMap@@QAE@PAVFullScreenMinimap@@PAVUnitsMinimap@@@Z 10006870 f   ProjectileMap.obj
 0001:000058a0       ??1ProjectileMap@@QAE@XZ   100068a0 f   ProjectileMap.obj
 0001:000058b0       ?DrawNuke@ProjectileMap@@AAEXPAEPAUtagPOINT@@HHPAUProjectileStruct@@@Z 100068b0 f   ProjectileMap.obj
 0001:00005aa0       ?DrawProjectile@ProjectileMap@@AAEXPAEPAUtagPOINT@@PAUProjectileStruct@@@Z 10006aa0 f   ProjectileMap.obj
 0001:00005bb0       ?DrawWeapon@ProjectileMap@@AAEXPAEPAUtagPOINT@@HH@Z 10006bb0 f   ProjectileMap.obj
 0001:00005ca0       ?IsPosInPlayerLos@ProjectileMap@@AAEHIIPAUProjectileStruct@@@Z 10006ca0 f   ProjectileMap.obj
 0001:00005df0       ?NowDrawProjectile@ProjectileMap@@QAEXPAEPAUtagPOINT@@@Z 10006df0 f   ProjectileMap.obj
 0001:00005e70       ??$strcpy_s@$0BAA@@@YAHAAY0BAA@DPBD@Z 10006e70 f i UnitIcon.obj
 0001:00005e90       ??0TABMP@@QAE@XZ           10006e90 f   UnitIcon.obj
 0001:00005f10       ??0UnitIcon@@QAE@PAD@Z     10006f10 f   UnitIcon.obj
 0001:00006030       ??1TABMP@@QAE@XZ           10007030 f   UnitIcon.obj
 0001:000060b0       ??1UnitIcon@@QAE@XZ        100070b0 f   UnitIcon.obj
 0001:00006140       ??_GPCX@@QAEPAXI@Z         10007140 f i UnitIcon.obj
 0001:00006180       ??_GTABMP@@QAEPAXI@Z       10007180 f i UnitIcon.obj
 0001:000061b0       ?BufSize@PCX@@QAEJXZ       100071b0 f i UnitIcon.obj
 0001:000061d0       ?BufSize@TABMP@@QAEJXZ     100071d0 f i UnitIcon.obj
 0001:000061f0       ?BufSize@UnitIcon@@QAEJXZ  100071f0 f   UnitIcon.obj
 0001:00006230       ?Data@TABMP@@QAEPAEXZ      10007230 f i UnitIcon.obj
 0001:00006250       ?Data@UnitIcon@@QAEPAEXZ   10007250 f   UnitIcon.obj
 0001:00006290       ?Height@TABMP@@QAEJXZ      10007290 f i UnitIcon.obj
 0001:000062b0       ?Height@UnitIcon@@QAEJXZ   100072b0 f   UnitIcon.obj
 0001:000062f0       ?Load@TABMP@@QAEXPAD@Z     100072f0 f   UnitIcon.obj
 0001:000064e0       ?PCXData@PCX@@QAEPAEXZ     100074e0 f i UnitIcon.obj
 0001:00006500       ?Transformer@TABMP@@QAEXPAEPAUtagLOGPALETTE@@PAUtagBITMAPINFO@@0@Z 10007500 f   UnitIcon.obj
 0001:000065c0       ?Width@TABMP@@QAEJXZ       100075c0 f i UnitIcon.obj
 0001:000065e0       ?Width@UnitIcon@@QAEJXZ    100075e0 f   UnitIcon.obj
 0001:00006620       ??_GLimitCrack@@QAEPAXI@Z  10007620 f i ddraw.obj
 0001:00006650       ??_GTABugFixing@@QAEPAXI@Z 10007650 f i ddraw.obj
 0001:00006690       ??_GTADRConfig@@QAEPAXI@Z  10007690 f i ddraw.obj
 0001:000066d0       ??_GUnicodeSupport@@QAEPAXI@Z 100076d0 f i ddraw.obj
 0001:00006710       ??_G_TAHPI@@QAEPAXI@Z      10007710 f i ddraw.obj
 0001:00006740       ?AddtionInit@@YGHPAUtagInlineX86StackBuffer@@@Z 10007740 f   ddraw.obj
 0001:00006760       ?AddtionInitAfterDDraw@@YGHPAUtagInlineX86StackBuffer@@@Z 10007760 f   ddraw.obj
 0001:000068e0       ?AddtionRelease@@YGXXZ     100078e0 f   ddraw.obj
 0001:00006940       ?AddtionReleaseAfterDDraw@@YGXXZ 10007940 f   ddraw.obj
 0001:000069d0       ?AllocateNewArray@@YGXXZ   100079d0 f   ddraw.obj
 0001:00006a80       ?ApplyWeaponIdsPatches@@YGXXZ 10007a80 f   ddraw.obj
 0001:00006c90       ?DirectDrawCreate@@YGJPAU_GUID@@PAPAUIDirectDraw@@PAUIUnknown@@@Z 10007c90 f   ddraw.obj
 0001:00006d60       ?EnableSound@@YGXXZ        10007d60 f   ddraw.obj
 0001:00006d90       ?GetAddress@@YGP6GHXZPBD@Z 10007d90 f   ddraw.obj
 0001:00006dc0       ?GetSysDir@@YGXXZ          10007dc0 f   ddraw.obj
 0001:00006f10       ?MyMod@@YGXXZ              10007f10 f   ddraw.obj
 0001:00007790       ?SetExeMemoryProtection@@YGHPAX0K@Z 10008790 f   ddraw.obj
 0001:000077c0       ?SetupFileMap@@YG_NXZ      100087c0 f   ddraw.obj
 0001:00007850       ?SetupLocalFileMap@@YG_NXZ 10008850 f   ddraw.obj
 0001:000078d0       ?SetupTAHookFileMap@@YGXXZ 100088d0 f   ddraw.obj
 0001:00007940       ?ShutDownTAHookFileMap@@YGXXZ 10008940 f   ddraw.obj
 0001:00007970       ?ShutdownFileMap@@YGXXZ    10008970 f   ddraw.obj
 0001:000079a0       ?ShutdownLocalFileMap@@YGXXZ 100089a0 f   ddraw.obj
 0001:000079d0       ?SoundMixingBuffers@@YGXXZ 100089d0 f   ddraw.obj
 0001:000079f0       ?StaticInitializers_DllMain@@YGXXZ 100089f0 f   ddraw.obj
 0001:00007a60       ?StaticInitializers_WeaponIds@@YGXXZ 10008a60 f   ddraw.obj
 0001:00007c60       ?WeaponIds@@YGXXZ          10008c60 f   ddraw.obj
 0001:00007c70       ?WriteBytes@@YGXPAXQAEK@Z  10008c70 f   ddraw.obj
 0001:00007c90       ?WriteJumpHook@@YGXPAX0@Z  10008c90 f   ddraw.obj
 0001:00007cb0       ?____AreaOfEffectDamage_Hook_1@@YGXXZ 10008cb0 f   ddraw.obj
 0001:00007de0       ?____AreaOfEffectDamage_Hook_1_HelperA@@YGXXZ 10008de0 f   ddraw.obj
 0001:00007e20       ?____FeaturesTakeWeaponDamage_Hook_0_1@@YGXXZ 10008e20 f   ddraw.obj
 0001:00007e90       ?____FeaturesTakeWeaponDamage_Hook_1@@YGXXZ 10008e90 f   ddraw.obj
 0001:00007f50       ?____FeaturesTakeWeaponDamage_Hook_1_HelperA@@YGXXZ 10008f50 f   ddraw.obj
 0001:00007f90       ?____FeaturesTakeWeaponDamage_Hook_2@@YGXXZ 10008f90 f   ddraw.obj
 0001:00007fb0       ?____FeaturesTakeWeaponDamage_Hook_3@@YGXXZ 10008fb0 f   ddraw.obj
 0001:00007fd0       ?____FeaturesTakeWeaponDamage_Hook_4@@YGXXZ 10008fd0 f   ddraw.obj
 0001:00007ff0       ?____FeaturesTakeWeaponDamage_Hook_5@@YGXXZ 10008ff0 f   ddraw.obj
 0001:00008070       ?____FeaturesTakeWeaponDamage_Hook_5_HelperA@@YGHK@Z 10009070 f   ddraw.obj
 0001:000080a0       ?____FireCallback1_Hook_1@@YGXXZ 100090a0 f   ddraw.obj
 0001:00008250       ?____FireCallback2_Hook_1@@YGXXZ 10009250 f   ddraw.obj
 0001:00008400       ?____FireCallback3_Hook_1@@YGXXZ 10009400 f   ddraw.obj
 0001:000085c0       ?____FireCallback4_Hook_1@@YGXXZ 100095c0 f   ddraw.obj
 0001:00008770       ?____FireMapWeapon_Hook_1@@YGXXZ 10009770 f   ddraw.obj
 0001:00008890       ?____LoadAllWeapons_Hook_1@@YGXXZ 10009890 f   ddraw.obj
 0001:000088b0       ?____LoadGame_LoadUnit_Hook_1@@YGXXZ 100098b0 f   ddraw.obj
 0001:000088d0       ?____LoadUnitInfoFromFBI_Hook_1@@YGXXZ 100098d0 f   ddraw.obj
 0001:00008900       ?____LoadWeaponFromTDF_Hook_1@@YGXXZ 10009900 f   ddraw.obj
 0001:00008930       ?____LoadWeaponFromTDF_Hook_1_HelperA@@YGPAXK@Z 10009930 f   ddraw.obj
 0001:00008950       ?____LoadWeaponFromTDF_Hook_2@@YGXXZ 10009950 f   ddraw.obj
 0001:000089d0       ?____LoadWeaponFromTDF_Hook_3@@YGXXZ 100099d0 f   ddraw.obj
 0001:00008a20       ?____LoadWeaponFromTDF_Hook_4@@YGXXZ 10009a20 f   ddraw.obj
 0001:00008a60       ?____MixingBuffers_Hook_1@@YGXXZ 10009a60 f   ddraw.obj
 0001:00008a80       ?____NewDataFile_Hook_1_HelperA@@YGXXZ 10009a80 f   ddraw.obj
 0001:00008d80       ?____Order_Resurrect_Hook_1@@YGXXZ 10009d80 f   ddraw.obj
 0001:00008e50       ?____PacketDispatcher_Hook_1@@YGXXZ 10009e50 f   ddraw.obj
 0001:00008f20       ?____PacketSize_PacketFeatureExplode_Hook_1@@YGXXZ 10009f20 f   ddraw.obj
 0001:00008f40       ?____ReceiveAreaOfEffectDamage_Hook_1@@YGXXZ 10009f40 f   ddraw.obj
 0001:00008f50       ?____ReceiveWeaponFired_Hook_1@@YGXXZ 10009f50 f   ddraw.obj
 0001:00008fc0       ?____ReclaimFinished_Hook_1@@YGXXZ 10009fc0 f   ddraw.obj
 0001:000090d0       ?____SaveGame_SaveUnit_Hook_1@@YGXXZ 1000a0d0 f   ddraw.obj
 0001:000090e0       ?____SendFireWeapon_Hook_1@@YGXXZ 1000a0e0 f   ddraw.obj
 0001:000092b0       ?____SendFireWeapon_Hook_1_HelperA@@YGXXZ 1000a2b0 f   ddraw.obj
 0001:000092f0       ?____StartTreeBurn_Hook_1@@YGXXZ 1000a2f0 f   ddraw.obj
 0001:000093a0       ?____StartWeaponsScripts_Hook_1@@YGXXZ 1000a3a0 f   ddraw.obj
 0001:000093c0       ?____WeaponNameToWeaponTypeDefinition_Replace@@YGPADPAD@Z 1000a3c0 f   ddraw.obj
 0001:00009430       ?____WeaponUnknown1_Hook_1@@YGXXZ 1000a430 f   ddraw.obj
 0001:00009440       ?____WeaponUnknown2_Hook_1@@YGXXZ 1000a440 f   ddraw.obj
 0001:00009450       ?____WeaponUnknown3_Hook_1@@YGXXZ 1000a450 f   ddraw.obj
 0001:00009460       ?____free@@YAXPAX@Z        1000a460 f   ddraw.obj
 0001:00009480       ?____malloc@@YAPAXI@Z      1000a480 f   ddraw.obj
 0001:000094a0       ?____strlen@@YGIPBD@Z      1000a4a0 f   ddraw.obj
 0001:000094d0       _AheadLib_AcquireDDThreadLock 1000a4d0 f   ddraw.obj
 0001:000094e0       _AheadLib_CompleteCreateSysmemSurface 1000a4e0 f   ddraw.obj
 0001:000094f0       _AheadLib_D3DParseUnknownCommand 1000a4f0 f   ddraw.obj
 0001:00009500       _AheadLib_DDGetAttachedSurfaceLcl 1000a500 f   ddraw.obj
 0001:00009510       _AheadLib_DDInternalLock   1000a510 f   ddraw.obj
 0001:00009520       _AheadLib_DDInternalUnlock 1000a520 f   ddraw.obj
 0001:00009530       _AheadLib_DSoundHelp       1000a530 f   ddraw.obj
 0001:00009540       _AheadLib_DirectDrawCreateClipper 1000a540 f   ddraw.obj
 0001:00009550       _AheadLib_DirectDrawCreateEx 1000a550 f   ddraw.obj
 0001:00009560       _AheadLib_DirectDrawEnumerateA 1000a560 f   ddraw.obj
 0001:00009570       _AheadLib_DirectDrawEnumerateExA 1000a570 f   ddraw.obj
 0001:00009580       _AheadLib_DirectDrawEnumerateExW 1000a580 f   ddraw.obj
 0001:00009590       _AheadLib_DirectDrawEnumerateW 1000a590 f   ddraw.obj
 0001:000095a0       _AheadLib_DllCanUnloadNow  1000a5a0 f   ddraw.obj
 0001:000095b0       _AheadLib_DllGetClassObject 1000a5b0 f   ddraw.obj
 0001:000095c0       _AheadLib_GetDDSurfaceLocal 1000a5c0 f   ddraw.obj
 0001:000095d0       _AheadLib_GetOLEThunkData  1000a5d0 f   ddraw.obj
 0001:000095e0       _AheadLib_GetSurfaceFromDC 1000a5e0 f   ddraw.obj
 0001:000095f0       _AheadLib_RegisterSpecialCase 1000a5f0 f   ddraw.obj
 0001:00009600       _AheadLib_ReleaseDDThreadLock 1000a600 f   ddraw.obj
 0001:00009610       _AheadLib_SetAppCompatData 1000a610 f   ddraw.obj
 0001:00009620       _DllMain@12                1000a620 f   ddraw.obj
 0001:000098f0       ??0ExternHotKey@@QAE@XZ    1000a8f0 f   ExternhotKey.obj
 0001:00009c10       ??1ExternHotKey@@QAE@XZ    1000ac10 f   ExternhotKey.obj
 0001:00009d90       ?AddRoutine_InitAfterExternKey@@YGXXZ 1000ad90 f   ExternhotKey.obj
 0001:00009dd0       ?AddtionRoutine_CircleSelect@@YGHPAUtagInlineX86StackBuffer@@@Z 1000add0 f   ExternhotKey.obj
 0001:00009e90       ?AddtionRoutine_UnitINFOInit@@YGHPAUtagInlineX86StackBuffer@@@Z 1000ae90 f   ExternhotKey.obj
 0001:00009ec0       ?DestroyExternTypeMask@ExternHotKey@@QAEXXZ 1000aec0 f   ExternhotKey.obj
 0001:00009ff0       ?FilterSelectedUnit@ExternHotKey@@QAEHXZ 1000aff0 f   ExternhotKey.obj
 0001:0000a060       ?FilterSelectedUnitProc@ExternHotKey@@QAEHW4TAUnitType@@@Z 1000b060 f   ExternhotKey.obj
 0001:0000a260       ?FindIdelFactory@ExternHotKey@@QAEXXZ 1000b260 f   ExternhotKey.obj
 0001:0000a420       ?FindIdleConst@ExternHotKey@@QAEXXZ 1000b420 f   ExternhotKey.obj
 0001:0000a630       ?InitExternTypeMask@ExternHotKey@@QAEHXZ 1000b630 f   ExternhotKey.obj
 0001:0000aec0       ?Message@ExternHotKey@@QAE_NPAUHWND__@@IIJ@Z 1000bec0 f   ExternhotKey.obj
 0001:0000b2a0       ?SelectOnlyInScreenSameTypeUnit@ExternHotKey@@QAEHH@Z 1000c2a0 f   ExternhotKey.obj
 0001:0000b4c0       ?SelectOnlyInScreenWeaponUnit@ExternHotKey@@QAEHI@Z 1000c4c0 f   ExternhotKey.obj
 0001:0000b630       ?SelectUnitInRect@ExternHotKey@@QAEHW4TAUnitType@@PAUtagRECT@@_N@Z 1000c630 f   ExternhotKey.obj
 0001:0000b800       ??0FullScreenMinimap@@QAE@HH@Z 1000c800 f   fullscreenminimap.obj
 0001:0000bbc0       ??1FullScreenMinimap@@QAE@XZ 1000cbc0 f   fullscreenminimap.obj
 0001:0000be50       ??_GMappedMap@@QAEPAXI@Z   1000ce50 f i fullscreenminimap.obj
 0001:0000be90       ??_GMegaMapControl@@QAEPAXI@Z 1000ce90 f i fullscreenminimap.obj
 0001:0000bed0       ??_GMegamapTAStuff@@QAEPAXI@Z 1000ced0 f i fullscreenminimap.obj
 0001:0000bf10       ??_GProjectileMap@@QAEPAXI@Z 1000cf10 f i fullscreenminimap.obj
 0001:0000bf40       ??_GSingleHook@@QAEPAXI@Z  1000cf40 f i fullscreenminimap.obj
 0001:0000bf70       ??_GTAGameAreaReDrawer@@QAEPAXI@Z 1000cf70 f i fullscreenminimap.obj
 0001:0000bfa0       ??_GTNTtoMiniMap@@QAEPAXI@Z 1000cfa0 f i fullscreenminimap.obj
 0001:0000bfd0       ??_GUnitsMinimap@@QAEPAXI@Z 1000cfd0 f i fullscreenminimap.obj
 0001:0000c010       ?BlockGUIState@FullScreenMinimap@@QAEXXZ 1000d010 f   fullscreenminimap.obj
 0001:0000c020       ?BlockTADraw@@YGHPAUtagInlineX86StackBuffer@@@Z 1000d020 f   fullscreenminimap.obj
 0001:0000c070       ?DischargeGUIState@FullScreenMinimap@@QAEXXZ 1000d070 f   fullscreenminimap.obj
 0001:0000c080       ?DischargeTADraw@@YGHPAUtagInlineX86StackBuffer@@@Z 1000d080 f   fullscreenminimap.obj
 0001:0000c0b0       ?EnterMegaMap@FullScreenMinimap@@QAEXXZ 1000d0b0 f   fullscreenminimap.obj
 0001:0000c0d0       ?ForceTADrawBlit@@YGHPAUtagInlineX86StackBuffer@@@Z 1000d0d0 f   fullscreenminimap.obj
 0001:0000c110       ?IfRenderMegaThenBlock2@@YGXXZ 1000d110 f   fullscreenminimap.obj
 0001:0000c140       ?IfRenderMegaThenBlock@@YGXXZ 1000d140 f   fullscreenminimap.obj
 0001:0000c180       ?InitMinimap@FullScreenMinimap@@QAEXPAUtagTNTHeaderStruct@@PAUtagRECT@@@Z 1000d180 f   fullscreenminimap.obj
 0001:0000ccf0       ?InitSurface@FullScreenMinimap@@QAEXPAUIDirectDraw@@@Z 1000dcf0 f   fullscreenminimap.obj
 0001:0000cd20       ?InitSurface@FullScreenMinimap@@QAEXPAUIDirectDraw@@H@Z 1000dd20 f   fullscreenminimap.obj
 0001:0000cdf0       ?IsBliting@FullScreenMinimap@@QAEHXZ 1000ddf0 f   fullscreenminimap.obj
 0001:0000ce10       ?LoadMap_Routine@@YGHPAUtagInlineX86StackBuffer@@@Z 1000de10 f   fullscreenminimap.obj
 0001:0000ce50       ?LockBlit@FullScreenMinimap@@QAEXPAXHHH@Z 1000de50 f   fullscreenminimap.obj
 0001:0000cf10       ?MegamapFrameThd@@YGKXZ    1000df10 f   fullscreenminimap.obj
 0001:0000d0e0       ?Message@FullScreenMinimap@@QAE_NPAUHWND__@@IIJ@Z 1000e0e0 f   fullscreenminimap.obj
 0001:0000d140       ?QuitMegaMap@FullScreenMinimap@@QAEXXZ 1000e140 f   fullscreenminimap.obj
 0001:0000d160       ?ReleaseSurface@FullScreenMinimap@@QAEXXZ 1000e160 f   fullscreenminimap.obj
 0001:0000d1c0       ?Set@FullScreenMinimap@@QAEXH@Z 1000e1c0 f   fullscreenminimap.obj
 0001:0000d200       ?SetVid@FullScreenMinimap@@QAEXH@Z 1000e200 f   fullscreenminimap.obj
 0001:0000d220       ?UpdateFrame@FullScreenMinimap@@QAGXPAXPAU_DDSURFACEDESC@@@Z 1000e220 f   fullscreenminimap.obj
 0001:0000d560       ?gametimeupdate@@YGXXZ     1000e560 f   fullscreenminimap.obj
 0001:0000d580       ?writejmp@FullScreenMinimap@@QAEXII@Z 1000e580 f i fullscreenminimap.obj
 0001:0000d5d0       ?CopyGafSequenceToBits@@YGPAEPAEPAUtagPOINT@@PAU_GAFSequence@@H@Z 1000e5d0 f   gaf.obj
 0001:0000d640       ?CopyGafToBits@@YGXPAEPAUtagPOINT@@IIPAU_GAFFrame@@PAUtagRECT@@@Z 1000e640 f   gaf.obj
 0001:0000d6d0       ?CreateSurfByGafFrame@@YGPAUIDirectDrawSurface@@PAUIDirectDraw@@PAU_GAFFrame@@H@Z 1000e6d0 f   gaf.obj
 0001:0000d820       ?CreateSurfByGafSequence@@YGPAUIDirectDrawSurface@@PAUIDirectDraw@@PAU_GAFSequence@@_N@Z 1000e820 f   gaf.obj
 0001:0000da30       ?InstanceGAFFrame@@YGPAEPAU_GAFFrame@@PAPAEPAUtagPOINT@@@Z 1000ea30 f   gaf.obj
 0001:0000dae0       ??0GUIExpand@@QAE@XZ       1000eae0 f   GuiExpand.obj
 0001:0000dce0       ??1GUIExpand@@QAE@XZ       1000ece0 f   GuiExpand.obj
 0001:0000dd80       ??_GFullScreenMinimap@@QAEPAXI@Z 1000ed80 f i GuiExpand.obj
 0001:0000ddc0       ??_GMenuResolution@@QAEPAXI@Z 1000edc0 f i GuiExpand.obj
 0001:0000ddf0       ??_GShareDialogExpand@@QAEPAXI@Z 1000edf0 f i GuiExpand.obj
 0001:0000de20       ?ApplySelectUnitMenu_Wapper@@YGXXZ 1000ee20 f   HardCodeFunctions.obj
 0001:0000de60       ?ChatText@@YGHPAD@Z        1000ee60 f   HardCodeFunctions.obj
 0001:0000ded0       ?CleanIDMaskInTypeAry@@YG_NGQAK@Z 1000eed0 f   HardCodeFunctions.obj
 0001:0000df30       ?CountSelectedUnits@@YGHXZ 1000ef30 f   HardCodeFunctions.obj
 0001:0000e000       ?DeselectUnits@@YGXXZ      1000f000 f   HardCodeFunctions.obj
 0001:0000e0c0       ?DrawDotteCircle@@YGHPAEPAUtagPOINT@@HHHHHH@Z 1000f0c0 f   HardCodeFunctions.obj
 0001:0000e140       ?DrawRadarCircle@@YGHPAEPAUtagPOINT@@HHHH@Z 1000f140 f   HardCodeFunctions.obj
 0001:0000e1c0       ?DrawTextInScreen_ez@@YG_NPAU_OFFSCREEN@@PADHH@Z 1000f1c0 f   HardCodeFunctions.obj
 0001:0000e1f0       ?GetMaxScrollX@@YGHXZ      1000f1f0 f   HardCodeFunctions.obj
 0001:0000e230       ?GetMaxScrollY@@YGHXZ      1000f230 f   HardCodeFunctions.obj
 0001:0000e270       ?GetUnitIDMaskAryByCategory@@YGPAKPAD@Z 1000f270 f   HardCodeFunctions.obj
 0001:0000e2f0       ?IsPlayerAllyUnit@@YGHHH@Z 1000f2f0 f   HardCodeFunctions.obj
 0001:0000e3a0       ?MatchInTypeAry@@YG_NGQAK@Z 1000f3a0 f   HardCodeFunctions.obj
 0001:0000e3d0       ?PauseCDMusic@@YGHXZ       1000f3d0 f   HardCodeFunctions.obj
 0001:0000e400       ?ScrollToCenter@@YGXHH@Z   1000f400 f   HardCodeFunctions.obj
 0001:0000e4c0       ?SendOrder@@YGXIIIH_N@Z    1000f4c0 f   HardCodeFunctions.obj
 0001:0000e540       ?SetIDMaskInTypeAry@@YG_NGQAK@Z 1000f540 f   HardCodeFunctions.obj
 0001:0000e580       ?UpdateSelectUnitEffect@@YGXXZ 1000f580 f   HardCodeFunctions.obj
 0001:0000e5c0       ?UpdateTAProcess@@YGHXZ    1000f5c0 f   HardCodeFunctions.obj
 0001:0000e670       ?ViewPlayerLos_Replay@@YGHHH@Z 1000f670 f   HardCodeFunctions.obj
 0001:0000e870       ?freeTAMem@@YGXPAX@Z       1000f870 f   HardCodeFunctions.obj
 0001:0000e8e0       ?resumeOffScreen@@YGXXZ    1000f8e0 f   HardCodeFunctions.obj
 0001:0000e8f0       ?resumeScreenPlatte@@YGXXZ 1000f8f0 f   HardCodeFunctions.obj
 0001:0000e950       _sprintf_s                 1000f950 f i HardCodeFunctions.obj
 0001:0000e990       ??0ModifyHook@@QAE@IHKPAEKK@Z 1000f990 f   ModifyHook.obj
 0001:0000ea40       ??0ModifyHook@@QAE@PAEHK0KK@Z 1000fa40 f   ModifyHook.obj
 0001:0000eaf0       ??0ModifyHook@@QAE@XZ      1000faf0 f   ModifyHook.obj
 0001:0000eb40       ??1ModifyHook@@QAE@XZ      1000fb40 f   ModifyHook.obj
 0001:0000ec00       ?Hook@ModifyHook@@UAEXXZ   1000fc00 f   ModifyHook.obj
 0001:0000ed40       ?InitHookClass@ModifyHook@@AAEXPAEHK0KK@Z 1000fd40 f   ModifyHook.obj
 0001:0000ef40       ??0_TAHPI@@QAE@H@Z         1000ff40 f   HPIfunc.obj
 0001:0000f020       ??1_TAHPI@@QAE@XZ          10010020 f   HPIfunc.obj
 0001:0000f070       ?TADontInit@@YGHPAUtagInlineX86StackBuffer@@@Z 10010070 f   HPIfunc.obj
 0001:0000f090       ?fclose@_TAHPI@@QAEHPAU_OPENTAFILE@@@Z 10010090 f   HPIfunc.obj
 0001:0000f0b0       ?filelen@_TAHPI@@QAEIPAU_OPENTAFILE@@@Z 100100b0 f   HPIfunc.obj
 0001:0000f0d0       ?filelength@_TAHPI@@QAEIPAD@Z 100100d0 f   HPIfunc.obj
 0001:0000f0f0       ?fopen@_TAHPI@@QAEPAU_OPENTAFILE@@PAD0@Z 100100f0 f   HPIfunc.obj
 0001:0000f110       ?free_readfile@_TAHPI@@QAEXPAD@Z 10010110 f   HPIfunc.obj
 0001:0000f130       ?read@_TAHPI@@QAEHPAU_OPENTAFILE@@PAXH@Z 10010130 f   HPIfunc.obj
 0001:0000f150       ?readfile@_TAHPI@@QAEPADPADPAI@Z 10010150 f   HPIfunc.obj
 0001:0000f170       ??0IDDraw@@QAE@PAUIDirectDraw@@_N@Z 10010170 f   iddraw.obj
 0001:0000f210       ??0IDirectDraw@@QAE@XZ     10010210 f i iddraw.obj
 0001:0000f230       ??0IUnknown@@QAE@XZ        10010230 f i iddraw.obj
 0001:0000f240       ?AddRef@IDDraw@@UAGKXZ     10010240 f   iddraw.obj
 0001:0000f270       ?Compact@IDDraw@@UAGJXZ    10010270 f   iddraw.obj
 0001:0000f2a0       ?CreateClipper@IDDraw@@UAGJKPAPAUIDirectDrawClipper@@PAUIUnknown@@@Z 100102a0 f   iddraw.obj
 0001:0000f2e0       ?CreatePalette@IDDraw@@UAGJKPAUtagPALETTEENTRY@@PAPAUIDirectDrawPalette@@PAUIUnknown@@@Z 100102e0 f   iddraw.obj
 0001:0000f320       ?CreateSurface@IDDraw@@UAGJPAU_DDSURFACEDESC@@PAPAUIDirectDrawSurface@@PAUIUnknown@@@Z 10010320 f   iddraw.obj
 0001:0000f3e0       ?DuplicateSurface@IDDraw@@UAGJPAUIDirectDrawSurface@@PAPAU2@@Z 100103e0 f   iddraw.obj
 0001:0000f410       ?EnumDisplayModes@IDDraw@@UAGJKPAU_DDSURFACEDESC@@PAXP6GJ01@Z@Z 10010410 f   iddraw.obj
 0001:0000f450       ?EnumSurfaces@IDDraw@@UAGJKPAU_DDSURFACEDESC@@PAXP6GJPAUIDirectDrawSurface@@01@Z@Z 10010450 f   iddraw.obj
 0001:0000f490       ?FlipToGDISurface@IDDraw@@UAGJXZ 10010490 f   iddraw.obj
 0001:0000f4c0       ?GetCaps@IDDraw@@UAGJPAU_DDCAPS_DX7@@0@Z 100104c0 f   iddraw.obj
 0001:0000f4f0       ?GetDisplayMode@IDDraw@@UAGJPAU_DDSURFACEDESC@@@Z 100104f0 f   iddraw.obj
 0001:0000f520       ?GetFourCCCodes@IDDraw@@UAGJPAK0@Z 10010520 f   iddraw.obj
 0001:0000f550       ?GetGDISurface@IDDraw@@UAGJPAPAUIDirectDrawSurface@@@Z 10010550 f   iddraw.obj
 0001:0000f580       ?GetMonitorFrequency@IDDraw@@UAGJPAK@Z 10010580 f   iddraw.obj
 0001:0000f5b0       ?GetScanLine@IDDraw@@UAGJPAK@Z 100105b0 f   iddraw.obj
 0001:0000f5e0       ?GetVerticalBlankStatus@IDDraw@@UAGJPAH@Z 100105e0 f   iddraw.obj
 0001:0000f610       ?Initialize@IDDraw@@UAGJPAU_GUID@@@Z 10010610 f   iddraw.obj
 0001:0000f640       ?QueryInterface@IDDraw@@UAGJABU_GUID@@PAPAX@Z 10010640 f   iddraw.obj
 0001:0000f670       ?Release@IDDraw@@UAGKXZ    10010670 f   iddraw.obj
 0001:0000f6c0       ?RestoreDisplayMode@IDDraw@@UAGJXZ 100106c0 f   iddraw.obj
 0001:0000f6f0       ?SetCooperativeLevel@IDDraw@@UAGJPAUHWND__@@K@Z 100106f0 f   iddraw.obj
 0001:0000f750       ?SetDisplayMode@IDDraw@@UAGJKKK@Z 10010750 f   iddraw.obj
 0001:0000f7c0       ?WaitForVerticalBlank@IDDraw@@UAGJKPAX@Z 100107c0 f   iddraw.obj
 0001:0000f7f0       ?resume@IDDraw@@QAGXXZ     100107f0 f   iddraw.obj
 0001:0000f820       ??0IDDrawSurface@@QAE@PAUIDirectDraw@@PAU_DDSURFACEDESC@@PAPAUIDirectDrawSurface@@PAUIUnknown@@PAJ_NHH@Z 10010820 f   iddrawsurface.obj
 0001:0000fd60       ??0IDirectDrawSurface@@QAE@XZ 10010d60 f i iddrawsurface.obj
 0001:0000fd80       ??_GAlliesWhiteboard@@QAEPAXI@Z 10010d80 f i iddrawsurface.obj
 0001:0000fdc0       ??_GCChangeQueue@@QAEPAXI@Z 10010dc0 f i iddrawsurface.obj
 0001:0000fdf0       ??_GCDDDTA@@QAEPAXI@Z      10010df0 f i iddrawsurface.obj
 0001:0000fe20       ??_GCMapRect@@QAEPAXI@Z    10010e20 f i iddrawsurface.obj
 0001:0000fe50       ??_GCTAHook@@QAEPAXI@Z     10010e50 f i iddrawsurface.obj
 0001:0000fe90       ??_GCWarp@@QAEPAXI@Z       10010e90 f i iddrawsurface.obj
 0001:0000fec0       ?AddAttachedSurface@IDDrawSurface@@UAGJPAUIDirectDrawSurface@@@Z 10010ec0 f   iddrawsurface.obj
 0001:0000fef0       ?AddOverlayDirtyRect@IDDrawSurface@@UAGJPAUtagRECT@@@Z 10010ef0 f   iddrawsurface.obj
 0001:0000ff20       ?AddRef@IDDrawSurface@@UAGKXZ 10010f20 f   iddrawsurface.obj
 0001:0000ff50       ?Blt@IDDrawSurface@@UAGJPAUtagRECT@@PAUIDirectDrawSurface@@0KPAU_DDBLTFX@@@Z 10010f50 f   iddrawsurface.obj
 0001:0000ffa0       ?BltBatch@IDDrawSurface@@UAGJPAU_DDBLTBATCH@@KK@Z 10010fa0 f   iddrawsurface.obj
 0001:0000ffe0       ?BltFast@IDDrawSurface@@UAGJKKPAUIDirectDrawSurface@@PAUtagRECT@@K@Z 10010fe0 f   iddrawsurface.obj
 0001:00010020       ?CorrectName@IDDrawSurface@@QAEXPAD@Z 10011020 f   iddrawsurface.obj
 0001:00010080       ?CreateClipplist@IDDrawSurface@@QAEXXZ 10011080 f   iddrawsurface.obj
 0001:000102e0       ?CreateDir@IDDrawSurface@@QAEXPAD@Z 100112e0 f   iddrawsurface.obj
 0001:00010380       ?CreateFileName@IDDrawSurface@@AAEXPADH@Z 10011380 f   iddrawsurface.obj
 0001:000105d0       ?DeInterlace@IDDrawSurface@@AAEXXZ 100115d0 f   iddrawsurface.obj
 0001:00010690       ?DeleteAttachedSurface@IDDrawSurface@@UAGJKPAUIDirectDrawSurface@@@Z 10011690 f   iddrawsurface.obj
 0001:000106d0       ?EnumAttachedSurfaces@IDDrawSurface@@UAGJPAXP6GJPAUIDirectDrawSurface@@PAU_DDSURFACEDESC@@0@Z@Z 100116d0 f   iddrawsurface.obj
 0001:00010710       ?EnumOverlayZOrders@IDDrawSurface@@UAGJKPAXP6GJPAUIDirectDrawSurface@@PAU_DDSURFACEDESC@@0@Z@Z 10011710 f   iddrawsurface.obj
 0001:00010750       ?Flip@IDDrawSurface@@UAGJPAUIDirectDrawSurface@@K@Z 10011750 f   iddrawsurface.obj
 0001:00010790       ?FrontSurface@IDDrawSurface@@QAEXPAUIDirectDrawSurface@@@Z 10011790 f   iddrawsurface.obj
 0001:000107b0       ?GetAttachedSurface@IDDrawSurface@@UAGJPAU_DDSCAPS@@PAPAUIDirectDrawSurface@@@Z 100117b0 f   iddrawsurface.obj
 0001:00010810       ?GetBltStatus@IDDrawSurface@@UAGJK@Z 10011810 f   iddrawsurface.obj
 0001:00010840       ?GetCaps@IDDrawSurface@@UAGJPAU_DDSCAPS@@@Z 10011840 f   iddrawsurface.obj
 0001:00010870       ?GetClipper@IDDrawSurface@@UAGJPAPAUIDirectDrawClipper@@@Z 10011870 f   iddrawsurface.obj
 0001:000108a0       ?GetColorKey@IDDrawSurface@@UAGJKPAU_DDCOLORKEY@@@Z 100118a0 f   iddrawsurface.obj
 0001:000108e0       ?GetDC@IDDrawSurface@@UAGJPAPAUHDC__@@@Z 100118e0 f   iddrawsurface.obj
 0001:00010910       ?GetFlipStatus@IDDrawSurface@@UAGJK@Z 10011910 f   iddrawsurface.obj
 0001:00010940       ?GetOverlayPosition@IDDrawSurface@@UAGJPAJ0@Z 10011940 f   iddrawsurface.obj
 0001:00010980       ?GetPalette@IDDrawSurface@@UAGJPAPAUIDirectDrawPalette@@@Z 10011980 f   iddrawsurface.obj
 0001:000109b0       ?GetPixelFormat@IDDrawSurface@@UAGJPAU_DDPIXELFORMAT@@@Z 100119b0 f   iddrawsurface.obj
 0001:000109e0       ?GetSurfaceDesc@IDDrawSurface@@UAGJPAU_DDSURFACEDESC@@@Z 100119e0 f   iddrawsurface.obj
 0001:00010a10       ?Initialize@IDDrawSurface@@UAGJPAUIDirectDraw@@PAU_DDSURFACEDESC@@@Z 10011a10 f   iddrawsurface.obj
 0001:00010a50       ?IsLost@IDDrawSurface@@UAGJXZ 10011a50 f   iddrawsurface.obj
 0001:00010ab0       ?Lock@IDDrawSurface@@UAGJPAUtagRECT@@PAU_DDSURFACEDESC@@KPAX@Z 10011ab0 f   iddrawsurface.obj
 0001:00010bb0       ?OutptInt@IDDrawSurface@@SGXH@Z 10011bb0 f   iddrawsurface.obj
 0001:00010be0       ?OutptTxt@IDDrawSurface@@SGXPAD@Z 10011be0 f   iddrawsurface.obj
 0001:00010bf0       ?QueryInterface@IDDrawSurface@@UAGJABU_GUID@@PAPAX@Z 10011bf0 f   iddrawsurface.obj
 0001:00010c30       ?Release@IDDrawSurface@@UAGKXZ 10011c30 f   iddrawsurface.obj
 0001:00010e90       ?ReleaseDC@IDDrawSurface@@UAGJPAUHDC__@@@Z 10011e90 f   iddrawsurface.obj
 0001:00010ec0       ?Restore@IDDrawSurface@@UAGJXZ 10011ec0 f   iddrawsurface.obj
 0001:00010f20       ?ScreenShot@IDDrawSurface@@QAEXXZ 10011f20 f   iddrawsurface.obj
 0001:00011120       ?Set@IDDrawSurface@@QAEX_N@Z 10012120 f   iddrawsurface.obj
 0001:00011140       ?SetClipper@IDDrawSurface@@UAGJPAUIDirectDrawClipper@@@Z 10012140 f   iddrawsurface.obj
 0001:00011170       ?SetColorKey@IDDrawSurface@@UAGJKPAU_DDCOLORKEY@@@Z 10012170 f   iddrawsurface.obj
 0001:000111b0       ?SetOverlayPosition@IDDrawSurface@@UAGJJJ@Z 100121b0 f   iddrawsurface.obj
 0001:000111f0       ?SetPalette@IDDrawSurface@@UAGJPAUIDirectDrawPalette@@@Z 100121f0 f   iddrawsurface.obj
 0001:00011230       ?Unlock@IDDrawSurface@@UAGJPAX@Z 10012230 f   iddrawsurface.obj
 0001:00011560       ?UpdateOverlay@IDDrawSurface@@UAGJPAUtagRECT@@PAUIDirectDrawSurface@@0KPAU_DDOVERLAYFX@@@Z 10012560 f   iddrawsurface.obj
 0001:000115a0       ?UpdateOverlayDisplay@IDDrawSurface@@UAGJK@Z 100125a0 f   iddrawsurface.obj
 0001:000115d0       ?UpdateOverlayZOrder@IDDrawSurface@@UAGJKPAUIDirectDrawSurface@@@Z 100125d0 f   iddrawsurface.obj
 0001:00011600       ?WinProc@@YGJPAUHWND__@@IIJ@Z 10012600 f   iddrawsurface.obj
 0001:00011a00       ?strstr@@YAPADQADQBD@Z     10012a00 f i iddrawsurface.obj
 0001:00011a60       ??0TAGameAreaReDrawer@@QAE@XZ 10012a60 f   GameRedrawer.obj
 0001:00011a90       ??1TAGameAreaReDrawer@@QAE@XZ 10012a90 f   GameRedrawer.obj
 0001:00011ae0       ?Cls@TAGameAreaReDrawer@@QAEXXZ 10012ae0 f   GameRedrawer.obj
 0001:00011b40       ?Flip@TAGameAreaReDrawer@@QAEPAEXZ 10012b40 f   GameRedrawer.obj
 0001:00011b80       ?GrayBlitOfBits@TAGameAreaReDrawer@@QAEHPAUtagRECT@@PAEPAUtagPOINT@@0H@Z 10012b80 f   GameRedrawer.obj
 0001:00011ea0       ?InitOwnSurface@TAGameAreaReDrawer@@QAEPAEPAUIDirectDraw@@H@Z 10012ea0 f   GameRedrawer.obj
 0001:00011fa0       ?MixBitsInBlit@TAGameAreaReDrawer@@QAEHPAUtagRECT@@PAEPAUtagPOINT@@0@Z 10012fa0 f   GameRedrawer.obj
 0001:00012250       ?MixDSufInBlit@TAGameAreaReDrawer@@QAEHPAEPAUtagRECT@@01@Z 10013250 f   GameRedrawer.obj
 0001:000122e0       ?ReleaseSurface@TAGameAreaReDrawer@@QAEXXZ 100132e0 f   GameRedrawer.obj
 0001:00012330       ?TAWGameAreaRect@TAGameAreaReDrawer@@QAEQAUtagRECT@@PAU2@@Z 10013330 f   GameRedrawer.obj
 0001:000123a0       ?backSurface_p@TAGameAreaReDrawer@@QAEQAEXZ 100133a0 f   GameRedrawer.obj
 0001:000123c0       ?frontSurface_p@TAGameAreaReDrawer@@QAEQAEXZ 100133c0 f   GameRedrawer.obj
 0001:000123e0       ??0MiniMapPicture@@QAE@HH@Z 100133e0 f   MapParse.obj
 0001:00012430       ??0TNTtoMiniMap@@QAE@KK@Z  10013430 f   MapParse.obj
 0001:00012530       ??0TNTtoMiniMap@@QAE@XZ    10013530 f   MapParse.obj
 0001:00012630       ??1MiniMapPicture@@QAE@XZ  10013630 f   MapParse.obj
 0001:00012660       ??1TNTtoMiniMap@@QAE@XZ    10013660 f   MapParse.obj
 0001:00012700       ??_GMiniMapPicture@@QAEPAXI@Z 10013700 f i MapParse.obj
 0001:00012730       ?DrawMiniMap@MiniMapPicture@@QAEHPAEPAUtagRECT@@HH1@Z 10013730 f   MapParse.obj
 0001:00012ac0       ?DrawMiniMap@TNTtoMiniMap@@QAEHPAEHH@Z 10013ac0 f   MapParse.obj
 0001:00012b10       ?DrawRectMapToBuf@TNTtoMiniMap@@AAEPAEPAPAEPAUtagTNTHeaderStruct@@PAUtagRECT@@@Z 10013b10 f   MapParse.obj
 0001:00012b90       ?MapFromTNTFileA@TNTtoMiniMap@@QAEXPAD@Z 10013b90 f   MapParse.obj
 0001:00012c80       ?MapFromTNTInMem@TNTtoMiniMap@@QAEXPAX@Z 10013c80 f   MapParse.obj
 0001:00012cb0       ?MapFromValidTNTHeader@TNTtoMiniMap@@QAEXPAUtagTNTHeaderStruct@@@Z 10013cb0 f   MapParse.obj
 0001:00012d10       ?ParseMyTNTHeader@TNTtoMiniMap@@QAEPAUtagTNTHeaderStruct@@PAU2@@Z 10013d10 f   MapParse.obj
 0001:00012db0       ?PictureInfo@MiniMapPicture@@QAEPAEPAPAEPAUtagPOINT@@@Z 10013db0 f   MapParse.obj
 0001:00012de0       ?PictureInfo@TNTtoMiniMap@@QAEPAEPAPAEPAUtagPOINT@@@Z 10013de0 f   MapParse.obj
 0001:00012e00       ?StretchTAMapToMiniMap@MiniMapPicture@@QAEPAEPAEPAUtagRECT@@@Z 10013e00 f   MapParse.obj
 0001:00013030       ?StretchTATNTDataToMiniMap@MiniMapPicture@@QAEPAEPAUtagTNTHeaderStruct@@@Z 10014030 f   MapParse.obj
 0001:00013460       ??0MenuResolution@@QAE@H@Z 10014460 f   MenuResolution.obj
 0001:000134d0       ??0MenuResolution@@QAE@HH@Z 100144d0 f   MenuResolution.obj
 0001:00013560       ??1MenuResolution@@QAE@XZ  10014560 f   MenuResolution.obj
 0001:000135a0       ?InstallHook@MenuResolution@@AAEXXZ 100145a0 f   MenuResolution.obj
 0001:000137e0       ?UninstallHook@MenuResolution@@AAEXXZ 100147e0 f   MenuResolution.obj
 0001:00013940       ?sub_00491A75@@YGHPAUtagInlineX86StackBuffer@@@Z 10014940 f   MenuResolution.obj
 0001:00013a00       ?sub_00491B01@@YGHPAUtagInlineX86StackBuffer@@@Z 10014a00 f   MenuResolution.obj
 0001:00013ab0       ?sub_0049E91C@@YGHPAUtagInlineX86StackBuffer@@@Z 10014ab0 f   MenuResolution.obj
 0001:00013b20       ?sub_0049E93B@@YGHPAUtagInlineX86StackBuffer@@@Z 10014b20 f   MenuResolution.obj
 0001:00013ba0       ??0ModifyWeaponPacket@@QAE@H@Z 10014ba0 f   MultiGameWeaponID.obj
 0001:00013be0       ??0ModifyWeaponPacket@@QAE@XZ 10014be0 f   MultiGameWeaponID.obj
 0001:00013c10       ??1ModifyWeaponPacket@@QAE@XZ 10014c10 f   MultiGameWeaponID.obj
 0001:00013da0       ??_GModifyHook@@QAEPAXI@Z  10014da0 f i MultiGameWeaponID.obj
 0001:00013dd0       ?EnsureDplayx@ModifyWeaponPacket@@AAEXH@Z 10014dd0 f   MultiGameWeaponID.obj
 0001:000143f0       ?FeaturePacket@ModifyWeaponPacket@@AAEXH@Z 100153f0 f   MultiGameWeaponID.obj
 0001:000145a0       ?ModifyRoutine@ModifyWeaponPacket@@AAEXH@Z 100155a0 f   MultiGameWeaponID.obj
 0001:000146b0       ??$?0$$V@?$_Compressed_pair@V?$allocator@UTAShareMemStruct@CDDDTA@@@std@@V?$_Deque_val@U?$_Deque_simple_types@UTAShareMemStruct@CDDDTA@@@std@@@2@$00@std@@QAE@U_Zero_then_variadic_args_t@1@@Z 100156b0 f i dddta.obj
 0001:000146d0       ??$?0UTAShareMemStruct@CDDDTA@@@?$allocator@PAUTAShareMemStruct@CDDDTA@@@std@@QAE@ABV?$allocator@UTAShareMemStruct@CDDDTA@@@1@@Z 100156d0 f i dddta.obj
 0001:000146e0       ??$?0UTAShareMemStruct@CDDDTA@@@?$allocator@U_Container_proxy@std@@@std@@QAE@ABV?$allocator@UTAShareMemStruct@CDDDTA@@@1@@Z 100156e0 f i dddta.obj
 0001:000146f0       ??$_Adl_verify_range@PAPAUTAShareMemStruct@CDDDTA@@PAPAU12@@std@@YGXABQAPAUTAShareMemStruct@CDDDTA@@0@Z 100156f0 f i dddta.obj
 0001:00014700       ??$_Alloc_proxy@V?$allocator@U_Container_proxy@std@@@std@@@_Container_base12@std@@QAEX$$QAV?$allocator@U_Container_proxy@std@@@1@@Z 10015700 f i dddta.obj
 0001:00014750       ??$_Construct_in_place@PAUTAShareMemStruct@CDDDTA@@AAPAU12@@std@@YGXAAPAUTAShareMemStruct@CDDDTA@@0@Z 10015750 f i dddta.obj
 0001:00014790       ??$_Construct_in_place@U_Container_proxy@std@@PAU_Container_base12@2@@std@@YGXAAU_Container_proxy@0@$$QAPAU_Container_base12@0@@Z 10015790 f i dddta.obj
 0001:000147d0       ??$_Copy_memmove@PAPAUTAShareMemStruct@CDDDTA@@PAPAU12@@std@@YGPAPAUTAShareMemStruct@CDDDTA@@PAPAU12@00@Z 100157d0 f i dddta.obj
 0001:00014840       ??$_Deallocate_plain@V?$allocator@U_Container_proxy@std@@@std@@@std@@YGXAAV?$allocator@U_Container_proxy@std@@@0@QAU_Container_proxy@0@@Z 10015840 f i dddta.obj
 0001:00014880       ??$_Delete_plain_internal@V?$allocator@U_Container_proxy@std@@@std@@@std@@YGXAAV?$allocator@U_Container_proxy@std@@@0@QAU_Container_proxy@0@@Z 10015880 f i dddta.obj
 0001:000148a0       ??$_Destroy_in_place@PAUTAShareMemStruct@CDDDTA@@@std@@YGXAAPAUTAShareMemStruct@CDDDTA@@@Z 100158a0 f i dddta.obj
 0001:000148b0       ??$_Destroy_range@PAPAUTAShareMemStruct@CDDDTA@@PAPAU12@@std@@YGXPAPAUTAShareMemStruct@CDDDTA@@QAPAU12@@Z 100158b0 f i dddta.obj
 0001:000148c0       ??$_Emplace_back@AAPAUTAShareMemStruct@CDDDTA@@@?$_Uninitialized_backout@PAPAUTAShareMemStruct@CDDDTA@@@std@@QAEXAAPAUTAShareMemStruct@CDDDTA@@@Z 100158c0 f i dddta.obj
 0001:00014900       ??$_Get_size_of_n@$03@std@@YGII@Z 10015900 f i dddta.obj
 0001:00014930       ??$_Get_size_of_n@$07@std@@YGII@Z 10015930 f i dddta.obj
 0001:00014960       ??$_Get_size_of_n@$0BE@@std@@YGII@Z 10015960 f i dddta.obj
 0001:00014990       ??$_Get_unwrapped@ABQAPAUTAShareMemStruct@CDDDTA@@@std@@YG?A_TABQAPAUTAShareMemStruct@CDDDTA@@@Z 10015990 f i dddta.obj
 0001:000149a0       ??$_Get_unwrapped_n@AAPAPAUTAShareMemStruct@CDDDTA@@H@std@@YG?A_TAAPAPAUTAShareMemStruct@CDDDTA@@H@Z 100159a0 f i dddta.obj
 0001:000149b0       ??$_Idl_distance@PAPAUTAShareMemStruct@CDDDTA@@PAPAU12@@std@@YG?A_PABQAPAUTAShareMemStruct@CDDDTA@@0@Z 100159b0 f i dddta.obj
 0001:000149d0       ??$_Seek_wrapped@PAPAUTAShareMemStruct@CDDDTA@@PAPAU12@@std@@YGXAAPAPAUTAShareMemStruct@CDDDTA@@$$QAPAPAU12@@Z 100159d0 f i dddta.obj
 0001:000149f0       ??$_To_address@PAPAUTAShareMemStruct@CDDDTA@@@std@@YG?A_PABQAPAUTAShareMemStruct@CDDDTA@@@Z 100159f0 f i dddta.obj
 0001:00014a00       ??$_Unfancy@UTAShareMemStruct@CDDDTA@@@std@@YGPAUTAShareMemStruct@CDDDTA@@PAU12@@Z 10015a00 f i dddta.obj
 0001:00014a10       ??$_Unfancy@U_Container_proxy@std@@@std@@YGPAU_Container_proxy@0@PAU10@@Z 10015a10 f i dddta.obj
 0001:00014a20       ??$_Uninitialized_copy_unchecked@PAPAUTAShareMemStruct@CDDDTA@@PAPAU12@@std@@YGPAPAUTAShareMemStruct@CDDDTA@@PAPAU12@QAPAU12@0@Z 10015a20 f i dddta.obj
 0001:00014ab0       ??$_Uninitialized_value_construct_n_unchecked1@PAPAUTAShareMemStruct@CDDDTA@@I@std@@YGPAPAUTAShareMemStruct@CDDDTA@@PAPAU12@I@Z 10015ab0 f i dddta.obj
 0001:00014ad0       ??$_Voidify_iter@PAPAUTAShareMemStruct@CDDDTA@@@std@@YGPAXPAPAUTAShareMemStruct@CDDDTA@@@Z 10015ad0 f i dddta.obj
 0001:00014ae0       ??$_Voidify_iter@PAUTAShareMemStruct@CDDDTA@@@std@@YGPAXPAUTAShareMemStruct@CDDDTA@@@Z 10015ae0 f i dddta.obj
 0001:00014af0       ??$_Voidify_iter@PAU_Container_proxy@std@@@std@@YGPAXPAU_Container_proxy@0@@Z 10015af0 f i dddta.obj
 0001:00014b00       ??$_Zero_range@PAPAUTAShareMemStruct@CDDDTA@@@std@@YGPAPAUTAShareMemStruct@CDDDTA@@QAPAU12@0@Z 10015b00 f i dddta.obj
 0001:00014b40       ??$addressof@PAUTAShareMemStruct@CDDDTA@@@std@@YGPAPAUTAShareMemStruct@CDDDTA@@AAPAU12@@Z 10015b40 f i dddta.obj
 0001:00014b50       ??$addressof@U_Container_proxy@std@@@std@@YGPAU_Container_proxy@0@AAU10@@Z 10015b50 f i dddta.obj
 0001:00014b60       ??$addressof@V?$_Deque_val@U?$_Deque_simple_types@UTAShareMemStruct@CDDDTA@@@std@@@std@@@std@@YGPAV?$_Deque_val@U?$_Deque_simple_types@UTAShareMemStruct@CDDDTA@@@std@@@0@AAV10@@Z 10015b60 f i dddta.obj
 0001:00014b70       ??$construct@UTAShareMemStruct@CDDDTA@@ABU12@@?$_Default_allocator_traits@V?$allocator@UTAShareMemStruct@CDDDTA@@@std@@@std@@SGXAAV?$allocator@UTAShareMemStruct@CDDDTA@@@1@QAUTAShareMemStruct@CDDDTA@@ABU34@@Z 10015b70 f i dddta.obj
 0001:00014bc0       ??$destroy@UTAShareMemStruct@CDDDTA@@@?$_Default_allocator_traits@V?$allocator@UTAShareMemStruct@CDDDTA@@@std@@@std@@SGXAAV?$allocator@UTAShareMemStruct@CDDDTA@@@1@QAUTAShareMemStruct@CDDDTA@@@Z 10015bc0 f i dddta.obj
 0001:00014bd0       ??$emplace_front@ABUTAShareMemStruct@CDDDTA@@@?$deque@UTAShareMemStruct@CDDDTA@@V?$allocator@UTAShareMemStruct@CDDDTA@@@std@@@std@@QAE?A_TABUTAShareMemStruct@CDDDTA@@@Z 10015bd0 f i dddta.obj
 0001:00014d30       ??$exchange@PAU_Container_proxy@std@@$$T@std@@YGPAU_Container_proxy@0@AAPAU10@$$QA$$T@Z 10015d30 f i dddta.obj
 0001:00014d50       ??$forward@AAPAUTAShareMemStruct@CDDDTA@@@std@@YGAAPAUTAShareMemStruct@CDDDTA@@AAPAU12@@Z 10015d50 f i dddta.obj
 0001:00014d60       ??$forward@ABUTAShareMemStruct@CDDDTA@@@std@@YGABUTAShareMemStruct@CDDDTA@@ABU12@@Z 10015d60 f i dddta.obj
 0001:00014d70       ??$forward@PAPAUTAShareMemStruct@CDDDTA@@@std@@YG$$QAPAPAUTAShareMemStruct@CDDDTA@@AAPAPAU12@@Z 10015d70 f i dddta.obj
 0001:00014d80       ??$forward@PAU_Container_base12@std@@@std@@YG$$QAPAU_Container_base12@0@AAPAU10@@Z 10015d80 f i dddta.obj
 0001:00014d90       ??$uninitialized_copy@PAPAUTAShareMemStruct@CDDDTA@@PAPAU12@@std@@YGPAPAUTAShareMemStruct@CDDDTA@@QAPAU12@0PAPAU12@@Z 10015d90 f i dddta.obj
 0001:00014e00       ??0?$_Deque_unchecked_const_iterator@V?$_Deque_val@U?$_Deque_simple_types@UTAShareMemStruct@CDDDTA@@@std@@@std@@@std@@QAE@IPBU_Container_base12@1@@Z 10015e00 f i dddta.obj
 0001:00014e30       ??0?$_Deque_unchecked_iterator@V?$_Deque_val@U?$_Deque_simple_types@UTAShareMemStruct@CDDDTA@@@std@@@std@@@std@@QAE@IPBU_Container_base12@1@@Z 10015e30 f i dddta.obj
 0001:00014e50       ??0?$_Deque_val@U?$_Deque_simple_types@UTAShareMemStruct@CDDDTA@@@std@@@std@@QAE@XZ 10015e50 f i dddta.obj
 0001:00014e90       ??0?$_Uninitialized_backout@PAPAUTAShareMemStruct@CDDDTA@@@std@@QAE@PAPAUTAShareMemStruct@CDDDTA@@@Z 10015e90 f i dddta.obj
 0001:00014ec0       ??0?$allocator@UTAShareMemStruct@CDDDTA@@@std@@QAE@XZ 10015ec0 f i dddta.obj
 0001:00014ed0       ??0?$deque@UTAShareMemStruct@CDDDTA@@V?$allocator@UTAShareMemStruct@CDDDTA@@@std@@@std@@QAE@XZ 10015ed0 f i dddta.obj
 0001:00014f10       ??0CDDDTA@@QAE@XZ          10015f10 f   dddta.obj
 0001:00014ff0       ??0_Container_base12@std@@QAE@XZ 10015ff0 f i dddta.obj
 0001:00015010       ??0_Container_proxy@std@@QAE@PAU_Container_base12@1@@Z 10016010 f i dddta.obj
 0001:00015040       ??1?$_Uninitialized_backout@PAPAUTAShareMemStruct@CDDDTA@@@std@@QAE@XZ 10016040 f i dddta.obj
 0001:00015060       ??1?$deque@UTAShareMemStruct@CDDDTA@@V?$allocator@UTAShareMemStruct@CDDDTA@@@std@@@std@@QAE@XZ 10016060 f i dddta.obj
 0001:000150b0       ??1CDDDTA@@QAE@XZ          100160b0 f   dddta.obj
 0001:00015110       ??A?$deque@UTAShareMemStruct@CDDDTA@@V?$allocator@UTAShareMemStruct@CDDDTA@@@std@@@std@@QAEAAUTAShareMemStruct@CDDDTA@@I@Z 10016110 f i dddta.obj
 0001:00015150       ??D?$_Deque_unchecked_const_iterator@V?$_Deque_val@U?$_Deque_simple_types@UTAShareMemStruct@CDDDTA@@@std@@@std@@@std@@QBEABUTAShareMemStruct@CDDDTA@@XZ 10016150 f i dddta.obj
 0001:000151a0       ??D?$_Deque_unchecked_iterator@V?$_Deque_val@U?$_Deque_simple_types@UTAShareMemStruct@CDDDTA@@@std@@@std@@@std@@QBEAAUTAShareMemStruct@CDDDTA@@XZ 100161a0 f i dddta.obj
 0001:000151c0       ??H?$_Deque_unchecked_iterator@V?$_Deque_val@U?$_Deque_simple_types@UTAShareMemStruct@CDDDTA@@@std@@@std@@@std@@QBE?AV01@H@Z 100161c0 f i dddta.obj
 0001:00015200       ??Y?$_Deque_unchecked_const_iterator@V?$_Deque_val@U?$_Deque_simple_types@UTAShareMemStruct@CDDDTA@@@std@@@std@@@std@@QAEAAV01@H@Z 10016200 f i dddta.obj
 0001:00015220       ??Y?$_Deque_unchecked_iterator@V?$_Deque_val@U?$_Deque_simple_types@UTAShareMemStruct@CDDDTA@@@std@@@std@@@std@@QAEAAV01@H@Z 10016220 f i dddta.obj
 0001:00015240       ?Blit@CDDDTA@@QAEXPAUIDirectDrawSurface@@@Z 10016240 f   dddta.obj
 0001:00015390       ?ChatStrnCpy@@YAPADPADPBDI@Z 10016390 f   dddta.obj
 0001:000153d0       ?CheckMessages@CDDDTA@@AAEXXZ 100163d0 f   dddta.obj
 0001:00015520       ?CreateSharedTAMem@CDDDTA@@AAEXHHPAD@Z 10016520 f   dddta.obj
 0001:00015640       ?DeInitDDDTA@CDDDTA@@QAEXXZ 10016640 f   dddta.obj
 0001:000156e0       ?DeleteMem@@YAXPAX@Z       100166e0 f   dddta.obj
 0001:00015710       ?FrameUpdate@CDDDTA@@QAEXXZ 10016710 f   dddta.obj
 0001:00015860       ?InitDDDTA@CDDDTA@@AAEXXZ  10016860 f   dddta.obj
 0001:00015c00       ?Message@CDDDTA@@QAE_NPAUHWND__@@IIJ@Z 10016c00 f   dddta.obj
 0001:00015cd0       ?Moo@CDDDTA@@QAEXXZ        10016cd0 f   dddta.obj
 0001:00015d70       ?Print@CDDDTA@@AAEXPAUHDC__@@PAUPrimitiveStruct@@@Z 10016d70 f   dddta.obj
 0001:00015ed0       ?RestoreAllSharedTAMem@CDDDTA@@AAEXXZ 10016ed0 f   dddta.obj
 0001:00015fa0       ?SendTextToSpring@CDDDTA@@QAEXPBD@Z 10016fa0 f   dddta.obj
 0001:00016050       ?SetActiveUnit@CDDDTA@@AAEXPAUBeginUnitsArray_p@@PAUUnitStruct@@@Z 10017050 f i dddta.obj
 0001:00016150       ?WriteExplosion@CDDDTA@@AAEXXZ 10017150 f   dddta.obj
 0001:00016480       ?WriteProjectiles@CDDDTA@@AAEXXZ 10017480 f   dddta.obj
 0001:00016660       ?WriteSmoke@CDDDTA@@AAEXXZ 10017660 f   dddta.obj
 0001:000168f0       ?WriteSubPart@CDDDTA@@AAEXPAUSubPart@@PAUPrimitiveStruct@@@Z 100178f0 f   dddta.obj
 0001:000169e0       ?WriteUnits@CDDDTA@@AAEXXZ 100179e0 f   dddta.obj
 0001:00016ae0       ?_Get_data@?$deque@UTAShareMemStruct@CDDDTA@@V?$allocator@UTAShareMemStruct@CDDDTA@@@std@@@std@@AAEAAV?$_Deque_val@U?$_Deque_simple_types@UTAShareMemStruct@CDDDTA@@@std@@@2@XZ 10017ae0 f i dddta.obj
 0001:00016af0       ?_Get_data@?$deque@UTAShareMemStruct@CDDDTA@@V?$allocator@UTAShareMemStruct@CDDDTA@@@std@@@std@@ABEABV?$_Deque_val@U?$_Deque_simple_types@UTAShareMemStruct@CDDDTA@@@std@@@2@XZ 10017af0 f i dddta.obj
 0001:00016b00       ?_Get_first@?$_Compressed_pair@V?$allocator@UTAShareMemStruct@CDDDTA@@@std@@V?$_Deque_val@U?$_Deque_simple_types@UTAShareMemStruct@CDDDTA@@@std@@@2@$00@std@@QAEAAV?$allocator@UTAShareMemStruct@CDDDTA@@@2@XZ 10017b00 f i dddta.obj
 0001:00016b10       ?_Get_first@?$_Compressed_pair@V?$allocator@UTAShareMemStruct@CDDDTA@@@std@@V?$_Deque_val@U?$_Deque_simple_types@UTAShareMemStruct@CDDDTA@@@std@@@2@$00@std@@QBEABV?$allocator@UTAShareMemStruct@CDDDTA@@@2@XZ 10017b10 f i dddta.obj
 0001:00016b20       ?_Getal@?$deque@UTAShareMemStruct@CDDDTA@@V?$allocator@UTAShareMemStruct@CDDDTA@@@std@@@std@@AAEAAV?$allocator@UTAShareMemStruct@CDDDTA@@@2@XZ 10017b20 f i dddta.obj
 0001:00016b40       ?_Getal@?$deque@UTAShareMemStruct@CDDDTA@@V?$allocator@UTAShareMemStruct@CDDDTA@@@std@@@std@@ABEABV?$allocator@UTAShareMemStruct@CDDDTA@@@2@XZ 10017b40 f i dddta.obj
 0001:00016b60       ?_Getblock@?$_Deque_val@U?$_Deque_simple_types@UTAShareMemStruct@CDDDTA@@@std@@@std@@QBEII@Z 10017b60 f i dddta.obj
 0001:00016b80       ?_Getblock@?$deque@UTAShareMemStruct@CDDDTA@@V?$allocator@UTAShareMemStruct@CDDDTA@@@std@@@std@@ABEII@Z 10017b80 f i dddta.obj
 0001:00016ba0       ?_Growmap@?$deque@UTAShareMemStruct@CDDDTA@@V?$allocator@UTAShareMemStruct@CDDDTA@@@std@@@std@@AAEXI@Z 10017ba0 f i dddta.obj
 0001:00016dd0       ?_Map@?$deque@UTAShareMemStruct@CDDDTA@@V?$allocator@UTAShareMemStruct@CDDDTA@@@std@@@std@@AAEAAPAPAUTAShareMemStruct@CDDDTA@@XZ 10017dd0 f i dddta.obj
 0001:00016df0       ?_Mapsize@?$deque@UTAShareMemStruct@CDDDTA@@V?$allocator@UTAShareMemStruct@CDDDTA@@@std@@@std@@AAEAAIXZ 10017df0 f i dddta.obj
 0001:00016e10       ?_Myoff@?$deque@UTAShareMemStruct@CDDDTA@@V?$allocator@UTAShareMemStruct@CDDDTA@@@std@@@std@@AAEAAIXZ 10017e10 f i dddta.obj
 0001:00016e30       ?_Mysize@?$deque@UTAShareMemStruct@CDDDTA@@V?$allocator@UTAShareMemStruct@CDDDTA@@@std@@@std@@AAEAAIXZ 10017e30 f i dddta.obj
 0001:00016e50       ?_Mysize@?$deque@UTAShareMemStruct@CDDDTA@@V?$allocator@UTAShareMemStruct@CDDDTA@@@std@@@std@@ABEABIXZ 10017e50 f i dddta.obj
 0001:00016e70       ?_Orphan_all@?$deque@UTAShareMemStruct@CDDDTA@@V?$allocator@UTAShareMemStruct@CDDDTA@@@std@@@std@@AAEXXZ 10017e70 f i dddta.obj
 0001:00016e90       ?_Orphan_all@_Container_base12@std@@QAEXXZ 10017e90 f i dddta.obj
 0001:00016ea0       ?_Release@?$_Uninitialized_backout@PAPAUTAShareMemStruct@CDDDTA@@@std@@QAEPAPAUTAShareMemStruct@CDDDTA@@XZ 10017ea0 f i dddta.obj
 0001:00016ec0       ?_Tidy@?$deque@UTAShareMemStruct@CDDDTA@@V?$allocator@UTAShareMemStruct@CDDDTA@@@std@@@std@@AAEXXZ 10017ec0 f i dddta.obj
 0001:00016fe0       ?_Unchecked_begin@?$deque@UTAShareMemStruct@CDDDTA@@V?$allocator@UTAShareMemStruct@CDDDTA@@@std@@@std@@QAE?AV?$_Deque_unchecked_iterator@V?$_Deque_val@U?$_Deque_simple_types@UTAShareMemStruct@CDDDTA@@@std@@@std@@@2@XZ 10017fe0 f i dddta.obj
 0001:00017020       ?_Xlen@?$deque@UTAShareMemStruct@CDDDTA@@V?$allocator@UTAShareMemStruct@CDDDTA@@@std@@@std@@ABEXXZ 10018020 f i dddta.obj
 0001:00017040       ?allocate@?$allocator@PAUTAShareMemStruct@CDDDTA@@@std@@QAEPAPAUTAShareMemStruct@CDDDTA@@I@Z 10018040 f i dddta.obj
 0001:00017060       ?allocate@?$allocator@UTAShareMemStruct@CDDDTA@@@std@@QAEPAUTAShareMemStruct@CDDDTA@@I@Z 10018060 f i dddta.obj
 0001:00017080       ?allocate@?$allocator@U_Container_proxy@std@@@std@@QAEPAU_Container_proxy@2@I@Z 10018080 f i dddta.obj
 0001:000170a0       ?clear@?$deque@UTAShareMemStruct@CDDDTA@@V?$allocator@UTAShareMemStruct@CDDDTA@@@std@@@std@@QAEXXZ 100180a0 f i dddta.obj
 0001:000170c0       ?deallocate@?$_Default_allocator_traits@V?$allocator@U_Container_proxy@std@@@std@@@std@@SGXAAV?$allocator@U_Container_proxy@std@@@2@QAU_Container_proxy@2@I@Z 100180c0 f i dddta.obj
 0001:000170e0       ?deallocate@?$allocator@PAUTAShareMemStruct@CDDDTA@@@std@@QAEXQAPAUTAShareMemStruct@CDDDTA@@I@Z 100180e0 f i dddta.obj
 0001:00017100       ?deallocate@?$allocator@UTAShareMemStruct@CDDDTA@@@std@@QAEXQAUTAShareMemStruct@CDDDTA@@I@Z 10018100 f i dddta.obj
 0001:00017120       ?empty@?$deque@UTAShareMemStruct@CDDDTA@@V?$allocator@UTAShareMemStruct@CDDDTA@@@std@@@std@@QBE_NXZ 10018120 f i dddta.obj
 0001:00017150       ?max_size@?$_Default_allocator_traits@V?$allocator@UTAShareMemStruct@CDDDTA@@@std@@@std@@SGIABV?$allocator@UTAShareMemStruct@CDDDTA@@@2@@Z 10018150 f i dddta.obj
 0001:00017160       ?max_size@?$deque@UTAShareMemStruct@CDDDTA@@V?$allocator@UTAShareMemStruct@CDDDTA@@@std@@@std@@QBEIXZ 10018160 f i dddta.obj
 0001:000171a0       ?pop_back@?$deque@UTAShareMemStruct@CDDDTA@@V?$allocator@UTAShareMemStruct@CDDDTA@@@std@@@std@@QAEXXZ 100181a0 f i dddta.obj
 0001:00017270       ?push_front@?$deque@UTAShareMemStruct@CDDDTA@@V?$allocator@UTAShareMemStruct@CDDDTA@@@std@@@std@@QAEXABUTAShareMemStruct@CDDDTA@@@Z 10018270 f i dddta.obj
 0001:00017290       ?size@?$deque@UTAShareMemStruct@CDDDTA@@V?$allocator@UTAShareMemStruct@CDDDTA@@@std@@@std@@QBEIXZ 10018290 f i dddta.obj
 0001:000172b0       ??0CBookmarks@@QAE@XZ      100182b0 f   bookmarks.obj
 0001:000172c0       ??1CBookmarks@@QAE@XZ      100182c0 f   bookmarks.obj
 0001:000172d0       ?Blit@CBookmarks@@QAEXPAUIDirectDrawSurface@@@Z 100182d0 f   bookmarks.obj
 0001:000172e0       ?Message@CBookmarks@@QAE_NPAUHWND__@@IIJ@Z 100182e0 f   bookmarks.obj
 0001:000172f0       ??0CChangeQueue@@QAE@XZ    100182f0 f   changequeue.obj
 0001:00017320       ??1CChangeQueue@@QAE@XZ    10018320 f   changequeue.obj
 0001:00017330       ?Blit@CChangeQueue@@QAEXPAUIDirectDrawSurface@@@Z 10018330 f   changequeue.obj
 0001:00017340       ?Message@CChangeQueue@@QAE_NPAUHWND__@@IIJ@Z 10018340 f   changequeue.obj
 0001:00017400       ?Write@@YGXPAUHWND__@@@Z   10018400 f   changequeue.obj
 0001:00017490       ??$sprintf_s@$0GE@@@YAHAAY0GE@DPBDZZ 10018490 f i cinomce.obj
 0001:000174c0       ??0CIncome@@QAE@H@Z        100184c0 f   cinomce.obj
 0001:000176c0       ??1CIncome@@QAE@XZ         100186c0 f   cinomce.obj
 0001:000176d0       ?BlitIncome@CIncome@@QAEXPAE@Z 100186d0 f   cinomce.obj
 0001:000177a0       ?CorrectPos@CIncome@@AAEXXZ 100187a0 f   cinomce.obj
 0001:00017830       ?DrawPlayerRect@CIncome@@AAEXHHD@Z 10018830 f   cinomce.obj
 0001:00017890       ?DrawStorageText@CIncome@@AAEHMHH@Z 10018890 f   cinomce.obj
 0001:000179a0       ?DrawTextA@CIncome@@AAEXPADHHD@Z 100189a0 f   cinomce.obj
 0001:00017b00       ?FillRect@CIncome@@AAEXD@Z 10018b00 f   cinomce.obj
 0001:00017b80       ?GetPlayerColor@CIncome@@AAEEH@Z 10018b80 f   cinomce.obj
 0001:00017bb0       ?IsShow@CIncome@@QAE_NPAUtagRECT@@@Z 10018bb0 f   cinomce.obj
 0001:00017c00       ?Message@CIncome@@QAE_NPAUHWND__@@IIJ@Z 10018c00 f   cinomce.obj
 0001:00018160       ?PaintStoragebar@CIncome@@AAEXHHHH@Z 10019160 f   cinomce.obj
 0001:00018340       ?ReadPos@CIncome@@AAEXXZ   10019340 f   cinomce.obj
 0001:000183f0       ?Set@CIncome@@QAEXH@Z      100193f0 f   cinomce.obj
 0001:00018410       ?ShowAllIncome@CIncome@@AAEHXZ 10019410 f   cinomce.obj
 0001:000184e0       ?ShowAllyIncome@CIncome@@AAEHXZ 100194e0 f   cinomce.obj
 0001:000185d0       ?ShowMyViewIncome@CIncome@@AAEXHH@Z 100195d0 f   cinomce.obj
 0001:000186a0       ?ShowPlayerIncome@CIncome@@AAEXHHH@Z 100196a0 f   cinomce.obj
 0001:00018960       ?WritePos@CIncome@@AAEXXZ  10019960 f   cinomce.obj
 0001:00018a10       ?inRect@CIncome@@AAE_NHH@Z 10019a10 f   cinomce.obj
 0001:00018b20       ??0CWarp@@QAE@H@Z          10019b20 f   commanderwarp.obj
 0001:00018ba0       ??1CWarp@@QAE@XZ           10019ba0 f   commanderwarp.obj
 0001:00018c00       ?Blit@CWarp@@QAEXPAUIDirectDrawSurface@@@Z 10019c00 f   commanderwarp.obj
 0001:00018c70       ?BlitBtn@CWarp@@AAEXPAE@Z  10019c70 f   commanderwarp.obj
 0001:00018db0       ?Message@CWarp@@QAE_NPAUHWND__@@IIJ@Z 10019db0 f   commanderwarp.obj
 0001:00018f70       ?SetPos@CWarp@@AAEXHH@Z    10019f70 f   commanderwarp.obj
 0001:00018fc0       ?WithinButton@CWarp@@AAE_NHH@Z 10019fc0 f   commanderwarp.obj
 0001:00019010       ??0Dialog@@QAE@H@Z         1001a010 f   dialog.obj
 0001:00019290       ??1Dialog@@QAE@XZ          1001a290 f   dialog.obj
 0001:000192a0       ?BlitCursor@Dialog@@QAEXPAEHH@Z 1001a2a0 f   dialog.obj
 0001:00019430       ?BlitDialog@Dialog@@QAEXPAE@Z 1001a430 f   dialog.obj
 0001:00019670       ?CorrectPos@Dialog@@AAEXXZ 1001a670 f   dialog.obj
 0001:00019700       ?DrawBackgroundButton@Dialog@@AAEXXZ 1001a700 f   dialog.obj
 0001:000199f0       ?DrawDelay@Dialog@@AAEXXZ  1001a9f0 f   dialog.obj
 0001:00019ad0       ?DrawFullRings@Dialog@@AAEXXZ 1001aad0 f   dialog.obj
 0001:00019d00       ?DrawKeyCode@Dialog@@AAEXXZ 1001ad00 f   dialog.obj
 0001:00019e00       ?DrawMegaMapKey@Dialog@@AAEXXZ 1001ae00 f   dialog.obj
 0001:00019ec0       ?DrawOptimizeDT@Dialog@@AAEXXZ 1001aec0 f   dialog.obj
 0001:0001a0f0       ?DrawShareBox@Dialog@@AAEXXZ 1001b0f0 f   dialog.obj
 0001:0001a3b0       ?DrawSmallText@Dialog@@QAEXPAEHHPAD@Z 1001b3b0 f   dialog.obj
 0001:0001a940       ?DrawTextA@Dialog@@QAEXPAEHHPAD@Z 1001b940 f   dialog.obj
 0001:0001aed0       ?DrawTinyText@Dialog@@AAEXPADHHD@Z 1001bed0 f   dialog.obj
 0001:0001b030       ?DrawVSync@Dialog@@AAEXXZ  1001c030 f   dialog.obj
 0001:0001b310       ?DrawVisibleButton@Dialog@@AAEXXZ 1001c310 f   dialog.obj
 0001:0001b3c0       ?DrawWhiteboardKey@Dialog@@AAEXXZ 1001c3c0 f   dialog.obj
 0001:0001b480       ?EnterOption@@YGHPAUtagInlineX86StackBuffer@@@Z 1001c480 f   dialog.obj
 0001:0001b4a0       ?FillRect@Dialog@@AAEXHHHHD@Z 1001c4a0 f   dialog.obj
 0001:0001b560       ?HideDialog@Dialog@@QAEXXZ 1001c560 f   dialog.obj
 0001:0001b5a0       ?Inside@Dialog@@AAE_NHHH@Z 1001c5a0 f   dialog.obj
 0001:0001b810       ?IsShow@Dialog@@QAE_NPAUtagRECT@@@Z 1001c810 f   dialog.obj
 0001:0001b870       ?Message@Dialog@@QAE_NPAUHWND__@@IIJ@Z 1001c870 f   dialog.obj
 0001:0001c5c0       ?PressInOption@@YGHPAUtagInlineX86StackBuffer@@@Z 1001d5c0 f   dialog.obj
 0001:0001c5f0       ?ReadPos@Dialog@@AAEXXZ    1001d5f0 f   dialog.obj
 0001:0001c680       ?ReadSettings@Dialog@@AAEXXZ 1001d680 f   dialog.obj
 0001:0001c8f0       ?RenderDialog@Dialog@@QAEXPAE@Z 1001d8f0 f   dialog.obj
 0001:0001cb60       ?RestoreAll@Dialog@@QAEXXZ 1001db60 f   dialog.obj
 0001:0001cce0       ?RestoreCursor@Dialog@@AAEXXZ 1001dce0 f   dialog.obj
 0001:0001ce80       ?SetAll@Dialog@@QAEXXZ     1001de80 f   dialog.obj
 0001:0001cf90       ?SetVisibleList@Dialog@@AAEXXZ 1001df90 f   dialog.obj
 0001:0001cfa0       ?ShowDialog@Dialog@@QAEXXZ 1001dfa0 f   dialog.obj
 0001:0001d010       ?WritePos@Dialog@@AAEXXZ   1001e010 f   dialog.obj
 0001:0001d0c0       ?WriteSettings@Dialog@@AAEXXZ 1001e0c0 f   dialog.obj
 0001:0001d260       ??0CMapRect@@QAE@H@Z       1001e260 f   maprect.obj
 0001:0001d700       ??1CMapRect@@QAE@XZ        1001e700 f   maprect.obj
 0001:0001d750       ?Blit@CMapRect@@QAEXPAUIDirectDrawSurface@@@Z 1001e750 f   maprect.obj
 0001:0001d960       ?GetMapMaxX@CMapRect@@AAEHXZ 1001e960 f   maprect.obj
 0001:0001d980       ?GetMapMaxY@CMapRect@@AAEHXZ 1001e980 f   maprect.obj
 0001:0001d9a0       ?LockBlit@CMapRect@@QAEXPADH@Z 1001e9a0 f   maprect.obj
 0001:0001dcc0       ?PaintRect@CMapRect@@AAEXXZ 1001ecc0 f   maprect.obj
 0001:0001de40       ?WorldToMiniX@CMapRect@@QAEHH@Z 1001ee40 f   maprect.obj
 0001:0001de80       ?WorldToMiniY@CMapRect@@QAEHH@Z 1001ee80 f   maprect.obj
 0001:0001dec0       ??0CMinimapHandler@@QAE@XZ 1001eec0 f   MinimapHandler.obj
 0001:0001def0       ??1CMinimapHandler@@UAE@XZ 1001eef0 f   MinimapHandler.obj
 0001:0001df10       ??_ECMinimapHandler@@UAEPAXI@Z 1001ef10 f i MinimapHandler.obj
 0001:0001df10       ??_GCMinimapHandler@@UAEPAXI@Z 1001ef10 f i MinimapHandler.obj
 0001:0001df40       ?DeinitMinimap@CMinimapHandler@@QAEXXZ 1001ef40 f   MinimapHandler.obj
 0001:0001df90       ?FrameUpdate@CMinimapHandler@@QAEXXZ 1001ef90 f   MinimapHandler.obj
 0001:0001e010       ?InitMinimap@CMinimapHandler@@QAEXPAUSharedMem@@@Z 1001f010 f   MinimapHandler.obj
 0001:0001e0f0       ??0ShareDialogExpand@@QAE@H@Z 1001f0f0 f   sharedialog.obj
 0001:0001e1f0       ??1ShareDialogExpand@@QAE@XZ 1001f1f0 f   sharedialog.obj
 0001:0001e260       ?EnergyPosProc@@YGXPAU_GUIInfo@@H@Z 1001f260 f   sharedialog.obj
 0001:0001e370       ?GameSpeedPosProc@@YGXPAU_GUIInfo@@H@Z 1001f370 f   sharedialog.obj
 0001:0001e3d0       ?MetalPosProc@@YGXPAU_GUIInfo@@H@Z 1001f3d0 f   sharedialog.obj
 0001:0001e4e0       ?ShareDialogInit@@YGHPAUtagInlineX86StackBuffer@@@Z 1001f4e0 f   sharedialog.obj
 0001:0001e9b0       ?ShareDialogProc@@YGHPAUtagInlineX86StackBuffer@@@Z 1001f9b0 f   sharedialog.obj
 0001:0001ec60       ??0TABugFixing@@QAE@XZ     1001fc60 f   TABugFix.obj
 0001:0001f1a0       ??1TABugFixing@@QAE@XZ     100201a0 f   TABugFix.obj
 0001:0001f430       ?AntiCheat@TABugFixing@@QAEHXZ 10020430 f   TABugFix.obj
 0001:0001f490       ?BadModelHunter@@YGHPAUtagInlineX86StackBuffer@@@Z 10020490 f   TABugFix.obj
 0001:0001f5e0       ?CDMusic_MenuProc@@YGHPAUtagInlineX86StackBuffer@@@Z 100205e0 f   TABugFix.obj
 0001:0001f600       ?CDMusic_VictoryProc@@YGHPAUtagInlineX86StackBuffer@@@Z 10020600 f   TABugFix.obj
 0001:0001f610       ?EnterProc@@YGHPAUtagInlineX86StackBuffer@@@Z 10020610 f   TABugFix.obj
 0001:0001f630       ?LeaveProc@@YGHPAUtagInlineX86StackBuffer@@@Z 10020630 f   TABugFix.obj
 0001:0001f650       ?LogToErrorlog@@YGXPAD@Z   10020650 f   TABugFix.obj
 0001:0001f6d0       ?Message@TABugFixing@@QAE_NPAUHWND__@@IIJ@Z 100206d0 f   TABugFix.obj
 0001:0001f6e0       ?UnitDeath_BeforeUpdateUI_Proc@@YGHPAUtagInlineX86StackBuffer@@@Z 100206e0 f   TABugFix.obj
 0001:0001f710       ?UnitIDOutRange_Proc@@YGHPAUtagInlineX86StackBuffer@@@Z 10020710 f   TABugFix.obj
 0001:0001f750       ?UnitVolumeYequZero_Proc@@YGHPAUtagInlineX86StackBuffer@@@Z 10020750 f   TABugFix.obj
 0001:0001f780       ?VectoredHandler@@YGJPAU_EXCEPTION_POINTERS@@@Z 10020780 f   TABugFix.obj
 0001:0001f790       ?resume_EHA@@YGKPAX@Z      10020790 f   TABugFix.obj
 0001:0001f7c0       ??$?0$$V@?$_Compressed_pair@V?$allocator@PAVRegDword@@@std@@V?$_Vector_val@U?$_Simple_types@PAVRegDword@@@std@@@2@$00@std@@QAE@U_Zero_then_variadic_args_t@1@@Z 100207c0 f i TAConfig.obj
 0001:0001f7e0       ??$?0$$V@?$_Compressed_pair@V?$allocator@PAVRegString@@@std@@V?$_Vector_val@U?$_Simple_types@PAVRegString@@@std@@@2@$00@std@@QAE@U_Zero_then_variadic_args_t@1@@Z 100207e0 f i TAConfig.obj
 0001:0001f800       ??$_Construct_in_place@PAVRegDword@@ABQAV1@@std@@YGXAAPAVRegDword@@ABQAV1@@Z 10020800 f i TAConfig.obj
 0001:0001f840       ??$_Construct_in_place@PAVRegString@@ABQAV1@@std@@YGXAAPAVRegString@@ABQAV1@@Z 10020840 f i TAConfig.obj
 0001:0001f880       ??$_Copy_memmove@PAPAVRegDword@@PAPAV1@@std@@YGPAPAVRegDword@@PAPAV1@00@Z 10020880 f i TAConfig.obj
 0001:0001f8f0       ??$_Copy_memmove@PAPAVRegString@@PAPAV1@@std@@YGPAPAVRegString@@PAPAV1@00@Z 100208f0 f i TAConfig.obj
 0001:0001f960       ??$_Destroy_range@V?$allocator@PAVRegDword@@@std@@@std@@YGXPAPAVRegDword@@QAPAV1@AAV?$allocator@PAVRegDword@@@0@@Z 10020960 f i TAConfig.obj
 0001:0001f970       ??$_Destroy_range@V?$allocator@PAVRegString@@@std@@@std@@YGXPAPAVRegString@@QAPAV1@AAV?$allocator@PAVRegString@@@0@@Z 10020970 f i TAConfig.obj
 0001:0001f980       ??$_Emplace_back@PAVRegDword@@@?$_Uninitialized_backout_al@V?$allocator@PAVRegDword@@@std@@@std@@QAEX$$QAPAVRegDword@@@Z 10020980 f i TAConfig.obj
 0001:0001f9c0       ??$_Emplace_back@PAVRegString@@@?$_Uninitialized_backout_al@V?$allocator@PAVRegString@@@std@@@std@@QAEX$$QAPAVRegString@@@Z 100209c0 f i TAConfig.obj
 0001:0001fa00       ??$_Emplace_back_with_unused_capacity@ABQAVRegDword@@@?$vector@PAVRegDword@@V?$allocator@PAVRegDword@@@std@@@std@@AAEAAPAVRegDword@@ABQAV2@@Z 10020a00 f i TAConfig.obj
 0001:0001fa60       ??$_Emplace_back_with_unused_capacity@ABQAVRegString@@@?$vector@PAVRegString@@V?$allocator@PAVRegString@@@std@@@std@@AAEAAPAVRegString@@ABQAV2@@Z 10020a60 f i TAConfig.obj
 0001:0001fac0       ??$_Emplace_one_at_back@ABQAVRegDword@@@?$vector@PAVRegDword@@V?$allocator@PAVRegDword@@@std@@@std@@AAEAAPAVRegDword@@ABQAV2@@Z 10020ac0 f i TAConfig.obj
 0001:0001fb20       ??$_Emplace_one_at_back@ABQAVRegString@@@?$vector@PAVRegString@@V?$allocator@PAVRegString@@@std@@@std@@AAEAAPAVRegString@@ABQAV2@@Z 10020b20 f i TAConfig.obj
 0001:0001fb80       ??$_Emplace_reallocate@ABQAVRegDword@@@?$vector@PAVRegDword@@V?$allocator@PAVRegDword@@@std@@@std@@AAEPAPAVRegDword@@QAPAV2@ABQAV2@@Z 10020b80 f i TAConfig.obj
 0001:0001fd40       ??$_Emplace_reallocate@ABQAVRegString@@@?$vector@PAVRegString@@V?$allocator@PAVRegString@@@std@@@std@@AAEPAPAVRegString@@QAPAV2@ABQAV2@@Z 10020d40 f i TAConfig.obj
 0001:0001ff00       ??$_Get_unwrapped@ABQAPAVRegDword@@@std@@YG?A_TABQAPAVRegDword@@@Z 10020f00 f i TAConfig.obj
 0001:0001ff10       ??$_Get_unwrapped@ABQAPAVRegString@@@std@@YG?A_TABQAPAVRegString@@@Z 10020f10 f i TAConfig.obj
 0001:0001ff20       ??$_To_address@PAPAVRegDword@@@std@@YG?A_PABQAPAVRegDword@@@Z 10020f20 f i TAConfig.obj
 0001:0001ff30       ??$_To_address@PAPAVRegString@@@std@@YG?A_PABQAPAVRegString@@@Z 10020f30 f i TAConfig.obj
 0001:0001ff40       ??$_Unfancy@PAVRegDword@@@std@@YGPAPAVRegDword@@PAPAV1@@Z 10020f40 f i TAConfig.obj
 0001:0001ff50       ??$_Unfancy@PAVRegString@@@std@@YGPAPAVRegString@@PAPAV1@@Z 10020f50 f i TAConfig.obj
 0001:0001ff60       ??$_Uninitialized_move@PAPAVRegDword@@V?$allocator@PAVRegDword@@@std@@@std@@YGPAPAVRegDword@@QAPAV1@0PAPAV1@AAV?$allocator@PAVRegDword@@@0@@Z 10020f60 f i TAConfig.obj
 0001:00020030       ??$_Uninitialized_move@PAPAVRegString@@V?$allocator@PAVRegString@@@std@@@std@@YGPAPAVRegString@@QAPAV1@0PAPAV1@AAV?$allocator@PAVRegString@@@0@@Z 10021030 f i TAConfig.obj
 0001:00020100       ??$_Voidify_iter@PAPAVRegDword@@@std@@YGPAXPAPAVRegDword@@@Z 10021100 f i TAConfig.obj
 0001:00020110       ??$_Voidify_iter@PAPAVRegString@@@std@@YGPAXPAPAVRegString@@@Z 10021110 f i TAConfig.obj
 0001:00020120       ??$addressof@PAVRegDword@@@std@@YGPAPAVRegDword@@AAPAV1@@Z 10021120 f i TAConfig.obj
 0001:00020130       ??$addressof@PAVRegString@@@std@@YGPAPAVRegString@@AAPAV1@@Z 10021130 f i TAConfig.obj
 0001:00020140       ??$addressof@V?$_Vector_val@U?$_Simple_types@PAVRegDword@@@std@@@std@@@std@@YGPAV?$_Vector_val@U?$_Simple_types@PAVRegDword@@@std@@@0@AAV10@@Z 10021140 f i TAConfig.obj
 0001:00020150       ??$addressof@V?$_Vector_val@U?$_Simple_types@PAVRegString@@@std@@@std@@@std@@YGPAV?$_Vector_val@U?$_Simple_types@PAVRegString@@@std@@@0@AAV10@@Z 10021150 f i TAConfig.obj
 0001:00020160       ??$construct@PAVRegDword@@ABQAV1@@?$_Default_allocator_traits@V?$allocator@PAVRegDword@@@std@@@std@@SGXAAV?$allocator@PAVRegDword@@@1@QAPAVRegDword@@ABQAV3@@Z 10021160 f i TAConfig.obj
 0001:000201a0       ??$construct@PAVRegDword@@PAV1@@?$_Default_allocator_traits@V?$allocator@PAVRegDword@@@std@@@std@@SGXAAV?$allocator@PAVRegDword@@@1@QAPAVRegDword@@$$QAPAV3@@Z 100211a0 f i TAConfig.obj
 0001:000201e0       ??$construct@PAVRegString@@ABQAV1@@?$_Default_allocator_traits@V?$allocator@PAVRegString@@@std@@@std@@SGXAAV?$allocator@PAVRegString@@@1@QAPAVRegString@@ABQAV3@@Z 100211e0 f i TAConfig.obj
 0001:00020220       ??$construct@PAVRegString@@PAV1@@?$_Default_allocator_traits@V?$allocator@PAVRegString@@@std@@@std@@SGXAAV?$allocator@PAVRegString@@@1@QAPAVRegString@@$$QAPAV3@@Z 10021220 f i TAConfig.obj
 0001:00020260       ??$destroy@PAVRegDword@@@?$_Default_allocator_traits@V?$allocator@PAVRegDword@@@std@@@std@@SGXAAV?$allocator@PAVRegDword@@@1@QAPAVRegDword@@@Z 10021260 f i TAConfig.obj
 0001:00020270       ??$destroy@PAVRegString@@@?$_Default_allocator_traits@V?$allocator@PAVRegString@@@std@@@std@@SGXAAV?$allocator@PAVRegString@@@1@QAPAVRegString@@@Z 10021270 f i TAConfig.obj
 0001:00020280       ??$emplace_back@ABQAVRegDword@@@?$vector@PAVRegDword@@V?$allocator@PAVRegDword@@@std@@@std@@QAE?A_TABQAVRegDword@@@Z 10021280 f i TAConfig.obj
 0001:000202b0       ??$emplace_back@ABQAVRegString@@@?$vector@PAVRegString@@V?$allocator@PAVRegString@@@std@@@std@@QAE?A_TABQAVRegString@@@Z 100212b0 f i TAConfig.obj
 0001:000202e0       ??$forward@ABQAVRegDword@@@std@@YGABQAVRegDword@@ABQAV1@@Z 100212e0 f i TAConfig.obj
 0001:000202f0       ??$forward@ABQAVRegString@@@std@@YGABQAVRegString@@ABQAV1@@Z 100212f0 f i TAConfig.obj
 0001:00020300       ??$forward@PAVRegDword@@@std@@YG$$QAPAVRegDword@@AAPAV1@@Z 10021300 f i TAConfig.obj
 0001:00020310       ??$forward@PAVRegString@@@std@@YG$$QAPAVRegString@@AAPAV1@@Z 10021310 f i TAConfig.obj
 0001:00020320       ??$move@AAPAVRegDword@@@std@@YG$$QAPAVRegDword@@AAPAV1@@Z 10021320 f i TAConfig.obj
 0001:00020330       ??$move@AAPAVRegString@@@std@@YG$$QAPAVRegString@@AAPAV1@@Z 10021330 f i TAConfig.obj
 0001:00020340       ??0?$CTraceCategoryEx@$00$0A@@ATL@@QAE@PBD@Z 10021340 f i TAConfig.obj
 0001:00020350       ??0?$CTraceCategoryEx@$01$0A@@ATL@@QAE@PBD@Z 10021350 f i TAConfig.obj
 0001:00020360       ??0?$CTraceCategoryEx@$03$0A@@ATL@@QAE@PBD@Z 10021360 f i TAConfig.obj
 0001:00020370       ??0?$CTraceCategoryEx@$07$0A@@ATL@@QAE@PBD@Z 10021370 f i TAConfig.obj
 0001:00020380       ??0?$CTraceCategoryEx@$0BA@$0A@@ATL@@QAE@PBD@Z 10021380 f i TAConfig.obj
 0001:00020390       ??0?$CTraceCategoryEx@$0BAA@$0A@@ATL@@QAE@PBD@Z 10021390 f i TAConfig.obj
 0001:000203a0       ??0?$CTraceCategoryEx@$0BAAA@$0A@@ATL@@QAE@PBD@Z 100213a0 f i TAConfig.obj
 0001:000203b0       ??0?$CTraceCategoryEx@$0BAAAA@$0A@@ATL@@QAE@PBD@Z 100213b0 f i TAConfig.obj
 0001:000203c0       ??0?$CTraceCategoryEx@$0BAAAAA@$0A@@ATL@@QAE@PBD@Z 100213c0 f i TAConfig.obj
 0001:000203d0       ??0?$CTraceCategoryEx@$0CA@$0A@@ATL@@QAE@PBD@Z 100213d0 f i TAConfig.obj
 0001:000203e0       ??0?$CTraceCategoryEx@$0CAA@$0A@@ATL@@QAE@PBD@Z 100213e0 f i TAConfig.obj
 0001:000203f0       ??0?$CTraceCategoryEx@$0CAAA@$0A@@ATL@@QAE@PBD@Z 100213f0 f i TAConfig.obj
 0001:00020400       ??0?$CTraceCategoryEx@$0CAAAA@$0A@@ATL@@QAE@PBD@Z 10021400 f i TAConfig.obj
 0001:00020410       ??0?$CTraceCategoryEx@$0CAAAAA@$0A@@ATL@@QAE@PBD@Z 10021410 f i TAConfig.obj
 0001:00020420       ??0?$CTraceCategoryEx@$0EA@$0A@@ATL@@QAE@PBD@Z 10021420 f i TAConfig.obj
 0001:00020430       ??0?$CTraceCategoryEx@$0EAA@$0A@@ATL@@QAE@PBD@Z 10021430 f i TAConfig.obj
 0001:00020440       ??0?$CTraceCategoryEx@$0EAAA@$0A@@ATL@@QAE@PBD@Z 10021440 f i TAConfig.obj
 0001:00020450       ??0?$CTraceCategoryEx@$0EAAAA@$0A@@ATL@@QAE@PBD@Z 10021450 f i TAConfig.obj
 0001:00020460       ??0?$CTraceCategoryEx@$0EAAAAA@$0A@@ATL@@QAE@PBD@Z 10021460 f i TAConfig.obj
 0001:00020470       ??0?$CTraceCategoryEx@$0IA@$0A@@ATL@@QAE@PBD@Z 10021470 f i TAConfig.obj
 0001:00020480       ??0?$CTraceCategoryEx@$0IAA@$0A@@ATL@@QAE@PBD@Z 10021480 f i TAConfig.obj
 0001:00020490       ??0?$CTraceCategoryEx@$0IAAA@$0A@@ATL@@QAE@PBD@Z 10021490 f i TAConfig.obj
 0001:000204a0       ??0?$CTraceCategoryEx@$0IAAAA@$0A@@ATL@@QAE@PBD@Z 100214a0 f i TAConfig.obj
 0001:000204b0       ??0?$_Uninitialized_backout_al@V?$allocator@PAVRegDword@@@std@@@std@@QAE@PAPAVRegDword@@AAV?$allocator@PAVRegDword@@@1@@Z 100214b0 f i TAConfig.obj
 0001:000204e0       ??0?$_Uninitialized_backout_al@V?$allocator@PAVRegString@@@std@@@std@@QAE@PAPAVRegString@@AAV?$allocator@PAVRegString@@@1@@Z 100214e0 f i TAConfig.obj
 0001:00020510       ??0?$_Vector_const_iterator@V?$_Vector_val@U?$_Simple_types@PAVRegDword@@@std@@@std@@@std@@QAE@PAPAVRegDword@@PBU_Container_base0@1@@Z 10021510 f i TAConfig.obj
 0001:00020540       ??0?$_Vector_const_iterator@V?$_Vector_val@U?$_Simple_types@PAVRegString@@@std@@@std@@@std@@QAE@PAPAVRegString@@PBU_Container_base0@1@@Z 10021540 f i TAConfig.obj
 0001:00020570       ??0?$_Vector_iterator@V?$_Vector_val@U?$_Simple_types@PAVRegDword@@@std@@@std@@@std@@QAE@PAPAVRegDword@@PBU_Container_base0@1@@Z 10021570 f i TAConfig.obj
 0001:00020590       ??0?$_Vector_iterator@V?$_Vector_val@U?$_Simple_types@PAVRegString@@@std@@@std@@@std@@QAE@PAPAVRegString@@PBU_Container_base0@1@@Z 10021590 f i TAConfig.obj
 0001:000205b0       ??0?$_Vector_val@U?$_Simple_types@PAVRegDword@@@std@@@std@@QAE@XZ 100215b0 f i TAConfig.obj
 0001:000205e0       ??0?$_Vector_val@U?$_Simple_types@PAVRegString@@@std@@@std@@QAE@XZ 100215e0 f i TAConfig.obj
 0001:00020610       ??0?$allocator@PAVRegDword@@@std@@QAE@XZ 10021610 f i TAConfig.obj
 0001:00020620       ??0?$allocator@PAVRegString@@@std@@QAE@XZ 10021620 f i TAConfig.obj
 0001:00020630       ??0?$vector@PAVRegDword@@V?$allocator@PAVRegDword@@@std@@@std@@QAE@XZ 10021630 f i TAConfig.obj
 0001:00020660       ??0?$vector@PAVRegString@@V?$allocator@PAVRegString@@@std@@@std@@QAE@XZ 10021660 f i TAConfig.obj
 0001:00020690       ??0CAtlException@ATL@@QAE@J@Z 10021690 f i TAConfig.obj
 0001:000206b0       ??0RegDword@@QAE@PADHK@Z   100216b0 f   TAConfig.obj
 0001:00020720       ??0RegString@@QAE@PADH0H@Z 10021720 f   TAConfig.obj
 0001:000207c0       ??0TADRConfig@@QAE@XZ      100217c0 f   TAConfig.obj
 0001:00020ab0       ??1?$_Uninitialized_backout_al@V?$allocator@PAVRegDword@@@std@@@std@@QAE@XZ 10021ab0 f i TAConfig.obj
 0001:00020ae0       ??1?$_Uninitialized_backout_al@V?$allocator@PAVRegString@@@std@@@std@@QAE@XZ 10021ae0 f i TAConfig.obj
 0001:00020b10       ??1?$vector@PAVRegDword@@V?$allocator@PAVRegDword@@@std@@@std@@QAE@XZ 10021b10 f i TAConfig.obj
 0001:00020b30       ??1?$vector@PAVRegString@@V?$allocator@PAVRegString@@@std@@@std@@QAE@XZ 10021b30 f i TAConfig.obj
 0001:00020b50       ??1RegDword@@QAE@XZ        10021b50 f   TAConfig.obj
 0001:00020b80       ??1RegString@@QAE@XZ       10021b80 f   TAConfig.obj
 0001:00020bd0       ??1TADRConfig@@QAE@XZ      10021bd0 f   TAConfig.obj
 0001:00020cb0       ??8?$_Vector_const_iterator@V?$_Vector_val@U?$_Simple_types@PAVRegDword@@@std@@@std@@@std@@QBE_NABV01@@Z 10021cb0 f i TAConfig.obj
 0001:00020cf0       ??8?$_Vector_const_iterator@V?$_Vector_val@U?$_Simple_types@PAVRegString@@@std@@@std@@@std@@QBE_NABV01@@Z 10021cf0 f i TAConfig.obj
 0001:00020d30       ??9?$_Vector_const_iterator@V?$_Vector_val@U?$_Simple_types@PAVRegString@@@std@@@std@@@std@@QBE_NABV01@@Z 10021d30 f i TAConfig.obj
 0001:00020d70       ??D?$_Vector_const_iterator@V?$_Vector_val@U?$_Simple_types@PAVRegDword@@@std@@@std@@@std@@QBEABQAVRegDword@@XZ 10021d70 f i TAConfig.obj
 0001:00020d80       ??D?$_Vector_const_iterator@V?$_Vector_val@U?$_Simple_types@PAVRegString@@@std@@@std@@@std@@QBEABQAVRegString@@XZ 10021d80 f i TAConfig.obj
 0001:00020d90       ??D?$_Vector_iterator@V?$_Vector_val@U?$_Simple_types@PAVRegDword@@@std@@@std@@@std@@QBEAAPAVRegDword@@XZ 10021d90 f i TAConfig.obj
 0001:00020db0       ??D?$_Vector_iterator@V?$_Vector_val@U?$_Simple_types@PAVRegString@@@std@@@std@@@std@@QBEAAPAVRegString@@XZ 10021db0 f i TAConfig.obj
 0001:00020dd0       ??E?$_Vector_const_iterator@V?$_Vector_val@U?$_Simple_types@PAVRegDword@@@std@@@std@@@std@@QAEAAV01@XZ 10021dd0 f i TAConfig.obj
 0001:00020df0       ??E?$_Vector_const_iterator@V?$_Vector_val@U?$_Simple_types@PAVRegString@@@std@@@std@@@std@@QAEAAV01@XZ 10021df0 f i TAConfig.obj
 0001:00020e10       ??E?$_Vector_iterator@V?$_Vector_val@U?$_Simple_types@PAVRegDword@@@std@@@std@@@std@@QAEAAV01@XZ 10021e10 f i TAConfig.obj
 0001:00020e30       ??E?$_Vector_iterator@V?$_Vector_val@U?$_Simple_types@PAVRegString@@@std@@@std@@@std@@QAEAAV01@XZ 10021e30 f i TAConfig.obj
 0001:00020e50       ??_GRegDword@@QAEPAXI@Z    10021e50 f i TAConfig.obj
 0001:00020e80       ??_GRegString@@QAEPAXI@Z   10021e80 f i TAConfig.obj
 0001:00020eb0       ?AtlCrtErrorCheck@ATL@@YGHH@Z 10021eb0 f i TAConfig.obj
 0001:00020f70       ?AtlThrowImpl@ATL@@YGXJ@Z  10021f70 f i TAConfig.obj
 0001:00020fa0       ?EnumIniRegInfo_Begin@TADRConfig@@QAEHPAPAU_EnumRegInfo@@PAPBDPAPBX@Z 10021fa0 f   TAConfig.obj
 0001:00021030       ?EnumIniRegInfo_End@TADRConfig@@QAEHPAPAU_EnumRegInfo@@@Z 10022030 f   TAConfig.obj
 0001:00021090       ?EnumIniRegInfo_Next@TADRConfig@@QAEHPAPAU_EnumRegInfo@@PAPBDPAPBX@Z 10022090 f   TAConfig.obj
 0001:000211b0       ?FindRegDword@TADRConfig@@QAEKPADK@Z 100221b0 f   TAConfig.obj
 0001:00021240       ?FindRegStr@TADRConfig@@QAEPBDPADPBD@Z 10022240 f   TAConfig.obj
 0001:000212d0       ?GetIniBool@TADRConfig@@QAEHPBDH@Z 100222d0 f   TAConfig.obj
 0001:00021360       ?GetIniCrc@TADRConfig@@QAEIXZ 10022360 f   TAConfig.obj
 0001:00021440       ?GetIniInt@TADRConfig@@QAEHPBDH@Z 10022440 f   TAConfig.obj
 0001:00021470       ?GetIniStr@TADRConfig@@QAEHPBDPADK1@Z 10022470 f   TAConfig.obj
 0001:000214d0       ?LoadIniRegSetting@TADRConfig@@AAEXPAE@Z 100224d0 f   TAConfig.obj
 0001:00021a90       ?Name@RegDword@@QAEPBDXZ   10022a90 f   TAConfig.obj
 0001:00021aa0       ?Name@RegString@@QAEPBDXZ  10022aa0 f   TAConfig.obj
 0001:00021ab0       ?ReadTAReg_Dword@TADRConfig@@QAEJPADPAK@Z 10022ab0 f   TAConfig.obj
 0001:00021af0       ?ReadTAReg_Str@TADRConfig@@QAEJPADPBDK@Z 10022af0 f   TAConfig.obj
 0001:00021b40       ?SetIniBool@TADRConfig@@QAEHPBDH@Z 10022b40 f   TAConfig.obj
 0001:00021bf0       ?Str@RegString@@QAEPBDXZ   10022bf0 f   TAConfig.obj
 0001:00021c10       ?TARegPath_HKEY@TADRConfig@@AAEPAUHKEY__@@XZ 10022c10 f   TAConfig.obj
 0001:00021c80       ?Value@RegDword@@QAEKXZ    10022c80 f   TAConfig.obj
 0001:00021ca0       ?WriteTAReg_Dword@TADRConfig@@QAEJPADK@Z 10022ca0 f   TAConfig.obj
 0001:00021ce0       ?WriteTAReg_Str@TADRConfig@@QAEJPADPBDK@Z 10022ce0 f   TAConfig.obj
 0001:00021d30       ?_Calculate_growth@?$vector@PAVRegDword@@V?$allocator@PAVRegDword@@@std@@@std@@ABEII@Z 10022d30 f i TAConfig.obj
 0001:00021d90       ?_Calculate_growth@?$vector@PAVRegString@@V?$allocator@PAVRegString@@@std@@@std@@ABEII@Z 10022d90 f i TAConfig.obj
 0001:00021df0       ?_Change_array@?$vector@PAVRegDword@@V?$allocator@PAVRegDword@@@std@@@std@@AAEXQAPAVRegDword@@II@Z 10022df0 f i TAConfig.obj
 0001:00021e90       ?_Change_array@?$vector@PAVRegString@@V?$allocator@PAVRegString@@@std@@@std@@AAEXQAPAVRegString@@II@Z 10022e90 f i TAConfig.obj
 0001:00021f30       ?_Compat@?$_Vector_const_iterator@V?$_Vector_val@U?$_Simple_types@PAVRegDword@@@std@@@std@@@std@@QBEXABV12@@Z 10022f30 f i TAConfig.obj
 0001:00021f40       ?_Compat@?$_Vector_const_iterator@V?$_Vector_val@U?$_Simple_types@PAVRegString@@@std@@@std@@@std@@QBEXABV12@@Z 10022f40 f i TAConfig.obj
 0001:00021f50       ?_Get_first@?$_Compressed_pair@V?$allocator@PAVRegDword@@@std@@V?$_Vector_val@U?$_Simple_types@PAVRegDword@@@std@@@2@$00@std@@QAEAAV?$allocator@PAVRegDword@@@2@XZ 10022f50 f i TAConfig.obj
 0001:00021f60       ?_Get_first@?$_Compressed_pair@V?$allocator@PAVRegDword@@@std@@V?$_Vector_val@U?$_Simple_types@PAVRegDword@@@std@@@2@$00@std@@QBEABV?$allocator@PAVRegDword@@@2@XZ 10022f60 f i TAConfig.obj
 0001:00021f70       ?_Get_first@?$_Compressed_pair@V?$allocator@PAVRegString@@@std@@V?$_Vector_val@U?$_Simple_types@PAVRegString@@@std@@@2@$00@std@@QAEAAV?$allocator@PAVRegString@@@2@XZ 10022f70 f i TAConfig.obj
 0001:00021f80       ?_Get_first@?$_Compressed_pair@V?$allocator@PAVRegString@@@std@@V?$_Vector_val@U?$_Simple_types@PAVRegString@@@std@@@2@$00@std@@QBEABV?$allocator@PAVRegString@@@2@XZ 10022f80 f i TAConfig.obj
 0001:00021f90       ?_Getal@?$vector@PAVRegDword@@V?$allocator@PAVRegDword@@@std@@@std@@AAEAAV?$allocator@PAVRegDword@@@2@XZ 10022f90 f i TAConfig.obj
 0001:00021fb0       ?_Getal@?$vector@PAVRegDword@@V?$allocator@PAVRegDword@@@std@@@std@@ABEABV?$allocator@PAVRegDword@@@2@XZ 10022fb0 f i TAConfig.obj
 0001:00021fd0       ?_Getal@?$vector@PAVRegString@@V?$allocator@PAVRegString@@@std@@@std@@AAEAAV?$allocator@PAVRegString@@@2@XZ 10022fd0 f i TAConfig.obj
 0001:00021ff0       ?_Getal@?$vector@PAVRegString@@V?$allocator@PAVRegString@@@std@@@std@@ABEABV?$allocator@PAVRegString@@@2@XZ 10022ff0 f i TAConfig.obj
 0001:00022010       ?_Orphan_range@?$vector@PAVRegDword@@V?$allocator@PAVRegDword@@@std@@@std@@ABEXPAPAVRegDword@@0@Z 10023010 f i TAConfig.obj
 0001:00022020       ?_Orphan_range@?$vector@PAVRegString@@V?$allocator@PAVRegString@@@std@@@std@@ABEXPAPAVRegString@@0@Z 10023020 f i TAConfig.obj
 0001:00022030       ?_Release@?$_Uninitialized_backout_al@V?$allocator@PAVRegDword@@@std@@@std@@QAEPAPAVRegDword@@XZ 10023030 f i TAConfig.obj
 0001:00022050       ?_Release@?$_Uninitialized_backout_al@V?$allocator@PAVRegString@@@std@@@std@@QAEPAPAVRegString@@XZ 10023050 f i TAConfig.obj
 0001:00022070       ?_Tidy@?$vector@PAVRegDword@@V?$allocator@PAVRegDword@@@std@@@std@@AAEXXZ 10023070 f i TAConfig.obj
 0001:00022130       ?_Tidy@?$vector@PAVRegString@@V?$allocator@PAVRegString@@@std@@@std@@AAEXXZ 10023130 f i TAConfig.obj
 0001:000221f0       ?_Xlength@?$vector@PAVRegDword@@V?$allocator@PAVRegDword@@@std@@@std@@CGXXZ 100231f0 f i TAConfig.obj
 0001:00022200       ?_Xlength@?$vector@PAVRegString@@V?$allocator@PAVRegString@@@std@@@std@@CGXXZ 10023200 f i TAConfig.obj
 0001:00022210       ?allocate@?$allocator@PAVRegDword@@@std@@QAEPAPAVRegDword@@I@Z 10023210 f i TAConfig.obj
 0001:00022230       ?allocate@?$allocator@PAVRegString@@@std@@QAEPAPAVRegString@@I@Z 10023230 f i TAConfig.obj
 0001:00022250       ?back@?$vector@PAVRegDword@@V?$allocator@PAVRegDword@@@std@@@std@@QAEAAPAVRegDword@@XZ 10023250 f i TAConfig.obj
 0001:00022280       ?back@?$vector@PAVRegString@@V?$allocator@PAVRegString@@@std@@@std@@QAEAAPAVRegString@@XZ 10023280 f i TAConfig.obj
 0001:000222b0       ?begin@?$vector@PAVRegDword@@V?$allocator@PAVRegDword@@@std@@@std@@QAE?AV?$_Vector_iterator@V?$_Vector_val@U?$_Simple_types@PAVRegDword@@@std@@@std@@@2@XZ 100232b0 f i TAConfig.obj
 0001:000222e0       ?begin@?$vector@PAVRegString@@V?$allocator@PAVRegString@@@std@@@std@@QAE?AV?$_Vector_iterator@V?$_Vector_val@U?$_Simple_types@PAVRegString@@@std@@@std@@@2@XZ 100232e0 f i TAConfig.obj
 0001:00022310       ?capacity@?$vector@PAVRegDword@@V?$allocator@PAVRegDword@@@std@@@std@@QBEIXZ 10023310 f i TAConfig.obj
 0001:00022340       ?capacity@?$vector@PAVRegString@@V?$allocator@PAVRegString@@@std@@@std@@QBEIXZ 10023340 f i TAConfig.obj
 0001:00022370       ?deallocate@?$allocator@PAVRegDword@@@std@@QAEXQAPAVRegDword@@I@Z 10023370 f i TAConfig.obj
 0001:00022390       ?deallocate@?$allocator@PAVRegString@@@std@@QAEXQAPAVRegString@@I@Z 10023390 f i TAConfig.obj
 0001:000223b0       ?empty@?$vector@PAVRegDword@@V?$allocator@PAVRegDword@@@std@@@std@@QBE_NXZ 100233b0 f i TAConfig.obj
 0001:000223f0       ?empty@?$vector@PAVRegString@@V?$allocator@PAVRegString@@@std@@@std@@QBE_NXZ 100233f0 f i TAConfig.obj
 0001:00022430       ?end@?$vector@PAVRegDword@@V?$allocator@PAVRegDword@@@std@@@std@@QAE?AV?$_Vector_iterator@V?$_Vector_val@U?$_Simple_types@PAVRegDword@@@std@@@std@@@2@XZ 10023430 f i TAConfig.obj
 0001:00022470       ?end@?$vector@PAVRegString@@V?$allocator@PAVRegString@@@std@@@std@@QAE?AV?$_Vector_iterator@V?$_Vector_val@U?$_Simple_types@PAVRegString@@@std@@@std@@@2@XZ 10023470 f i TAConfig.obj
 0001:000224b0       ?max_size@?$_Default_allocator_traits@V?$allocator@PAVRegDword@@@std@@@std@@SGIABV?$allocator@PAVRegDword@@@2@@Z 100234b0 f i TAConfig.obj
 0001:000224c0       ?max_size@?$_Default_allocator_traits@V?$allocator@PAVRegString@@@std@@@std@@SGIABV?$allocator@PAVRegString@@@2@@Z 100234c0 f i TAConfig.obj
 0001:000224d0       ?max_size@?$vector@PAVRegDword@@V?$allocator@PAVRegDword@@@std@@@std@@QBEIXZ 100234d0 f i TAConfig.obj
 0001:00022510       ?max_size@?$vector@PAVRegString@@V?$allocator@PAVRegString@@@std@@@std@@QBEIXZ 10023510 f i TAConfig.obj
 0001:00022550       ?pop_back@?$vector@PAVRegDword@@V?$allocator@PAVRegDword@@@std@@@std@@QAEXXZ 10023550 f i TAConfig.obj
 0001:000225e0       ?pop_back@?$vector@PAVRegString@@V?$allocator@PAVRegString@@@std@@@std@@QAEXXZ 100235e0 f i TAConfig.obj
 0001:00022670       ?push_back@?$vector@PAVRegDword@@V?$allocator@PAVRegDword@@@std@@@std@@QAEXABQAVRegDword@@@Z 10023670 f i TAConfig.obj
 0001:00022690       ?push_back@?$vector@PAVRegString@@V?$allocator@PAVRegString@@@std@@@std@@QAEXABQAVRegString@@@Z 10023690 f i TAConfig.obj
 0001:000226b0       ?size@?$vector@PAVRegDword@@V?$allocator@PAVRegDword@@@std@@@std@@QBEIXZ 100236b0 f i TAConfig.obj
 0001:000226e0       ?size@?$vector@PAVRegString@@V?$allocator@PAVRegString@@@std@@@std@@QBEIXZ 100236e0 f i TAConfig.obj
 0001:00022710       ?strchr@@YAPADQADH@Z       10023710 f i TAConfig.obj
 0001:00022730       ?strlwr_s@Checked@ATL@@YAXPADI@Z 10023730 f i TAConfig.obj
 0001:00022750       ?strupr_s@Checked@ATL@@YAXPADI@Z 10023750 f i TAConfig.obj
 0001:00022770       ??0CTAHook@@QAE@H@Z        10023770 f   tahook.obj
 0001:000229b0       ??1CTAHook@@QAE@XZ         100239b0 f   tahook.obj
 0001:00022a20       ?Blit@CTAHook@@QAEXPAUIDirectDrawSurface@@@Z 10023a20 f   tahook.obj
 0001:00022a30       ?CalculateLine@CTAHook@@AAEXXZ 10023a30 f   tahook.obj
 0001:00022cd0       ?CalculateRing@CTAHook@@AAEXHHHH@Z 10023cd0 f   tahook.obj
 0001:00023020       ?CalculateRing@CTAHook@@AAEXXZ 10024020 f   tahook.obj
 0001:00023120       ?ClickBuilding@CTAHook@@AAEXHH@Z 10024120 f   tahook.obj
 0001:000231b0       ?DisableTABuildRect@CTAHook@@AAEXXZ 100241b0 f   tahook.obj
 0001:000231e0       ?DrawBuildRect@CTAHook@@AAEXHHHHH@Z 100241e0 f   tahook.obj
 0001:000233c0       ?EnableTABuildRect@CTAHook@@AAEXXZ 100243c0 f   tahook.obj
 0001:000233f0       ?GetFootX@CTAHook@@AAEFXZ  100243f0 f   tahook.obj
 0001:00023420       ?GetFootY@CTAHook@@AAEFXZ  10024420 f   tahook.obj
 0001:00023450       ?IsLineBuilding@CTAHook@@QAEHXZ 10024450 f   tahook.obj
 0001:00023490       ?Message@CTAHook@@QAE_NPAUHWND__@@IIJ@Z 10024490 f   tahook.obj
 0001:00023bd0       ?OptimizeDTRows@CTAHook@@AAEXXZ 10024bd0 f   tahook.obj
 0001:00023f40       ?PaintMinimapRect@CTAHook@@AAEXXZ 10024f40 f   tahook.obj
 0001:00023f70       ?Set@CTAHook@@QAEXHPAD_N1H@Z 10024f70 f   tahook.obj
 0001:00023fc0       ?TABlit@CTAHook@@QAEXXZ    10024fc0 f   tahook.obj
 0001:00024040       ?UpdateSpacing@CTAHook@@AAEXXZ 10025040 f   tahook.obj
 0001:00024080       ?VisualizeRow@CTAHook@@AAEXXZ 10025080 f   tahook.obj
 0001:000241f0       ?VisualizeRow_ForME_megamap@CTAHook@@QAEXPAU_OFFSCREEN@@@Z 100251f0 f   tahook.obj
 0001:00024360       ?WriteDTLine@CTAHook@@AAEXXZ 10025360 f   tahook.obj
 0001:00024400       ?WriteScrollDTLine@CTAHook@@AAEXXZ 10025400 f   tahook.obj
 0001:00024410       ?WriteShareMacro@CTAHook@@QAEXXZ 10025410 f   tahook.obj
 0001:00024520       ??$?0$$V@?$_Compressed_pair@V?$allocator@PAD@std@@V?$_Vector_val@U?$_Simple_types@PAD@std@@@2@$00@std@@QAE@U_Zero_then_variadic_args_t@1@@Z 10025520 f i UnicodeSupport.obj
 0001:00024540       ??$_Construct_in_place@PADPAD@std@@YGXAAPAD$$QAPAD@Z 10025540 f i UnicodeSupport.obj
 0001:00024580       ??$_Copy_memmove@PAPADPAPAD@std@@YGPAPADPAPAD00@Z 10025580 f i UnicodeSupport.obj
 0001:000245f0       ??$_Destroy_range@V?$allocator@PAD@std@@@std@@YGXPAPADQAPADAAV?$allocator@PAD@0@@Z 100255f0 f i UnicodeSupport.obj
 0001:00024600       ??$_Emplace_back@PAD@?$_Uninitialized_backout_al@V?$allocator@PAD@std@@@std@@QAEX$$QAPAD@Z 10025600 f i UnicodeSupport.obj
 0001:00024640       ??$_Emplace_back_with_unused_capacity@PAD@?$vector@PADV?$allocator@PAD@std@@@std@@AAEAAPAD$$QAPAD@Z 10025640 f i UnicodeSupport.obj
 0001:000246a0       ??$_Emplace_one_at_back@PAD@?$vector@PADV?$allocator@PAD@std@@@std@@AAEAAPAD$$QAPAD@Z 100256a0 f i UnicodeSupport.obj
 0001:00024700       ??$_Emplace_reallocate@PAD@?$vector@PADV?$allocator@PAD@std@@@std@@AAEPAPADQAPAD$$QAPAD@Z 10025700 f i UnicodeSupport.obj
 0001:000248c0       ??$_Get_unwrapped@ABQAPAD@std@@YG?A_TABQAPAD@Z 100258c0 f i UnicodeSupport.obj
 0001:000248d0       ??$_To_address@PAPAD@std@@YG?A_PABQAPAD@Z 100258d0 f i UnicodeSupport.obj
 0001:000248e0       ??$_Unfancy@PAD@std@@YGPAPADPAPAD@Z 100258e0 f i UnicodeSupport.obj
 0001:000248f0       ??$_Uninitialized_move@PAPADV?$allocator@PAD@std@@@std@@YGPAPADQAPAD0PAPADAAV?$allocator@PAD@0@@Z 100258f0 f i UnicodeSupport.obj
 0001:000249c0       ??$_Voidify_iter@PAPAD@std@@YGPAXPAPAD@Z 100259c0 f i UnicodeSupport.obj
 0001:000249d0       ??$addressof@PAD@std@@YGPAPADAAPAD@Z 100259d0 f i UnicodeSupport.obj
 0001:000249e0       ??$addressof@V?$_Vector_val@U?$_Simple_types@PAD@std@@@std@@@std@@YGPAV?$_Vector_val@U?$_Simple_types@PAD@std@@@0@AAV10@@Z 100259e0 f i UnicodeSupport.obj
 0001:000249f0       ??$construct@PADPAD@?$_Default_allocator_traits@V?$allocator@PAD@std@@@std@@SGXAAV?$allocator@PAD@1@QAPAD$$QAPAD@Z 100259f0 f i UnicodeSupport.obj
 0001:00024a30       ??$destroy@PAD@?$_Default_allocator_traits@V?$allocator@PAD@std@@@std@@SGXAAV?$allocator@PAD@1@QAPAD@Z 10025a30 f i UnicodeSupport.obj
 0001:00024a40       ??$emplace_back@PAD@?$vector@PADV?$allocator@PAD@std@@@std@@QAE?A_T$$QAPAD@Z 10025a40 f i UnicodeSupport.obj
 0001:00024a70       ??$forward@PAD@std@@YG$$QAPADAAPAD@Z 10025a70 f i UnicodeSupport.obj
 0001:00024a80       ??$move@AAPAD@std@@YG$$QAPADAAPAD@Z 10025a80 f i UnicodeSupport.obj
 0001:00024a90       ??0?$_Uninitialized_backout_al@V?$allocator@PAD@std@@@std@@QAE@PAPADAAV?$allocator@PAD@1@@Z 10025a90 f i UnicodeSupport.obj
 0001:00024ac0       ??0?$_Vector_const_iterator@V?$_Vector_val@U?$_Simple_types@PAD@std@@@std@@@std@@QAE@PAPADPBU_Container_base0@1@@Z 10025ac0 f i UnicodeSupport.obj
 0001:00024af0       ??0?$_Vector_iterator@V?$_Vector_val@U?$_Simple_types@PAD@std@@@std@@@std@@QAE@PAPADPBU_Container_base0@1@@Z 10025af0 f i UnicodeSupport.obj
 0001:00024b10       ??0?$_Vector_val@U?$_Simple_types@PAD@std@@@std@@QAE@XZ 10025b10 f i UnicodeSupport.obj
 0001:00024b40       ??0?$allocator@PAD@std@@QAE@XZ 10025b40 f i UnicodeSupport.obj
 0001:00024b50       ??0?$vector@PADV?$allocator@PAD@std@@@std@@QAE@XZ 10025b50 f i UnicodeSupport.obj
 0001:00024b80       ??0UnicodeSupport@@QAE@H@Z 10025b80 f   UnicodeSupport.obj
 0001:00024d70       ??0UnicodeSupport@@QAE@PBDKKH@Z 10025d70 f   UnicodeSupport.obj
 0001:00025380       ??1?$_Uninitialized_backout_al@V?$allocator@PAD@std@@@std@@QAE@XZ 10026380 f i UnicodeSupport.obj
 0001:000253b0       ??1?$vector@PADV?$allocator@PAD@std@@@std@@QAE@XZ 100263b0 f i UnicodeSupport.obj
 0001:000253d0       ??1UnicodeSupport@@QAE@XZ  100263d0 f   UnicodeSupport.obj
 0001:00025610       ??8?$_Vector_const_iterator@V?$_Vector_val@U?$_Simple_types@PAD@std@@@std@@@std@@QBE_NABV01@@Z 10026610 f i UnicodeSupport.obj
 0001:00025650       ??9?$_Vector_const_iterator@V?$_Vector_val@U?$_Simple_types@PAD@std@@@std@@@std@@QBE_NABV01@@Z 10026650 f i UnicodeSupport.obj
 0001:00025690       ??D?$_Vector_const_iterator@V?$_Vector_val@U?$_Simple_types@PAD@std@@@std@@@std@@QBEABQADXZ 10026690 f i UnicodeSupport.obj
 0001:000256a0       ??D?$_Vector_iterator@V?$_Vector_val@U?$_Simple_types@PAD@std@@@std@@@std@@QBEAAPADXZ 100266a0 f i UnicodeSupport.obj
 0001:000256c0       ??E?$_Vector_const_iterator@V?$_Vector_val@U?$_Simple_types@PAD@std@@@std@@@std@@QAEAAV01@XZ 100266c0 f i UnicodeSupport.obj
 0001:000256e0       ??E?$_Vector_iterator@V?$_Vector_val@U?$_Simple_types@PAD@std@@@std@@@std@@QAEAAV01@XZ 100266e0 f i UnicodeSupport.obj
 0001:00025700       ?Blt@UnicodeSupport@@QAE_NPAUIDirectDrawSurface@@@Z 10026700 f   UnicodeSupport.obj
 0001:000258e0       ?Blt_BottomState0_Text@@YGHPAUtagInlineX86StackBuffer@@@Z 100268e0 f   UnicodeSupport.obj
 0001:00025a00       ?Blt_BottomState1_Text@@YGHPAUtagInlineX86StackBuffer@@@Z 10026a00 f   UnicodeSupport.obj
 0001:00025b10       ?CopyToContextScreenMem@@YGXPAU_OFFSCREEN@@PAUtagSpecScreenSurface@@@Z 10026b10 f   UnicodeSupport.obj
 0001:00025b90       ?CopyToSpecSurfaceMem@@YGXPAUtagSpecScreenSurface@@PAU_OFFSCREEN@@@Z 10026b90 f   UnicodeSupport.obj
 0001:00025c10       ?CreateSurfaceFromContextScreen@UnicodeSupport@@QAEPAUIDirectDrawSurface@@PAU_OFFSCREEN@@PAUIDirectDraw@@PAPAU2@@Z 10026c10 f   UnicodeSupport.obj
 0001:00025cc0       ?DBSC2rdByte@@YGHPAUtagInlineX86StackBuffer@@@Z 10026cc0 f   UnicodeSupport.obj
 0001:00025d50       ?DrawALine_Ime@UnicodeSupport@@AAEXPAUHDC__@@PADPAH2@Z 10026d50 f   UnicodeSupport.obj
 0001:00025de0       ?DrawSeparator@UnicodeSupport@@AAEHPAUHDC__@@HPAH1PAUHBRUSH__@@@Z 10026de0 f   UnicodeSupport.obj
 0001:00025e30       ?FreeSpecScreenSurface@UnicodeSupport@@AAEXPAUtagSpecScreenSurface@@@Z 10026e30 f   UnicodeSupport.obj
 0001:00025f10       ?GetSpecScreenSurface@UnicodeSupport@@AAEPAUtagSpecScreenSurface@@PAU_OFFSCREEN@@@Z 10026f10 f   UnicodeSupport.obj
 0001:00025fe0       ?GetStrExtent@@YGHPAUtagInlineX86StackBuffer@@@Z 10026fe0 f   UnicodeSupport.obj
 0001:00026040       ?GetTextExtent_AssignCharLen@@YGHPAUtagInlineX86StackBuffer@@@Z 10027040 f   UnicodeSupport.obj
 0001:000260a0       ?IsIDDrawLost@UnicodeSupport@@AAEHXZ 100270a0 f   UnicodeSupport.obj
 0001:000260d0       ?Message@UnicodeSupport@@QAE_NPAUHWND__@@IIJ@Z 100270d0 f   UnicodeSupport.obj
 0001:000265f0       ?NewSpecScreenSurface@UnicodeSupport@@AAEPAUtagSpecScreenSurface@@PAU_OFFSCREEN@@@Z 100275f0 f   UnicodeSupport.obj
 0001:000266e0       ?PopadState@@YGHPAUtagInlineX86StackBuffer@@@Z 100276e0 f   UnicodeSupport.obj
 0001:00026780       ?ReleaseCandidateList@UnicodeSupport@@AAEXXZ 10027780 f   UnicodeSupport.obj
 0001:00026800       ?RestoreLocalSurf@UnicodeSupport@@AAEXH@Z 10027800 f   UnicodeSupport.obj
 0001:000268e0       ?SendStr@UnicodeSupport@@AAEXPAD@Z 100278e0 f   UnicodeSupport.obj
 0001:00026930       ?Set@UnicodeSupport@@QAEXH@Z 10027930 f   UnicodeSupport.obj
 0001:00026950       ?SetHDCFont@UnicodeSupport@@AAEXPAUHDC__@@PAUHFONT__@@@Z 10027950 f   UnicodeSupport.obj
 0001:00026990       ?USDrawTextInScreen_HookRouter@@YGHPAUtagInlineX86StackBuffer@@@Z 10027990 f   UnicodeSupport.obj
 0001:00026ab0       ?UnicodeDrawTextA@UnicodeSupport@@QAEHPAU_OFFSCREEN@@PADPAUIDirectDraw@@HH@Z 10027ab0 f   UnicodeSupport.obj
 0001:00026d80       ?UpdateImeFrame@UnicodeSupport@@AAE_NXZ 10027d80 f   UnicodeSupport.obj
 0001:00027080       ?UpdateImeInput@UnicodeSupport@@AAE_NXZ 10028080 f   UnicodeSupport.obj
 0001:000272b0       ?_Calculate_growth@?$vector@PADV?$allocator@PAD@std@@@std@@ABEII@Z 100282b0 f i UnicodeSupport.obj
 0001:00027310       ?_Change_array@?$vector@PADV?$allocator@PAD@std@@@std@@AAEXQAPADII@Z 10028310 f i UnicodeSupport.obj
 0001:000273b0       ?_Compat@?$_Vector_const_iterator@V?$_Vector_val@U?$_Simple_types@PAD@std@@@std@@@std@@QBEXABV12@@Z 100283b0 f i UnicodeSupport.obj
 0001:000273c0       ?_Get_first@?$_Compressed_pair@V?$allocator@PAD@std@@V?$_Vector_val@U?$_Simple_types@PAD@std@@@2@$00@std@@QAEAAV?$allocator@PAD@2@XZ 100283c0 f i UnicodeSupport.obj
 0001:000273d0       ?_Get_first@?$_Compressed_pair@V?$allocator@PAD@std@@V?$_Vector_val@U?$_Simple_types@PAD@std@@@2@$00@std@@QBEABV?$allocator@PAD@2@XZ 100283d0 f i UnicodeSupport.obj
 0001:000273e0       ?_Getal@?$vector@PADV?$allocator@PAD@std@@@std@@AAEAAV?$allocator@PAD@2@XZ 100283e0 f i UnicodeSupport.obj
 0001:00027400       ?_Getal@?$vector@PADV?$allocator@PAD@std@@@std@@ABEABV?$allocator@PAD@2@XZ 10028400 f i UnicodeSupport.obj
 0001:00027420       ?_Orphan_range@?$vector@PADV?$allocator@PAD@std@@@std@@ABEXPAPAD0@Z 10028420 f i UnicodeSupport.obj
 0001:00027430       ?_Release@?$_Uninitialized_backout_al@V?$allocator@PAD@std@@@std@@QAEPAPADXZ 10028430 f i UnicodeSupport.obj
 0001:00027450       ?_Tidy@?$vector@PADV?$allocator@PAD@std@@@std@@AAEXXZ 10028450 f i UnicodeSupport.obj
 0001:00027510       ?_Xlength@?$vector@PADV?$allocator@PAD@std@@@std@@CGXXZ 10028510 f i UnicodeSupport.obj
 0001:00027520       ?allocate@?$allocator@PAD@std@@QAEPAPADI@Z 10028520 f i UnicodeSupport.obj
 0001:00027540       ?back@?$vector@PADV?$allocator@PAD@std@@@std@@QAEAAPADXZ 10028540 f i UnicodeSupport.obj
 0001:00027570       ?begin@?$vector@PADV?$allocator@PAD@std@@@std@@QAE?AV?$_Vector_iterator@V?$_Vector_val@U?$_Simple_types@PAD@std@@@std@@@2@XZ 10028570 f i UnicodeSupport.obj
 0001:000275a0       ?capacity@?$vector@PADV?$allocator@PAD@std@@@std@@QBEIXZ 100285a0 f i UnicodeSupport.obj
 0001:000275d0       ?deallocate@?$allocator@PAD@std@@QAEXQAPADI@Z 100285d0 f i UnicodeSupport.obj
 0001:000275f0       ?empty@?$vector@PADV?$allocator@PAD@std@@@std@@QBE_NXZ 100285f0 f i UnicodeSupport.obj
 0001:00027630       ?end@?$vector@PADV?$allocator@PAD@std@@@std@@QAE?AV?$_Vector_iterator@V?$_Vector_val@U?$_Simple_types@PAD@std@@@std@@@2@XZ 10028630 f i UnicodeSupport.obj
 0001:00027670       ?freelpImeSurface@UnicodeSupport@@AAEXXZ 10028670 f   UnicodeSupport.obj
 0001:000276f0       ?max_size@?$_Default_allocator_traits@V?$allocator@PAD@std@@@std@@SGIABV?$allocator@PAD@2@@Z 100286f0 f i UnicodeSupport.obj
 0001:00027700       ?max_size@?$vector@PADV?$allocator@PAD@std@@@std@@QBEIXZ 10028700 f i UnicodeSupport.obj
 0001:00027740       ?myDeleteChar@@YGHPAUtagInlineX86StackBuffer@@@Z 10028740 f   UnicodeSupport.obj
 0001:00027810       ?myValidChar@@YGHPAUtagInlineX86StackBuffer@@@Z 10028810 f   UnicodeSupport.obj
 0001:00027960       ?pop_back@?$vector@PADV?$allocator@PAD@std@@@std@@QAEXXZ 10028960 f i UnicodeSupport.obj
 0001:000279f0       ?push_back@?$vector@PADV?$allocator@PAD@std@@@std@@QAEX$$QAPAD@Z 100289f0 f i UnicodeSupport.obj
 0001:00027b20       ??0IncreaseAISearchMapEntriesLimit@@QAE@K@Z 10028b20 f   LimitCrack.obj
 0001:00027bc0       ??0IncreaseAISearchMapEntriesLimit@@QAE@XZ 10028bc0 f   LimitCrack.obj
 0001:00027c50       ??0IncreaseCompositeBuf@@QAE@KK@Z 10028c50 f   LimitCrack.obj
 0001:00027c70       ??0IncreaseCompositeBuf@@QAE@XZ 10028c70 f   LimitCrack.obj
 0001:00027c90       ??0IncreaseSfxLimit@@QAE@K@Z 10028c90 f   LimitCrack.obj
 0001:00027cc0       ??0IncreaseSfxLimit@@QAE@XZ 10028cc0 f   LimitCrack.obj
 0001:00027ce0       ??0IncreaseUnitTypeLimit@@QAE@H@Z 10028ce0 f   LimitCrack.obj
 0001:00027d00       ??0IncreaseUnitTypeLimit@@QAE@XZ 10028d00 f   LimitCrack.obj
 0001:00027d20       ??0IncreaseWeaponTypeLimit@@QAE@K@Z 10028d20 f   LimitCrack.obj
 0001:00027d40       ??0IncreaseWeaponTypeLimit@@QAE@XZ 10028d40 f   LimitCrack.obj
 0001:00027d60       ??0LimitCrack@@QAE@XZ      10028d60 f   LimitCrack.obj
 0001:00027f30       ??0UnitLimit@@QAE@K@Z      10028f30 f   LimitCrack.obj
 0001:00027f80       ??0UnitLimit@@QAE@XZ       10028f80 f   LimitCrack.obj
 0001:00027fc0       ??1IncreaseAISearchMapEntriesLimit@@QAE@XZ 10028fc0 f   LimitCrack.obj
 0001:00028000       ??1IncreaseCompositeBuf@@QAE@XZ 10029000 f   LimitCrack.obj
 0001:00028040       ??1IncreaseSfxLimit@@QAE@XZ 10029040 f   LimitCrack.obj
 0001:000280d0       ??1IncreaseUnitTypeLimit@@QAE@XZ 100290d0 f   LimitCrack.obj
 0001:000282e0       ??1IncreaseWeaponTypeLimit@@QAE@XZ 100292e0 f   LimitCrack.obj
 0001:00028470       ??1LimitCrack@@QAE@XZ      10029470 f   LimitCrack.obj
 0001:00028480       ??1UnitLimit@@QAE@XZ       10029480 f   LimitCrack.obj
 0001:00028570       ?NewLimit@IncreaseWeaponTypeLimit@@AAEXK@Z 10029570 f   LimitCrack.obj
 0001:000286e0       ?NewUnitLimit@UnitLimit@@AAEXK@Z 100296e0 f   LimitCrack.obj
 0001:00028870       ?SetNewLimit@IncreaseSfxLimit@@AAEXKK@Z 10029870 f   LimitCrack.obj
 0001:000289b0       ?Sfx_mallocBufSizeRouter@@YGHPAUtagInlineX86StackBuffer@@@Z 100299b0 f   LimitCrack.obj
 0001:000289d0       ?WeaponType_IdLimit@IncreaseWeaponTypeLimit@@AAEXXZ 100299d0 f   LimitCrack.obj
 0001:00028af0       ?WriteNewLimit@IncreaseCompositeBuf@@AAEXKK@Z 10029af0 f   LimitCrack.obj
 0001:00028bd0       ?WriteNewLimit@IncreaseUnitTypeLimit@@AAEXK@Z 10029bd0 f   LimitCrack.obj
 0001:00029340       ?WriteWeaponAryLen@IncreaseWeaponTypeLimit@@AAEKK@Z 1002a340 f   LimitCrack.obj
 0001:00029400       ?WriteWeaponAryPtr@IncreaseWeaponTypeLimit@@AAEPAXPAPAX@Z 1002a400 f   LimitCrack.obj
 0001:00029560       ??0UnitsMinimap@@QAE@PAVFullScreenMinimap@@HHHHHHHHHHHHHHHHPAH@Z 1002a560 f   UnitMinimap.obj
 0001:000295d0       ??0UnitsMinimap@@QAE@PAVFullScreenMinimap@@HHHHHHHHHHHHHHPAH@Z 1002a5d0 f   UnitMinimap.obj
 0001:00029640       ??1UnitsMinimap@@QAE@XZ    1002a640 f   UnitMinimap.obj
 0001:00029690       ??_GUnitIcon@@QAEPAXI@Z    1002a690 f i UnitMinimap.obj
 0001:000296c0       ?DrawUnit@UnitsMinimap@@AAEXPAEPAUtagPOINT@@PAUUnitStruct@@@Z 1002a6c0 f   UnitMinimap.obj
 0001:0002a050       ?FreeUnitPicture@UnitsMinimap@@QAEXXZ 1002b050 f   UnitMinimap.obj
 0001:0002a350       ?GetSurface@UnitsMinimap@@QAEPAEXZ 1002b350 f   UnitMinimap.obj
 0001:0002a360       ?GetTransparentColor@UnitsMinimap@@QAEHXZ 1002b360 f   UnitMinimap.obj
 0001:0002a380       ?Init@UnitsMinimap@@QAEXHHHHHHHHHHHHHHPAH@Z 1002b380 f   UnitMinimap.obj
 0001:0002a770       ?InitHoverPicturePlayerColors@UnitsMinimap@@AAEXHHHHPAPAPAE@Z 1002b770 f   UnitMinimap.obj
 0001:0002a920       ?InitPicturePlayerColors@UnitsMinimap@@AAEXHHPAPAPAE@Z 1002b920 f   UnitMinimap.obj
 0001:0002aac0       ?InitSurface@UnitsMinimap@@QAEPAEPAUIDirectDraw@@H@Z 1002bac0 f   UnitMinimap.obj
 0001:0002aba0       ?InitUnSelectedPicturePlayerColors@UnitsMinimap@@AAEXHHHHPAPAPAE@Z 1002bba0 f   UnitMinimap.obj
 0001:0002ad50       ?LoadUnitPicture@UnitsMinimap@@QAEXXZ 1002bd50 f   UnitMinimap.obj
 0001:0002bf20       ?LockOn@UnitsMinimap@@QAEPAEPAPAEPAUtagPOINT@@@Z 1002cf20 f   UnitMinimap.obj
 0001:0002bf60       ?NowDrawUnits@UnitsMinimap@@QAEXPAEPAUtagPOINT@@@Z 1002cf60 f   UnitMinimap.obj
 0001:0002c0b0       ?NukePicture@UnitsMinimap@@QAEPAEHPAPAEPAUtagPOINT@@@Z 1002d0b0 f   UnitMinimap.obj
 0001:0002c1a0       ?ReSet@UnitsMinimap@@QAEXHH@Z 1002d1a0 f   UnitMinimap.obj
 0001:0002c1f0       ?ReleaseSurface@UnitsMinimap@@QAEXXZ 1002d1f0 f   UnitMinimap.obj
 0001:0002c220       ?UnitPicture@UnitsMinimap@@QAEPAEPAUUnitStruct@@HPAPAEPAUtagPOINT@@@Z 1002d220 f   UnitMinimap.obj
 0001:0002ca60       ?Unlock@UnitsMinimap@@QAEXPAE@Z 1002da60 f   UnitMinimap.obj
 0001:0002ca70       ??0CUnitRotate@@QAE@XZ     1002da70 f   unitrotate.obj
 0001:0002ca90       ??1CUnitRotate@@QAE@XZ     1002da90 f   unitrotate.obj
 0001:0002caa0       ?Message@CUnitRotate@@QAE_NPAUHWND__@@IIJ@Z 1002daa0 f   unitrotate.obj
 0001:0002caf0       ?Rotate@CUnitRotate@@AAEXXZ 1002daf0 f   unitrotate.obj
 0001:0002cd00       ?SetMem@CUnitRotate@@AAEXXZ 1002dd00 f   unitrotate.obj
 0001:0002cd60       ??$?0$$V@?$_Compressed_pair@V?$allocator@PAVGraphicElement@@@std@@V?$_Deque_val@U?$_Deque_simple_types@PAVGraphicElement@@@std@@@2@$00@std@@QAE@U_Zero_then_variadic_args_t@1@@Z 1002dd60 f i whiteboard.obj
 0001:0002cd80       ??$?0$$V@?$_Compressed_pair@V?$allocator@PAVGraphicElement@@@std@@V?$_Vector_val@U?$_Simple_types@PAVGraphicElement@@@std@@@2@$00@std@@QAE@U_Zero_then_variadic_args_t@1@@Z 1002dd80 f i whiteboard.obj
 0001:0002cda0       ??$?0$$V@?$_Compressed_pair@V?$allocator@UMMHS@AlliesWhiteboard@@@std@@V?$_Deque_val@U?$_Deque_simple_types@UMMHS@AlliesWhiteboard@@@std@@@2@$00@std@@QAE@U_Zero_then_variadic_args_t@1@@Z 1002dda0 f i whiteboard.obj
 0001:0002cdc0       ??$?0PAVGraphicElement@@@?$allocator@PAPAVGraphicElement@@@std@@QAE@ABV?$allocator@PAVGraphicElement@@@1@@Z 1002ddc0 f i whiteboard.obj
 0001:0002cdd0       ??$?0PAVGraphicElement@@@?$allocator@U_Container_proxy@std@@@std@@QAE@ABV?$allocator@PAVGraphicElement@@@1@@Z 1002ddd0 f i whiteboard.obj
 0001:0002cde0       ??$?0UMMHS@AlliesWhiteboard@@@?$allocator@PAUMMHS@AlliesWhiteboard@@@std@@QAE@ABV?$allocator@UMMHS@AlliesWhiteboard@@@1@@Z 1002dde0 f i whiteboard.obj
 0001:0002cdf0       ??$?0UMMHS@AlliesWhiteboard@@@?$allocator@U_Container_proxy@std@@@std@@QAE@ABV?$allocator@UMMHS@AlliesWhiteboard@@@1@@Z 1002ddf0 f i whiteboard.obj
 0001:0002ce00       ??$_Adl_verify_range@PAPAPAVGraphicElement@@PAPAPAV1@@std@@YGXABQAPAPAVGraphicElement@@0@Z 1002de00 f i whiteboard.obj
 0001:0002ce10       ??$_Adl_verify_range@PAPAUMMHS@AlliesWhiteboard@@PAPAU12@@std@@YGXABQAPAUMMHS@AlliesWhiteboard@@0@Z 1002de10 f i whiteboard.obj
 0001:0002ce20       ??$_Construct_in_place@PAPAVGraphicElement@@AAPAPAV1@@std@@YGXAAPAPAVGraphicElement@@0@Z 1002de20 f i whiteboard.obj
 0001:0002ce60       ??$_Construct_in_place@PAUMMHS@AlliesWhiteboard@@AAPAU12@@std@@YGXAAPAUMMHS@AlliesWhiteboard@@0@Z 1002de60 f i whiteboard.obj
 0001:0002cea0       ??$_Copy_memmove@PAPAPAVGraphicElement@@PAPAPAV1@@std@@YGPAPAPAVGraphicElement@@PAPAPAV1@00@Z 1002dea0 f i whiteboard.obj
 0001:0002cf10       ??$_Copy_memmove@PAPAUMMHS@AlliesWhiteboard@@PAPAU12@@std@@YGPAPAUMMHS@AlliesWhiteboard@@PAPAU12@00@Z 1002df10 f i whiteboard.obj
 0001:0002cf80       ??$_Destroy_in_place@PAPAVGraphicElement@@@std@@YGXAAPAPAVGraphicElement@@@Z 1002df80 f i whiteboard.obj
 0001:0002cf90       ??$_Destroy_in_place@PAUMMHS@AlliesWhiteboard@@@std@@YGXAAPAUMMHS@AlliesWhiteboard@@@Z 1002df90 f i whiteboard.obj
 0001:0002cfa0       ??$_Destroy_range@PAPAPAVGraphicElement@@PAPAPAV1@@std@@YGXPAPAPAVGraphicElement@@QAPAPAV1@@Z 1002dfa0 f i whiteboard.obj
 0001:0002cfb0       ??$_Destroy_range@PAPAUMMHS@AlliesWhiteboard@@PAPAU12@@std@@YGXPAPAUMMHS@AlliesWhiteboard@@QAPAU12@@Z 1002dfb0 f i whiteboard.obj
 0001:0002cfc0       ??$_Destroy_range@V?$allocator@PAVGraphicElement@@@std@@@std@@YGXPAPAVGraphicElement@@QAPAV1@AAV?$allocator@PAVGraphicElement@@@0@@Z 1002dfc0 f i whiteboard.obj
 0001:0002cfd0       ??$_Emplace_back@AAPAPAVGraphicElement@@@?$_Uninitialized_backout@PAPAPAVGraphicElement@@@std@@QAEXAAPAPAVGraphicElement@@@Z 1002dfd0 f i whiteboard.obj
 0001:0002d010       ??$_Emplace_back@AAPAUMMHS@AlliesWhiteboard@@@?$_Uninitialized_backout@PAPAUMMHS@AlliesWhiteboard@@@std@@QAEXAAPAUMMHS@AlliesWhiteboard@@@Z 1002e010 f i whiteboard.obj
 0001:0002d050       ??$_Emplace_back_internal@PAVGraphicElement@@@?$deque@PAVGraphicElement@@V?$allocator@PAVGraphicElement@@@std@@@std@@AAEX$$QAPAVGraphicElement@@@Z 1002e050 f i whiteboard.obj
 0001:0002d190       ??$_Get_unwrapped@ABQAPAPAVGraphicElement@@@std@@YG?A_TABQAPAPAVGraphicElement@@@Z 1002e190 f i whiteboard.obj
 0001:0002d1a0       ??$_Get_unwrapped@ABQAPAUMMHS@AlliesWhiteboard@@@std@@YG?A_TABQAPAUMMHS@AlliesWhiteboard@@@Z 1002e1a0 f i whiteboard.obj
 0001:0002d1b0       ??$_Get_unwrapped_n@AAPAPAPAVGraphicElement@@H@std@@YG?A_TAAPAPAPAVGraphicElement@@H@Z 1002e1b0 f i whiteboard.obj
 0001:0002d1c0       ??$_Get_unwrapped_n@AAPAPAUMMHS@AlliesWhiteboard@@H@std@@YG?A_TAAPAPAUMMHS@AlliesWhiteboard@@H@Z 1002e1c0 f i whiteboard.obj
 0001:0002d1d0       ??$_Idl_distance@PAPAPAVGraphicElement@@PAPAPAV1@@std@@YG?A_PABQAPAPAVGraphicElement@@0@Z 1002e1d0 f i whiteboard.obj
 0001:0002d1f0       ??$_Idl_distance@PAPAUMMHS@AlliesWhiteboard@@PAPAU12@@std@@YG?A_PABQAPAUMMHS@AlliesWhiteboard@@0@Z 1002e1f0 f i whiteboard.obj
 0001:0002d210       ??$_Pocma@V?$allocator@PAVGraphicElement@@@std@@@std@@YGXAAV?$allocator@PAVGraphicElement@@@0@0@Z 1002e210 f i whiteboard.obj
 0001:0002d220       ??$_Prev_iter@V?$_Deque_unchecked_iterator@V?$_Deque_val@U?$_Deque_simple_types@UMMHS@AlliesWhiteboard@@@std@@@std@@@std@@@std@@YG?AV?$_Deque_unchecked_iterator@V?$_Deque_val@U?$_Deque_simple_types@UMMHS@AlliesWhiteboard@@@std@@@std@@@0@V10@@Z 1002e220 f i whiteboard.obj
 0001:0002d240       ??$_Seek_wrapped@PAPAPAVGraphicElement@@PAPAPAV1@@std@@YGXAAPAPAPAVGraphicElement@@$$QAPAPAPAV1@@Z 1002e240 f i whiteboard.obj
 0001:0002d260       ??$_Seek_wrapped@PAPAUMMHS@AlliesWhiteboard@@PAPAU12@@std@@YGXAAPAPAUMMHS@AlliesWhiteboard@@$$QAPAPAU12@@Z 1002e260 f i whiteboard.obj
 0001:0002d280       ??$_To_address@PAPAPAVGraphicElement@@@std@@YG?A_PABQAPAPAVGraphicElement@@@Z 1002e280 f i whiteboard.obj
 0001:0002d290       ??$_To_address@PAPAUMMHS@AlliesWhiteboard@@@std@@YG?A_PABQAPAUMMHS@AlliesWhiteboard@@@Z 1002e290 f i whiteboard.obj
 0001:0002d2a0       ??$_Unfancy@PAVGraphicElement@@@std@@YGPAPAVGraphicElement@@PAPAV1@@Z 1002e2a0 f i whiteboard.obj
 0001:0002d2b0       ??$_Unfancy@UMMHS@AlliesWhiteboard@@@std@@YGPAUMMHS@AlliesWhiteboard@@PAU12@@Z 1002e2b0 f i whiteboard.obj
 0001:0002d2c0       ??$_Uninitialized_copy_unchecked@PAPAPAVGraphicElement@@PAPAPAV1@@std@@YGPAPAPAVGraphicElement@@PAPAPAV1@QAPAPAV1@0@Z 1002e2c0 f i whiteboard.obj
 0001:0002d350       ??$_Uninitialized_copy_unchecked@PAPAUMMHS@AlliesWhiteboard@@PAPAU12@@std@@YGPAPAUMMHS@AlliesWhiteboard@@PAPAU12@QAPAU12@0@Z 1002e350 f i whiteboard.obj
 0001:0002d3e0       ??$_Uninitialized_value_construct_n_unchecked1@PAPAPAVGraphicElement@@I@std@@YGPAPAPAVGraphicElement@@PAPAPAV1@I@Z 1002e3e0 f i whiteboard.obj
 0001:0002d400       ??$_Uninitialized_value_construct_n_unchecked1@PAPAUMMHS@AlliesWhiteboard@@I@std@@YGPAPAUMMHS@AlliesWhiteboard@@PAPAU12@I@Z 1002e400 f i whiteboard.obj
 0001:0002d420       ??$_Voidify_iter@PAPAPAVGraphicElement@@@std@@YGPAXPAPAPAVGraphicElement@@@Z 1002e420 f i whiteboard.obj
 0001:0002d430       ??$_Voidify_iter@PAPAUMMHS@AlliesWhiteboard@@@std@@YGPAXPAPAUMMHS@AlliesWhiteboard@@@Z 1002e430 f i whiteboard.obj
 0001:0002d440       ??$_Voidify_iter@PAPAVGraphicElement@@@std@@YGPAXPAPAVGraphicElement@@@Z 1002e440 f i whiteboard.obj
 0001:0002d450       ??$_Voidify_iter@PAUMMHS@AlliesWhiteboard@@@std@@YGPAXPAUMMHS@AlliesWhiteboard@@@Z 1002e450 f i whiteboard.obj
 0001:0002d460       ??$_Zero_range@PAPAPAVGraphicElement@@@std@@YGPAPAPAVGraphicElement@@QAPAPAV1@0@Z 1002e460 f i whiteboard.obj
 0001:0002d4a0       ??$_Zero_range@PAPAUMMHS@AlliesWhiteboard@@@std@@YGPAPAUMMHS@AlliesWhiteboard@@QAPAU12@0@Z 1002e4a0 f i whiteboard.obj
 0001:0002d4e0       ??$addressof@PAPAVGraphicElement@@@std@@YGPAPAPAVGraphicElement@@AAPAPAV1@@Z 1002e4e0 f i whiteboard.obj
 0001:0002d4f0       ??$addressof@PAUMMHS@AlliesWhiteboard@@@std@@YGPAPAUMMHS@AlliesWhiteboard@@AAPAU12@@Z 1002e4f0 f i whiteboard.obj
 0001:0002d500       ??$addressof@V?$_Deque_val@U?$_Deque_simple_types@PAVGraphicElement@@@std@@@std@@@std@@YGPAV?$_Deque_val@U?$_Deque_simple_types@PAVGraphicElement@@@std@@@0@AAV10@@Z 1002e500 f i whiteboard.obj
 0001:0002d510       ??$addressof@V?$_Deque_val@U?$_Deque_simple_types@UMMHS@AlliesWhiteboard@@@std@@@std@@@std@@YGPAV?$_Deque_val@U?$_Deque_simple_types@UMMHS@AlliesWhiteboard@@@std@@@0@AAV10@@Z 1002e510 f i whiteboard.obj
 0001:0002d520       ??$addressof@V?$vector@PAVGraphicElement@@V?$allocator@PAVGraphicElement@@@std@@@std@@@std@@YGPAV?$vector@PAVGraphicElement@@V?$allocator@PAVGraphicElement@@@std@@@0@AAV10@@Z 1002e520 f i whiteboard.obj
 0001:0002d530       ??$construct@PAVGraphicElement@@PAV1@@?$_Default_allocator_traits@V?$allocator@PAVGraphicElement@@@std@@@std@@SGXAAV?$allocator@PAVGraphicElement@@@1@QAPAVGraphicElement@@$$QAPAV3@@Z 1002e530 f i whiteboard.obj
 0001:0002d570       ??$construct@UMMHS@AlliesWhiteboard@@ABU12@@?$_Default_allocator_traits@V?$allocator@UMMHS@AlliesWhiteboard@@@std@@@std@@SGXAAV?$allocator@UMMHS@AlliesWhiteboard@@@1@QAUMMHS@AlliesWhiteboard@@ABU34@@Z 1002e570 f i whiteboard.obj
 0001:0002d5b0       ??$destroy@PAVGraphicElement@@@?$_Default_allocator_traits@V?$allocator@PAVGraphicElement@@@std@@@std@@SGXAAV?$allocator@PAVGraphicElement@@@1@QAPAVGraphicElement@@@Z 1002e5b0 f i whiteboard.obj
 0001:0002d5c0       ??$destroy@UMMHS@AlliesWhiteboard@@@?$_Default_allocator_traits@V?$allocator@UMMHS@AlliesWhiteboard@@@std@@@std@@SGXAAV?$allocator@UMMHS@AlliesWhiteboard@@@1@QAUMMHS@AlliesWhiteboard@@@Z 1002e5c0 f i whiteboard.obj
 0001:0002d5d0       ??$emplace_front@ABUMMHS@AlliesWhiteboard@@@?$deque@UMMHS@AlliesWhiteboard@@V?$allocator@UMMHS@AlliesWhiteboard@@@std@@@std@@QAE?A_TABUMMHS@AlliesWhiteboard@@@Z 1002e5d0 f i whiteboard.obj
 0001:0002d730       ??$forward@AAPAPAVGraphicElement@@@std@@YGAAPAPAVGraphicElement@@AAPAPAV1@@Z 1002e730 f i whiteboard.obj
 0001:0002d740       ??$forward@AAPAUMMHS@AlliesWhiteboard@@@std@@YGAAPAUMMHS@AlliesWhiteboard@@AAPAU12@@Z 1002e740 f i whiteboard.obj
 0001:0002d750       ??$forward@ABUMMHS@AlliesWhiteboard@@@std@@YGABUMMHS@AlliesWhiteboard@@ABU12@@Z 1002e750 f i whiteboard.obj
 0001:0002d760       ??$forward@PAPAPAVGraphicElement@@@std@@YG$$QAPAPAPAVGraphicElement@@AAPAPAPAV1@@Z 1002e760 f i whiteboard.obj
 0001:0002d770       ??$forward@PAPAUMMHS@AlliesWhiteboard@@@std@@YG$$QAPAPAUMMHS@AlliesWhiteboard@@AAPAPAU12@@Z 1002e770 f i whiteboard.obj
 0001:0002d780       ??$forward@PAVGraphicElement@@@std@@YG$$QAPAVGraphicElement@@AAPAV1@@Z 1002e780 f i whiteboard.obj
 0001:0002d790       ??$move@AAPAVGraphicElement@@@std@@YG$$QAPAVGraphicElement@@AAPAV1@@Z 1002e790 f i whiteboard.obj
 0001:0002d7a0       ??$move@AAV?$allocator@PAVGraphicElement@@@std@@@std@@YG$$QAV?$allocator@PAVGraphicElement@@@0@AAV10@@Z 1002e7a0 f i whiteboard.obj
 0001:0002d7b0       ??$uninitialized_copy@PAPAPAVGraphicElement@@PAPAPAV1@@std@@YGPAPAPAVGraphicElement@@QAPAPAV1@0PAPAPAV1@@Z 1002e7b0 f i whiteboard.obj
 0001:0002d820       ??$uninitialized_copy@PAPAUMMHS@AlliesWhiteboard@@PAPAU12@@std@@YGPAPAUMMHS@AlliesWhiteboard@@QAPAU12@0PAPAU12@@Z 1002e820 f i whiteboard.obj
 0001:0002d890       ??0?$_Deque_unchecked_const_iterator@V?$_Deque_val@U?$_Deque_simple_types@PAVGraphicElement@@@std@@@std@@@std@@QAE@IPBU_Container_base12@1@@Z 1002e890 f i whiteboard.obj
 0001:0002d8c0       ??0?$_Deque_unchecked_const_iterator@V?$_Deque_val@U?$_Deque_simple_types@UMMHS@AlliesWhiteboard@@@std@@@std@@@std@@QAE@IPBU_Container_base12@1@@Z 1002e8c0 f i whiteboard.obj
 0001:0002d8f0       ??0?$_Deque_unchecked_iterator@V?$_Deque_val@U?$_Deque_simple_types@PAVGraphicElement@@@std@@@std@@@std@@QAE@IPBU_Container_base12@1@@Z 1002e8f0 f i whiteboard.obj
 0001:0002d910       ??0?$_Deque_unchecked_iterator@V?$_Deque_val@U?$_Deque_simple_types@UMMHS@AlliesWhiteboard@@@std@@@std@@@std@@QAE@IPBU_Container_base12@1@@Z 1002e910 f i whiteboard.obj
 0001:0002d930       ??0?$_Deque_val@U?$_Deque_simple_types@PAVGraphicElement@@@std@@@std@@QAE@XZ 1002e930 f i whiteboard.obj
 0001:0002d970       ??0?$_Deque_val@U?$_Deque_simple_types@UMMHS@AlliesWhiteboard@@@std@@@std@@QAE@XZ 1002e970 f i whiteboard.obj
 0001:0002d9b0       ??0?$_Uninitialized_backout@PAPAPAVGraphicElement@@@std@@QAE@PAPAPAVGraphicElement@@@Z 1002e9b0 f i whiteboard.obj
 0001:0002d9e0       ??0?$_Uninitialized_backout@PAPAUMMHS@AlliesWhiteboard@@@std@@QAE@PAPAUMMHS@AlliesWhiteboard@@@Z 1002e9e0 f i whiteboard.obj
 0001:0002da10       ??0?$_Vector_val@U?$_Simple_types@PAVGraphicElement@@@std@@@std@@QAE@XZ 1002ea10 f i whiteboard.obj
 0001:0002da40       ??0?$allocator@PAVGraphicElement@@@std@@QAE@XZ 1002ea40 f i whiteboard.obj
 0001:0002da50       ??0?$allocator@UMMHS@AlliesWhiteboard@@@std@@QAE@XZ 1002ea50 f i whiteboard.obj
 0001:0002da60       ??0?$deque@PAVGraphicElement@@V?$allocator@PAVGraphicElement@@@std@@@std@@QAE@XZ 1002ea60 f i whiteboard.obj
 0001:0002daa0       ??0?$deque@UMMHS@AlliesWhiteboard@@V?$allocator@UMMHS@AlliesWhiteboard@@@std@@@std@@QAE@XZ 1002eaa0 f i whiteboard.obj
 0001:0002dae0       ??0?$vector@PAVGraphicElement@@V?$allocator@PAVGraphicElement@@@std@@@std@@QAE@XZ 1002eae0 f i whiteboard.obj
 0001:0002db10       ??0AlliesWhiteboard@@QAE@H@Z 1002eb10 f   whiteboard.obj
 0001:0002dff0       ??0DeleteGraphic@@QAE@HHD@Z 1002eff0 f i whiteboard.obj
 0001:0002e020       ??0GraphicElement@@QAE@HHHD@Z 1002f020 f i whiteboard.obj
 0001:0002e060       ??0GraphicLine@@QAE@HHHHD@Z 1002f060 f i whiteboard.obj
 0001:0002e0b0       ??0GraphicMoveText@@QAE@HHHHD@Z 1002f0b0 f i whiteboard.obj
 0001:0002e100       ??0GraphicText@@QAE@HHPADD@Z 1002f100 f i whiteboard.obj
 0001:0002e1a0       ??0GraphicTextEdited@@QAE@HHPADD@Z 1002f1a0 f i whiteboard.obj
 0001:0002e240       ??1?$_Uninitialized_backout@PAPAPAVGraphicElement@@@std@@QAE@XZ 1002f240 f i whiteboard.obj
 0001:0002e260       ??1?$_Uninitialized_backout@PAPAUMMHS@AlliesWhiteboard@@@std@@QAE@XZ 1002f260 f i whiteboard.obj
 0001:0002e280       ??1?$deque@PAVGraphicElement@@V?$allocator@PAVGraphicElement@@@std@@@std@@QAE@XZ 1002f280 f i whiteboard.obj
 0001:0002e2d0       ??1?$deque@UMMHS@AlliesWhiteboard@@V?$allocator@UMMHS@AlliesWhiteboard@@@std@@@std@@QAE@XZ 1002f2d0 f i whiteboard.obj
 0001:0002e320       ??1?$vector@PAVGraphicElement@@V?$allocator@PAVGraphicElement@@@std@@@std@@QAE@XZ 1002f320 f i whiteboard.obj
 0001:0002e340       ??1AlliesWhiteboard@@QAE@XZ 1002f340 f   whiteboard.obj
 0001:0002e400       ??1DeleteGraphic@@UAE@XZ   1002f400 f i whiteboard.obj
 0001:0002e420       ??1GraphicElement@@UAE@XZ  1002f420 f i whiteboard.obj
 0001:0002e440       ??1GraphicLine@@UAE@XZ     1002f440 f i whiteboard.obj
 0001:0002e460       ??1GraphicMoveText@@UAE@XZ 1002f460 f i whiteboard.obj
 0001:0002e480       ??1GraphicText@@UAE@XZ     1002f480 f i whiteboard.obj
 0001:0002e4c0       ??1GraphicTextEdited@@UAE@XZ 1002f4c0 f i whiteboard.obj
 0001:0002e500       ??4?$vector@PAVGraphicElement@@V?$allocator@PAVGraphicElement@@@std@@@std@@QAEAAV01@$$QAV01@@Z 1002f500 f i whiteboard.obj
 0001:0002e570       ??A?$deque@UMMHS@AlliesWhiteboard@@V?$allocator@UMMHS@AlliesWhiteboard@@@std@@@std@@QAEAAUMMHS@AlliesWhiteboard@@I@Z 1002f570 f i whiteboard.obj
 0001:0002e5b0       ??A?$vector@PAVGraphicElement@@V?$allocator@PAVGraphicElement@@@std@@@std@@QAEAAPAVGraphicElement@@I@Z 1002f5b0 f i whiteboard.obj
 0001:0002e5d0       ??D?$_Deque_unchecked_const_iterator@V?$_Deque_val@U?$_Deque_simple_types@PAVGraphicElement@@@std@@@std@@@std@@QBEABQAVGraphicElement@@XZ 1002f5d0 f i whiteboard.obj
 0001:0002e620       ??D?$_Deque_unchecked_const_iterator@V?$_Deque_val@U?$_Deque_simple_types@UMMHS@AlliesWhiteboard@@@std@@@std@@@std@@QBEABUMMHS@AlliesWhiteboard@@XZ 1002f620 f i whiteboard.obj
 0001:0002e670       ??D?$_Deque_unchecked_iterator@V?$_Deque_val@U?$_Deque_simple_types@PAVGraphicElement@@@std@@@std@@@std@@QBEAAPAVGraphicElement@@XZ 1002f670 f i whiteboard.obj
 0001:0002e690       ??D?$_Deque_unchecked_iterator@V?$_Deque_val@U?$_Deque_simple_types@UMMHS@AlliesWhiteboard@@@std@@@std@@@std@@QBEAAUMMHS@AlliesWhiteboard@@XZ 1002f690 f i whiteboard.obj
 0001:0002e6b0       ??F?$_Deque_unchecked_const_iterator@V?$_Deque_val@U?$_Deque_simple_types@UMMHS@AlliesWhiteboard@@@std@@@std@@@std@@QAEAAV01@XZ 1002f6b0 f i whiteboard.obj
 0001:0002e6d0       ??F?$_Deque_unchecked_iterator@V?$_Deque_val@U?$_Deque_simple_types@UMMHS@AlliesWhiteboard@@@std@@@std@@@std@@QAEAAV01@XZ 1002f6d0 f i whiteboard.obj
 0001:0002e6f0       ??H?$_Deque_unchecked_iterator@V?$_Deque_val@U?$_Deque_simple_types@UMMHS@AlliesWhiteboard@@@std@@@std@@@std@@QBE?AV01@H@Z 1002f6f0 f i whiteboard.obj
 0001:0002e730       ??Y?$_Deque_unchecked_const_iterator@V?$_Deque_val@U?$_Deque_simple_types@UMMHS@AlliesWhiteboard@@@std@@@std@@@std@@QAEAAV01@H@Z 1002f730 f i whiteboard.obj
 0001:0002e750       ??Y?$_Deque_unchecked_iterator@V?$_Deque_val@U?$_Deque_simple_types@UMMHS@AlliesWhiteboard@@@std@@@std@@@std@@QAEAAV01@H@Z 1002f750 f i whiteboard.obj
 0001:0002e770       ??_EDeleteGraphic@@UAEPAXI@Z 1002f770 f i whiteboard.obj
 0001:0002e770       ??_GDeleteGraphic@@UAEPAXI@Z 1002f770 f i whiteboard.obj
 0001:0002e7a0       ??_EGraphicElement@@UAEPAXI@Z 1002f7a0 f i whiteboard.obj
 0001:0002e7a0       ??_GGraphicElement@@UAEPAXI@Z 1002f7a0 f i whiteboard.obj
 0001:0002e7d0       ??_EGraphicLine@@UAEPAXI@Z 1002f7d0 f i whiteboard.obj
 0001:0002e7d0       ??_GGraphicLine@@UAEPAXI@Z 1002f7d0 f i whiteboard.obj
 0001:0002e800       ??_EGraphicMoveText@@UAEPAXI@Z 1002f800 f i whiteboard.obj
 0001:0002e800       ??_GGraphicMoveText@@UAEPAXI@Z 1002f800 f i whiteboard.obj
 0001:0002e830       ??_EGraphicText@@UAEPAXI@Z 1002f830 f i whiteboard.obj
 0001:0002e830       ??_GGraphicText@@UAEPAXI@Z 1002f830 f i whiteboard.obj
 0001:0002e860       ??_EGraphicTextEdited@@UAEPAXI@Z 1002f860 f i whiteboard.obj
 0001:0002e860       ??_GGraphicTextEdited@@UAEPAXI@Z 1002f860 f i whiteboard.obj
 0001:0002e890       ?AddTextMarker@AlliesWhiteboard@@AAEXHHPADD@Z 1002f890 f   whiteboard.obj
 0001:0002e940       ?AddTextMarker@AlliesWhiteboard@@AAEXXZ 1002f940 f   whiteboard.obj
 0001:0002ea80       ?Blit@AlliesWhiteboard@@QAEXPAE@Z 1002fa80 f   whiteboard.obj
 0001:0002eaf0       ?Clip_Line@AlliesWhiteboard@@QAEHAAH000@Z 1002faf0 f   whiteboard.obj
 0001:0002f5f0       ?DeleteMarker@AlliesWhiteboard@@AAEXHH@Z 100305f0 f   whiteboard.obj
 0001:0002f6a0       ?Draw@GraphicElement@@UAEXXZ 100306a0 f i whiteboard.obj
 0001:0002f6b0       ?Draw@GraphicLine@@UAEXXZ  100306b0 f i whiteboard.obj
 0001:0002f6c0       ?Draw@GraphicText@@UAEXXZ  100306c0 f i whiteboard.obj
 0001:0002f6d0       ?DrawFreeLine@AlliesWhiteboard@@QAEXHHHHDPADH@Z 100306d0 f   whiteboard.obj
 0001:0002f720       ?DrawLine@AlliesWhiteboard@@QAEXHHHHDPADH@Z 10030720 f   whiteboard.obj
 0001:0002f7d0       ?DrawMarkers@AlliesWhiteboard@@AAEXPAE@Z 100307d0 f   whiteboard.obj
 0001:0002f920       ?DrawMinimapMarkers@AlliesWhiteboard@@QAEXPADH_N@Z 10030920 f   whiteboard.obj
 0001:0002fba0       ?DrawRotateRect@AlliesWhiteboard@@AAEXHHHPADH@Z 10030ba0 f   whiteboard.obj
 0001:0002fe80       ?DrawTextInput@AlliesWhiteboard@@AAEXPAE@Z 10030e80 f   whiteboard.obj
 0001:000300e0       ?DrawTextMarker@AlliesWhiteboard@@AAEXPAEHHPADD@Z 100310e0 f   whiteboard.obj
 0001:000303f0       ?Draw_Line@AlliesWhiteboard@@QAEHHHHHEPAEH@Z 100313f0 f   whiteboard.obj
 0001:00030530       ?EchoMarker@AlliesWhiteboard@@AAEXPAD@Z 10031530 f   whiteboard.obj
 0001:00030580       ?EreaseArea@AlliesWhiteboard@@AAEXHH@Z 10031580 f   whiteboard.obj
 0001:00030660       ?GenerateLookupTables@AlliesWhiteboard@@AAEXXZ 10031660 f   whiteboard.obj
 0001:000306f0       ?GetMapX@AlliesWhiteboard@@QAEHXZ 100316f0 f   whiteboard.obj
 0001:00030710       ?GetMapY@AlliesWhiteboard@@QAEHXZ 10031710 f   whiteboard.obj
 0001:00030730       ?GetMarkers@AlliesWhiteboard@@QAEXPAUMarkerArray@@@Z 10031730 f   whiteboard.obj
 0001:00030820       ?GetTextElementAt@AlliesWhiteboard@@AAEPAVGraphicElement@@HHH@Z 10031820 f   whiteboard.obj
 0001:00030910       ?InstantScrollTo@AlliesWhiteboard@@QAEXHH@Z 10031910 f   whiteboard.obj
 0001:00030960       ?Line@AlliesWhiteboard@@QAEXHHHHEPADH@Z 10031960 f   whiteboard.obj
 0001:00030a10       ?LockBlit@AlliesWhiteboard@@QAEXPADH@Z 10031a10 f   whiteboard.obj
 0001:00030c00       ?Message@AlliesWhiteboard@@QAE_NPAUHWND__@@IIJ@Z 10031c00 f   whiteboard.obj
 0001:00031500       ?MouseMove@AlliesWhiteboard@@AAEXHHHH@Z 10032500 f   whiteboard.obj
 0001:00031650       ?ReceiveMarkers@AlliesWhiteboard@@AAEXXZ 10032650 f   whiteboard.obj
 0001:00031a30       ?RestoreAll@AlliesWhiteboard@@AAEXXZ 10032a30 f   whiteboard.obj
 0001:00031ae0       ?ScrollToCenter@AlliesWhiteboard@@QAEXHH@Z 10032ae0 f   whiteboard.obj
 0001:00031b80       ?SendMarkers@AlliesWhiteboard@@AAEXXZ 10032b80 f   whiteboard.obj
 0001:00032090       ?Set@AlliesWhiteboard@@QAEXH@Z 10033090 f   whiteboard.obj
 0001:000320b0       ?TextInputChar@AlliesWhiteboard@@AAEXD@Z 100330b0 f   whiteboard.obj
 0001:00032130       ?TextInputKeyDown@AlliesWhiteboard@@AAEXH@Z 10033130 f   whiteboard.obj
 0001:000322f0       ?_Get_data@?$deque@PAVGraphicElement@@V?$allocator@PAVGraphicElement@@@std@@@std@@AAEAAV?$_Deque_val@U?$_Deque_simple_types@PAVGraphicElement@@@std@@@2@XZ 100332f0 f i whiteboard.obj
 0001:00032300       ?_Get_data@?$deque@PAVGraphicElement@@V?$allocator@PAVGraphicElement@@@std@@@std@@ABEABV?$_Deque_val@U?$_Deque_simple_types@PAVGraphicElement@@@std@@@2@XZ 10033300 f i whiteboard.obj
 0001:00032310       ?_Get_data@?$deque@UMMHS@AlliesWhiteboard@@V?$allocator@UMMHS@AlliesWhiteboard@@@std@@@std@@AAEAAV?$_Deque_val@U?$_Deque_simple_types@UMMHS@AlliesWhiteboard@@@std@@@2@XZ 10033310 f i whiteboard.obj
 0001:00032320       ?_Get_data@?$deque@UMMHS@AlliesWhiteboard@@V?$allocator@UMMHS@AlliesWhiteboard@@@std@@@std@@ABEABV?$_Deque_val@U?$_Deque_simple_types@UMMHS@AlliesWhiteboard@@@std@@@2@XZ 10033320 f i whiteboard.obj
 0001:00032330       ?_Get_first@?$_Compressed_pair@V?$allocator@PAVGraphicElement@@@std@@V?$_Deque_val@U?$_Deque_simple_types@PAVGraphicElement@@@std@@@2@$00@std@@QAEAAV?$allocator@PAVGraphicElement@@@2@XZ 10033330 f i whiteboard.obj
 0001:00032340       ?_Get_first@?$_Compressed_pair@V?$allocator@PAVGraphicElement@@@std@@V?$_Deque_val@U?$_Deque_simple_types@PAVGraphicElement@@@std@@@2@$00@std@@QBEABV?$allocator@PAVGraphicElement@@@2@XZ 10033340 f i whiteboard.obj
 0001:00032350       ?_Get_first@?$_Compressed_pair@V?$allocator@PAVGraphicElement@@@std@@V?$_Vector_val@U?$_Simple_types@PAVGraphicElement@@@std@@@2@$00@std@@QAEAAV?$allocator@PAVGraphicElement@@@2@XZ 10033350 f i whiteboard.obj
 0001:00032360       ?_Get_first@?$_Compressed_pair@V?$allocator@UMMHS@AlliesWhiteboard@@@std@@V?$_Deque_val@U?$_Deque_simple_types@UMMHS@AlliesWhiteboard@@@std@@@2@$00@std@@QAEAAV?$allocator@UMMHS@AlliesWhiteboard@@@2@XZ 10033360 f i whiteboard.obj
 0001:00032370       ?_Get_first@?$_Compressed_pair@V?$allocator@UMMHS@AlliesWhiteboard@@@std@@V?$_Deque_val@U?$_Deque_simple_types@UMMHS@AlliesWhiteboard@@@std@@@2@$00@std@@QBEABV?$allocator@UMMHS@AlliesWhiteboard@@@2@XZ 10033370 f i whiteboard.obj
 0001:00032380       ?_Getal@?$deque@PAVGraphicElement@@V?$allocator@PAVGraphicElement@@@std@@@std@@AAEAAV?$allocator@PAVGraphicElement@@@2@XZ 10033380 f i whiteboard.obj
 0001:000323a0       ?_Getal@?$deque@PAVGraphicElement@@V?$allocator@PAVGraphicElement@@@std@@@std@@ABEABV?$allocator@PAVGraphicElement@@@2@XZ 100333a0 f i whiteboard.obj
 0001:000323c0       ?_Getal@?$deque@UMMHS@AlliesWhiteboard@@V?$allocator@UMMHS@AlliesWhiteboard@@@std@@@std@@AAEAAV?$allocator@UMMHS@AlliesWhiteboard@@@2@XZ 100333c0 f i whiteboard.obj
 0001:000323e0       ?_Getal@?$deque@UMMHS@AlliesWhiteboard@@V?$allocator@UMMHS@AlliesWhiteboard@@@std@@@std@@ABEABV?$allocator@UMMHS@AlliesWhiteboard@@@2@XZ 100333e0 f i whiteboard.obj
 0001:00032400       ?_Getal@?$vector@PAVGraphicElement@@V?$allocator@PAVGraphicElement@@@std@@@std@@AAEAAV?$allocator@PAVGraphicElement@@@2@XZ 10033400 f i whiteboard.obj
 0001:00032420       ?_Getblock@?$_Deque_val@U?$_Deque_simple_types@PAVGraphicElement@@@std@@@std@@QBEII@Z 10033420 f i whiteboard.obj
 0001:00032440       ?_Getblock@?$_Deque_val@U?$_Deque_simple_types@UMMHS@AlliesWhiteboard@@@std@@@std@@QBEII@Z 10033440 f i whiteboard.obj
 0001:00032460       ?_Getblock@?$deque@PAVGraphicElement@@V?$allocator@PAVGraphicElement@@@std@@@std@@ABEII@Z 10033460 f i whiteboard.obj
 0001:00032480       ?_Getblock@?$deque@UMMHS@AlliesWhiteboard@@V?$allocator@UMMHS@AlliesWhiteboard@@@std@@@std@@ABEII@Z 10033480 f i whiteboard.obj
 0001:000324a0       ?_Growmap@?$deque@PAVGraphicElement@@V?$allocator@PAVGraphicElement@@@std@@@std@@AAEXI@Z 100334a0 f i whiteboard.obj
 0001:000326e0       ?_Growmap@?$deque@UMMHS@AlliesWhiteboard@@V?$allocator@UMMHS@AlliesWhiteboard@@@std@@@std@@AAEXI@Z 100336e0 f i whiteboard.obj
 0001:00032910       ?_Map@?$deque@PAVGraphicElement@@V?$allocator@PAVGraphicElement@@@std@@@std@@AAEAAPAPAPAVGraphicElement@@XZ 10033910 f i whiteboard.obj
 0001:00032930       ?_Map@?$deque@UMMHS@AlliesWhiteboard@@V?$allocator@UMMHS@AlliesWhiteboard@@@std@@@std@@AAEAAPAPAUMMHS@AlliesWhiteboard@@XZ 10033930 f i whiteboard.obj
 0001:00032950       ?_Mapsize@?$deque@PAVGraphicElement@@V?$allocator@PAVGraphicElement@@@std@@@std@@AAEAAIXZ 10033950 f i whiteboard.obj
 0001:00032970       ?_Mapsize@?$deque@UMMHS@AlliesWhiteboard@@V?$allocator@UMMHS@AlliesWhiteboard@@@std@@@std@@AAEAAIXZ 10033970 f i whiteboard.obj
 0001:00032990       ?_Myoff@?$deque@PAVGraphicElement@@V?$allocator@PAVGraphicElement@@@std@@@std@@AAEAAIXZ 10033990 f i whiteboard.obj
 0001:000329b0       ?_Myoff@?$deque@UMMHS@AlliesWhiteboard@@V?$allocator@UMMHS@AlliesWhiteboard@@@std@@@std@@AAEAAIXZ 100339b0 f i whiteboard.obj
 0001:000329d0       ?_Mysize@?$deque@PAVGraphicElement@@V?$allocator@PAVGraphicElement@@@std@@@std@@AAEAAIXZ 100339d0 f i whiteboard.obj
 0001:000329f0       ?_Mysize@?$deque@PAVGraphicElement@@V?$allocator@PAVGraphicElement@@@std@@@std@@ABEABIXZ 100339f0 f i whiteboard.obj
 0001:00032a10       ?_Mysize@?$deque@UMMHS@AlliesWhiteboard@@V?$allocator@UMMHS@AlliesWhiteboard@@@std@@@std@@AAEAAIXZ 10033a10 f i whiteboard.obj
 0001:00032a30       ?_Mysize@?$deque@UMMHS@AlliesWhiteboard@@V?$allocator@UMMHS@AlliesWhiteboard@@@std@@@std@@ABEABIXZ 10033a30 f i whiteboard.obj
 0001:00032a50       ?_Orphan_all@?$deque@PAVGraphicElement@@V?$allocator@PAVGraphicElement@@@std@@@std@@AAEXXZ 10033a50 f i whiteboard.obj
 0001:00032a70       ?_Orphan_all@?$deque@UMMHS@AlliesWhiteboard@@V?$allocator@UMMHS@AlliesWhiteboard@@@std@@@std@@AAEXXZ 10033a70 f i whiteboard.obj
 0001:00032a90       ?_Release@?$_Uninitialized_backout@PAPAPAVGraphicElement@@@std@@QAEPAPAPAVGraphicElement@@XZ 10033a90 f i whiteboard.obj
 0001:00032ab0       ?_Release@?$_Uninitialized_backout@PAPAUMMHS@AlliesWhiteboard@@@std@@QAEPAPAUMMHS@AlliesWhiteboard@@XZ 10033ab0 f i whiteboard.obj
 0001:00032ad0       ?_Swap_proxy_and_iterators@_Container_base0@std@@QAEXAAU12@@Z 10033ad0 f i whiteboard.obj
 0001:00032ae0       ?_Take_contents@?$_Vector_val@U?$_Simple_types@PAVGraphicElement@@@std@@@std@@QAEXAAV12@@Z 10033ae0 f i whiteboard.obj
 0001:00032b40       ?_Tidy@?$deque@PAVGraphicElement@@V?$allocator@PAVGraphicElement@@@std@@@std@@AAEXXZ 10033b40 f i whiteboard.obj
 0001:00032c60       ?_Tidy@?$deque@UMMHS@AlliesWhiteboard@@V?$allocator@UMMHS@AlliesWhiteboard@@@std@@@std@@AAEXXZ 10033c60 f i whiteboard.obj
 0001:00032d80       ?_Tidy@?$vector@PAVGraphicElement@@V?$allocator@PAVGraphicElement@@@std@@@std@@AAEXXZ 10033d80 f i whiteboard.obj
 0001:00032e40       ?_Unchecked_begin@?$deque@PAVGraphicElement@@V?$allocator@PAVGraphicElement@@@std@@@std@@QAE?AV?$_Deque_unchecked_iterator@V?$_Deque_val@U?$_Deque_simple_types@PAVGraphicElement@@@std@@@std@@@2@XZ 10033e40 f i whiteboard.obj
 0001:00032e80       ?_Unchecked_begin@?$deque@UMMHS@AlliesWhiteboard@@V?$allocator@UMMHS@AlliesWhiteboard@@@std@@@std@@QAE?AV?$_Deque_unchecked_iterator@V?$_Deque_val@U?$_Deque_simple_types@UMMHS@AlliesWhiteboard@@@std@@@std@@@2@XZ 10033e80 f i whiteboard.obj
 0001:00032ec0       ?_Unchecked_end@?$deque@UMMHS@AlliesWhiteboard@@V?$allocator@UMMHS@AlliesWhiteboard@@@std@@@std@@QAE?AV?$_Deque_unchecked_iterator@V?$_Deque_val@U?$_Deque_simple_types@UMMHS@AlliesWhiteboard@@@std@@@std@@@2@XZ 10033ec0 f i whiteboard.obj
 0001:00032f00       ?_Xlen@?$deque@PAVGraphicElement@@V?$allocator@PAVGraphicElement@@@std@@@std@@ABEXXZ 10033f00 f i whiteboard.obj
 0001:00032f20       ?_Xlen@?$deque@UMMHS@AlliesWhiteboard@@V?$allocator@UMMHS@AlliesWhiteboard@@@std@@@std@@ABEXXZ 10033f20 f i whiteboard.obj
 0001:00032f40       ?allocate@?$allocator@PAPAVGraphicElement@@@std@@QAEPAPAPAVGraphicElement@@I@Z 10033f40 f i whiteboard.obj
 0001:00032f60       ?allocate@?$allocator@PAUMMHS@AlliesWhiteboard@@@std@@QAEPAPAUMMHS@AlliesWhiteboard@@I@Z 10033f60 f i whiteboard.obj
 0001:00032f80       ?allocate@?$allocator@PAVGraphicElement@@@std@@QAEPAPAVGraphicElement@@I@Z 10033f80 f i whiteboard.obj
 0001:00032fa0       ?allocate@?$allocator@UMMHS@AlliesWhiteboard@@@std@@QAEPAUMMHS@AlliesWhiteboard@@I@Z 10033fa0 f i whiteboard.obj
 0001:00032fc0       ?back@?$deque@UMMHS@AlliesWhiteboard@@V?$allocator@UMMHS@AlliesWhiteboard@@@std@@@std@@QAEAAUMMHS@AlliesWhiteboard@@XZ 10033fc0 f i whiteboard.obj
 0001:00033020       ?clear@?$deque@UMMHS@AlliesWhiteboard@@V?$allocator@UMMHS@AlliesWhiteboard@@@std@@@std@@QAEXXZ 10034020 f i whiteboard.obj
 0001:00033040       ?deallocate@?$allocator@PAPAVGraphicElement@@@std@@QAEXQAPAPAVGraphicElement@@I@Z 10034040 f i whiteboard.obj
 0001:00033060       ?deallocate@?$allocator@PAUMMHS@AlliesWhiteboard@@@std@@QAEXQAPAUMMHS@AlliesWhiteboard@@I@Z 10034060 f i whiteboard.obj
 0001:00033080       ?deallocate@?$allocator@PAVGraphicElement@@@std@@QAEXQAPAVGraphicElement@@I@Z 10034080 f i whiteboard.obj
 0001:000330a0       ?deallocate@?$allocator@UMMHS@AlliesWhiteboard@@@std@@QAEXQAUMMHS@AlliesWhiteboard@@I@Z 100340a0 f i whiteboard.obj
 0001:000330c0       ?empty@?$deque@PAVGraphicElement@@V?$allocator@PAVGraphicElement@@@std@@@std@@QBE_NXZ 100340c0 f i whiteboard.obj
 0001:000330f0       ?empty@?$deque@UMMHS@AlliesWhiteboard@@V?$allocator@UMMHS@AlliesWhiteboard@@@std@@@std@@QBE_NXZ 100340f0 f i whiteboard.obj
 0001:00033120       ?front@?$deque@PAVGraphicElement@@V?$allocator@PAVGraphicElement@@@std@@@std@@QAEAAPAVGraphicElement@@XZ 10034120 f i whiteboard.obj
 0001:00033140       ?max_size@?$_Default_allocator_traits@V?$allocator@PAVGraphicElement@@@std@@@std@@SGIABV?$allocator@PAVGraphicElement@@@2@@Z 10034140 f i whiteboard.obj
 0001:00033150       ?max_size@?$_Default_allocator_traits@V?$allocator@UMMHS@AlliesWhiteboard@@@std@@@std@@SGIABV?$allocator@UMMHS@AlliesWhiteboard@@@2@@Z 10034150 f i whiteboard.obj
 0001:00033160       ?max_size@?$deque@PAVGraphicElement@@V?$allocator@PAVGraphicElement@@@std@@@std@@QBEIXZ 10034160 f i whiteboard.obj
 0001:000331a0       ?max_size@?$deque@UMMHS@AlliesWhiteboard@@V?$allocator@UMMHS@AlliesWhiteboard@@@std@@@std@@QBEIXZ 100341a0 f i whiteboard.obj
 0001:000331e0       ?pop_back@?$deque@PAVGraphicElement@@V?$allocator@PAVGraphicElement@@@std@@@std@@QAEXXZ 100341e0 f i whiteboard.obj
 0001:000332b0       ?pop_back@?$deque@UMMHS@AlliesWhiteboard@@V?$allocator@UMMHS@AlliesWhiteboard@@@std@@@std@@QAEXXZ 100342b0 f i whiteboard.obj
 0001:00033380       ?pop_front@?$deque@PAVGraphicElement@@V?$allocator@PAVGraphicElement@@@std@@@std@@QAEXXZ 10034380 f i whiteboard.obj
 0001:00033450       ?push_back@?$deque@PAVGraphicElement@@V?$allocator@PAVGraphicElement@@@std@@@std@@QAEX$$QAPAVGraphicElement@@@Z 10034450 f i whiteboard.obj
 0001:00033480       ?push_front@?$deque@UMMHS@AlliesWhiteboard@@V?$allocator@UMMHS@AlliesWhiteboard@@@std@@@std@@QAEXABUMMHS@AlliesWhiteboard@@@Z 10034480 f i whiteboard.obj
 0001:000334a0       ?size@?$deque@PAVGraphicElement@@V?$allocator@PAVGraphicElement@@@std@@@std@@QBEIXZ 100344a0 f i whiteboard.obj
 0001:000334c0       ?size@?$deque@UMMHS@AlliesWhiteboard@@V?$allocator@UMMHS@AlliesWhiteboard@@@std@@@std@@QBEIXZ 100344c0 f i whiteboard.obj
 0001:000334e0       ?size@?$vector@PAVGraphicElement@@V?$allocator@PAVGraphicElement@@@std@@@std@@QBEIXZ 100344e0 f i whiteboard.obj
 0001:00033510       ??0PCX@@QAE@XZ             10034510 f   PCX.obj
 0001:00033550       ??1PCX@@QAE@XZ             10034550 f   PCX.obj
 0001:000335b0       ?CopyPalette@PCX@@QAEXPAUtagPALETTEENTRY@@@Z 100345b0 f   PCX.obj
 0001:00033610       ?Erase@PCX@@QAEXXZ         10034610 f   PCX.obj
 0001:00033650       ?Height@PCX@@QAEJXZ        10034650 f   PCX.obj
 0001:00033670       ?Load24@PCX@@QAEHPBD@Z     10034670 f   PCX.obj
 0001:00033860       ?Load@PCX@@QAEHPBDH@Z      10034860 f   PCX.obj
 0001:00033bc0       ?NewBuffer@PCX@@QAEPAEFF@Z 10034bc0 f   PCX.obj
 0001:00033c20       ?ReadLine24@PCX@@AAEPAEPAEKF@Z 10034c20 f   PCX.obj
 0001:00033d20       ?Save@PCX@@QAEHPBD@Z       10034d20 f   PCX.obj
 0001:00034040       ?SetBuffer@PCX@@QAEPAEPAE@Z 10035040 f   PCX.obj
 0001:00034070       ?SetPalette@PCX@@QAEXPAUtagPALETTEENTRY@@@Z 10035070 f   PCX.obj
 0001:000340b0       ?Width@PCX@@QAEJXZ         100350b0 f   PCX.obj
 0001:000340c0       ?WriteLine@PCX@@AAEPAEPAEK@Z 100350c0 f   PCX.obj
 0001:00034240       ?CreateSurfPCXResource@@YGPAUIDirectDrawSurface@@GH@Z 10035240 f   pcxread.obj
 0001:000343f0       ?PCX2BitMap@@YGXPAEPAUpcx_picture_typ@@J@Z 100353f0 f   pcxread.obj
 0001:000345e0       ?RestoreFromPCX@@YGXGPAUIDirectDrawSurface@@@Z 100355e0 f   pcxread.obj
 0001:00034730       ?RestoreFromPCXFile@@YGXPADPAUIDirectDrawSurface@@@Z 10035730 f   pcxread.obj
 0001:000348b0       ?strrchr@@YAPADQADH@Z      100358b0 f i etc.obj
 0001:000348d0       _CalcCRC@8                 100358d0 f   etc.obj
 0001:00034970       _GetMinValidLenWithMatchOpcode@8 10035970 f   etc.obj
 0001:000349b0       _GetOpCodeSize@4           100359b0 f   etc.obj
 0001:00034c50       _MemWriteWithBackup@16     10035c50 f   etc.obj
 0001:00034d30       _RegReadData@24            10035d30 f   etc.obj
 0001:00034dc0       _RegReadDword@16           10035dc0 f   etc.obj
 0001:00034de0       _RegReadStr@20             10035de0 f   etc.obj
 0001:00034e10       _RegWriteData@24           10035e10 f   etc.obj
 0001:00034ea0       _RegWriteDword@16          10035ea0 f   etc.obj
 0001:00034ec0       _RegWriteStr@20            10035ec0 f   etc.obj
 0001:00034ef0       _X86RedirectOpcodeToNewBase@16 10035ef0 f   etc.obj
 0001:000352d0       _X86ShallToRedirect@20     100362d0 f   etc.obj
 0001:000355b0       _clean_remark@8            100365b0 f   etc.obj
 0001:00035600       _duplicate_str@4           10036600 f   etc.obj
 0001:00035660       _getDBCSlen@4              10036660 f   etc.obj
 0001:000356d0       _memfind@24                100366d0 f   etc.obj
 0001:00035840       _trim_crlf_@4              10036840 f   etc.obj
 0001:00035940       _vkToStr@12                10036940 f   etc.obj
 0001:000369d0       ??0SingleHook@@QAE@IKHPAE@Z 100379d0 f   Hook.obj
 0001:00036a10       ??0SingleHook@@QAE@PAEKH0@Z 10037a10 f   Hook.obj
 0001:00036a50       ??0SingleHook@@QAE@XZ      10037a50 f   Hook.obj
 0001:00036a80       ??1SingleHook@@QAE@XZ      10037a80 f   Hook.obj
 0001:00036b20       ?AddrToHook@SingleHook@@UAEPAXPAX@Z 10037b20 f   Hook.obj
 0001:00036b40       ?AddrToHook@SingleHook@@UAEQAXXZ 10037b40 f   Hook.obj
 0001:00036b60       ?AddrToRtn@SingleHook@@QAEPAXXZ 10037b60 f   Hook.obj
 0001:00036b80       ?Hook@SingleHook@@UAEXXZ   10037b80 f   Hook.obj
 0001:00036bc0       ?InitHookClass@SingleHook@@UAEXPAEKH0@Z 10037bc0 f   Hook.obj
 0001:00036d40       ?LenToHook@SingleHook@@UAEKK@Z 10037d40 f   Hook.obj
 0001:00036d60       ?ThisHookMode@SingleHook@@UAE?BHXZ 10037d60 f   Hook.obj
 0001:00036d80       ?ThisHookMode@SingleHook@@UAEHH@Z 10037d80 f   Hook.obj
 0001:00036da0       ?UnHook@SingleHook@@UAEXXZ 10037da0 f   Hook.obj
 0001:00036de0       ?X86CurrentThreadStackBufferFixRtnAddr@@YGPAUtagInlineX86StackBuffer@@PAPAU1@@Z 10037de0 f   InlineHook.obj
 0001:00036e90       ?X86CurrentThreadStackBuffer@@YGPAUtagInlineX86StackBuffer@@PAPAU1@@Z 10037e90 f   InlineHook.obj
 0001:00036f20       ??0InlineSingleHook@@QAE@IKHP6GHPAUtagInlineX86StackBuffer@@@Z@Z 10037f20 f   InlineHook.obj
 0001:00036fa0       ??0InlineSingleHook@@QAE@IKHPAX@Z 10037fa0 f   InlineHook.obj
 0001:00037020       ??0InlineSingleHook@@QAE@XZ 10038020 f   InlineHook.obj
 0001:00037090       ??1InlineSingleHook@@QAE@XZ 10038090 f   InlineHook.obj
 0001:00037190       ?Hook@InlineSingleHook@@UAEXXZ 10038190 f   InlineHook.obj
 0001:00037270       ?InitHookClass@InlineSingleHook@@AAEXQAEKHPAX1@Z 10038270 f   InlineHook.obj
 0001:00037590       ?NewBytesForInlineHook@InlineSingleHook@@QAEPAEPAE@Z 10038590 f   InlineHook.obj
 0001:000375c0       ?RedirectedOpcodeInStub@InlineSingleHook@@QAEQAXXZ 100385c0 f   InlineHook.obj
 0001:000375e0       ?RedirectedOrgOpcodes@InlineSingleHook@@QAEQAEXZ 100385e0 f   InlineHook.obj
 0001:00037600       ?RtnAddrOfHook@InlineSingleHook@@QAEQAXXZ 10038600 f   InlineHook.obj
 0001:00037620       ?SetParamOfHook@InlineSingleHook@@QAEPAXPAX@Z 10038620 f   InlineHook.obj
 0001:00037650       ?X86InlineHookRouter@@YGXXZ 10038650 f   InlineHook.obj
 0001:00037720       ??0CGraphic@@QAE@XZ        10038720 f   cgraphic.obj
 0001:00037740       ??1CGraphic@@QAE@XZ        10038740 f   cgraphic.obj
 0001:00037750       ?DrawRotateRect@CGraphic@@QAEXPAUIDirectDrawSurface@@HHH@Z 10038750 f   cgraphic.obj
 0001:00037990       ?GenerateLookupTables@CGraphic@@AAEXXZ 10038990 f   cgraphic.obj
 0001:00037a20       ??$?0V?$allocator@PAVGraphicElement@@@std@@PAPAVGraphicElement@@PAPAV2@PAPAV2@@?$_Compressed_pair@V?$allocator@PAVGraphicElement@@@std@@V?$_Vector_val@U?$_Simple_types@PAVGraphicElement@@@std@@@2@$00@std@@QAE@U_One_then_variadic_args_t@1@$$QAV?$allocator@PAVGraphicElement@@@1@$$QAPAPAVGraphicElement@@22@Z 10038a20 f i ElementHandler.obj
 0001:00037a70       ??$_Construct_in_place@PAVGraphicElement@@ABQAV1@@std@@YGXAAPAVGraphicElement@@ABQAV1@@Z 10038a70 f i ElementHandler.obj
 0001:00037ab0       ??$_Copy_memmove@PAPAVGraphicElement@@PAPAV1@@std@@YGPAPAVGraphicElement@@PAPAV1@00@Z 10038ab0 f i ElementHandler.obj
 0001:00037b20       ??$_Emplace_back@PAVGraphicElement@@@?$_Uninitialized_backout_al@V?$allocator@PAVGraphicElement@@@std@@@std@@QAEX$$QAPAVGraphicElement@@@Z 10038b20 f i ElementHandler.obj
 0001:00037b60       ??$_Emplace_back_with_unused_capacity@ABQAVGraphicElement@@@?$vector@PAVGraphicElement@@V?$allocator@PAVGraphicElement@@@std@@@std@@AAEAAPAVGraphicElement@@ABQAV2@@Z 10038b60 f i ElementHandler.obj
 0001:00037bc0       ??$_Emplace_one_at_back@ABQAVGraphicElement@@@?$vector@PAVGraphicElement@@V?$allocator@PAVGraphicElement@@@std@@@std@@AAEAAPAVGraphicElement@@ABQAV2@@Z 10038bc0 f i ElementHandler.obj
 0001:00037c20       ??$_Emplace_reallocate@ABQAVGraphicElement@@@?$vector@PAVGraphicElement@@V?$allocator@PAVGraphicElement@@@std@@@std@@AAEPAPAVGraphicElement@@QAPAV2@ABQAV2@@Z 10038c20 f i ElementHandler.obj
 0001:00037de0       ??$_Get_unwrapped@ABQAPAVGraphicElement@@@std@@YG?A_TABQAPAVGraphicElement@@@Z 10038de0 f i ElementHandler.obj
 0001:00037df0       ??$_Move_unchecked@PAPAVGraphicElement@@PAPAV1@@std@@YGPAPAVGraphicElement@@PAPAV1@00@Z 10038df0 f i ElementHandler.obj
 0001:00037e40       ??$_To_address@PAPAVGraphicElement@@@std@@YG?A_PABQAPAVGraphicElement@@@Z 10038e40 f i ElementHandler.obj
 0001:00037e50       ??$_Uninitialized_move@PAPAVGraphicElement@@V?$allocator@PAVGraphicElement@@@std@@@std@@YGPAPAVGraphicElement@@QAPAV1@0PAPAV1@AAV?$allocator@PAVGraphicElement@@@0@@Z 10038e50 f i ElementHandler.obj
 0001:00037f20       ??$addressof@PAVGraphicElement@@@std@@YGPAPAVGraphicElement@@AAPAV1@@Z 10038f20 f i ElementHandler.obj
 0001:00037f30       ??$addressof@V?$_Vector_val@U?$_Simple_types@PAVGraphicElement@@@std@@@std@@@std@@YGPAV?$_Vector_val@U?$_Simple_types@PAVGraphicElement@@@std@@@0@AAV10@@Z 10038f30 f i ElementHandler.obj
 0001:00037f40       ??$construct@PAVGraphicElement@@ABQAV1@@?$_Default_allocator_traits@V?$allocator@PAVGraphicElement@@@std@@@std@@SGXAAV?$allocator@PAVGraphicElement@@@1@QAPAVGraphicElement@@ABQAV3@@Z 10038f40 f i ElementHandler.obj
 0001:00037f80       ??$emplace_back@ABQAVGraphicElement@@@?$vector@PAVGraphicElement@@V?$allocator@PAVGraphicElement@@@std@@@std@@QAE?A_TABQAVGraphicElement@@@Z 10038f80 f i ElementHandler.obj
 0001:00037fb0       ??$exchange@PAPAVGraphicElement@@$$T@std@@YGPAPAVGraphicElement@@AAPAPAV1@$$QA$$T@Z 10038fb0 f i ElementHandler.obj
 0001:00037fd0       ??$forward@ABQAVGraphicElement@@@std@@YGABQAVGraphicElement@@ABQAV1@@Z 10038fd0 f i ElementHandler.obj
 0001:00037fe0       ??$forward@PAPAVGraphicElement@@@std@@YG$$QAPAPAVGraphicElement@@AAPAPAV1@@Z 10038fe0 f i ElementHandler.obj
 0001:00037ff0       ??$forward@V?$allocator@PAVGraphicElement@@@std@@@std@@YG$$QAV?$allocator@PAVGraphicElement@@@0@AAV10@@Z 10038ff0 f i ElementHandler.obj
 0001:00038000       ??0?$_Uninitialized_backout_al@V?$allocator@PAVGraphicElement@@@std@@@std@@QAE@PAPAVGraphicElement@@AAV?$allocator@PAVGraphicElement@@@1@@Z 10039000 f i ElementHandler.obj
 0001:00038030       ??0?$_Vector_const_iterator@V?$_Vector_val@U?$_Simple_types@PAVGraphicElement@@@std@@@std@@@std@@QAE@PAPAVGraphicElement@@PBU_Container_base0@1@@Z 10039030 f i ElementHandler.obj
 0001:00038060       ??0?$_Vector_iterator@V?$_Vector_val@U?$_Simple_types@PAVGraphicElement@@@std@@@std@@@std@@QAE@PAPAVGraphicElement@@PBU_Container_base0@1@@Z 10039060 f i ElementHandler.obj
 0001:00038080       ??0?$_Vector_val@U?$_Simple_types@PAVGraphicElement@@@std@@@std@@QAE@PAPAVGraphicElement@@00@Z 10039080 f i ElementHandler.obj
 0001:000380b0       ??0?$vector@PAVGraphicElement@@V?$allocator@PAVGraphicElement@@@std@@@std@@QAE@$$QAV01@@Z 100390b0 f i ElementHandler.obj
 0001:00038150       ??0CElementHandler@@QAE@XZ 10039150 f   ElementHandler.obj
 0001:00038190       ??1?$_Uninitialized_backout_al@V?$allocator@PAVGraphicElement@@@std@@@std@@QAE@XZ 10039190 f i ElementHandler.obj
 0001:000381c0       ??1CElementHandler@@UAE@XZ 100391c0 f   ElementHandler.obj
 0001:00038340       ??H?$_Vector_iterator@V?$_Vector_val@U?$_Simple_types@PAVGraphicElement@@@std@@@std@@@std@@QBE?AV01@H@Z 10039340 f i ElementHandler.obj
 0001:00038370       ??Y?$_Vector_const_iterator@V?$_Vector_val@U?$_Simple_types@PAVGraphicElement@@@std@@@std@@@std@@QAEAAV01@H@Z 10039370 f i ElementHandler.obj
 0001:000383a0       ??Y?$_Vector_iterator@V?$_Vector_val@U?$_Simple_types@PAVGraphicElement@@@std@@@std@@@std@@QAEAAV01@H@Z 100393a0 f i ElementHandler.obj
 0001:000383c0       ??_ECElementHandler@@UAEPAXI@Z 100393c0 f i ElementHandler.obj
 0001:000383c0       ??_GCElementHandler@@UAEPAXI@Z 100393c0 f i ElementHandler.obj
 0001:00038400       ?AddElement@CElementHandler@@QAEXPAVGraphicElement@@@Z 10039400 f   ElementHandler.obj
 0001:00038450       ?DeleteBetween@CElementHandler@@QAEXHHHH@Z 10039450 f   ElementHandler.obj
 0001:00038710       ?DeleteOn@CElementHandler@@QAEXHH@Z 10039710 f   ElementHandler.obj
 0001:00038750       ?GetArea@CElementHandler@@QAE?AV?$vector@PAVGraphicElement@@V?$allocator@PAVGraphicElement@@@std@@@std@@HHHH@Z 10039750 f   ElementHandler.obj
 0001:000389a0       ?GetClosestElement@CElementHandler@@QAEPAVGraphicElement@@HH@Z 100399a0 f   ElementHandler.obj
 0001:000389b0       ?MoveTextElement@CElementHandler@@QAEPAVGraphicElement@@PAV2@HH@Z 100399b0 f   ElementHandler.obj
 0001:00038bc0       ?_Calculate_growth@?$vector@PAVGraphicElement@@V?$allocator@PAVGraphicElement@@@std@@@std@@ABEII@Z 10039bc0 f i ElementHandler.obj
 0001:00038c20       ?_Change_array@?$vector@PAVGraphicElement@@V?$allocator@PAVGraphicElement@@@std@@@std@@AAEXQAPAVGraphicElement@@II@Z 10039c20 f i ElementHandler.obj
 0001:00038cc0       ?_Get_first@?$_Compressed_pair@V?$allocator@PAVGraphicElement@@@std@@V?$_Vector_val@U?$_Simple_types@PAVGraphicElement@@@std@@@2@$00@std@@QBEABV?$allocator@PAVGraphicElement@@@2@XZ 10039cc0 f i ElementHandler.obj
 0001:00038cd0       ?_Getal@?$vector@PAVGraphicElement@@V?$allocator@PAVGraphicElement@@@std@@@std@@ABEABV?$allocator@PAVGraphicElement@@@2@XZ 10039cd0 f i ElementHandler.obj
 0001:00038cf0       ?_Orphan_range@?$vector@PAVGraphicElement@@V?$allocator@PAVGraphicElement@@@std@@@std@@ABEXPAPAVGraphicElement@@0@Z 10039cf0 f i ElementHandler.obj
 0001:00038d00       ?_Release@?$_Uninitialized_backout_al@V?$allocator@PAVGraphicElement@@@std@@@std@@QAEPAPAVGraphicElement@@XZ 10039d00 f i ElementHandler.obj
 0001:00038d20       ?_Verify_offset@?$_Vector_const_iterator@V?$_Vector_val@U?$_Simple_types@PAVGraphicElement@@@std@@@std@@@std@@QBEXH@Z 10039d20 f i ElementHandler.obj
 0001:00038d30       ?_Xlength@?$vector@PAVGraphicElement@@V?$allocator@PAVGraphicElement@@@std@@@std@@CGXXZ 10039d30 f i ElementHandler.obj
 0001:00038d40       ?back@?$vector@PAVGraphicElement@@V?$allocator@PAVGraphicElement@@@std@@@std@@QAEAAPAVGraphicElement@@XZ 10039d40 f i ElementHandler.obj
 0001:00038d70       ?begin@?$vector@PAVGraphicElement@@V?$allocator@PAVGraphicElement@@@std@@@std@@QAE?AV?$_Vector_iterator@V?$_Vector_val@U?$_Simple_types@PAVGraphicElement@@@std@@@std@@@2@XZ 10039d70 f i ElementHandler.obj
 0001:00038da0       ?capacity@?$vector@PAVGraphicElement@@V?$allocator@PAVGraphicElement@@@std@@@std@@QBEIXZ 10039da0 f i ElementHandler.obj
 0001:00038dd0       ?empty@?$vector@PAVGraphicElement@@V?$allocator@PAVGraphicElement@@@std@@@std@@QBE_NXZ 10039dd0 f i ElementHandler.obj
 0001:00038e10       ?erase@?$vector@PAVGraphicElement@@V?$allocator@PAVGraphicElement@@@std@@@std@@QAE?AV?$_Vector_iterator@V?$_Vector_val@U?$_Simple_types@PAVGraphicElement@@@std@@@std@@@2@V?$_Vector_const_iterator@V?$_Vector_val@U?$_Simple_types@PAVGraphicElement@@@std@@@std@@@2@@Z 10039e10 f i ElementHandler.obj
 0001:00038ed0       ?max_size@?$vector@PAVGraphicElement@@V?$allocator@PAVGraphicElement@@@std@@@std@@QBEIXZ 10039ed0 f i ElementHandler.obj
 0001:00038f10       ?pop_back@?$vector@PAVGraphicElement@@V?$allocator@PAVGraphicElement@@@std@@@std@@QAEXXZ 10039f10 f i ElementHandler.obj
 0001:00038fa0       ?push_back@?$vector@PAVGraphicElement@@V?$allocator@PAVGraphicElement@@@std@@@std@@QAEXABQAVGraphicElement@@@Z 10039fa0 f i ElementHandler.obj
 0001:00038fb9       _ImmIsIME@4                10039fb9 f   imm32:IMM32.dll
 0001:00038fbf       _ImmAssociateContext@8     10039fbf f   imm32:IMM32.dll
 0001:00038fc5       _ImmGetCompositionStringA@16 10039fc5 f   imm32:IMM32.dll
 0001:00038fcb       _ImmGetCandidateListA@16   10039fcb f   imm32:IMM32.dll
 0001:00038fd1       _ImmEscapeA@16             10039fd1 f   imm32:IMM32.dll
 0001:00038fd7       _ImmNotifyIME@16           10039fd7 f   imm32:IMM32.dll
 0001:00038fdd       _GetAsyncKeyState@4        10039fdd f   user32:USER32.dll
 0001:00038fe3       _GetCursorPos@4            10039fe3 f   user32:USER32.dll
 0001:00038fe9       _SetWindowLongA@12         10039fe9 f   user32:USER32.dll
 0001:00038fef       _GetKeyState@4             10039fef f   user32:USER32.dll
 0001:00038ff5       _wsprintfA                 10039ff5 f   user32:USER32.dll
 0001:00038ffe       _GetForegroundWindow@0     10039ffe f   user32:USER32.dll
 0001:00039004       _GetClassNameA@12          1003a004 f   user32:USER32.dll
 0001:0003900a       _GetKeyboardLayout@4       1003a00a f   user32:USER32.dll
 0001:00039010       _SendMessageA@16           1003a010 f   user32:USER32.dll
 0001:00039016       _DrawTextExA@24            1003a016 f   user32:USER32.dll
 0001:0003901c       _FillRect@12               1003a01c f   user32:USER32.dll
 0001:00039022       _CloseHandle@4             1003a022 f   kernel32:KERNEL32.dll
 0001:00039028       _ReleaseMutex@4            1003a028 f   kernel32:KERNEL32.dll
 0001:0003902e       _WaitForSingleObject@8     1003a02e f   kernel32:KERNEL32.dll
 0001:00039034       _CreateMutexA@12           1003a034 f   kernel32:KERNEL32.dll
 0001:0003903a       _GetTickCount@0            1003a03a f   kernel32:KERNEL32.dll
 0001:00039040       _CreateFileA@28            1003a040 f   kernel32:KERNEL32.dll
 0001:00039046       _ReadFile@20               1003a046 f   kernel32:KERNEL32.dll
 0001:0003904c       _GetLastError@0            1003a04c f   kernel32:KERNEL32.dll
 0001:00039052       _GetCurrentProcess@0       1003a052 f   kernel32:KERNEL32.dll
 0001:00039058       _GetSystemDirectoryA@8     1003a058 f   kernel32:KERNEL32.dll
 0001:0003905e       _WriteProcessMemory@20     1003a05e f   kernel32:KERNEL32.dll
 0001:00039064       _MapViewOfFile@20          1003a064 f   kernel32:KERNEL32.dll
 0001:0003906a       _UnmapViewOfFile@4         1003a06a f   kernel32:KERNEL32.dll
 0001:00039070       _FreeLibrary@4             1003a070 f   kernel32:KERNEL32.dll
 0001:00039076       _GetModuleFileNameA@12     1003a076 f   kernel32:KERNEL32.dll
 0001:0003907c       _GetProcAddress@8          1003a07c f   kernel32:KERNEL32.dll
 0001:00039082       _LoadLibraryA@4            1003a082 f   kernel32:KERNEL32.dll
 0001:00039088       _lstrcpyA@8                1003a088 f   kernel32:KERNEL32.dll
 0001:0003908e       _lstrcatA@8                1003a08e f   kernel32:KERNEL32.dll
 0001:00039094       _CreateFileMappingA@24     1003a094 f   kernel32:KERNEL32.dll
 0001:0003909a       _ReleaseSemaphore@12       1003a09a f   kernel32:KERNEL32.dll
 0001:000390a0       _CreateSemaphoreA@16       1003a0a0 f   kernel32:KERNEL32.dll
 0001:000390a6       _Sleep@4                   1003a0a6 f   kernel32:KERNEL32.dll
 0001:000390ac       _CreateThread@24           1003a0ac f   kernel32:KERNEL32.dll
 0001:000390b2       _VirtualProtect@16         1003a0b2 f   kernel32:KERNEL32.dll
 0001:000390b8       _CreateDirectoryA@8        1003a0b8 f   kernel32:KERNEL32.dll
 0001:000390be       _FindClose@4               1003a0be f   kernel32:KERNEL32.dll
 0001:000390c4       _FindFirstFileA@8          1003a0c4 f   kernel32:KERNEL32.dll
 0001:000390ca       _GetFileSize@8             1003a0ca f   kernel32:KERNEL32.dll
 0001:000390d0       _GetModuleHandleA@4        1003a0d0 f   kernel32:KERNEL32.dll
 0001:000390d6       _lstrcmpiA@8               1003a0d6 f   kernel32:KERNEL32.dll
 0001:000390dc       _SetFilePointer@16         1003a0dc f   kernel32:KERNEL32.dll
 0001:000390e2       _WriteFile@20              1003a0e2 f   kernel32:KERNEL32.dll
 0001:000390e8       _AddVectoredExceptionHandler@8 1003a0e8 f   kernel32:KERNEL32.dll
 0001:000390ee       _RemoveVectoredExceptionHandler@4 1003a0ee f   kernel32:KERNEL32.dll
 0001:000390f4       _EnterCriticalSection@4    1003a0f4 f   kernel32:KERNEL32.dll
 0001:000390fa       _LeaveCriticalSection@4    1003a0fa f   kernel32:KERNEL32.dll
 0001:00039100       _GetTempPathA@8            1003a100 f   kernel32:KERNEL32.dll
 0001:00039106       _GetTempFileNameA@16       1003a106 f   kernel32:KERNEL32.dll
 0001:0003910c       _GetPrivateProfileIntA@16  1003a10c f   kernel32:KERNEL32.dll
 0001:00039112       _GetPrivateProfileStringA@24 1003a112 f   kernel32:KERNEL32.dll
 0001:00039118       _WritePrivateProfileStringA@16 1003a118 f   kernel32:KERNEL32.dll
 0001:0003911e       _IsDBCSLeadByte@4          1003a11e f   kernel32:KERNEL32.dll
 0001:00039124       _GetCurrentDirectoryA@8    1003a124 f   kernel32:KERNEL32.dll
 0001:0003912a       _GetFileAttributesA@4      1003a12a f   kernel32:KERNEL32.dll
 0001:00039130       _GetPrivateProfileSectionA@16 1003a130 f   kernel32:KERNEL32.dll
 0001:00039136       _LoadResource@8            1003a136 f   kernel32:KERNEL32.dll
 0001:0003913c       _LockResource@4            1003a13c f   kernel32:KERNEL32.dll
 0001:00039142       _FindResourceA@12          1003a142 f   kernel32:KERNEL32.dll
 0001:00039148       _IsBadWritePtr@8           1003a148 f   kernel32:KERNEL32.dll
 0001:0003914e       _GetCurrentThreadId@0      1003a14e f   kernel32:KERNEL32.dll
 0001:00039154       _CreateDCA@16              1003a154 f   gdi32:GDI32.dll
 0001:0003915a       _CreateDIBitmap@24         1003a15a f   gdi32:GDI32.dll
 0001:00039160       _CreatePalette@4           1003a160 f   gdi32:GDI32.dll
 0001:00039166       _DeleteDC@4                1003a166 f   gdi32:GDI32.dll
 0001:0003916c       _DeleteObject@4            1003a16c f   gdi32:GDI32.dll
 0001:00039172       _GetDIBits@28              1003a172 f   gdi32:GDI32.dll
 0001:00039178       _SelectObject@8            1003a178 f   gdi32:GDI32.dll
 0001:0003917e       _SelectPalette@12          1003a17e f   gdi32:GDI32.dll
 0001:00039184       _TextOutA@20               1003a184 f   gdi32:GDI32.dll
 0001:0003918a       _CreateFontA@56            1003a18a f   gdi32:GDI32.dll
 0001:00039190       _GetTextExtentPoint32A@16  1003a190 f   gdi32:GDI32.dll
 0001:00039196       _SetBkColor@8              1003a196 f   gdi32:GDI32.dll
 0001:0003919c       _SetTextColor@8            1003a19c f   gdi32:GDI32.dll
 0001:000391a2       _RegCloseKey@4             1003a1a2 f   advapi32:ADVAPI32.dll
 0001:000391a8       _RegCreateKeyExA@36        1003a1a8 f   advapi32:ADVAPI32.dll
 0001:000391ae       _RegQueryValueExA@24       1003a1ae f   advapi32:ADVAPI32.dll
 0001:000391b4       _RegSetValueExA@24         1003a1b4 f   advapi32:ADVAPI32.dll
 0001:000391ba       ??2@YAPAXI@Z               1003a1ba f   LIBCMT:new_scalar.obj
 0001:000391ea       ??3@YAXPAXI@Z              1003a1ea f   LIBCMT:delete_scalar_size.obj
 0001:000391f8       ??_U@YAPAXI@Z              1003a1f8 f   LIBCMT:new_array.obj
 0001:00039201       ??1type_info@@UAE@XZ       1003a201 f   LIBCMT:std_type_info_static.obj
 0001:00039208       ??_Etype_info@@UAEPAXI@Z   1003a208 f i LIBCMT:std_type_info_static.obj
 0001:00039208       ??_Gtype_info@@UAEPAXI@Z   1003a208 f i LIBCMT:std_type_info_static.obj
 0001:0003922b       ??_V@YAXPAX@Z              1003a22b f   LIBCMT:delete_array.obj
 0001:00039230       __ftoui3                   1003a230 f   LIBCMT:ftol3.obj
 0001:00039280       __ftoul3                   1003a280 f   LIBCMT:ftol3.obj
 0001:000392f0       __ftoul3_legacy            1003a2f0 f   LIBCMT:ftol3.obj
 0001:00039320       __ftol3                    1003a320 f   LIBCMT:ftol3.obj
 0001:00039390       __dtoui3                   1003a390 f   LIBCMT:ftol3.obj
 0001:00039410       __dtoul3                   1003a410 f   LIBCMT:ftol3.obj
 0001:000394c0       __dtoul3_legacy            1003a4c0 f   LIBCMT:ftol3.obj
 0001:000394f0       __dtol3                    1003a4f0 f   LIBCMT:ftol3.obj
 0001:000395a0       __ultod3                   1003a5a0 f   LIBCMT:ftol3.obj
 0001:00039600       __ltod3                    1003a600 f   LIBCMT:ftol3.obj
 0001:00039641       ??3@YAXPAX@Z               1003a641 f   LIBCMT:delete_scalar.obj
 0001:00039650       __ftol2_sse_excpt          1003a650 f   LIBCMT:ftol2.obj
 0001:00039660       __ftol2_sse                1003a660 f   LIBCMT:ftol2.obj
 0001:00039670       __ftoi2                    1003a670 f   LIBCMT:ftol2.obj
 0001:000396f0       __ftoui2                   1003a6f0 f   LIBCMT:ftol2.obj
 0001:000397a0       __ftol2                    1003a7a0 f   LIBCMT:ftol2.obj
 0001:00039850       __ftoul2                   1003a850 f   LIBCMT:ftol2.obj
 0001:00039910       __ftoul2_legacy            1003a910 f   LIBCMT:ftol2.obj
 0001:00039931       ??_L@YGXPAXIHP6EX0@Z1@Z    1003a931 f   LIBCMT:ehvecctr.obj
 0001:00039936       ??_L@YGXPAXIIP6EX0@Z1@Z    1003a936 f   LIBCMT:ehvecctr.obj
 0001:000399aa       ??_M@YGXPAXIHP6EX0@Z@Z     1003a9aa f   LIBCMT:ehvecdtr.obj
 0001:000399af       ??_M@YGXPAXIIP6EX0@Z@Z     1003a9af f   LIBCMT:ehvecdtr.obj
 0001:00039a63       ?__ArrayUnwind@@YGXPAXIIP6EX0@Z@Z 1003aa63 f   LIBCMT:ehvecdtr.obj
 0001:00039e33       __CRT_INIT@12              1003ae33 f   LIBCMT:dll_dllmain.obj
 0001:00039e3c       __DllMainCRTStartup@12     1003ae3c f   LIBCMT:dll_dllmain.obj
 0001:00039e5f       ??0bad_alloc@std@@QAE@XZ   1003ae5f f i LIBCMT:throw_bad_alloc.obj
 0001:00039e77       ?__scrt_throw_std_bad_alloc@@YAXXZ 1003ae77 f   LIBCMT:throw_bad_alloc.obj
 0001:00039e94       ?__scrt_throw_std_bad_array_new_length@@YAXXZ 1003ae94 f   LIBCMT:throw_bad_alloc.obj
 0001:00039eb1       ___isa_available_init      1003aeb1 f   LIBCMT:cpu_disp.obj
 0001:0003a090       __SEH_prolog4              1003b090 f   LIBCMT:sehprolg4.obj
 0001:0003a0e0       __SEH_epilog4              1003b0e0 f   LIBCMT:sehprolg4.obj
 0001:0003a0f4       @_guard_check_icall_nop@4  1003b0f4 f i LIBCMT:guard_support.obj
 0001:0003a0f7       _ReadNoFence               1003b0f7 f i LIBCMT:guard_support.obj
 0001:0003a101       _ReadPointerNoFence        1003b101 f i LIBCMT:guard_support.obj
 0001:0003a10b       ___castguard_check_failure_debugbreak 1003b10b f i LIBCMT:guard_support.obj
 0001:0003a126       ___castguard_check_failure_fastfail 1003b126 f i LIBCMT:guard_support.obj
 0001:0003a145       ___castguard_check_failure_nop 1003b145 f i LIBCMT:guard_support.obj
 0001:0003a148       ___castguard_check_failure_os_handled 1003b148 f i LIBCMT:guard_support.obj
 0001:0003a1a4       ___castguard_slow_path_check_debugbreak 1003b1a4 f i LIBCMT:guard_support.obj
 0001:0003a1d1       ___castguard_slow_path_check_fastfail 1003b1d1 f i LIBCMT:guard_support.obj
 0001:0003a202       ___castguard_slow_path_check_nop 1003b202 f i LIBCMT:guard_support.obj
 0001:0003a205       ___castguard_slow_path_check_os_handled 1003b205 f i LIBCMT:guard_support.obj
 0001:0003a260       __guard_icall_checks_enforced 1003b260 f i LIBCMT:guard_support.obj
 0001:0003a2bf       ___security_init_cookie    1003b2bf f   LIBCMT:gs_support.obj
 0001:0003a30a       ?__scrt_initialize_type_info@@YAXXZ 1003b30a f   LIBCMT:tncleanup.obj
 0001:0003a316       ?__scrt_uninitialize_type_info@@YAXXZ 1003b316 f   LIBCMT:tncleanup.obj
 0001:0003a322       ___local_stdio_scanf_options 1003b322 f i LIBCMT:default_local_stdio_options.obj
 0001:0003a328       ___scrt_initialize_default_local_stdio_options 1003b328 f   LIBCMT:default_local_stdio_options.obj
 0001:0003a345       ?configure_argv@__scrt_narrow_argv_policy@@SAHXZ 1003b345 f i LIBCMT:utility.obj
 0001:0003a396       ?initialize_environment@__scrt_narrow_environment_policy@@SAHXZ 1003b396 f i LIBCMT:utility.obj
 0001:0003a3ce       _NtCurrentTeb              1003b3ce f i LIBCMT:utility.obj
 0001:0003a3d5       ___scrt_acquire_startup_lock 1003b3d5 f   LIBCMT:utility.obj
 0001:0003a407       ___scrt_dllmain_after_initialize_c 1003b407 f   LIBCMT:utility.obj
 0001:0003a432       ___scrt_dllmain_before_initialize_c 1003b432 f   LIBCMT:utility.obj
 0001:0003a440       ___scrt_dllmain_crt_thread_attach 1003b440 f   LIBCMT:utility.obj
 0001:0003a45f       ___scrt_dllmain_crt_thread_detach 1003b45f f   LIBCMT:utility.obj
 0001:0003a46c       ___scrt_dllmain_exception_filter 1003b46c f   LIBCMT:utility.obj
 0001:0003a4a0       ___scrt_dllmain_uninitialize_c 1003b4a0 f   LIBCMT:utility.obj
 0001:0003a4c3       ___scrt_dllmain_uninitialize_critical 1003b4c3 f   LIBCMT:utility.obj
 0001:0003a4d0       ___scrt_initialize_crt     1003b4d0 f   LIBCMT:utility.obj
 0001:0003a509       ___scrt_initialize_onexit_tables 1003b509 f   LIBCMT:utility.obj
 0001:0003a590       ___scrt_is_nonwritable_in_current_image 1003b590 f   LIBCMT:utility.obj
 0001:0003a624       ___scrt_release_startup_lock 1003b624 f   LIBCMT:utility.obj
 0001:0003a641       ___scrt_uninitialize_crt   1003b641 f   LIBCMT:utility.obj
 0001:0003a669       __onexit                   1003b669 f   LIBCMT:utility.obj
 0001:0003a696       _at_quick_exit             1003b696 f   LIBCMT:utility.obj
 0001:0003a6b9       _atexit                    1003b6b9 f   LIBCMT:utility.obj
 0001:0003a6ce       ___scrt_get_dyn_tls_init_callback 1003b6ce f   LIBCMT:dyn_tls_init.obj
 0001:0003a6d4       ___scrt_fastfail           1003b6d4 f   LIBCMT:utility_desktop.obj
 0001:0003a7ef       ___scrt_get_show_window_mode 1003b7ef f   LIBCMT:utility_desktop.obj
 0001:0003a820       ___scrt_initialize_mta     1003b820 f   LIBCMT:utility_desktop.obj
 0001:0003a825       ___scrt_initialize_winrt   1003b825 f   LIBCMT:utility_desktop.obj
 0001:0003a828       ___scrt_is_managed_app     1003b828 f   LIBCMT:utility_desktop.obj
 0001:0003a86a       ___scrt_set_unhandled_exception_filter 1003b86a f   LIBCMT:utility_desktop.obj
 0001:0003a876       ___scrt_exe_initialize_mta 1003b876 f   LIBCMT:utility_desktop.obj
 0001:0003a876       ___scrt_stub_for_initialize_mta 1003b876 f   LIBCMT:utility_desktop.obj
 0001:0003a879       ___scrt_unhandled_exception_filter@4 1003b879 f   LIBCMT:utility_desktop.obj
 0001:0003a8cf       __crt_debugger_hook        1003b8cf f   LIBCMT:utility_desktop.obj
 0001:0003a8d7       __RTC_Initialize           1003b8d7 f   LIBCMT:initsect.obj
 0001:0003a903       __RTC_Terminate            1003b903 f   LIBCMT:initsect.obj
 0001:0003a92f       @__security_check_cookie@4 1003b92f f   LIBCMT:secchk.obj
 0001:0003a93d       __get_startup_argv_mode    1003b93d f   LIBCMT:argv_mode.obj
 0001:0003a941       ___scrt_is_ucrt_dll_in_use 1003b941 f   LIBCMT:ucrt_detection.obj
 0001:0003a94d       ___raise_securityfailure   1003b94d f   LIBCMT:gs_report.obj
 0001:0003a975       ___report_gsfailure        1003b975 f   LIBCMT:gs_report.obj
 0001:0003aa6f       ___report_rangecheckfailure 1003ba6f f   LIBCMT:gs_report.obj
 0001:0003aa7b       ___report_securityfailure  1003ba7b f   LIBCMT:gs_report.obj
 0001:0003ab4a       ___report_securityfailureEx 1003bb4a f   LIBCMT:gs_report.obj
 0001:0003ac5f       ??0bad_function_call@std@@QAE@ABV01@@Z 1003bc5f f i libcpmt:xthrow.obj
 0001:0003ac7a       ??0bad_function_call@std@@QAE@XZ 1003bc7a f i libcpmt:xthrow.obj
 0001:0003ac8b       ??0exception@std@@QAE@QBD@Z 1003bc8b f i libcpmt:xthrow.obj
 0001:0003acc0       ??0exception@std@@QAE@XZ   1003bcc0 f i libcpmt:xthrow.obj
 0001:0003acd1       ??0invalid_argument@std@@QAE@ABV01@@Z 1003bcd1 f i libcpmt:xthrow.obj
 0001:0003acec       ??0invalid_argument@std@@QAE@PBD@Z 1003bcec f i libcpmt:xthrow.obj
 0001:0003ad0b       ??0length_error@std@@QAE@ABV01@@Z 1003bd0b f i libcpmt:xthrow.obj
 0001:0003ad26       ??0length_error@std@@QAE@PBD@Z 1003bd26 f i libcpmt:xthrow.obj
 0001:0003ad45       ??0logic_error@std@@QAE@ABV01@@Z 1003bd45 f i libcpmt:xthrow.obj
 0001:0003ad60       ??0logic_error@std@@QAE@PBD@Z 1003bd60 f i libcpmt:xthrow.obj
 0001:0003ad7f       ??0out_of_range@std@@QAE@ABV01@@Z 1003bd7f f i libcpmt:xthrow.obj
 0001:0003ad9a       ??0out_of_range@std@@QAE@PBD@Z 1003bd9a f i libcpmt:xthrow.obj
 0001:0003adb9       ??0overflow_error@std@@QAE@ABV01@@Z 1003bdb9 f i libcpmt:xthrow.obj
 0001:0003add4       ??0overflow_error@std@@QAE@PBD@Z 1003bdd4 f i libcpmt:xthrow.obj
 0001:0003adf3       ??0regex_error@std@@QAE@ABV01@@Z 1003bdf3 f i libcpmt:xthrow.obj
 0001:0003ae17       ??0regex_error@std@@QAE@W4error_type@regex_constants@1@@Z 1003be17 f i libcpmt:xthrow.obj
 0001:0003ae45       ??0runtime_error@std@@QAE@ABV01@@Z 1003be45 f i libcpmt:xthrow.obj
 0001:0003ae60       ??0runtime_error@std@@QAE@PBD@Z 1003be60 f i libcpmt:xthrow.obj
 0001:0003ae7f       ??1bad_function_call@std@@UAE@XZ 1003be7f f i libcpmt:xthrow.obj
 0001:0003ae90       ??1invalid_argument@std@@UAE@XZ 1003be90 f i libcpmt:xthrow.obj
 0001:0003aea1       ??1length_error@std@@UAE@XZ 1003bea1 f i libcpmt:xthrow.obj
 0001:0003aeb2       ??1logic_error@std@@UAE@XZ 1003beb2 f i libcpmt:xthrow.obj
 0001:0003aec3       ??1out_of_range@std@@UAE@XZ 1003bec3 f i libcpmt:xthrow.obj
 0001:0003aed4       ??1overflow_error@std@@UAE@XZ 1003bed4 f i libcpmt:xthrow.obj
 0001:0003aee5       ??1regex_error@std@@UAE@XZ 1003bee5 f i libcpmt:xthrow.obj
 0001:0003aef6       ??1runtime_error@std@@UAE@XZ 1003bef6 f i libcpmt:xthrow.obj
 0001:0003af07       ??_Ebad_function_call@std@@UAEPAXI@Z 1003bf07 f i libcpmt:xthrow.obj
 0001:0003af07       ??_Gbad_function_call@std@@UAEPAXI@Z 1003bf07 f i libcpmt:xthrow.obj
 0001:0003af34       ??_Einvalid_argument@std@@UAEPAXI@Z 1003bf34 f i libcpmt:xthrow.obj
 0001:0003af34       ??_Ginvalid_argument@std@@UAEPAXI@Z 1003bf34 f i libcpmt:xthrow.obj
 0001:0003af61       ??_Elength_error@std@@UAEPAXI@Z 1003bf61 f i libcpmt:xthrow.obj
 0001:0003af61       ??_Glength_error@std@@UAEPAXI@Z 1003bf61 f i libcpmt:xthrow.obj
 0001:0003af8e       ??_Elogic_error@std@@UAEPAXI@Z 1003bf8e f i libcpmt:xthrow.obj
 0001:0003af8e       ??_Glogic_error@std@@UAEPAXI@Z 1003bf8e f i libcpmt:xthrow.obj
 0001:0003afbb       ??_Eout_of_range@std@@UAEPAXI@Z 1003bfbb f i libcpmt:xthrow.obj
 0001:0003afbb       ??_Gout_of_range@std@@UAEPAXI@Z 1003bfbb f i libcpmt:xthrow.obj
 0001:0003afe8       ??_Eoverflow_error@std@@UAEPAXI@Z 1003bfe8 f i libcpmt:xthrow.obj
 0001:0003afe8       ??_Goverflow_error@std@@UAEPAXI@Z 1003bfe8 f i libcpmt:xthrow.obj
 0001:0003b015       ??_Eregex_error@std@@UAEPAXI@Z 1003c015 f i libcpmt:xthrow.obj
 0001:0003b015       ??_Gregex_error@std@@UAEPAXI@Z 1003c015 f i libcpmt:xthrow.obj
 0001:0003b042       ??_Eruntime_error@std@@UAEPAXI@Z 1003c042 f i libcpmt:xthrow.obj
 0001:0003b042       ??_Gruntime_error@std@@UAEPAXI@Z 1003c042 f i libcpmt:xthrow.obj
 0001:0003b06f       ?_Stringify@regex_error@std@@CAPBDW4error_type@regex_constants@2@@Z 1003c06f f i libcpmt:xthrow.obj
 0001:0003b12f       ?_Xbad_alloc@std@@YAXXZ    1003c12f f   libcpmt:xthrow.obj
 0001:0003b14c       ?_Xbad_function_call@std@@YAXXZ 1003c14c f   libcpmt:xthrow.obj
 0001:0003b169       ?_Xinvalid_argument@std@@YAXPBD@Z 1003c169 f   libcpmt:xthrow.obj
 0001:0003b189       ?_Xlength_error@std@@YAXPBD@Z 1003c189 f   libcpmt:xthrow.obj
 0001:0003b1a9       ?_Xout_of_range@std@@YAXPBD@Z 1003c1a9 f   libcpmt:xthrow.obj
 0001:0003b1c9       ?_Xoverflow_error@std@@YAXPBD@Z 1003c1c9 f   libcpmt:xthrow.obj
 0001:0003b1e9       ?_Xregex_error@std@@YAXW4error_type@regex_constants@1@@Z 1003c1e9 f   libcpmt:xthrow.obj
 0001:0003b209       ?_Xruntime_error@std@@YAXPBD@Z 1003c209 f   libcpmt:xthrow.obj
 0001:0003b229       ?what@bad_function_call@std@@UBEPBDXZ 1003c229 f i libcpmt:xthrow.obj
 0001:0003b230       _memcpy                    1003c230 f   libvcruntime:memcpy.obj
 0001:0003b7b0       _memset                    1003c7b0 f   libvcruntime:memset.obj
 0001:0003b90a       ??$?0AAViterator@TryBlockMap@__FrameHandler3@@AAV012@$0A@@?$pair@Viterator@TryBlockMap@__FrameHandler3@@V123@@std@@QAE@AAViterator@TryBlockMap@__FrameHandler3@@0@Z 1003c90a f i libvcruntime:trnsctrl.obj
 0001:0003b92e       ??$forward@AAViterator@TryBlockMap@__FrameHandler3@@@std@@YAAAViterator@TryBlockMap@__FrameHandler3@@AAV123@@Z 1003c92e f i libvcruntime:trnsctrl.obj
 0001:0003b936       ??0iterator@TryBlockMap@__FrameHandler3@@QAE@AAV12@I@Z 1003c936 f i libvcruntime:trnsctrl.obj
 0001:0003b94a       ?GetRangeOfTrysToCheck@__FrameHandler3@@SA?AU?$pair@Viterator@TryBlockMap@__FrameHandler3@@V123@@std@@AAVTryBlockMap@1@HPAXPBU_s_FuncInfo@@H@Z 1003c94a f   libvcruntime:trnsctrl.obj
 0001:0003b9ba       ?_CallCatchBlock2@@YAPAXPAUEHRegistrationNode@@PBU_s_FuncInfo@@PAXHK@Z 1003c9ba f   libvcruntime:trnsctrl.obj
 0001:0003ba17       ?_CallSETranslator@@YAHPAUEHExceptionRecord@@PAUEHRegistrationNode@@PAX2PBU_s_FuncInfo@@H1@Z 1003ca17 f   libvcruntime:trnsctrl.obj
 0001:0003bb0d       ?_JumpToContinuation@@YGXPAXPAUEHRegistrationNode@@@Z 1003cb0d f   libvcruntime:trnsctrl.obj
 0001:0003bb3d       ?_UnwindNestedFrames@@YGXPAUEHRegistrationNode@@PAUEHExceptionRecord@@@Z 1003cb3d f   libvcruntime:trnsctrl.obj
 0001:0003bb90       __CatchGuardHandler        1003cb90 f   libvcruntime:trnsctrl.obj
 0001:0003bbc1       __CreateFrameInfo          1003cbc1 f   libvcruntime:trnsctrl.obj
 0001:0003bbe5       __FindAndUnlinkFrame       1003cbe5 f   libvcruntime:trnsctrl.obj
 0001:0003bc2d       __TranslatorGuardHandler   1003cc2d f   libvcruntime:trnsctrl.obj
 0001:0003bcca       ___CxxFrameHandler         1003ccca f   libvcruntime:trnsctrl.obj
 0001:0003bd00       ___CxxFrameHandler2        1003cd00 f   libvcruntime:trnsctrl.obj
 0001:0003bd36       ___CxxFrameHandler3        1003cd36 f   libvcruntime:trnsctrl.obj
 0001:0003bd6c       ___CxxLongjmpUnwind@4      1003cd6c f   libvcruntime:trnsctrl.obj
 0001:0003bdb0       _memmove                   1003cdb0 f   libvcruntime:memmove.obj
 0001:0003c324       ??$?RD@__crt_public_free_policy@@QBEXQBD@Z 1003d324 f i libvcruntime:std_exception.obj
 0001:0003c334       ??0?$__crt_unique_heap_ptr@DU__crt_public_free_policy@@@@QAE@QAD@Z 1003d334 f i libvcruntime:std_exception.obj
 0001:0003c342       ??1?$__crt_unique_heap_ptr@DU__crt_public_free_policy@@@@QAE@XZ 1003d342 f i libvcruntime:std_exception.obj
 0001:0003c352       ??B?$__crt_unique_heap_ptr@DU__crt_public_free_policy@@@@QBE_NXZ 1003d352 f i libvcruntime:std_exception.obj
 0001:0003c359       ?detach@?$__crt_unique_heap_ptr@DU__crt_public_free_policy@@@@QAEPADXZ 1003d359 f i libvcruntime:std_exception.obj
 0001:0003c35f       ?get@?$__crt_unique_heap_ptr@DU__crt_public_free_policy@@@@QBEPADXZ 1003d35f f i libvcruntime:std_exception.obj
 0001:0003c362       ?is_valid@?$__crt_unique_heap_ptr@DU__crt_public_free_policy@@@@QBE_NXZ 1003d362 f i libvcruntime:std_exception.obj
 0001:0003c369       ?release@?$__crt_unique_heap_ptr@DU__crt_public_free_policy@@@@QAEXXZ 1003d369 f i libvcruntime:std_exception.obj
 0001:0003c379       ___std_exception_copy      1003d379 f   libvcruntime:std_exception.obj
 0001:0003c3dc       ___std_exception_destroy   1003d3dc f   libvcruntime:std_exception.obj
 0001:0003c3fb       __CxxThrowException@8      1003d3fb f   libvcruntime:throw.obj
 0001:0003c480       __except_handler3          1003d480 f   libvcruntime:exsup3.obj
 0001:0003c5a0       __seh_longjmp_unwind@4     1003d5a0 f   libvcruntime:exsup3.obj
 0001:0003c5d0       _strchr                    1003d5d0 f   libvcruntime:strchr.obj
 0001:0003c63e       ___from_strstr_to_strchr   1003d63e     libvcruntime:strchr.obj
 0001:0003c700       _strstr                    1003d700 f   libvcruntime:strstr.obj
 0001:0003ca88       _memcmp                    1003da88 f   libvcruntime:memcmp.obj
 0001:0003f6f0       _strrchr                   100406f0 f   libvcruntime:strrchr.obj
 0001:0003f870       __except_handler4          10040870 f   libvcruntime:chandler4.obj
 0001:0003f9ce       ___DestructExceptionObject 100409ce f   libvcruntime:ehhelpers.obj
 0001:0003fa6f       ?_CallMemberFunction0@@YGXQAX0@Z 10040a6f f i libvcruntime:ehhelpers.obj
 0001:0003fad4       ?raw_name@type_info@@QBEPBDXZ 10040ad4 f i libvcruntime:ehhelpers.obj
 0001:0003fad8       __IsExceptionObjectToBeDestroyed 10040ad8 f   libvcruntime:ehhelpers.obj
 0001:0003fafe       __SetWinRTOutOfMemoryExceptionCallback 10040afe f   libvcruntime:ehhelpers.obj
 0001:0003fb0b       ___AdjustPointer           10040b0b f   libvcruntime:ehhelpers.obj
 0001:0003fb30       ___FrameUnwindFilter       10040b30 f   libvcruntime:ehhelpers.obj
 0001:0003fb86       ___GetPlatformExceptionInfo 10040b86 f   libvcruntime:ehhelpers.obj
 0001:0003fbd2       ___current_exception       10040bd2 f   libvcruntime:ehhelpers.obj
 0001:0003fbdb       ___current_exception_context 10040bdb f   libvcruntime:ehhelpers.obj
 0001:0003fbe4       ___processing_throw        10040be4 f   libvcruntime:ehhelpers.obj
 0001:0003fbed       ___std_terminate           10040bed f   libvcruntime:ehhelpers.obj
 0001:0003fbf2       __is_exception_typeof      10040bf2 f   libvcruntime:ehhelpers.obj
 0001:0003fca4       ??$?RD@__crt_internal_free_policy@@QBEXQBD@Z 10040ca4 f i libvcruntime:std_type_info.obj
 0001:0003fcb4       ??$?RX@__crt_internal_free_policy@@QBEXQBX@Z 10040cb4 f i libvcruntime:std_type_info.obj
 0001:0003fcc4       ??$__crt_interlocked_compare_exchange_pointer@$$CBDPAD$$T@@YAPBDPDSBDQAD$$T@Z 10040cc4 f i libvcruntime:std_type_info.obj
 0001:0003fcd6       ??$__crt_interlocked_read_pointer@$$CBD@@YAPBDPDSBD@Z 10040cd6 f i libvcruntime:std_type_info.obj
 0001:0003fce1       ??0?$__crt_unique_heap_ptr@DU__crt_internal_free_policy@@@@QAE@QAD@Z 10040ce1 f i libvcruntime:std_type_info.obj
 0001:0003fcef       ??0?$__crt_unique_heap_ptr@XU__crt_internal_free_policy@@@@QAE@QAX@Z 10040cef f i libvcruntime:std_type_info.obj
 0001:0003fcfd       ??1?$__crt_unique_heap_ptr@DU__crt_internal_free_policy@@@@QAE@XZ 10040cfd f i libvcruntime:std_type_info.obj
 0001:0003fd0d       ??1?$__crt_unique_heap_ptr@XU__crt_internal_free_policy@@@@QAE@XZ 10040d0d f i libvcruntime:std_type_info.obj
 0001:0003fd1d       ??B?$__crt_unique_heap_ptr@DU__crt_internal_free_policy@@@@QBE_NXZ 10040d1d f i libvcruntime:std_type_info.obj
 0001:0003fd24       ??B?$__crt_unique_heap_ptr@XU__crt_internal_free_policy@@@@QBE_NXZ 10040d24 f i libvcruntime:std_type_info.obj
 0001:0003fd57       ?__crt_interlocked_read_32@@YAHPDH@Z 10040d57 f i libvcruntime:std_type_info.obj
 0001:0003fd62       ?detach@?$__crt_unique_heap_ptr@XU__crt_internal_free_policy@@@@QAEPAXXZ 10040d62 f i libvcruntime:std_type_info.obj
 0001:0003fd68       ?get@?$__crt_unique_heap_ptr@DU__crt_internal_free_policy@@@@QBEPADXZ 10040d68 f i libvcruntime:std_type_info.obj
 0001:0003fd6b       ?get@?$__crt_unique_heap_ptr@XU__crt_internal_free_policy@@@@QBEPAXXZ 10040d6b f i libvcruntime:std_type_info.obj
 0001:0003fd6e       ?is_valid@?$__crt_unique_heap_ptr@DU__crt_internal_free_policy@@@@QBE_NXZ 10040d6e f i libvcruntime:std_type_info.obj
 0001:0003fd75       ?is_valid@?$__crt_unique_heap_ptr@XU__crt_internal_free_policy@@@@QBE_NXZ 10040d75 f i libvcruntime:std_type_info.obj
 0001:0003fd7c       ?release@?$__crt_unique_heap_ptr@DU__crt_internal_free_policy@@@@QAEXXZ 10040d7c f i libvcruntime:std_type_info.obj
 0001:0003fd8c       ?release@?$__crt_unique_heap_ptr@XU__crt_internal_free_policy@@@@QAEXXZ 10040d8c f i libvcruntime:std_type_info.obj
 0001:0003fd9c       ___std_type_info_compare   10040d9c f   libvcruntime:std_type_info.obj
 0001:0003fdd8       ___std_type_info_destroy_list 10040dd8 f   libvcruntime:std_type_info.obj
 0001:0003fdfb       ___std_type_info_hash      10040dfb f   libvcruntime:std_type_info.obj
 0001:0003fe21       ___std_type_info_name      10040e21 f   libvcruntime:std_type_info.obj
 0001:0003fee7       ___vcrt_initialize         10040ee7 f   libvcruntime:initialization.obj
 0001:0003ff06       ___vcrt_thread_attach      10040f06 f   libvcruntime:initialization.obj
 0001:0003ff11       ___vcrt_thread_detach      10040f11 f   libvcruntime:initialization.obj
 0001:0003ff1c       ___vcrt_uninitialize       10040f1c f   libvcruntime:initialization.obj
 0001:0003ff33       ___vcrt_uninitialize_critical 10040f33 f   libvcruntime:initialization.obj
 0001:0003ff3e       ??$?RU__vcrt_ptd@@@__crt_internal_free_policy@@QBEXQBU__vcrt_ptd@@@Z 10040f3e f i libvcruntime:per_thread_data.obj
 0001:0003ff4e       ??0?$__crt_unique_heap_ptr@U__vcrt_ptd@@U__crt_internal_free_policy@@@@QAE@QAU__vcrt_ptd@@@Z 10040f4e f i libvcruntime:per_thread_data.obj
 0001:0003ff6b       ??1?$__crt_unique_heap_ptr@U__vcrt_ptd@@U__crt_internal_free_policy@@@@QAE@XZ 10040f6b f i libvcruntime:per_thread_data.obj
 0001:0003ff84       ??B?$__crt_unique_heap_ptr@U__vcrt_ptd@@U__crt_internal_free_policy@@@@QBE_NXZ 10040f84 f i libvcruntime:per_thread_data.obj
 0001:0003ff8b       ?detach@?$__crt_unique_heap_ptr@U__vcrt_ptd@@U__crt_internal_free_policy@@@@QAEPAU__vcrt_ptd@@XZ 10040f8b f i libvcruntime:per_thread_data.obj
 0001:0003ff91       ?get@?$__crt_unique_heap_ptr@U__vcrt_ptd@@U__crt_internal_free_policy@@@@QBEPAU__vcrt_ptd@@XZ 10040f91 f i libvcruntime:per_thread_data.obj
 0001:0003ff94       ?is_valid@?$__crt_unique_heap_ptr@U__vcrt_ptd@@U__crt_internal_free_policy@@@@QBE_NXZ 10040f94 f i libvcruntime:per_thread_data.obj
 0001:0003ff9b       ?release@?$__crt_unique_heap_ptr@U__vcrt_ptd@@U__crt_internal_free_policy@@@@QAEXXZ 10040f9b f i libvcruntime:per_thread_data.obj
 0001:0003ffc5       ___vcrt_freefls@4          10040fc5 f   libvcruntime:per_thread_data.obj
 0001:0003ffe2       ___vcrt_freeptd            10040fe2 f   libvcruntime:per_thread_data.obj
 0001:00040018       ___vcrt_getptd             10041018 f   libvcruntime:per_thread_data.obj
 0001:00040026       ___vcrt_getptd_noexit      10041026 f   libvcruntime:per_thread_data.obj
 0001:000400b8       ___vcrt_getptd_noinit      100410b8 f   libvcruntime:per_thread_data.obj
 0001:000400ef       ___vcrt_initialize_ptd     100410ef f   libvcruntime:per_thread_data.obj
 0001:00040122       ___vcrt_uninitialize_ptd   10041122 f   libvcruntime:per_thread_data.obj
 0001:0004086f       ??$TypeMatchHelper@V__FrameHandler3@@@@YAHPBU_s_HandlerType@@PBU_s_CatchableType@@PBU_s_ThrowInfo@@@Z 1004186f f i libvcruntime:frame.obj
 0001:000408fd       ??$__InternalCxxFrameHandler@V__FrameHandler3@@@@YA?AW4_EXCEPTION_DISPOSITION@@PAUEHExceptionRecord@@PAUEHRegistrationNode@@PAU_CONTEXT@@PAXPBU_s_FuncInfo@@H1E@Z 100418fd f i libvcruntime:frame.obj
 0001:000409ff       ??0HandlerMap@__FrameHandler3@@QAE@PBU_s_TryBlockMapEntry@@II@Z 100419ff f i libvcruntime:frame.obj
 0001:00040a16       ??0TryBlockMap@__FrameHandler3@@QAE@PBU_s_FuncInfo@@I@Z 10041a16 f i libvcruntime:frame.obj
 0001:00040a2a       ??0bad_exception@std@@QAE@ABV01@@Z 10041a2a f i libvcruntime:frame.obj
 0001:00040a45       ??0bad_exception@std@@QAE@XZ 10041a45 f i libvcruntime:frame.obj
 0001:00040a5d       ??0iterator@HandlerMap@__FrameHandler3@@QAE@AAV12@I@Z 10041a5d f i libvcruntime:frame.obj
 0001:00040a71       ??1bad_exception@std@@UAE@XZ 10041a71 f i libvcruntime:frame.obj
 0001:00040a82       ??8iterator@HandlerMap@__FrameHandler3@@QBE_NABV012@@Z 10041a82 f i libvcruntime:frame.obj
 0001:00040a95       ??8type_info@@QBE_NABV0@@Z 10041a95 f i libvcruntime:frame.obj
 0001:00040ab4       ??9iterator@HandlerMap@__FrameHandler3@@QBE_NABV012@@Z 10041ab4 f i libvcruntime:frame.obj
 0001:00040ac7       ??Diterator@HandlerMap@__FrameHandler3@@QAE?BU_s_HandlerType@@XZ 10041ac7 f i libvcruntime:frame.obj
 0001:00040ae6       ??Diterator@TryBlockMap@__FrameHandler3@@QAE?BU_s_TryBlockMapEntry@@XZ 10041ae6 f i libvcruntime:frame.obj
 0001:00040b08       ??Eiterator@HandlerMap@__FrameHandler3@@QAEAAV012@XZ 10041b08 f i libvcruntime:frame.obj
 0001:00040b0e       ??Eiterator@TryBlockMap@__FrameHandler3@@QAEAAV012@XZ 10041b0e f i libvcruntime:frame.obj
 0001:00040b14       ??Miterator@TryBlockMap@__FrameHandler3@@QBE_NABV012@@Z 10041b14 f i libvcruntime:frame.obj
 0001:00040b27       ??_Ebad_exception@std@@UAEPAXI@Z 10041b27 f i libvcruntime:frame.obj
 0001:00040b27       ??_Gbad_exception@std@@UAEPAXI@Z 10041b27 f i libvcruntime:frame.obj
 0001:00040b54       ?BuildCatchObject@__FrameHandler3@@SAXPAUEHExceptionRecord@@PAXPBU_s_HandlerType@@PBU_s_CatchableType@@@Z 10041b54 f   libvcruntime:frame.obj
 0001:00040b59       ?BuildCatchObjectHelper@__FrameHandler3@@SAHPAUEHExceptionRecord@@PAXPBU_s_HandlerType@@PBU_s_CatchableType@@@Z 10041b59 f   libvcruntime:frame.obj
 0001:00040dba       ?FrameUnwindToEmptyState@__FrameHandler3@@SAXPAUEHRegistrationNode@@PAXPBU_s_FuncInfo@@@Z 10041dba f   libvcruntime:frame.obj
 0001:00040dd2       ?FrameUnwindToState@__FrameHandler3@@SAXPAUEHRegistrationNode@@PAXPBU_s_FuncInfo@@H@Z 10041dd2 f   libvcruntime:frame.obj
 0001:00040eba       ?GetMaxState@__FrameHandler3@@SAHPAXPBU_s_FuncInfo@@@Z 10041eba f i libvcruntime:frame.obj
 0001:00040f98       ?TypeMatch@__FrameHandler3@@SAHPBU_s_HandlerType@@PBU_s_CatchableType@@PBU_s_ThrowInfo@@@Z 10041f98 f   libvcruntime:frame.obj
 0001:00040fa1       ?_CallMemberFunction1@@YGXQAX00@Z 10041fa1 f i libvcruntime:frame.obj
 0001:00040fb1       ?_CallMemberFunction2@@YGXQAX00H@Z 10041fb1 f i libvcruntime:frame.obj
 0001:00040fc4       ?begin@HandlerMap@__FrameHandler3@@QAE?AViterator@12@XZ 10041fc4 f i libvcruntime:frame.obj
 0001:00040fd4       ?end@HandlerMap@__FrameHandler3@@QAE?AViterator@12@XZ 10041fd4 f i libvcruntime:frame.obj
 0001:00040fe5       ?getESTypes@__FrameHandler3@@SAPBU_s_ESTypeList@@PBU_s_FuncInfo@@@Z 10041fe5 f i libvcruntime:frame.obj
 0001:00040ff0       ?getLastEntry@HandlerMap@__FrameHandler3@@QAEPBU_s_HandlerType@@XZ 10041ff0 f i libvcruntime:frame.obj
 0001:00040ffe       ?getMagicNum@__FrameHandler3@@SAIPBU_s_FuncInfo@@@Z 10041ffe f i libvcruntime:frame.obj
 0001:0004100d       ?getNumTryBlocks@TryBlockMap@__FrameHandler3@@QAEIXZ 1004200d f i libvcruntime:frame.obj
 0001:00041013       ?isEHs@__FrameHandler3@@SA_NPBU_s_FuncInfo@@@Z 10042013 f i libvcruntime:frame.obj
 0001:00041020       ?isNoExcept@__FrameHandler3@@SA_NPBU_s_FuncInfo@@@Z 10042020 f i libvcruntime:frame.obj
 0001:00041030       ___BuildCatchObject        10042030 f   libvcruntime:frame.obj
 0001:00041035       ___BuildCatchObjectHelper  10042035 f   libvcruntime:frame.obj
 0001:0004103e       ___TypeMatch               1004203e f   libvcruntime:frame.obj
 0001:00041047       ___vcrt_EncodePointer      10042047 f i libvcruntime:frame.obj
 0001:00041060       __CallSettingFrame@12      10042060 f   libvcruntime:lowhelpr.obj
 0001:00041087       __NLG_Return               10042087     libvcruntime:lowhelpr.obj
 0001:000410b7       ___except_validate_context_record 100420b7 f   libvcruntime:jbcxrval.obj
 0001:000410e7       ___except_validate_jump_buffer 100420e7 f   libvcruntime:jbcxrval.obj
 0001:00041114       ___except_validate_jump_buffer_common 10042114 f i libvcruntime:jbcxrval.obj
 0001:0004114d       _CallDestructExceptionObject 1004214d f   libvcruntime:calldtor.obj
 0001:00041190       __global_unwind2           10042190 f   libvcruntime:exsup.obj
 0001:00041210       __local_unwind2            10042210 f   libvcruntime:exsup.obj
 0001:000412b0       __abnormal_termination     100422b0 f   libvcruntime:exsup.obj
 0001:000412e0       __NLG_Notify1              100422e0 f   libvcruntime:exsup.obj
 0001:000412f0       __NLG_Notify               100422f0 f   libvcruntime:exsup.obj
 0001:00041307       __NLG_Dispatch             10042307     libvcruntime:exsup.obj
 0001:00041307       __NLG_Dispatch2            10042307     libvcruntime:exsup.obj
 0001:00041310       __NLG_Call                 10042310 f   libvcruntime:exsup.obj
 0001:00041312       __NLG_Return2              10042312     libvcruntime:exsup.obj
 0001:000413e0       __ValidateEH3RN            100423e0 f   libvcruntime:eh3valid.obj
 0001:00041790       __local_unwind4            10042790 f   libvcruntime:exsup4.obj
 0001:00041880       __seh_longjmp_unwind4@4    10042880 f   libvcruntime:exsup4.obj
 0001:000418b0       @_EH4_CallFilterFunc@8     100428b0 f   libvcruntime:exsup4.obj
 0001:000418d0       @_EH4_TransferToHandler@8  100428d0 f   libvcruntime:exsup4.obj
 0001:000418f0       @_EH4_GlobalUnwind2@8      100428f0 f   libvcruntime:exsup4.obj
 0001:00041910       @_EH4_LocalUnwind@16       10042910 f   libvcruntime:exsup4.obj
 0001:00041927       ??$?0$00@DName@@QAE@PBDU?$StringLifeSelector@$00@@@Z 10042927 f i libvcruntime:undname.obj
 0001:0004195a       ??$?0$00@pcharNode@@QAE@PBDHU?$StringLifeSelector@$00@@@Z 1004295a f i libvcruntime:undname.obj
 0001:00041975       ??$?0$01@DName@@QAE@PBDU?$StringLifeSelector@$01@@@Z 10042975 f i libvcruntime:undname.obj
 0001:000419a8       ??$?0$01@pcharNode@@QAE@PBDHU?$StringLifeSelector@$01@@@Z 100429a8 f i libvcruntime:undname.obj
 0001:000419e8       ??$?0$0A@@DName@@QAE@PBDU?$StringLifeSelector@$0A@@@@Z 100429e8 f i libvcruntime:undname.obj
 0001:00041a1b       ??$?0$0A@@pcharNode@@QAE@PBDHU?$StringLifeSelector@$0A@@@@Z 10042a1b f i libvcruntime:undname.obj
 0001:00041a5b       ??$?0_K$0A@@?$optional@_K@std@@QAE@$$QA_K@Z 10042a5b f i libvcruntime:undname.obj
 0001:00041a75       ??$?0_K@?$_Optional_construct_base@_K@std@@QAE@Uin_place_t@1@$$QA_K@Z 10042a75 f i libvcruntime:undname.obj
 0001:00041a8f       ??$?0_K@?$_Optional_destruct_base@_K$00@std@@QAE@Uin_place_t@1@$$QA_K@Z 10042a8f f i libvcruntime:undname.obj
 0001:00041aa9       ??$append@VDNameNode@@@DName@@AAEXPBVDNameNode@@@Z 10042aa9 f i libvcruntime:undname.obj
 0001:00041aea       ??$append@VDNameStatusNode@@@DName@@AAEXPBVDNameStatusNode@@@Z 10042aea f i libvcruntime:undname.obj
 0001:00041b2b       ??$append@VcharNode@@@DName@@AAEXPBVcharNode@@@Z 10042b2b f i libvcruntime:undname.obj
 0001:00041b6c       ??$append@VpDNameNode@@@DName@@AAEXPBVpDNameNode@@@Z 10042b6c f i libvcruntime:undname.obj
 0001:00041bad       ??$append@VpcharNode@@@DName@@AAEXPBVpcharNode@@@Z 10042bad f i libvcruntime:undname.obj
 0001:00041bee       ??$doPchar@$00@DName@@AAEXPBDH@Z 10042bee f i libvcruntime:undname.obj
 0001:00041c59       ??$doPchar@$01@DName@@AAEXPBDH@Z 10042c59 f i libvcruntime:undname.obj
 0001:00041cca       ??$doPchar@$0A@@DName@@AAEXPBDH@Z 10042cca f i libvcruntime:undname.obj
 0001:00041d3b       ??$forward@_K@std@@YA$$QA_KAA_K@Z 10042d3b f i libvcruntime:undname.obj
 0001:00041dff       ??$size@D$04@std@@YAIAAY04$$CBD@Z 10042dff f i libvcruntime:undname.obj
 0001:00041e03       ??0?$_Optional_construct_base@_K@std@@QAE@XZ 10042e03 f i libvcruntime:undname.obj
 0001:00041e0a       ??0?$_Optional_destruct_base@_K$00@std@@QAE@XZ 10042e0a f i libvcruntime:undname.obj
 0001:00041e11       ??0?$optional@_K@std@@QAE@XZ 10042e11 f i libvcruntime:undname.obj
 0001:00041e18       ??0Block@_HeapManager@@QAE@XZ 10042e18 f i libvcruntime:undname.obj
 0001:00041e1e       ??0DName@@QAE@AAPBDD@Z     10042e1e f   libvcruntime:undname.obj
 0001:00041e9e       ??0DName@@QAE@ABUStringLiteral@@@Z 10042e9e f   libvcruntime:undname.obj
 0001:00041ec5       ??0DName@@QAE@ABV0@@Z      10042ec5 f i libvcruntime:undname.obj
 0001:00041edb       ??0DName@@QAE@D@Z          10042edb f   libvcruntime:undname.obj
 0001:00041ef7       ??0DName@@QAE@PAV0@@Z      10042ef7 f   libvcruntime:undname.obj
 0001:00041f40       ??0DName@@QAE@W4DNameStatus@@@Z 10042f40 f   libvcruntime:undname.obj
 0001:00041f80       ??0DName@@QAE@XZ           10042f80 f i libvcruntime:undname.obj
 0001:00041f8a       ??0DName@@QAE@_J@Z         10042f8a f   libvcruntime:undname.obj
 0001:0004201d       ??0DName@@QAE@_K@Z         1004301d f   libvcruntime:undname.obj
 0001:0004208f       ??0DNameNode@@IAE@XZ       1004308f f i libvcruntime:undname.obj
 0001:00042098       ??0Replicator@@QAE@XZ      10043098 f i libvcruntime:undname.obj
 0001:000420a7       ??0UnDecorator@@QAE@PBDP6APADJ@ZK@Z 100430a7 f i libvcruntime:undname.obj
 0001:000420f3       ??0_Nontrivial_dummy_type@std@@QAE@XZ 100430f3 f i libvcruntime:undname.obj
 0001:000420f6       ??0charNode@@QAE@D@Z       100430f6 f i libvcruntime:undname.obj
 0001:0004210b       ??0pDNameNode@@QAE@PAVDName@@@Z 1004310b f   libvcruntime:undname.obj
 0001:00042133       ??0pairNode@@QAE@PBVDNameNode@@0@Z 10043133 f i libvcruntime:undname.obj
 0001:00042159       ??2@YAPAXIAAV_HeapManager@@H@Z 10043159 f   libvcruntime:undname.obj
 0001:00042178       ??4DName@@QAEAAV0@ABUStringLiteral@@@Z 10043178 f   libvcruntime:undname.obj
 0001:00042199       ??4DName@@QAEAAV0@ABV0@@Z  10043199 f   libvcruntime:undname.obj
 0001:000421af       ??4DName@@QAEAAV0@D@Z      100431af f i libvcruntime:undname.obj
 0001:000421cb       ??4DName@@QAEAAV0@PAV0@@Z  100431cb f   libvcruntime:undname.obj
 0001:0004220e       ??4DName@@QAEAAV0@W4DNameStatus@@@Z 1004320e f   libvcruntime:undname.obj
 0001:00042240       ??AReplicator@@QBE?AVDName@@H@Z 10043240 f   libvcruntime:undname.obj
 0001:0004227c       ??B?$optional@_K@std@@QBE_NXZ 1004327c f i libvcruntime:undname.obj
 0001:00042280       ??D?$_Optional_construct_base@_K@std@@QGAEAA_KXZ 10043280 f i libvcruntime:undname.obj
 0001:00042283       ??H@YA?AVDName@@ABUStringLiteral@@ABV0@@Z 10043283 f i libvcruntime:undname.obj
 0001:000422a5       ??H@YA?AVDName@@DABV0@@Z   100432a5 f i libvcruntime:undname.obj
 0001:000422d0       ??H@YA?AVDName@@W4DNameStatus@@ABV0@@Z 100432d0 f i libvcruntime:undname.obj
 0001:000422f2       ??HDName@@QBE?AV0@ABUStringLiteral@@@Z 100432f2 f   libvcruntime:undname.obj
 0001:00042314       ??HDName@@QBE?AV0@ABV0@@Z  10043314 f   libvcruntime:undname.obj
 0001:00042336       ??HDName@@QBE?AV0@D@Z      10043336 f   libvcruntime:undname.obj
 0001:00042358       ??HDName@@QBE?AV0@PAV0@@Z  10043358 f   libvcruntime:undname.obj
 0001:0004237a       ??HDName@@QBE?AV0@W4DNameStatus@@@Z 1004337a f   libvcruntime:undname.obj
 0001:0004239c       ??HStringLiteral@@QBE?AU0@H@Z 1004339c f i libvcruntime:undname.obj
 0001:000423b6       ??YDName@@QAEAAV0@ABUStringLiteral@@@Z 100433b6 f   libvcruntime:undname.obj
 0001:0004240e       ??YDName@@QAEAAV0@ABV0@@Z  1004340e f   libvcruntime:undname.obj
 0001:00042465       ??YDName@@QAEAAV0@D@Z      10043465 f   libvcruntime:undname.obj
 0001:000424ba       ??YDName@@QAEAAV0@PAV0@@Z  100434ba f   libvcruntime:undname.obj
 0001:0004251e       ??YDName@@QAEAAV0@W4DNameStatus@@@Z 1004351e f   libvcruntime:undname.obj
 0001:0004255e       ??YReplicator@@QAEAAV0@ABVDName@@@Z 1004355e f   libvcruntime:undname.obj
 0001:0004259e       ??_5DName@@QAEAAV0@ABV0@@Z 1004359e f   libvcruntime:undname.obj
 0001:000425ba       ??__K_l@@YA?AUStringLiteral@@PBDI@Z 100435ba f i libvcruntime:undname.obj
 0001:000425c5       ?Constructor@_HeapManager@@QAEXP6APAXI@ZP6AXPAX@Z@Z 100435c5 f i libvcruntime:undname.obj
 0001:000425e2       ?Destructor@_HeapManager@@QAEXXZ 100435e2 f i libvcruntime:undname.obj
 0001:00042626       ?UScore@UnDecorator@@SA?AUStringLiteral@@W4Tokens@@@Z 10043626 f   libvcruntime:undname.obj
 0001:0004264d       ?composeDeclaration@UnDecorator@@CA?AVDName@@ABV2@@Z 1004364d f i libvcruntime:undname.obj
 0001:00043345       ?doAccessSpecifiers@UnDecorator@@SAHXZ 10044345 f i libvcruntime:undname.obj
 0001:00043353       ?doAllocationLanguage@UnDecorator@@SAHXZ 10044353 f i libvcruntime:undname.obj
 0001:00043361       ?doAllocationModel@UnDecorator@@SAHXZ 10044361 f i libvcruntime:undname.obj
 0001:0004336f       ?doEcsu@UnDecorator@@SAHXZ 1004436f f i libvcruntime:undname.obj
 0001:0004337d       ?doEllipsis@UnDecorator@@SAHXZ 1004437d f i libvcruntime:undname.obj
 0001:0004338b       ?doFunctionReturns@UnDecorator@@SAHXZ 1004438b f i libvcruntime:undname.obj
 0001:00043399       ?doMSKeywords@UnDecorator@@SAHXZ 10044399 f i libvcruntime:undname.obj
 0001:000433a6       ?doMemberTypes@UnDecorator@@SAHXZ 100443a6 f i libvcruntime:undname.obj
 0001:000433b4       ?doNameOnly@UnDecorator@@SAHXZ 100443b4 f i libvcruntime:undname.obj
 0001:000433bf       ?doNoIdentCharCheck@UnDecorator@@SAHXZ 100443bf f i libvcruntime:undname.obj
 0001:000433ca       ?doPchar@DName@@AAEXD@Z    100443ca f   libvcruntime:undname.obj
 0001:00043402       ?doPtr64@UnDecorator@@SAHXZ 10044402 f i libvcruntime:undname.obj
 0001:00043410       ?doRestrictionSpec@UnDecorator@@SAHXZ 10044410 f i libvcruntime:undname.obj
 0001:0004341e       ?doThisTypes@UnDecorator@@SAHXZ 1004441e f i libvcruntime:undname.obj
 0001:00043430       ?doThrowTypes@UnDecorator@@SAHXZ 10044430 f i libvcruntime:undname.obj
 0001:0004343e       ?doTypeOnly@UnDecorator@@SAHXZ 1004443e f i libvcruntime:undname.obj
 0001:00043449       ?doUnderScore@UnDecorator@@SAHXZ 10044449 f i libvcruntime:undname.obj
 0001:00043454       ?getAddressOf@UnDecorator@@CA?AVDName@@XZ 10044454 f   libvcruntime:undname.obj
 0001:000434bc       ?getArgumentList@UnDecorator@@CA?AVDName@@XZ 100444bc f   libvcruntime:undname.obj
 0001:00043626       ?getArgumentTypes@UnDecorator@@CA?AVDName@@XZ 10044626 f   libvcruntime:undname.obj
 0001:0004372e       ?getArrayAccess@UnDecorator@@CA?AVDName@@XZ 1004472e f   libvcruntime:undname.obj
 0001:000437a2       ?getArrayObject@UnDecorator@@CA?AVDName@@XZ 100447a2 f   libvcruntime:undname.obj
 0001:0004382d       ?getArrayType@UnDecorator@@CA?AVDName@@ABV2@@Z 1004482d f i libvcruntime:undname.obj
 0001:000439ca       ?getBasedType@UnDecorator@@CA?AVDName@@XZ 100449ca f   libvcruntime:undname.obj
 0001:00043a80       ?getBasicDataType@UnDecorator@@CA?AVDName@@ABV2@@Z 10044a80 f   libvcruntime:undname.obj
 0001:00043fe8       ?getCHPEName@UnDecorator@@QAEPADPADH@Z 10044fe8 f i libvcruntime:undname.obj
 0001:000440c5       ?getCallIndex@UnDecorator@@CA?AVDName@@XZ 100450c5 f i libvcruntime:undname.obj
 0001:000440d9       ?getCallingConvention@UnDecorator@@CA?AVDName@@XZ 100450d9 f   libvcruntime:undname.obj
 0001:000441ae       ?getDataIndirectType@UnDecorator@@CA?AVDName@@ABV2@W4IndirectionKind@@0H@Z 100451ae f   libvcruntime:undname.obj
 0001:0004494b       ?getDataIndirectType@UnDecorator@@CA?AVDName@@XZ 1004594b f i libvcruntime:undname.obj
 0001:00044979       ?getDataType@UnDecorator@@CA?AVDName@@PAV2@@Z 10045979 f   libvcruntime:undname.obj
 0001:00044a50       ?getDecoratedName@UnDecorator@@CA?AVDName@@XZ 10045a50 f   libvcruntime:undname.obj
 0001:00044ca4       ?getDimension@UnDecorator@@CA?AVDName@@_N@Z 10045ca4 f   libvcruntime:undname.obj
 0001:00044db2       ?getDispatchTarget@UnDecorator@@CA?AVDName@@XZ 10045db2 f   libvcruntime:undname.obj
 0001:00044e05       ?getDisplacement@UnDecorator@@CA?AVDName@@XZ 10045e05 f i libvcruntime:undname.obj
 0001:00044e19       ?getECSUDataType@UnDecorator@@CA?AVDName@@XZ 10045e19 f   libvcruntime:undname.obj
 0001:00044fab       ?getECSUName@UnDecorator@@CA?AVDName@@XZ 10045fab f i libvcruntime:undname.obj
 0001:00044fbc       ?getEnumType@UnDecorator@@CA?AVDName@@XZ 10045fbc f i libvcruntime:undname.obj
 0001:000450d0       ?getExtendedDataIndirectType@UnDecorator@@CA?AVDName@@AAW4IndirectionKind@@AA_NH@Z 100460d0 f   libvcruntime:undname.obj
 0001:0004527b       ?getExternalDataType@UnDecorator@@CA?AVDName@@ABV2@@Z 1004627b f i libvcruntime:undname.obj
 0001:000452e0       ?getFloatingPoint@UnDecorator@@CA?AVDName@@H@Z 100462e0 f   libvcruntime:undname.obj
 0001:0004539e       ?getFunctionIndirectType@UnDecorator@@CA?AVDName@@ABV2@@Z 1004639e f   libvcruntime:undname.obj
 0001:00045748       ?getGuardNumber@UnDecorator@@CA?AVDName@@XZ 10046748 f i libvcruntime:undname.obj
 0001:0004575c       ?getLastChar@DName@@QBEDXZ 1004675c f i libvcruntime:undname.obj
 0001:0004577c       ?getLastChar@DNameStatusNode@@UBEDXZ 1004677c f i libvcruntime:undname.obj
 0001:00045788       ?getLastChar@charNode@@UBEDXZ 10046788 f i libvcruntime:undname.obj
 0001:0004578c       ?getLastChar@pDNameNode@@UBEDXZ 1004678c f i libvcruntime:undname.obj
 0001:0004579a       ?getLastChar@pairNode@@UBEDXZ 1004679a f i libvcruntime:undname.obj
 0001:000457cf       ?getLastChar@pcharNode@@UBEDXZ 100467cf f i libvcruntime:undname.obj
 0001:000457e1       ?getLexicalFrame@UnDecorator@@CA?AVDName@@XZ 100467e1 f i libvcruntime:undname.obj
 0001:00045812       ?getMemberAccess@UnDecorator@@CA?AVDName@@XZ 10046812 f   libvcruntime:undname.obj
 0001:00045882       ?getMemoryWithBuffer@_HeapManager@@QAEPAXI@Z 10046882 f   libvcruntime:undname.obj
 0001:000458ec       ?getMemoryWithoutBuffer@_HeapManager@@QAEPAXI@Z 100468ec f   libvcruntime:undname.obj
 0001:0004590c       ?getNoexcept@UnDecorator@@CA?AVDName@@XZ 1004690c f   libvcruntime:undname.obj
 0001:00045960       ?getNumberOfDimensions@UnDecorator@@CAHXZ 10046960 f   libvcruntime:undname.obj
 0001:000459c2       ?getOperatorName@UnDecorator@@CA?AVDName@@_NPA_N@Z 100469c2 f i libvcruntime:undname.obj
 0001:000462d8       ?getPointerToMember@UnDecorator@@CA?AVDName@@XZ 100472d8 f   libvcruntime:undname.obj
 0001:00046394       ?getPointerType@UnDecorator@@CA?AVDName@@ABV2@0@Z 10047394 f i libvcruntime:undname.obj
 0001:000463af       ?getPointerTypeArray@UnDecorator@@CA?AVDName@@ABV2@0@Z 100473af f i libvcruntime:undname.obj
 0001:000463ca       ?getPrimaryDataType@UnDecorator@@CA?AVDName@@ABV2@@Z 100473ca f   libvcruntime:undname.obj
 0001:00046618       ?getPtrRefDataType@UnDecorator@@CA?AVDName@@ABV2@H@Z 10047618 f   libvcruntime:undname.obj
 0001:00046785       ?getPtrRefType@UnDecorator@@CA?AVDName@@ABV2@0W4IndirectionKind@@@Z 10047785 f   libvcruntime:undname.obj
 0001:00046896       ?getReferenceType@UnDecorator@@CA?AVDName@@ABV2@0W4IndirectionKind@@@Z 10047896 f i libvcruntime:undname.obj
 0001:000468b2       ?getRestrictionSpec@UnDecorator@@CA?AVDName@@XZ 100478b2 f   libvcruntime:undname.obj
 0001:000469d7       ?getReturnType@UnDecorator@@CA?AVDName@@PAV2@@Z 100479d7 f   libvcruntime:undname.obj
 0001:00046a06       ?getScope@UnDecorator@@CA?AVDName@@XZ 10047a06 f   libvcruntime:undname.obj
 0001:00046dc4       ?getScopedName@UnDecorator@@CA?AVDName@@XZ 10047dc4 f   libvcruntime:undname.obj
 0001:00046eb7       ?getSignedDimension@UnDecorator@@CA?AVDName@@XZ 10047eb7 f   libvcruntime:undname.obj
 0001:00046f08       ?getStorageConvention@UnDecorator@@CA?AVDName@@XZ 10047f08 f i libvcruntime:undname.obj
 0001:00046f19       ?getString@DName@@QBEPADPAD0@Z 10047f19 f i libvcruntime:undname.obj
 0001:00046f46       ?getString@DName@@QBEPADPADH@Z 10047f46 f i libvcruntime:undname.obj
 0001:00046f9b       ?getString@DNameStatusNode@@UBEPADPAD0@Z 10047f9b f i libvcruntime:undname.obj
 0001:00046fe2       ?getString@charNode@@UBEPADPAD0@Z 10047fe2 f i libvcruntime:undname.obj
 0001:00046ff7       ?getString@pDNameNode@@UBEPADPAD0@Z 10047ff7 f i libvcruntime:undname.obj
 0001:0004700e       ?getString@pairNode@@UBEPADPAD0@Z 1004800e f i libvcruntime:undname.obj
 0001:00047054       ?getString@pcharNode@@UBEPADPAD0@Z 10048054 f i libvcruntime:undname.obj
 0001:0004706f       ?getStringEncoding@UnDecorator@@CA?AVDName@@W4PrefixKind@@H@Z 1004806f f   libvcruntime:undname.obj
 0001:0004710c       ?getStringHelper@@YAPADPADPBD1H@Z 1004810c f i libvcruntime:undname.obj
 0001:00047136       ?getStringObject@UnDecorator@@CA?AVDName@@XZ 10048136 f   libvcruntime:undname.obj
 0001:00047181       ?getSymbolName@UnDecorator@@CA?AVDName@@XZ 10048181 f i libvcruntime:undname.obj
 0001:000471c9       ?getTemplateArgumentList@UnDecorator@@CA?AVDName@@XZ 100481c9 f   libvcruntime:undname.obj
 0001:00047379       ?getTemplateName@UnDecorator@@CA?AVDName@@_N@Z 10048379 f   libvcruntime:undname.obj
 0001:000474d9       ?getTemplateNonTypeArgument@UnDecorator@@CA?AVDName@@XZ 100484d9 f   libvcruntime:undname.obj
 0001:000478b1       ?getTemplateTypeArgument@UnDecorator@@CA?AVDName@@XZ 100488b1 f   libvcruntime:undname.obj
 0001:000479c2       ?getThisType@UnDecorator@@CA?AVDName@@XZ 100489c2 f i libvcruntime:undname.obj
 0001:000479f1       ?getThrowTypes@UnDecorator@@CA?AVDName@@XZ 100489f1 f   libvcruntime:undname.obj
 0001:00047a14       ?getTypeEncoding@UnDecorator@@CAHXZ 10048a14 f i libvcruntime:undname.obj
 0001:00047d4c       ?getUndecoratedName@UnDecorator@@QAEPADPADH@Z 10048d4c f i libvcruntime:undname.obj
 0001:00047e6b       ?getUnionObject@UnDecorator@@CA?AVDName@@XZ 10048e6b f   libvcruntime:undname.obj
 0001:00047f12       ?getVCallThunkType@UnDecorator@@CA?AVDName@@XZ 10048f12 f i libvcruntime:undname.obj
 0001:00047f5c       ?getValue@UnDecorator@@CA?AV?$optional@_K@std@@XZ 10048f5c f   libvcruntime:undname.obj
 0001:00047fe4       ?getValueObject@UnDecorator@@CA?AVDName@@XZ 10048fe4 f   libvcruntime:undname.obj
 0001:000480de       ?getVbTableType@UnDecorator@@CA?AVDName@@ABV2@@Z 100490de f i libvcruntime:undname.obj
 0001:000480f3       ?getVdispMapType@UnDecorator@@CA?AVDName@@ABV2@@Z 100490f3 f i libvcruntime:undname.obj
 0001:00048154       ?getVfTableType@UnDecorator@@CA?AVDName@@ABV2@@Z 10049154 f i libvcruntime:undname.obj
 0001:000482a8       ?getZName@UnDecorator@@CA?AVDName@@_N0@Z 100492a8 f   libvcruntime:undname.obj
 0001:000484c6       ?haveTemplateParameters@UnDecorator@@SAHXZ 100494c6 f i libvcruntime:undname.obj
 0001:000484d1       ?isArray@DName@@QBEHXZ     100494d1 f i libvcruntime:undname.obj
 0001:000484db       ?isComArray@DName@@QBEHXZ  100494db f i libvcruntime:undname.obj
 0001:000484e5       ?isEmpty@DName@@QBEHXZ     100494e5 f i libvcruntime:undname.obj
 0001:000484ed       ?isFull@Replicator@@QBEHXZ 100494ed f i libvcruntime:undname.obj
 0001:000484f6       ?isNoTE@DName@@QBEHXZ      100494f6 f i libvcruntime:undname.obj
 0001:00048500       ?isPinPtr@DName@@QBEHXZ    10049500 f i libvcruntime:undname.obj
 0001:0004850a       ?isPtrRef@DName@@QBEHXZ    1004950a f i libvcruntime:undname.obj
 0001:00048514       ?isUDC@DName@@QBEHXZ       10049514 f i libvcruntime:undname.obj
 0001:00048525       ?isUDTThunk@DName@@QBEHXZ  10049525 f i libvcruntime:undname.obj
 0001:00048536       ?isVCallThunk@DName@@QBEHXZ 10049536 f i libvcruntime:undname.obj
 0001:00048540       ?isValid@DName@@QBEHXZ     10049540 f i libvcruntime:undname.obj
 0001:0004854a       ?length@DName@@QBEHXZ      1004954a f i libvcruntime:undname.obj
 0001:00048569       ?length@DNameStatusNode@@UBEHXZ 10049569 f i libvcruntime:undname.obj
 0001:0004856d       ?length@charNode@@UBEHXZ   1004956d f i libvcruntime:undname.obj
 0001:00048571       ?length@pDNameNode@@UBEHXZ 10049571 f i libvcruntime:undname.obj
 0001:0004857f       ?length@pairNode@@UBEHXZ   1004957f f i libvcruntime:undname.obj
 0001:000485c8       ?length@pcharNode@@UBEHXZ  100495c8 f i libvcruntime:undname.obj
 0001:000485cc       ?make@DNameStatusNode@@SAPBV1@W4DNameStatus@@@Z 100495cc f i libvcruntime:undname.obj
 0001:000485e8       ?parseDecoratedName@UnDecorator@@CA?AVDName@@XZ 100495e8 f   libvcruntime:undname.obj
 0001:000486e2       ?raw_length@DNameStatusNode@@UBEHXZ 100496e2 f i libvcruntime:undname.obj
 0001:000486e6       ?raw_length@charNode@@UBEHXZ 100496e6 f i libvcruntime:undname.obj
 0001:000486ea       ?raw_length@pDNameNode@@UBEHXZ 100496ea f i libvcruntime:undname.obj
 0001:000486ee       ?raw_length@pairNode@@UBEHXZ 100496ee f i libvcruntime:undname.obj
 0001:000486f2       ?raw_length@pcharNode@@UBEHXZ 100496f2 f i libvcruntime:undname.obj
 0001:000486f6       ?setIsArray@DName@@QAEXXZ  100496f6 f i libvcruntime:undname.obj
 0001:000486fe       ?setIsComArray@DName@@QAEXXZ 100496fe f i libvcruntime:undname.obj
 0001:00048706       ?setIsNoTE@DName@@QAEXXZ   10049706 f i libvcruntime:undname.obj
 0001:0004870e       ?setIsPinPtr@DName@@QAEXXZ 1004970e f i libvcruntime:undname.obj
 0001:00048716       ?setIsUDC@DName@@QAEXXZ    10049716 f i libvcruntime:undname.obj
 0001:00048723       ?setIsVCallThunk@DName@@QAEXXZ 10049723 f i libvcruntime:undname.obj
 0001:0004872b       ?setPtrRef@DName@@QAEAAV1@XZ 1004972b f i libvcruntime:undname.obj
 0001:00048735       ?status@DName@@QBE?AW4DNameStatus@@XZ 10049735 f i libvcruntime:undname.obj
 0001:000487a1       ___unDName                 100497a1 f   libvcruntime:undname.obj
 0001:000487c4       ___unDNameEx               100497c4 f   libvcruntime:undname.obj
 0001:00048863       _snprintf                  10049863 f i libvcruntime:undname.obj
 0001:0004887d       _unDNameGenerateCHPE       1004987d f   libvcruntime:undname.obj
 0001:0004891a       _vsnprintf                 1004991a f i libvcruntime:undname.obj
 0001:0004894a       ___vcrt_initialize_locks   1004994a f   libvcruntime:locks.obj
 0001:00048986       ___vcrt_lock               10049986 f   libvcruntime:locks.obj
 0001:0004899b       ___vcrt_uninitialize_locks 1004999b f   libvcruntime:locks.obj
 0001:000489ca       ___vcrt_unlock             100499ca f   libvcruntime:locks.obj
 0001:000489df       ??$__crt_interlocked_exchange_pointer@UHINSTANCE__@@PAU1@@@YAPAUHINSTANCE__@@PDSAU0@QAU0@@Z 100499df f i libvcruntime:winapi_downlevel.obj
 0001:000489ec       ??$__crt_interlocked_exchange_pointer@UHINSTANCE__@@PAX@@YAPAUHINSTANCE__@@PDSAU0@QAX@Z 100499ec f i libvcruntime:winapi_downlevel.obj
 0001:000489f9       ??$__crt_interlocked_exchange_pointer@XPAX@@YAPAXPDSAXQAX@Z 100499f9 f i libvcruntime:winapi_downlevel.obj
 0001:00048a06       ??$__crt_interlocked_read_pointer@UHINSTANCE__@@@@YAPAUHINSTANCE__@@PDSAU0@@Z 10049a06 f i libvcruntime:winapi_downlevel.obj
 0001:00048a11       ??$__crt_interlocked_read_pointer@X@@YAPAXPDSAX@Z 10049a11 f i libvcruntime:winapi_downlevel.obj
 0001:00048c9d       ___vcrt_FlsAlloc           10049c9d f   libvcruntime:winapi_downlevel.obj
 0001:00048cd8       ___vcrt_FlsFree            10049cd8 f   libvcruntime:winapi_downlevel.obj
 0001:00048d13       ___vcrt_FlsGetValue        10049d13 f   libvcruntime:winapi_downlevel.obj
 0001:00048d4e       ___vcrt_FlsSetValue        10049d4e f   libvcruntime:winapi_downlevel.obj
 0001:00048d8c       ___vcrt_InitializeCriticalSectionEx 10049d8c f   libvcruntime:winapi_downlevel.obj
 0001:00048de7       __get_unexpected           10049de7 f   libvcruntime:unexpected.obj
 0001:00048df9       _set_unexpected            10049df9 f   libvcruntime:unexpected.obj
 0001:00048e17       _unexpected                10049e17 f   libvcruntime:unexpected.obj
 0001:00048e34       ?GetCurrentState@__FrameHandler3@@SAHPAUEHRegistrationNode@@PAXPBU_s_FuncInfo@@@Z 10049e34 f   libvcruntime:ehstate.obj
 0001:00048e51       ?SetState@__FrameHandler3@@SAXPAUEHRegistrationNode@@PBU_s_FuncInfo@@H@Z 10049e51 f   libvcruntime:ehstate.obj
 0001:00048e5f       ??$__crt_interlocked_exchange_pointer@$$A6AXXZP6AXXZ@@YAP6AXXZPDS6AXXZQ6AXXZ@Z 10049e5f f i libvcruntime:purevirt.obj
 0001:00048e6c       ??$__crt_interlocked_read_pointer@$$A6AXXZ@@YAP6AXXZPDS6AXXZ@Z 10049e6c f i libvcruntime:purevirt.obj
 0001:00048e77       __get_purecall_handler     10049e77 f   libvcruntime:purevirt.obj
 0001:00048e7e       __purecall                 10049e7e f   libvcruntime:purevirt.obj
 0001:00048e9a       __set_purecall_handler     10049e9a f   libvcruntime:purevirt.obj
 0001:00048ea9       _malloc                    10049ea9 f   libucrt:malloc.obj
 0001:00048eb4       _labs                      10049eb4 f   libucrt:labs.obj
 0001:00048ec3       ??$__crt_fast_decode_pointer@P6AXPB_W00II@Z@@YAP6AXPB_W00II@ZQ6AX000II@Z@Z 10049ec3 f i libucrt:invalid_parameter.obj
 0001:00048ed9       ??$__crt_fast_encode_pointer@P6AXPB_W00II@Z@@YAP6AXPB_W00II@ZQ6AX000II@Z@Z 10049ed9 f i libucrt:invalid_parameter.obj
 0001:00048ef8       ??$initialize_from_array@$$BY00Q6AXPB_W00II@Z@?$dual_state_global@P6AXPB_W00II@Z@__crt_state_management@@QAAXAAY00Q6AXPB_W00II@Z@Z 10049ef8 f i libucrt:invalid_parameter.obj
 0001:00048f09       ?__crt_rotate_pointer_value@@YAIIH@Z 10049f09 f i libucrt:invalid_parameter.obj
 0001:00048f18       ?dangerous_get_state_array@?$dual_state_global@P6AXPB_W00II@Z@__crt_state_management@@QAEPAP6AXPB_W00II@ZXZ 10049f18 f i libucrt:invalid_parameter.obj
 0001:00048f1b       ?get_current_state_index@__crt_state_management@@YAIXZ 10049f1b f i libucrt:invalid_parameter.obj
 0001:00048f1e       ?value@?$dual_state_global@P6AXPB_W00II@Z@__crt_state_management@@QAEAAP6AXPB_W00II@ZXZ 10049f1e f i libucrt:invalid_parameter.obj
 0001:00048f21       ___acrt_call_reportfault   10049f21 f   libucrt:invalid_parameter.obj
 0001:0004905a       ___acrt_initialize_invalid_parameter_handler 1004a05a f   libucrt:invalid_parameter.obj
 0001:00049069       __get_invalid_parameter_handler 1004a069 f   libucrt:invalid_parameter.obj
 0001:0004907c       __get_thread_local_invalid_parameter_handler 1004a07c f   libucrt:invalid_parameter.obj
 0001:0004908d       __invalid_parameter        1004a08d f   libucrt:invalid_parameter.obj
 0001:000490f1       __invalid_parameter_noinfo 1004a0f1 f   libucrt:invalid_parameter.obj
 0001:00049101       __invalid_parameter_noinfo_noreturn 1004a101 f   libucrt:invalid_parameter.obj
 0001:0004911e       __invoke_watson            1004a11e f   libucrt:invalid_parameter.obj
 0001:00049152       __set_invalid_parameter_handler 1004a152 f   libucrt:invalid_parameter.obj
 0001:00049182       __set_thread_local_invalid_parameter_handler 1004a182 f   libucrt:invalid_parameter.obj
 0001:0004919f       _free                      1004a19f f   libucrt:free.obj
 0001:000491c0       _sqrt                      1004a1c0 f   libucrt:sqrt.obj
 0001:000491ce       ??$?0ABV?$stream_output_adapter@D@__crt_stdio_output@@AB_KABQBDABQAU__crt_locale_pointers@@ABQAD@?$format_validation_base@DV?$stream_output_adapter@D@__crt_stdio_output@@@__crt_stdio_output@@IAE@ABV?$stream_output_adapter@D@1@AB_KABQBDABQAU__crt_locale_pointers@@ABQAD@Z 1004a1ce f i libucrt:output.obj
 0001:000491f1       ??$?0ABV?$stream_output_adapter@D@__crt_stdio_output@@AB_KABQBDABQAU__crt_locale_pointers@@ABQAD@?$positional_parameter_base@DV?$stream_output_adapter@D@__crt_stdio_output@@@__crt_stdio_output@@IAE@ABV?$stream_output_adapter@D@1@AB_KABQBDABQAU__crt_locale_pointers@@ABQAD@Z 1004a1f1 f i libucrt:output.obj
 0001:00049239       ??$?0ABV?$stream_output_adapter@D@__crt_stdio_output@@AB_KABQBDABQAU__crt_locale_pointers@@ABQAD@?$standard_base@DV?$stream_output_adapter@D@__crt_stdio_output@@@__crt_stdio_output@@IAE@ABV?$stream_output_adapter@D@1@AB_KABQBDABQAU__crt_locale_pointers@@ABQAD@Z 1004a239 f i libucrt:output.obj
 0001:0004926e       ??$?0ABV?$stream_output_adapter@_W@__crt_stdio_output@@AB_KABQB_WABQAU__crt_locale_pointers@@ABQAD@?$format_validation_base@_WV?$stream_output_adapter@_W@__crt_stdio_output@@@__crt_stdio_output@@IAE@ABV?$stream_output_adapter@_W@1@AB_KABQB_WABQAU__crt_locale_pointers@@ABQAD@Z 1004a26e f i libucrt:output.obj
 0001:00049291       ??$?0ABV?$stream_output_adapter@_W@__crt_stdio_output@@AB_KABQB_WABQAU__crt_locale_pointers@@ABQAD@?$positional_parameter_base@_WV?$stream_output_adapter@_W@__crt_stdio_output@@@__crt_stdio_output@@IAE@ABV?$stream_output_adapter@_W@1@AB_KABQB_WABQAU__crt_locale_pointers@@ABQAD@Z 1004a291 f i libucrt:output.obj
 0001:000492d9       ??$?0ABV?$stream_output_adapter@_W@__crt_stdio_output@@AB_KABQB_WABQAU__crt_locale_pointers@@ABQAD@?$standard_base@_WV?$stream_output_adapter@_W@__crt_stdio_output@@@__crt_stdio_output@@IAE@ABV?$stream_output_adapter@_W@1@AB_KABQB_WABQAU__crt_locale_pointers@@ABQAD@Z 1004a2d9 f i libucrt:output.obj
 0001:0004930e       ??$?0ABV?$string_output_adapter@D@__crt_stdio_output@@AB_KABQBDABQAU__crt_locale_pointers@@ABQAD@?$format_validation_base@DV?$string_output_adapter@D@__crt_stdio_output@@@__crt_stdio_output@@IAE@ABV?$string_output_adapter@D@1@AB_KABQBDABQAU__crt_locale_pointers@@ABQAD@Z 1004a30e f i libucrt:output.obj
 0001:00049331       ??$?0ABV?$string_output_adapter@D@__crt_stdio_output@@AB_KABQBDABQAU__crt_locale_pointers@@ABQAD@?$positional_parameter_base@DV?$string_output_adapter@D@__crt_stdio_output@@@__crt_stdio_output@@IAE@ABV?$string_output_adapter@D@1@AB_KABQBDABQAU__crt_locale_pointers@@ABQAD@Z 1004a331 f i libucrt:output.obj
 0001:00049379       ??$?0ABV?$string_output_adapter@D@__crt_stdio_output@@AB_KABQBDABQAU__crt_locale_pointers@@ABQAD@?$standard_base@DV?$string_output_adapter@D@__crt_stdio_output@@@__crt_stdio_output@@IAE@ABV?$string_output_adapter@D@1@AB_KABQBDABQAU__crt_locale_pointers@@ABQAD@Z 1004a379 f i libucrt:output.obj
 0001:000493ae       ??$?0ABV?$string_output_adapter@_W@__crt_stdio_output@@AB_KABQB_WABQAU__crt_locale_pointers@@ABQAD@?$format_validation_base@_WV?$string_output_adapter@_W@__crt_stdio_output@@@__crt_stdio_output@@IAE@ABV?$string_output_adapter@_W@1@AB_KABQB_WABQAU__crt_locale_pointers@@ABQAD@Z 1004a3ae f i libucrt:output.obj
 0001:000493d1       ??$?0ABV?$string_output_adapter@_W@__crt_stdio_output@@AB_KABQB_WABQAU__crt_locale_pointers@@ABQAD@?$positional_parameter_base@_WV?$string_output_adapter@_W@__crt_stdio_output@@@__crt_stdio_output@@IAE@ABV?$string_output_adapter@_W@1@AB_KABQB_WABQAU__crt_locale_pointers@@ABQAD@Z 1004a3d1 f i libucrt:output.obj
 0001:00049419       ??$?0ABV?$string_output_adapter@_W@__crt_stdio_output@@AB_KABQB_WABQAU__crt_locale_pointers@@ABQAD@?$standard_base@_WV?$string_output_adapter@_W@__crt_stdio_output@@@__crt_stdio_output@@IAE@ABV?$string_output_adapter@_W@1@AB_KABQB_WABQAU__crt_locale_pointers@@ABQAD@Z 1004a419 f i libucrt:output.obj
 0001:00049754       ??$__crt_interlocked_read@J@@YAJPDJ@Z 1004a754 f i libucrt:output.obj
 0001:0004a620       ??$count@D@formatting_buffer@__crt_stdio_output@@QBEIXZ 1004b620 f i libucrt:output.obj
 0001:0004a638       ??$count@_W@formatting_buffer@__crt_stdio_output@@QBEIXZ 1004b638 f i libucrt:output.obj
 0001:0004a651       ??$data@D@formatting_buffer@__crt_stdio_output@@QAEPADXZ 1004b651 f i libucrt:output.obj
 0001:0004a65e       ??$data@_W@formatting_buffer@__crt_stdio_output@@QAEPA_WXZ 1004b65e f i libucrt:output.obj
 0001:0004a66b       ??$ensure_buffer_is_big_enough@D@formatting_buffer@__crt_stdio_output@@QAE_NI@Z 1004b66b f i libucrt:output.obj
 0001:0004a6e8       ??$ensure_buffer_is_big_enough@_W@formatting_buffer@__crt_stdio_output@@QAE_NI@Z 1004b6e8 f i libucrt:output.obj
 0001:0004a766       ??$extract_argument_from_va_list@C_J@?$positional_parameter_base@DV?$stream_output_adapter@D@__crt_stdio_output@@@__crt_stdio_output@@IAE_NAA_J@Z 1004b766 f i libucrt:output.obj
 0001:0004a7df       ??$extract_argument_from_va_list@C_J@?$positional_parameter_base@DV?$string_output_adapter@D@__crt_stdio_output@@@__crt_stdio_output@@IAE_NAA_J@Z 1004b7df f i libucrt:output.obj
 0001:0004a858       ??$extract_argument_from_va_list@C_J@?$positional_parameter_base@_WV?$stream_output_adapter@_W@__crt_stdio_output@@@__crt_stdio_output@@IAE_NAA_J@Z 1004b858 f i libucrt:output.obj
 0001:0004a8d1       ??$extract_argument_from_va_list@C_J@?$positional_parameter_base@_WV?$string_output_adapter@_W@__crt_stdio_output@@@__crt_stdio_output@@IAE_NAA_J@Z 1004b8d1 f i libucrt:output.obj
 0001:0004a94a       ??$extract_argument_from_va_list@C_J@?$standard_base@DV?$stream_output_adapter@D@__crt_stdio_output@@@__crt_stdio_output@@IAE_NAA_J@Z 1004b94a f i libucrt:output.obj
 0001:0004a969       ??$extract_argument_from_va_list@C_J@?$standard_base@DV?$string_output_adapter@D@__crt_stdio_output@@@__crt_stdio_output@@IAE_NAA_J@Z 1004b969 f i libucrt:output.obj
 0001:0004a988       ??$extract_argument_from_va_list@C_J@?$standard_base@_WV?$stream_output_adapter@_W@__crt_stdio_output@@@__crt_stdio_output@@IAE_NAA_J@Z 1004b988 f i libucrt:output.obj
 0001:0004a9a7       ??$extract_argument_from_va_list@C_J@?$standard_base@_WV?$string_output_adapter@_W@__crt_stdio_output@@@__crt_stdio_output@@IAE_NAA_J@Z 1004b9a7 f i libucrt:output.obj
 0001:0004a9c6       ??$extract_argument_from_va_list@E_J@?$positional_parameter_base@DV?$stream_output_adapter@D@__crt_stdio_output@@@__crt_stdio_output@@IAE_NAA_J@Z 1004b9c6 f i libucrt:output.obj
 0001:0004aa3f       ??$extract_argument_from_va_list@E_J@?$positional_parameter_base@DV?$string_output_adapter@D@__crt_stdio_output@@@__crt_stdio_output@@IAE_NAA_J@Z 1004ba3f f i libucrt:output.obj
 0001:0004aab8       ??$extract_argument_from_va_list@E_J@?$positional_parameter_base@_WV?$stream_output_adapter@_W@__crt_stdio_output@@@__crt_stdio_output@@IAE_NAA_J@Z 1004bab8 f i libucrt:output.obj
 0001:0004ab31       ??$extract_argument_from_va_list@E_J@?$positional_parameter_base@_WV?$string_output_adapter@_W@__crt_stdio_output@@@__crt_stdio_output@@IAE_NAA_J@Z 1004bb31 f i libucrt:output.obj
 0001:0004abaa       ??$extract_argument_from_va_list@E_J@?$standard_base@DV?$stream_output_adapter@D@__crt_stdio_output@@@__crt_stdio_output@@IAE_NAA_J@Z 1004bbaa f i libucrt:output.obj
 0001:0004abc9       ??$extract_argument_from_va_list@E_J@?$standard_base@DV?$string_output_adapter@D@__crt_stdio_output@@@__crt_stdio_output@@IAE_NAA_J@Z 1004bbc9 f i libucrt:output.obj
 0001:0004abe8       ??$extract_argument_from_va_list@E_J@?$standard_base@_WV?$stream_output_adapter@_W@__crt_stdio_output@@@__crt_stdio_output@@IAE_NAA_J@Z 1004bbe8 f i libucrt:output.obj
 0001:0004ac07       ??$extract_argument_from_va_list@E_J@?$standard_base@_WV?$string_output_adapter@_W@__crt_stdio_output@@@__crt_stdio_output@@IAE_NAA_J@Z 1004bc07 f i libucrt:output.obj
 0001:0004ac26       ??$extract_argument_from_va_list@F_J@?$positional_parameter_base@DV?$stream_output_adapter@D@__crt_stdio_output@@@__crt_stdio_output@@IAE_NAA_J@Z 1004bc26 f i libucrt:output.obj
 0001:0004ac9f       ??$extract_argument_from_va_list@F_J@?$positional_parameter_base@DV?$string_output_adapter@D@__crt_stdio_output@@@__crt_stdio_output@@IAE_NAA_J@Z 1004bc9f f i libucrt:output.obj
 0001:0004ad18       ??$extract_argument_from_va_list@F_J@?$positional_parameter_base@_WV?$stream_output_adapter@_W@__crt_stdio_output@@@__crt_stdio_output@@IAE_NAA_J@Z 1004bd18 f i libucrt:output.obj
 0001:0004ad91       ??$extract_argument_from_va_list@F_J@?$positional_parameter_base@_WV?$string_output_adapter@_W@__crt_stdio_output@@@__crt_stdio_output@@IAE_NAA_J@Z 1004bd91 f i libucrt:output.obj
 0001:0004ae0a       ??$extract_argument_from_va_list@F_J@?$standard_base@DV?$stream_output_adapter@D@__crt_stdio_output@@@__crt_stdio_output@@IAE_NAA_J@Z 1004be0a f i libucrt:output.obj
 0001:0004ae29       ??$extract_argument_from_va_list@F_J@?$standard_base@DV?$string_output_adapter@D@__crt_stdio_output@@@__crt_stdio_output@@IAE_NAA_J@Z 1004be29 f i libucrt:output.obj
 0001:0004ae48       ??$extract_argument_from_va_list@F_J@?$standard_base@_WV?$stream_output_adapter@_W@__crt_stdio_output@@@__crt_stdio_output@@IAE_NAA_J@Z 1004be48 f i libucrt:output.obj
 0001:0004ae67       ??$extract_argument_from_va_list@F_J@?$standard_base@_WV?$string_output_adapter@_W@__crt_stdio_output@@@__crt_stdio_output@@IAE_NAA_J@Z 1004be67 f i libucrt:output.obj
 0001:0004ae86       ??$extract_argument_from_va_list@GD@?$positional_parameter_base@DV?$stream_output_adapter@D@__crt_stdio_output@@@__crt_stdio_output@@IAE_NAAD@Z 1004be86 f i libucrt:output.obj
 0001:0004aefe       ??$extract_argument_from_va_list@GD@?$positional_parameter_base@DV?$string_output_adapter@D@__crt_stdio_output@@@__crt_stdio_output@@IAE_NAAD@Z 1004befe f i libucrt:output.obj
 0001:0004af76       ??$extract_argument_from_va_list@GD@?$standard_base@DV?$stream_output_adapter@D@__crt_stdio_output@@@__crt_stdio_output@@IAE_NAAD@Z 1004bf76 f i libucrt:output.obj
 0001:0004af90       ??$extract_argument_from_va_list@GD@?$standard_base@DV?$string_output_adapter@D@__crt_stdio_output@@@__crt_stdio_output@@IAE_NAAD@Z 1004bf90 f i libucrt:output.obj
 0001:0004afaa       ??$extract_argument_from_va_list@G_J@?$positional_parameter_base@DV?$stream_output_adapter@D@__crt_stdio_output@@@__crt_stdio_output@@IAE_NAA_J@Z 1004bfaa f i libucrt:output.obj
 0001:0004b023       ??$extract_argument_from_va_list@G_J@?$positional_parameter_base@DV?$string_output_adapter@D@__crt_stdio_output@@@__crt_stdio_output@@IAE_NAA_J@Z 1004c023 f i libucrt:output.obj
 0001:0004b09c       ??$extract_argument_from_va_list@G_J@?$positional_parameter_base@_WV?$stream_output_adapter@_W@__crt_stdio_output@@@__crt_stdio_output@@IAE_NAA_J@Z 1004c09c f i libucrt:output.obj
 0001:0004b115       ??$extract_argument_from_va_list@G_J@?$positional_parameter_base@_WV?$string_output_adapter@_W@__crt_stdio_output@@@__crt_stdio_output@@IAE_NAA_J@Z 1004c115 f i libucrt:output.obj
 0001:0004b18e       ??$extract_argument_from_va_list@G_J@?$standard_base@DV?$stream_output_adapter@D@__crt_stdio_output@@@__crt_stdio_output@@IAE_NAA_J@Z 1004c18e f i libucrt:output.obj
 0001:0004b1ad       ??$extract_argument_from_va_list@G_J@?$standard_base@DV?$string_output_adapter@D@__crt_stdio_output@@@__crt_stdio_output@@IAE_NAA_J@Z 1004c1ad f i libucrt:output.obj
 0001:0004b1cc       ??$extract_argument_from_va_list@G_J@?$standard_base@_WV?$stream_output_adapter@_W@__crt_stdio_output@@@__crt_stdio_output@@IAE_NAA_J@Z 1004c1cc f i libucrt:output.obj
 0001:0004b1eb       ??$extract_argument_from_va_list@G_J@?$standard_base@_WV?$string_output_adapter@_W@__crt_stdio_output@@@__crt_stdio_output@@IAE_NAA_J@Z 1004c1eb f i libucrt:output.obj
 0001:0004b20a       ??$extract_argument_from_va_list@H_J@?$positional_parameter_base@DV?$stream_output_adapter@D@__crt_stdio_output@@@__crt_stdio_output@@IAE_NAA_J@Z 1004c20a f i libucrt:output.obj
 0001:0004b281       ??$extract_argument_from_va_list@H_J@?$positional_parameter_base@DV?$string_output_adapter@D@__crt_stdio_output@@@__crt_stdio_output@@IAE_NAA_J@Z 1004c281 f i libucrt:output.obj
 0001:0004b2f8       ??$extract_argument_from_va_list@H_J@?$positional_parameter_base@_WV?$stream_output_adapter@_W@__crt_stdio_output@@@__crt_stdio_output@@IAE_NAA_J@Z 1004c2f8 f i libucrt:output.obj
 0001:0004b36f       ??$extract_argument_from_va_list@H_J@?$positional_parameter_base@_WV?$string_output_adapter@_W@__crt_stdio_output@@@__crt_stdio_output@@IAE_NAA_J@Z 1004c36f f i libucrt:output.obj
 0001:0004b3e6       ??$extract_argument_from_va_list@H_J@?$standard_base@DV?$stream_output_adapter@D@__crt_stdio_output@@@__crt_stdio_output@@IAE_NAA_J@Z 1004c3e6 f i libucrt:output.obj
 0001:0004b404       ??$extract_argument_from_va_list@H_J@?$standard_base@DV?$string_output_adapter@D@__crt_stdio_output@@@__crt_stdio_output@@IAE_NAA_J@Z 1004c404 f i libucrt:output.obj
 0001:0004b422       ??$extract_argument_from_va_list@H_J@?$standard_base@_WV?$stream_output_adapter@_W@__crt_stdio_output@@@__crt_stdio_output@@IAE_NAA_J@Z 1004c422 f i libucrt:output.obj
 0001:0004b440       ??$extract_argument_from_va_list@H_J@?$standard_base@_WV?$string_output_adapter@_W@__crt_stdio_output@@@__crt_stdio_output@@IAE_NAA_J@Z 1004c440 f i libucrt:output.obj
 0001:0004b45e       ??$extract_argument_from_va_list@I_J@?$positional_parameter_base@DV?$stream_output_adapter@D@__crt_stdio_output@@@__crt_stdio_output@@IAE_NAA_J@Z 1004c45e f i libucrt:output.obj
 0001:0004b4de       ??$extract_argument_from_va_list@I_J@?$positional_parameter_base@DV?$string_output_adapter@D@__crt_stdio_output@@@__crt_stdio_output@@IAE_NAA_J@Z 1004c4de f i libucrt:output.obj
 0001:0004b55e       ??$extract_argument_from_va_list@I_J@?$positional_parameter_base@_WV?$stream_output_adapter@_W@__crt_stdio_output@@@__crt_stdio_output@@IAE_NAA_J@Z 1004c55e f i libucrt:output.obj
 0001:0004b5de       ??$extract_argument_from_va_list@I_J@?$positional_parameter_base@_WV?$string_output_adapter@_W@__crt_stdio_output@@@__crt_stdio_output@@IAE_NAA_J@Z 1004c5de f i libucrt:output.obj
 0001:0004b65e       ??$extract_argument_from_va_list@I_J@?$standard_base@DV?$stream_output_adapter@D@__crt_stdio_output@@@__crt_stdio_output@@IAE_NAA_J@Z 1004c65e f i libucrt:output.obj
 0001:0004b67c       ??$extract_argument_from_va_list@I_J@?$standard_base@DV?$string_output_adapter@D@__crt_stdio_output@@@__crt_stdio_output@@IAE_NAA_J@Z 1004c67c f i libucrt:output.obj
 0001:0004b69a       ??$extract_argument_from_va_list@I_J@?$standard_base@_WV?$stream_output_adapter@_W@__crt_stdio_output@@@__crt_stdio_output@@IAE_NAA_J@Z 1004c69a f i libucrt:output.obj
 0001:0004b6b8       ??$extract_argument_from_va_list@I_J@?$standard_base@_WV?$string_output_adapter@_W@__crt_stdio_output@@@__crt_stdio_output@@IAE_NAA_J@Z 1004c6b8 f i libucrt:output.obj
 0001:0004b6d6       ??$extract_argument_from_va_list@PADPAD@?$positional_parameter_base@DV?$stream_output_adapter@D@__crt_stdio_output@@@__crt_stdio_output@@IAE_NAAPAD@Z 1004c6d6 f i libucrt:output.obj
 0001:0004b74e       ??$extract_argument_from_va_list@PADPAD@?$positional_parameter_base@DV?$string_output_adapter@D@__crt_stdio_output@@@__crt_stdio_output@@IAE_NAAPAD@Z 1004c74e f i libucrt:output.obj
 0001:0004b7c6       ??$extract_argument_from_va_list@PADPAD@?$positional_parameter_base@_WV?$stream_output_adapter@_W@__crt_stdio_output@@@__crt_stdio_output@@IAE_NAAPAD@Z 1004c7c6 f i libucrt:output.obj
 0001:0004b83e       ??$extract_argument_from_va_list@PADPAD@?$positional_parameter_base@_WV?$string_output_adapter@_W@__crt_stdio_output@@@__crt_stdio_output@@IAE_NAAPAD@Z 1004c83e f i libucrt:output.obj
 0001:0004b8b6       ??$extract_argument_from_va_list@PADPAD@?$standard_base@DV?$stream_output_adapter@D@__crt_stdio_output@@@__crt_stdio_output@@IAE_NAAPAD@Z 1004c8b6 f i libucrt:output.obj
 0001:0004b8d0       ??$extract_argument_from_va_list@PADPAD@?$standard_base@DV?$string_output_adapter@D@__crt_stdio_output@@@__crt_stdio_output@@IAE_NAAPAD@Z 1004c8d0 f i libucrt:output.obj
 0001:0004b8ea       ??$extract_argument_from_va_list@PADPAD@?$standard_base@_WV?$stream_output_adapter@_W@__crt_stdio_output@@@__crt_stdio_output@@IAE_NAAPAD@Z 1004c8ea f i libucrt:output.obj
 0001:0004b904       ??$extract_argument_from_va_list@PADPAD@?$standard_base@_WV?$string_output_adapter@_W@__crt_stdio_output@@@__crt_stdio_output@@IAE_NAAPAD@Z 1004c904 f i libucrt:output.obj
 0001:0004b91e       ??$extract_argument_from_va_list@PAUansi_string@?1??type_case_Z@?$output_processor@DV?$stream_output_adapter@D@__crt_stdio_output@@V?$format_validation_base@DV?$stream_output_adapter@D@__crt_stdio_output@@@2@@__crt_stdio_output@@AAE_NXZ@PAU1?1??234@AAE_NXZ@@?$standard_base@DV?$stream_output_adapter@D@__crt_stdio_output@@@__crt_stdio_output@@IAE_NAAPAUansi_string@?1??type_case_Z@?$output_processor@DV?$stream_output_adapter@D@__crt_stdio_output@@V?$format_validation_base@DV?$stream_output_adapter@D@__crt_stdio_output@@@2@@1@AAE_NXZ@@Z 1004c91e f i libucrt:output.obj
 0001:0004b938       ??$extract_argument_from_va_list@PAUansi_string@?1??type_case_Z@?$output_processor@DV?$stream_output_adapter@D@__crt_stdio_output@@V?$positional_parameter_base@DV?$stream_output_adapter@D@__crt_stdio_output@@@2@@__crt_stdio_output@@AAE_NXZ@PAU1?1??234@AAE_NXZ@@?$positional_parameter_base@DV?$stream_output_adapter@D@__crt_stdio_output@@@__crt_stdio_output@@IAE_NAAPAUansi_string@?1??type_case_Z@?$output_processor@DV?$stream_output_adapter@D@__crt_stdio_output@@V?$positional_parameter_base@DV?$stream_output_adapter@D@__crt_stdio_output@@@2@@1@AAE_NXZ@@Z 1004c938 f i libucrt:output.obj
 0001:0004b9b0       ??$extract_argument_from_va_list@PAUansi_string@?1??type_case_Z@?$output_processor@DV?$stream_output_adapter@D@__crt_stdio_output@@V?$positional_parameter_base@DV?$stream_output_adapter@D@__crt_stdio_output@@@2@@__crt_stdio_output@@AAE_NXZ@PAU1?1??234@AAE_NXZ@@?$standard_base@DV?$stream_output_adapter@D@__crt_stdio_output@@@__crt_stdio_output@@IAE_NAAPAUansi_string@?1??type_case_Z@?$output_processor@DV?$stream_output_adapter@D@__crt_stdio_output@@V?$positional_parameter_base@DV?$stream_output_adapter@D@__crt_stdio_output@@@2@@1@AAE_NXZ@@Z 1004c9b0 f i libucrt:output.obj
 0001:0004b9ca       ??$extract_argument_from_va_list@PAUansi_string@?1??type_case_Z@?$output_processor@DV?$stream_output_adapter@D@__crt_stdio_output@@V?$standard_base@DV?$stream_output_adapter@D@__crt_stdio_output@@@2@@__crt_stdio_output@@AAE_NXZ@PAU1?1??234@AAE_NXZ@@?$standard_base@DV?$stream_output_adapter@D@__crt_stdio_output@@@__crt_stdio_output@@IAE_NAAPAUansi_string@?1??type_case_Z@?$output_processor@DV?$stream_output_adapter@D@__crt_stdio_output@@V?$standard_base@DV?$stream_output_adapter@D@__crt_stdio_output@@@2@@1@AAE_NXZ@@Z 1004c9ca f i libucrt:output.obj
 0001:0004b9e4       ??$extract_argument_from_va_list@PAUansi_string@?1??type_case_Z@?$output_processor@DV?$string_output_adapter@D@__crt_stdio_output@@V?$format_validation_base@DV?$string_output_adapter@D@__crt_stdio_output@@@2@@__crt_stdio_output@@AAE_NXZ@PAU1?1??234@AAE_NXZ@@?$standard_base@DV?$string_output_adapter@D@__crt_stdio_output@@@__crt_stdio_output@@IAE_NAAPAUansi_string@?1??type_case_Z@?$output_processor@DV?$string_output_adapter@D@__crt_stdio_output@@V?$format_validation_base@DV?$string_output_adapter@D@__crt_stdio_output@@@2@@1@AAE_NXZ@@Z 1004c9e4 f i libucrt:output.obj
 0001:0004b9fe       ??$extract_argument_from_va_list@PAUansi_string@?1??type_case_Z@?$output_processor@DV?$string_output_adapter@D@__crt_stdio_output@@V?$positional_parameter_base@DV?$string_output_adapter@D@__crt_stdio_output@@@2@@__crt_stdio_output@@AAE_NXZ@PAU1?1??234@AAE_NXZ@@?$positional_parameter_base@DV?$string_output_adapter@D@__crt_stdio_output@@@__crt_stdio_output@@IAE_NAAPAUansi_string@?1??type_case_Z@?$output_processor@DV?$string_output_adapter@D@__crt_stdio_output@@V?$positional_parameter_base@DV?$string_output_adapter@D@__crt_stdio_output@@@2@@1@AAE_NXZ@@Z 1004c9fe f i libucrt:output.obj
 0001:0004ba76       ??$extract_argument_from_va_list@PAUansi_string@?1??type_case_Z@?$output_processor@DV?$string_output_adapter@D@__crt_stdio_output@@V?$positional_parameter_base@DV?$string_output_adapter@D@__crt_stdio_output@@@2@@__crt_stdio_output@@AAE_NXZ@PAU1?1??234@AAE_NXZ@@?$standard_base@DV?$string_output_adapter@D@__crt_stdio_output@@@__crt_stdio_output@@IAE_NAAPAUansi_string@?1??type_case_Z@?$output_processor@DV?$string_output_adapter@D@__crt_stdio_output@@V?$positional_parameter_base@DV?$string_output_adapter@D@__crt_stdio_output@@@2@@1@AAE_NXZ@@Z 1004ca76 f i libucrt:output.obj
 0001:0004ba90       ??$extract_argument_from_va_list@PAUansi_string@?1??type_case_Z@?$output_processor@DV?$string_output_adapter@D@__crt_stdio_output@@V?$standard_base@DV?$string_output_adapter@D@__crt_stdio_output@@@2@@__crt_stdio_output@@AAE_NXZ@PAU1?1??234@AAE_NXZ@@?$standard_base@DV?$string_output_adapter@D@__crt_stdio_output@@@__crt_stdio_output@@IAE_NAAPAUansi_string@?1??type_case_Z@?$output_processor@DV?$string_output_adapter@D@__crt_stdio_output@@V?$standard_base@DV?$string_output_adapter@D@__crt_stdio_output@@@2@@1@AAE_NXZ@@Z 1004ca90 f i libucrt:output.obj
 0001:0004baaa       ??$extract_argument_from_va_list@PAUansi_string@?1??type_case_Z@?$output_processor@_WV?$stream_output_adapter@_W@__crt_stdio_output@@V?$format_validation_base@_WV?$stream_output_adapter@_W@__crt_stdio_output@@@2@@__crt_stdio_output@@AAE_NXZ@PAU1?1??234@AAE_NXZ@@?$standard_base@_WV?$stream_output_adapter@_W@__crt_stdio_output@@@__crt_stdio_output@@IAE_NAAPAUansi_string@?1??type_case_Z@?$output_processor@_WV?$stream_output_adapter@_W@__crt_stdio_output@@V?$format_validation_base@_WV?$stream_output_adapter@_W@__crt_stdio_output@@@2@@1@AAE_NXZ@@Z 1004caaa f i libucrt:output.obj
 0001:0004bac4       ??$extract_argument_from_va_list@PAUansi_string@?1??type_case_Z@?$output_processor@_WV?$stream_output_adapter@_W@__crt_stdio_output@@V?$positional_parameter_base@_WV?$stream_output_adapter@_W@__crt_stdio_output@@@2@@__crt_stdio_output@@AAE_NXZ@PAU1?1??234@AAE_NXZ@@?$positional_parameter_base@_WV?$stream_output_adapter@_W@__crt_stdio_output@@@__crt_stdio_output@@IAE_NAAPAUansi_string@?1??type_case_Z@?$output_processor@_WV?$stream_output_adapter@_W@__crt_stdio_output@@V?$positional_parameter_base@_WV?$stream_output_adapter@_W@__crt_stdio_output@@@2@@1@AAE_NXZ@@Z 1004cac4 f i libucrt:output.obj
 0001:0004bb3c       ??$extract_argument_from_va_list@PAUansi_string@?1??type_case_Z@?$output_processor@_WV?$stream_output_adapter@_W@__crt_stdio_output@@V?$positional_parameter_base@_WV?$stream_output_adapter@_W@__crt_stdio_output@@@2@@__crt_stdio_output@@AAE_NXZ@PAU1?1??234@AAE_NXZ@@?$standard_base@_WV?$stream_output_adapter@_W@__crt_stdio_output@@@__crt_stdio_output@@IAE_NAAPAUansi_string@?1??type_case_Z@?$output_processor@_WV?$stream_output_adapter@_W@__crt_stdio_output@@V?$positional_parameter_base@_WV?$stream_output_adapter@_W@__crt_stdio_output@@@2@@1@AAE_NXZ@@Z 1004cb3c f i libucrt:output.obj
 0001:0004bb56       ??$extract_argument_from_va_list@PAUansi_string@?1??type_case_Z@?$output_processor@_WV?$stream_output_adapter@_W@__crt_stdio_output@@V?$standard_base@_WV?$stream_output_adapter@_W@__crt_stdio_output@@@2@@__crt_stdio_output@@AAE_NXZ@PAU1?1??234@AAE_NXZ@@?$standard_base@_WV?$stream_output_adapter@_W@__crt_stdio_output@@@__crt_stdio_output@@IAE_NAAPAUansi_string@?1??type_case_Z@?$output_processor@_WV?$stream_output_adapter@_W@__crt_stdio_output@@V?$standard_base@_WV?$stream_output_adapter@_W@__crt_stdio_output@@@2@@1@AAE_NXZ@@Z 1004cb56 f i libucrt:output.obj
 0001:0004bb70       ??$extract_argument_from_va_list@PAUansi_string@?1??type_case_Z@?$output_processor@_WV?$string_output_adapter@_W@__crt_stdio_output@@V?$format_validation_base@_WV?$string_output_adapter@_W@__crt_stdio_output@@@2@@__crt_stdio_output@@AAE_NXZ@PAU1?1??234@AAE_NXZ@@?$standard_base@_WV?$string_output_adapter@_W@__crt_stdio_output@@@__crt_stdio_output@@IAE_NAAPAUansi_string@?1??type_case_Z@?$output_processor@_WV?$string_output_adapter@_W@__crt_stdio_output@@V?$format_validation_base@_WV?$string_output_adapter@_W@__crt_stdio_output@@@2@@1@AAE_NXZ@@Z 1004cb70 f i libucrt:output.obj
 0001:0004bb8a       ??$extract_argument_from_va_list@PAUansi_string@?1??type_case_Z@?$output_processor@_WV?$string_output_adapter@_W@__crt_stdio_output@@V?$positional_parameter_base@_WV?$string_output_adapter@_W@__crt_stdio_output@@@2@@__crt_stdio_output@@AAE_NXZ@PAU1?1??234@AAE_NXZ@@?$positional_parameter_base@_WV?$string_output_adapter@_W@__crt_stdio_output@@@__crt_stdio_output@@IAE_NAAPAUansi_string@?1??type_case_Z@?$output_processor@_WV?$string_output_adapter@_W@__crt_stdio_output@@V?$positional_parameter_base@_WV?$string_output_adapter@_W@__crt_stdio_output@@@2@@1@AAE_NXZ@@Z 1004cb8a f i libucrt:output.obj
 0001:0004bc02       ??$extract_argument_from_va_list@PAUansi_string@?1??type_case_Z@?$output_processor@_WV?$string_output_adapter@_W@__crt_stdio_output@@V?$positional_parameter_base@_WV?$string_output_adapter@_W@__crt_stdio_output@@@2@@__crt_stdio_output@@AAE_NXZ@PAU1?1??234@AAE_NXZ@@?$standard_base@_WV?$string_output_adapter@_W@__crt_stdio_output@@@__crt_stdio_output@@IAE_NAAPAUansi_string@?1??type_case_Z@?$output_processor@_WV?$string_output_adapter@_W@__crt_stdio_output@@V?$positional_parameter_base@_WV?$string_output_adapter@_W@__crt_stdio_output@@@2@@1@AAE_NXZ@@Z 1004cc02 f i libucrt:output.obj
 0001:0004bc1c       ??$extract_argument_from_va_list@PAUansi_string@?1??type_case_Z@?$output_processor@_WV?$string_output_adapter@_W@__crt_stdio_output@@V?$standard_base@_WV?$string_output_adapter@_W@__crt_stdio_output@@@2@@__crt_stdio_output@@AAE_NXZ@PAU1?1??234@AAE_NXZ@@?$standard_base@_WV?$string_output_adapter@_W@__crt_stdio_output@@@__crt_stdio_output@@IAE_NAAPAUansi_string@?1??type_case_Z@?$output_processor@_WV?$string_output_adapter@_W@__crt_stdio_output@@V?$standard_base@_WV?$string_output_adapter@_W@__crt_stdio_output@@@2@@1@AAE_NXZ@@Z 1004cc1c f i libucrt:output.obj
 0001:0004bc36       ??$extract_argument_from_va_list@PAXPAX@?$positional_parameter_base@DV?$stream_output_adapter@D@__crt_stdio_output@@@__crt_stdio_output@@IAE_NAAPAX@Z 1004cc36 f i libucrt:output.obj
 0001:0004bcae       ??$extract_argument_from_va_list@PAXPAX@?$positional_parameter_base@DV?$string_output_adapter@D@__crt_stdio_output@@@__crt_stdio_output@@IAE_NAAPAX@Z 1004ccae f i libucrt:output.obj
 0001:0004bd26       ??$extract_argument_from_va_list@PAXPAX@?$positional_parameter_base@_WV?$stream_output_adapter@_W@__crt_stdio_output@@@__crt_stdio_output@@IAE_NAAPAX@Z 1004cd26 f i libucrt:output.obj
 0001:0004bd9e       ??$extract_argument_from_va_list@PAXPAX@?$positional_parameter_base@_WV?$string_output_adapter@_W@__crt_stdio_output@@@__crt_stdio_output@@IAE_NAAPAX@Z 1004cd9e f i libucrt:output.obj
 0001:0004be16       ??$extract_argument_from_va_list@PAXPAX@?$standard_base@DV?$stream_output_adapter@D@__crt_stdio_output@@@__crt_stdio_output@@IAE_NAAPAX@Z 1004ce16 f i libucrt:output.obj
 0001:0004be30       ??$extract_argument_from_va_list@PAXPAX@?$standard_base@DV?$string_output_adapter@D@__crt_stdio_output@@@__crt_stdio_output@@IAE_NAAPAX@Z 1004ce30 f i libucrt:output.obj
 0001:0004be4a       ??$extract_argument_from_va_list@PAXPAX@?$standard_base@_WV?$stream_output_adapter@_W@__crt_stdio_output@@@__crt_stdio_output@@IAE_NAAPAX@Z 1004ce4a f i libucrt:output.obj
 0001:0004be64       ??$extract_argument_from_va_list@PAXPAX@?$standard_base@_WV?$string_output_adapter@_W@__crt_stdio_output@@@__crt_stdio_output@@IAE_NAAPAX@Z 1004ce64 f i libucrt:output.obj
 0001:0004be7e       ??$extract_argument_from_va_list@U_CRT_DOUBLE@@U1@@?$positional_parameter_base@DV?$stream_output_adapter@D@__crt_stdio_output@@@__crt_stdio_output@@IAE_NAAU_CRT_DOUBLE@@@Z 1004ce7e f i libucrt:output.obj
 0001:0004bf04       ??$extract_argument_from_va_list@U_CRT_DOUBLE@@U1@@?$positional_parameter_base@DV?$string_output_adapter@D@__crt_stdio_output@@@__crt_stdio_output@@IAE_NAAU_CRT_DOUBLE@@@Z 1004cf04 f i libucrt:output.obj
 0001:0004bf8a       ??$extract_argument_from_va_list@U_CRT_DOUBLE@@U1@@?$positional_parameter_base@_WV?$stream_output_adapter@_W@__crt_stdio_output@@@__crt_stdio_output@@IAE_NAAU_CRT_DOUBLE@@@Z 1004cf8a f i libucrt:output.obj
 0001:0004c010       ??$extract_argument_from_va_list@U_CRT_DOUBLE@@U1@@?$positional_parameter_base@_WV?$string_output_adapter@_W@__crt_stdio_output@@@__crt_stdio_output@@IAE_NAAU_CRT_DOUBLE@@@Z 1004d010 f i libucrt:output.obj
 0001:0004c096       ??$extract_argument_from_va_list@U_CRT_DOUBLE@@U1@@?$standard_base@DV?$stream_output_adapter@D@__crt_stdio_output@@@__crt_stdio_output@@IAE_NAAU_CRT_DOUBLE@@@Z 1004d096 f i libucrt:output.obj
 0001:0004c0b6       ??$extract_argument_from_va_list@U_CRT_DOUBLE@@U1@@?$standard_base@DV?$string_output_adapter@D@__crt_stdio_output@@@__crt_stdio_output@@IAE_NAAU_CRT_DOUBLE@@@Z 1004d0b6 f i libucrt:output.obj
 0001:0004c0d6       ??$extract_argument_from_va_list@U_CRT_DOUBLE@@U1@@?$standard_base@_WV?$stream_output_adapter@_W@__crt_stdio_output@@@__crt_stdio_output@@IAE_NAAU_CRT_DOUBLE@@@Z 1004d0d6 f i libucrt:output.obj
 0001:0004c0f6       ??$extract_argument_from_va_list@U_CRT_DOUBLE@@U1@@?$standard_base@_WV?$string_output_adapter@_W@__crt_stdio_output@@@__crt_stdio_output@@IAE_NAAU_CRT_DOUBLE@@@Z 1004d0f6 f i libucrt:output.obj
 0001:0004c116       ??$extract_argument_from_va_list@_J_J@?$positional_parameter_base@DV?$stream_output_adapter@D@__crt_stdio_output@@@__crt_stdio_output@@IAE_NAA_J@Z 1004d116 f i libucrt:output.obj
 0001:0004c19c       ??$extract_argument_from_va_list@_J_J@?$positional_parameter_base@DV?$string_output_adapter@D@__crt_stdio_output@@@__crt_stdio_output@@IAE_NAA_J@Z 1004d19c f i libucrt:output.obj
 0001:0004c222       ??$extract_argument_from_va_list@_J_J@?$positional_parameter_base@_WV?$stream_output_adapter@_W@__crt_stdio_output@@@__crt_stdio_output@@IAE_NAA_J@Z 1004d222 f i libucrt:output.obj
 0001:0004c2a8       ??$extract_argument_from_va_list@_J_J@?$positional_parameter_base@_WV?$string_output_adapter@_W@__crt_stdio_output@@@__crt_stdio_output@@IAE_NAA_J@Z 1004d2a8 f i libucrt:output.obj
 0001:0004c32e       ??$extract_argument_from_va_list@_J_J@?$standard_base@DV?$stream_output_adapter@D@__crt_stdio_output@@@__crt_stdio_output@@IAE_NAA_J@Z 1004d32e f i libucrt:output.obj
 0001:0004c34e       ??$extract_argument_from_va_list@_J_J@?$standard_base@DV?$string_output_adapter@D@__crt_stdio_output@@@__crt_stdio_output@@IAE_NAA_J@Z 1004d34e f i libucrt:output.obj
 0001:0004c36e       ??$extract_argument_from_va_list@_J_J@?$standard_base@_WV?$stream_output_adapter@_W@__crt_stdio_output@@@__crt_stdio_output@@IAE_NAA_J@Z 1004d36e f i libucrt:output.obj
 0001:0004c38e       ??$extract_argument_from_va_list@_J_J@?$standard_base@_WV?$string_output_adapter@_W@__crt_stdio_output@@@__crt_stdio_output@@IAE_NAA_J@Z 1004d38e f i libucrt:output.obj
 0001:0004c3ae       ??$extract_argument_from_va_list@_K_J@?$positional_parameter_base@DV?$stream_output_adapter@D@__crt_stdio_output@@@__crt_stdio_output@@IAE_NAA_J@Z 1004d3ae f i libucrt:output.obj
 0001:0004c434       ??$extract_argument_from_va_list@_K_J@?$positional_parameter_base@DV?$string_output_adapter@D@__crt_stdio_output@@@__crt_stdio_output@@IAE_NAA_J@Z 1004d434 f i libucrt:output.obj
 0001:0004c4ba       ??$extract_argument_from_va_list@_K_J@?$positional_parameter_base@_WV?$stream_output_adapter@_W@__crt_stdio_output@@@__crt_stdio_output@@IAE_NAA_J@Z 1004d4ba f i libucrt:output.obj
 0001:0004c540       ??$extract_argument_from_va_list@_K_J@?$positional_parameter_base@_WV?$string_output_adapter@_W@__crt_stdio_output@@@__crt_stdio_output@@IAE_NAA_J@Z 1004d540 f i libucrt:output.obj
 0001:0004c5c6       ??$extract_argument_from_va_list@_K_J@?$standard_base@DV?$stream_output_adapter@D@__crt_stdio_output@@@__crt_stdio_output@@IAE_NAA_J@Z 1004d5c6 f i libucrt:output.obj
 0001:0004c5e6       ??$extract_argument_from_va_list@_K_J@?$standard_base@DV?$string_output_adapter@D@__crt_stdio_output@@@__crt_stdio_output@@IAE_NAA_J@Z 1004d5e6 f i libucrt:output.obj
 0001:0004c606       ??$extract_argument_from_va_list@_K_J@?$standard_base@_WV?$stream_output_adapter@_W@__crt_stdio_output@@@__crt_stdio_output@@IAE_NAA_J@Z 1004d606 f i libucrt:output.obj
 0001:0004c626       ??$extract_argument_from_va_list@_K_J@?$standard_base@_WV?$string_output_adapter@_W@__crt_stdio_output@@@__crt_stdio_output@@IAE_NAA_J@Z 1004d626 f i libucrt:output.obj
 0001:0004c646       ??$extract_argument_from_va_list@_W_W@?$positional_parameter_base@DV?$stream_output_adapter@D@__crt_stdio_output@@@__crt_stdio_output@@IAE_NAA_W@Z 1004d646 f i libucrt:output.obj
 0001:0004c6c2       ??$extract_argument_from_va_list@_W_W@?$positional_parameter_base@DV?$string_output_adapter@D@__crt_stdio_output@@@__crt_stdio_output@@IAE_NAA_W@Z 1004d6c2 f i libucrt:output.obj
 0001:0004c73e       ??$extract_argument_from_va_list@_W_W@?$positional_parameter_base@_WV?$stream_output_adapter@_W@__crt_stdio_output@@@__crt_stdio_output@@IAE_NAA_W@Z 1004d73e f i libucrt:output.obj
 0001:0004c7ba       ??$extract_argument_from_va_list@_W_W@?$positional_parameter_base@_WV?$string_output_adapter@_W@__crt_stdio_output@@@__crt_stdio_output@@IAE_NAA_W@Z 1004d7ba f i libucrt:output.obj
 0001:0004c836       ??$extract_argument_from_va_list@_W_W@?$standard_base@DV?$stream_output_adapter@D@__crt_stdio_output@@@__crt_stdio_output@@IAE_NAA_W@Z 1004d836 f i libucrt:output.obj
 0001:0004c852       ??$extract_argument_from_va_list@_W_W@?$standard_base@DV?$string_output_adapter@D@__crt_stdio_output@@@__crt_stdio_output@@IAE_NAA_W@Z 1004d852 f i libucrt:output.obj
 0001:0004c86e       ??$extract_argument_from_va_list@_W_W@?$standard_base@_WV?$stream_output_adapter@_W@__crt_stdio_output@@@__crt_stdio_output@@IAE_NAA_W@Z 1004d86e f i libucrt:output.obj
 0001:0004c88a       ??$extract_argument_from_va_list@_W_W@?$standard_base@_WV?$string_output_adapter@_W@__crt_stdio_output@@@__crt_stdio_output@@IAE_NAA_W@Z 1004d88a f i libucrt:output.obj
 0001:0004c8a6       ??$get_parameter_type@D@?$positional_parameter_base@DV?$stream_output_adapter@D@__crt_stdio_output@@@__crt_stdio_output@@CA?AW4parameter_type@01@PAD@Z 1004d8a6 f i libucrt:output.obj
 0001:0004c8aa       ??$get_parameter_type@D@?$positional_parameter_base@DV?$string_output_adapter@D@__crt_stdio_output@@@__crt_stdio_output@@CA?AW4parameter_type@01@PAD@Z 1004d8aa f i libucrt:output.obj
 0001:0004c8ae       ??$get_parameter_type@D@?$positional_parameter_base@_WV?$stream_output_adapter@_W@__crt_stdio_output@@@__crt_stdio_output@@CA?AW4parameter_type@01@PAD@Z 1004d8ae f i libucrt:output.obj
 0001:0004c8b2       ??$get_parameter_type@D@?$positional_parameter_base@_WV?$string_output_adapter@_W@__crt_stdio_output@@@__crt_stdio_output@@CA?AW4parameter_type@01@PAD@Z 1004d8b2 f i libucrt:output.obj
 0001:0004c8b6       ??$get_parameter_type@Uansi_string@?1??type_case_Z@?$output_processor@DV?$stream_output_adapter@D@__crt_stdio_output@@V?$positional_parameter_base@DV?$stream_output_adapter@D@__crt_stdio_output@@@2@@__crt_stdio_output@@AAE_NXZ@@?$positional_parameter_base@DV?$stream_output_adapter@D@__crt_stdio_output@@@__crt_stdio_output@@CA?AW4parameter_type@01@PAUansi_string@?1??type_case_Z@?$output_processor@DV?$stream_output_adapter@D@__crt_stdio_output@@V?$positional_parameter_base@DV?$stream_output_adapter@D@__crt_stdio_output@@@2@@1@AAE_NXZ@@Z 1004d8b6 f i libucrt:output.obj
 0001:0004c8ba       ??$get_parameter_type@Uansi_string@?1??type_case_Z@?$output_processor@DV?$string_output_adapter@D@__crt_stdio_output@@V?$positional_parameter_base@DV?$string_output_adapter@D@__crt_stdio_output@@@2@@__crt_stdio_output@@AAE_NXZ@@?$positional_parameter_base@DV?$string_output_adapter@D@__crt_stdio_output@@@__crt_stdio_output@@CA?AW4parameter_type@01@PAUansi_string@?1??type_case_Z@?$output_processor@DV?$string_output_adapter@D@__crt_stdio_output@@V?$positional_parameter_base@DV?$string_output_adapter@D@__crt_stdio_output@@@2@@1@AAE_NXZ@@Z 1004d8ba f i libucrt:output.obj
 0001:0004c8be       ??$get_parameter_type@Uansi_string@?1??type_case_Z@?$output_processor@_WV?$stream_output_adapter@_W@__crt_stdio_output@@V?$positional_parameter_base@_WV?$stream_output_adapter@_W@__crt_stdio_output@@@2@@__crt_stdio_output@@AAE_NXZ@@?$positional_parameter_base@_WV?$stream_output_adapter@_W@__crt_stdio_output@@@__crt_stdio_output@@CA?AW4parameter_type@01@PAUansi_string@?1??type_case_Z@?$output_processor@_WV?$stream_output_adapter@_W@__crt_stdio_output@@V?$positional_parameter_base@_WV?$stream_output_adapter@_W@__crt_stdio_output@@@2@@1@AAE_NXZ@@Z 1004d8be f i libucrt:output.obj
 0001:0004c8c2       ??$get_parameter_type@Uansi_string@?1??type_case_Z@?$output_processor@_WV?$string_output_adapter@_W@__crt_stdio_output@@V?$positional_parameter_base@_WV?$string_output_adapter@_W@__crt_stdio_output@@@2@@__crt_stdio_output@@AAE_NXZ@@?$positional_parameter_base@_WV?$string_output_adapter@_W@__crt_stdio_output@@@__crt_stdio_output@@CA?AW4parameter_type@01@PAUansi_string@?1??type_case_Z@?$output_processor@_WV?$string_output_adapter@_W@__crt_stdio_output@@V?$positional_parameter_base@_WV?$string_output_adapter@_W@__crt_stdio_output@@@2@@1@AAE_NXZ@@Z 1004d8c2 f i libucrt:output.obj
 0001:0004c8c6       ??$get_parameter_type@X@?$positional_parameter_base@DV?$stream_output_adapter@D@__crt_stdio_output@@@__crt_stdio_output@@CA?AW4parameter_type@01@PAX@Z 1004d8c6 f i libucrt:output.obj
 0001:0004c8ca       ??$get_parameter_type@X@?$positional_parameter_base@DV?$string_output_adapter@D@__crt_stdio_output@@@__crt_stdio_output@@CA?AW4parameter_type@01@PAX@Z 1004d8ca f i libucrt:output.obj
 0001:0004c8ce       ??$get_parameter_type@X@?$positional_parameter_base@_WV?$stream_output_adapter@_W@__crt_stdio_output@@@__crt_stdio_output@@CA?AW4parameter_type@01@PAX@Z 1004d8ce f i libucrt:output.obj
 0001:0004c8d2       ??$get_parameter_type@X@?$positional_parameter_base@_WV?$string_output_adapter@_W@__crt_stdio_output@@@__crt_stdio_output@@CA?AW4parameter_type@01@PAX@Z 1004d8d2 f i libucrt:output.obj
 0001:0004c8d6       ??$is_character_specifier@D@?$positional_parameter_base@DV?$stream_output_adapter@D@__crt_stdio_output@@@__crt_stdio_output@@CA_ND@Z 1004d8d6 f i libucrt:output.obj
 0001:0004c8ee       ??$is_character_specifier@D@?$positional_parameter_base@DV?$string_output_adapter@D@__crt_stdio_output@@@__crt_stdio_output@@CA_ND@Z 1004d8ee f i libucrt:output.obj
 0001:0004c906       ??$is_character_specifier@_W@?$positional_parameter_base@_WV?$stream_output_adapter@_W@__crt_stdio_output@@@__crt_stdio_output@@CA_N_W@Z 1004d906 f i libucrt:output.obj
 0001:0004c921       ??$is_character_specifier@_W@?$positional_parameter_base@_WV?$string_output_adapter@_W@__crt_stdio_output@@@__crt_stdio_output@@CA_N_W@Z 1004d921 f i libucrt:output.obj
 0001:0004c93c       ??$is_integral_specifier@D@?$positional_parameter_base@DV?$stream_output_adapter@D@__crt_stdio_output@@@__crt_stdio_output@@CA_ND@Z 1004d93c f i libucrt:output.obj
 0001:0004c968       ??$is_integral_specifier@D@?$positional_parameter_base@DV?$string_output_adapter@D@__crt_stdio_output@@@__crt_stdio_output@@CA_ND@Z 1004d968 f i libucrt:output.obj
 0001:0004c994       ??$is_integral_specifier@_W@?$positional_parameter_base@_WV?$stream_output_adapter@_W@__crt_stdio_output@@@__crt_stdio_output@@CA_N_W@Z 1004d994 f i libucrt:output.obj
 0001:0004c9cf       ??$is_integral_specifier@_W@?$positional_parameter_base@_WV?$string_output_adapter@_W@__crt_stdio_output@@@__crt_stdio_output@@CA_N_W@Z 1004d9cf f i libucrt:output.obj
 0001:0004ca0a       ??$is_pointer_specifier@D@?$positional_parameter_base@DV?$stream_output_adapter@D@__crt_stdio_output@@@__crt_stdio_output@@CA_ND@Z 1004da0a f i libucrt:output.obj
 0001:0004ca18       ??$is_pointer_specifier@D@?$positional_parameter_base@DV?$string_output_adapter@D@__crt_stdio_output@@@__crt_stdio_output@@CA_ND@Z 1004da18 f i libucrt:output.obj
 0001:0004ca26       ??$is_pointer_specifier@_W@?$positional_parameter_base@_WV?$stream_output_adapter@_W@__crt_stdio_output@@@__crt_stdio_output@@CA_N_W@Z 1004da26 f i libucrt:output.obj
 0001:0004ca35       ??$is_pointer_specifier@_W@?$positional_parameter_base@_WV?$string_output_adapter@_W@__crt_stdio_output@@@__crt_stdio_output@@CA_N_W@Z 1004da35 f i libucrt:output.obj
 0001:0004ca44       ??$is_string_specifier@D@?$positional_parameter_base@DV?$stream_output_adapter@D@__crt_stdio_output@@@__crt_stdio_output@@CA_ND@Z 1004da44 f i libucrt:output.obj
 0001:0004ca5c       ??$is_string_specifier@D@?$positional_parameter_base@DV?$string_output_adapter@D@__crt_stdio_output@@@__crt_stdio_output@@CA_ND@Z 1004da5c f i libucrt:output.obj
 0001:0004ca74       ??$is_string_specifier@_W@?$positional_parameter_base@_WV?$stream_output_adapter@_W@__crt_stdio_output@@@__crt_stdio_output@@CA_N_W@Z 1004da74 f i libucrt:output.obj
 0001:0004ca8f       ??$is_string_specifier@_W@?$positional_parameter_base@_WV?$string_output_adapter@_W@__crt_stdio_output@@@__crt_stdio_output@@CA_N_W@Z 1004da8f f i libucrt:output.obj
 0001:0004caaa       ??$is_wide_character_specifier@D@__crt_stdio_output@@YA_N_KDW4length_modifier@0@@Z 1004daaa f i libucrt:output.obj
 0001:0004cadb       ??$is_wide_character_specifier@_W@__crt_stdio_output@@YA_N_K_WW4length_modifier@0@@Z 1004dadb f i libucrt:output.obj
 0001:0004cb29       ??$peek_va_arg@C@__crt_stdio_output@@YACPAD@Z 1004db29 f i libucrt:output.obj
 0001:0004cb35       ??$peek_va_arg@E@__crt_stdio_output@@YAEPAD@Z 1004db35 f i libucrt:output.obj
 0001:0004cb41       ??$peek_va_arg@F@__crt_stdio_output@@YAFPAD@Z 1004db41 f i libucrt:output.obj
 0001:0004cb4e       ??$peek_va_arg@G@__crt_stdio_output@@YAGPAD@Z 1004db4e f i libucrt:output.obj
 0001:0004cb5b       ??$peek_va_arg@H@__crt_stdio_output@@YAHPAD@Z 1004db5b f i libucrt:output.obj
 0001:0004cb67       ??$peek_va_arg@I@__crt_stdio_output@@YAIPAD@Z 1004db67 f i libucrt:output.obj
 0001:0004cb73       ??$peek_va_arg@PAD@__crt_stdio_output@@YAPADPAD@Z 1004db73 f i libucrt:output.obj
 0001:0004cb7f       ??$peek_va_arg@PAUansi_string@?1??type_case_Z@?$output_processor@DV?$stream_output_adapter@D@__crt_stdio_output@@V?$positional_parameter_base@DV?$stream_output_adapter@D@__crt_stdio_output@@@2@@__crt_stdio_output@@AAE_NXZ@@__crt_stdio_output@@YAPAUansi_string@?1??type_case_Z@?$output_processor@DV?$stream_output_adapter@D@__crt_stdio_output@@V?$positional_parameter_base@DV?$stream_output_adapter@D@__crt_stdio_output@@@2@@0@AAE_NXZ@PAD@Z 1004db7f f i libucrt:output.obj
 0001:0004cb8b       ??$peek_va_arg@PAUansi_string@?1??type_case_Z@?$output_processor@DV?$string_output_adapter@D@__crt_stdio_output@@V?$positional_parameter_base@DV?$string_output_adapter@D@__crt_stdio_output@@@2@@__crt_stdio_output@@AAE_NXZ@@__crt_stdio_output@@YAPAUansi_string@?1??type_case_Z@?$output_processor@DV?$string_output_adapter@D@__crt_stdio_output@@V?$positional_parameter_base@DV?$string_output_adapter@D@__crt_stdio_output@@@2@@0@AAE_NXZ@PAD@Z 1004db8b f i libucrt:output.obj
 0001:0004cb97       ??$peek_va_arg@PAUansi_string@?1??type_case_Z@?$output_processor@_WV?$stream_output_adapter@_W@__crt_stdio_output@@V?$positional_parameter_base@_WV?$stream_output_adapter@_W@__crt_stdio_output@@@2@@__crt_stdio_output@@AAE_NXZ@@__crt_stdio_output@@YAPAUansi_string@?1??type_case_Z@?$output_processor@_WV?$stream_output_adapter@_W@__crt_stdio_output@@V?$positional_parameter_base@_WV?$stream_output_adapter@_W@__crt_stdio_output@@@2@@0@AAE_NXZ@PAD@Z 1004db97 f i libucrt:output.obj
 0001:0004cba3       ??$peek_va_arg@PAUansi_string@?1??type_case_Z@?$output_processor@_WV?$string_output_adapter@_W@__crt_stdio_output@@V?$positional_parameter_base@_WV?$string_output_adapter@_W@__crt_stdio_output@@@2@@__crt_stdio_output@@AAE_NXZ@@__crt_stdio_output@@YAPAUansi_string@?1??type_case_Z@?$output_processor@_WV?$string_output_adapter@_W@__crt_stdio_output@@V?$positional_parameter_base@_WV?$string_output_adapter@_W@__crt_stdio_output@@@2@@0@AAE_NXZ@PAD@Z 1004dba3 f i libucrt:output.obj
 0001:0004cbaf       ??$peek_va_arg@PAX@__crt_stdio_output@@YAPAXPAD@Z 1004dbaf f i libucrt:output.obj
 0001:0004cbbb       ??$peek_va_arg@U_CRT_DOUBLE@@@__crt_stdio_output@@YA?AU_CRT_DOUBLE@@PAD@Z 1004dbbb f i libucrt:output.obj
 0001:0004cbca       ??$peek_va_arg@_J@__crt_stdio_output@@YA_JPAD@Z 1004dbca f i libucrt:output.obj
 0001:0004cbd9       ??$peek_va_arg@_K@__crt_stdio_output@@YA_KPAD@Z 1004dbd9 f i libucrt:output.obj
 0001:0004cbe8       ??$peek_va_arg@_W@__crt_stdio_output@@YA_WPAD@Z 1004dbe8 f i libucrt:output.obj
 0001:0004cbf5       ??$puttc_nolock@ABDPAU_iobuf@@@?$__crt_char_traits@D@@SAHABD$$QAPAU_iobuf@@@Z 1004dbf5 f i libucrt:output.obj
 0001:0004cc0f       ??$puttc_nolock@AB_WPAU_iobuf@@@?$__crt_char_traits@_W@@SAGAB_W$$QAPAU_iobuf@@@Z 1004dc0f f i libucrt:output.obj
 0001:0004cc29       ??$read_va_arg@C@__crt_stdio_output@@YACAAPAD@Z 1004dc29 f i libucrt:output.obj
 0001:0004cc3b       ??$read_va_arg@E@__crt_stdio_output@@YAEAAPAD@Z 1004dc3b f i libucrt:output.obj
 0001:0004cc4d       ??$read_va_arg@F@__crt_stdio_output@@YAFAAPAD@Z 1004dc4d f i libucrt:output.obj
 0001:0004cc60       ??$read_va_arg@G@__crt_stdio_output@@YAGAAPAD@Z 1004dc60 f i libucrt:output.obj
 0001:0004cc73       ??$read_va_arg@H@__crt_stdio_output@@YAHAAPAD@Z 1004dc73 f i libucrt:output.obj
 0001:0004cc85       ??$read_va_arg@I@__crt_stdio_output@@YAIAAPAD@Z 1004dc85 f i libucrt:output.obj
 0001:0004cc97       ??$read_va_arg@PAD@__crt_stdio_output@@YAPADAAPAD@Z 1004dc97 f i libucrt:output.obj
 0001:0004cca9       ??$read_va_arg@PAUansi_string@?1??type_case_Z@?$output_processor@DV?$stream_output_adapter@D@__crt_stdio_output@@V?$format_validation_base@DV?$stream_output_adapter@D@__crt_stdio_output@@@2@@__crt_stdio_output@@AAE_NXZ@@__crt_stdio_output@@YAPAUansi_string@?1??type_case_Z@?$output_processor@DV?$stream_output_adapter@D@__crt_stdio_output@@V?$format_validation_base@DV?$stream_output_adapter@D@__crt_stdio_output@@@2@@0@AAE_NXZ@AAPAD@Z 1004dca9 f i libucrt:output.obj
 0001:0004ccbb       ??$read_va_arg@PAUansi_string@?1??type_case_Z@?$output_processor@DV?$stream_output_adapter@D@__crt_stdio_output@@V?$positional_parameter_base@DV?$stream_output_adapter@D@__crt_stdio_output@@@2@@__crt_stdio_output@@AAE_NXZ@@__crt_stdio_output@@YAPAUansi_string@?1??type_case_Z@?$output_processor@DV?$stream_output_adapter@D@__crt_stdio_output@@V?$positional_parameter_base@DV?$stream_output_adapter@D@__crt_stdio_output@@@2@@0@AAE_NXZ@AAPAD@Z 1004dcbb f i libucrt:output.obj
 0001:0004cccd       ??$read_va_arg@PAUansi_string@?1??type_case_Z@?$output_processor@DV?$stream_output_adapter@D@__crt_stdio_output@@V?$standard_base@DV?$stream_output_adapter@D@__crt_stdio_output@@@2@@__crt_stdio_output@@AAE_NXZ@@__crt_stdio_output@@YAPAUansi_string@?1??type_case_Z@?$output_processor@DV?$stream_output_adapter@D@__crt_stdio_output@@V?$standard_base@DV?$stream_output_adapter@D@__crt_stdio_output@@@2@@0@AAE_NXZ@AAPAD@Z 1004dccd f i libucrt:output.obj
 0001:0004ccdf       ??$read_va_arg@PAUansi_string@?1??type_case_Z@?$output_processor@DV?$string_output_adapter@D@__crt_stdio_output@@V?$format_validation_base@DV?$string_output_adapter@D@__crt_stdio_output@@@2@@__crt_stdio_output@@AAE_NXZ@@__crt_stdio_output@@YAPAUansi_string@?1??type_case_Z@?$output_processor@DV?$string_output_adapter@D@__crt_stdio_output@@V?$format_validation_base@DV?$string_output_adapter@D@__crt_stdio_output@@@2@@0@AAE_NXZ@AAPAD@Z 1004dcdf f i libucrt:output.obj
 0001:0004ccf1       ??$read_va_arg@PAUansi_string@?1??type_case_Z@?$output_processor@DV?$string_output_adapter@D@__crt_stdio_output@@V?$positional_parameter_base@DV?$string_output_adapter@D@__crt_stdio_output@@@2@@__crt_stdio_output@@AAE_NXZ@@__crt_stdio_output@@YAPAUansi_string@?1??type_case_Z@?$output_processor@DV?$string_output_adapter@D@__crt_stdio_output@@V?$positional_parameter_base@DV?$string_output_adapter@D@__crt_stdio_output@@@2@@0@AAE_NXZ@AAPAD@Z 1004dcf1 f i libucrt:output.obj
 0001:0004cd03       ??$read_va_arg@PAUansi_string@?1??type_case_Z@?$output_processor@DV?$string_output_adapter@D@__crt_stdio_output@@V?$standard_base@DV?$string_output_adapter@D@__crt_stdio_output@@@2@@__crt_stdio_output@@AAE_NXZ@@__crt_stdio_output@@YAPAUansi_string@?1??type_case_Z@?$output_processor@DV?$string_output_adapter@D@__crt_stdio_output@@V?$standard_base@DV?$string_output_adapter@D@__crt_stdio_output@@@2@@0@AAE_NXZ@AAPAD@Z 1004dd03 f i libucrt:output.obj
 0001:0004cd15       ??$read_va_arg@PAUansi_string@?1??type_case_Z@?$output_processor@_WV?$stream_output_adapter@_W@__crt_stdio_output@@V?$format_validation_base@_WV?$stream_output_adapter@_W@__crt_stdio_output@@@2@@__crt_stdio_output@@AAE_NXZ@@__crt_stdio_output@@YAPAUansi_string@?1??type_case_Z@?$output_processor@_WV?$stream_output_adapter@_W@__crt_stdio_output@@V?$format_validation_base@_WV?$stream_output_adapter@_W@__crt_stdio_output@@@2@@0@AAE_NXZ@AAPAD@Z 1004dd15 f i libucrt:output.obj
 0001:0004cd27       ??$read_va_arg@PAUansi_string@?1??type_case_Z@?$output_processor@_WV?$stream_output_adapter@_W@__crt_stdio_output@@V?$positional_parameter_base@_WV?$stream_output_adapter@_W@__crt_stdio_output@@@2@@__crt_stdio_output@@AAE_NXZ@@__crt_stdio_output@@YAPAUansi_string@?1??type_case_Z@?$output_processor@_WV?$stream_output_adapter@_W@__crt_stdio_output@@V?$positional_parameter_base@_WV?$stream_output_adapter@_W@__crt_stdio_output@@@2@@0@AAE_NXZ@AAPAD@Z 1004dd27 f i libucrt:output.obj
 0001:0004cd39       ??$read_va_arg@PAUansi_string@?1??type_case_Z@?$output_processor@_WV?$stream_output_adapter@_W@__crt_stdio_output@@V?$standard_base@_WV?$stream_output_adapter@_W@__crt_stdio_output@@@2@@__crt_stdio_output@@AAE_NXZ@@__crt_stdio_output@@YAPAUansi_string@?1??type_case_Z@?$output_processor@_WV?$stream_output_adapter@_W@__crt_stdio_output@@V?$standard_base@_WV?$stream_output_adapter@_W@__crt_stdio_output@@@2@@0@AAE_NXZ@AAPAD@Z 1004dd39 f i libucrt:output.obj
 0001:0004cd4b       ??$read_va_arg@PAUansi_string@?1??type_case_Z@?$output_processor@_WV?$string_output_adapter@_W@__crt_stdio_output@@V?$format_validation_base@_WV?$string_output_adapter@_W@__crt_stdio_output@@@2@@__crt_stdio_output@@AAE_NXZ@@__crt_stdio_output@@YAPAUansi_string@?1??type_case_Z@?$output_processor@_WV?$string_output_adapter@_W@__crt_stdio_output@@V?$format_validation_base@_WV?$string_output_adapter@_W@__crt_stdio_output@@@2@@0@AAE_NXZ@AAPAD@Z 1004dd4b f i libucrt:output.obj
 0001:0004cd5d       ??$read_va_arg@PAUansi_string@?1??type_case_Z@?$output_processor@_WV?$string_output_adapter@_W@__crt_stdio_output@@V?$positional_parameter_base@_WV?$string_output_adapter@_W@__crt_stdio_output@@@2@@__crt_stdio_output@@AAE_NXZ@@__crt_stdio_output@@YAPAUansi_string@?1??type_case_Z@?$output_processor@_WV?$string_output_adapter@_W@__crt_stdio_output@@V?$positional_parameter_base@_WV?$string_output_adapter@_W@__crt_stdio_output@@@2@@0@AAE_NXZ@AAPAD@Z 1004dd5d f i libucrt:output.obj
 0001:0004cd6f       ??$read_va_arg@PAUansi_string@?1??type_case_Z@?$output_processor@_WV?$string_output_adapter@_W@__crt_stdio_output@@V?$standard_base@_WV?$string_output_adapter@_W@__crt_stdio_output@@@2@@__crt_stdio_output@@AAE_NXZ@@__crt_stdio_output@@YAPAUansi_string@?1??type_case_Z@?$output_processor@_WV?$string_output_adapter@_W@__crt_stdio_output@@V?$standard_base@_WV?$string_output_adapter@_W@__crt_stdio_output@@@2@@0@AAE_NXZ@AAPAD@Z 1004dd6f f i libucrt:output.obj
 0001:0004cd81       ??$read_va_arg@PAX@__crt_stdio_output@@YAPAXAAPAD@Z 1004dd81 f i libucrt:output.obj
 0001:0004cd93       ??$read_va_arg@U_CRT_DOUBLE@@@__crt_stdio_output@@YA?AU_CRT_DOUBLE@@AAPAD@Z 1004dd93 f i libucrt:output.obj
 0001:0004cda9       ??$read_va_arg@_J@__crt_stdio_output@@YA_JAAPAD@Z 1004dda9 f i libucrt:output.obj
 0001:0004cdbe       ??$read_va_arg@_K@__crt_stdio_output@@YA_KAAPAD@Z 1004ddbe f i libucrt:output.obj
 0001:0004cdd3       ??$read_va_arg@_W@__crt_stdio_output@@YA_WAAPAD@Z 1004ddd3 f i libucrt:output.obj
 0001:0004cde6       ??$scratch_count@D@formatting_buffer@__crt_stdio_output@@QBEIXZ 1004dde6 f i libucrt:output.obj
 0001:0004cdeb       ??$scratch_data@D@formatting_buffer@__crt_stdio_output@@QAEPADXZ 1004ddeb f i libucrt:output.obj
 0001:0004ce09       ??$tcstol@AAPBDPAPADH@?$__crt_char_traits@D@@SAJAAPBD$$QAPAPAD$$QAH@Z 1004de09 f i libucrt:output.obj
 0001:0004ce27       ??$tcstol@AAPB_WPAPA_WH@?$__crt_char_traits@_W@@SAJAAPB_W$$QAPAPA_W$$QAH@Z 1004de27 f i libucrt:output.obj
 0001:0004ce45       ??$tcstol@PBDPAPADH@?$__crt_char_traits@D@@SAJ$$QAPBD$$QAPAPAD$$QAH@Z 1004de45 f i libucrt:output.obj
 0001:0004ce63       ??$tcstol@PB_WPAPA_WH@?$__crt_char_traits@_W@@SAJ$$QAPB_W$$QAPAPA_W$$QAH@Z 1004de63 f i libucrt:output.obj
 0001:0004ce81       ??$type_case_integer_parse_into_buffer@I@?$output_processor@DV?$stream_output_adapter@D@__crt_stdio_output@@V?$format_validation_base@DV?$stream_output_adapter@D@__crt_stdio_output@@@2@@__crt_stdio_output@@AAEXII_N@Z 1004de81 f i libucrt:output.obj
 0001:0004cef4       ??$type_case_integer_parse_into_buffer@I@?$output_processor@DV?$stream_output_adapter@D@__crt_stdio_output@@V?$positional_parameter_base@DV?$stream_output_adapter@D@__crt_stdio_output@@@2@@__crt_stdio_output@@AAEXII_N@Z 1004def4 f i libucrt:output.obj
 0001:0004cf67       ??$type_case_integer_parse_into_buffer@I@?$output_processor@DV?$stream_output_adapter@D@__crt_stdio_output@@V?$standard_base@DV?$stream_output_adapter@D@__crt_stdio_output@@@2@@__crt_stdio_output@@AAEXII_N@Z 1004df67 f i libucrt:output.obj
 0001:0004cfda       ??$type_case_integer_parse_into_buffer@I@?$output_processor@DV?$string_output_adapter@D@__crt_stdio_output@@V?$format_validation_base@DV?$string_output_adapter@D@__crt_stdio_output@@@2@@__crt_stdio_output@@AAEXII_N@Z 1004dfda f i libucrt:output.obj
 0001:0004d04d       ??$type_case_integer_parse_into_buffer@I@?$output_processor@DV?$string_output_adapter@D@__crt_stdio_output@@V?$positional_parameter_base@DV?$string_output_adapter@D@__crt_stdio_output@@@2@@__crt_stdio_output@@AAEXII_N@Z 1004e04d f i libucrt:output.obj
 0001:0004d0c0       ??$type_case_integer_parse_into_buffer@I@?$output_processor@DV?$string_output_adapter@D@__crt_stdio_output@@V?$standard_base@DV?$string_output_adapter@D@__crt_stdio_output@@@2@@__crt_stdio_output@@AAEXII_N@Z 1004e0c0 f i libucrt:output.obj
 0001:0004d133       ??$type_case_integer_parse_into_buffer@I@?$output_processor@_WV?$stream_output_adapter@_W@__crt_stdio_output@@V?$format_validation_base@_WV?$stream_output_adapter@_W@__crt_stdio_output@@@2@@__crt_stdio_output@@AAEXII_N@Z 1004e133 f i libucrt:output.obj
 0001:0004d1ba       ??$type_case_integer_parse_into_buffer@I@?$output_processor@_WV?$stream_output_adapter@_W@__crt_stdio_output@@V?$positional_parameter_base@_WV?$stream_output_adapter@_W@__crt_stdio_output@@@2@@__crt_stdio_output@@AAEXII_N@Z 1004e1ba f i libucrt:output.obj
 0001:0004d241       ??$type_case_integer_parse_into_buffer@I@?$output_processor@_WV?$stream_output_adapter@_W@__crt_stdio_output@@V?$standard_base@_WV?$stream_output_adapter@_W@__crt_stdio_output@@@2@@__crt_stdio_output@@AAEXII_N@Z 1004e241 f i libucrt:output.obj
 0001:0004d2c8       ??$type_case_integer_parse_into_buffer@I@?$output_processor@_WV?$string_output_adapter@_W@__crt_stdio_output@@V?$format_validation_base@_WV?$string_output_adapter@_W@__crt_stdio_output@@@2@@__crt_stdio_output@@AAEXII_N@Z 1004e2c8 f i libucrt:output.obj
 0001:0004d34f       ??$type_case_integer_parse_into_buffer@I@?$output_processor@_WV?$string_output_adapter@_W@__crt_stdio_output@@V?$positional_parameter_base@_WV?$string_output_adapter@_W@__crt_stdio_output@@@2@@__crt_stdio_output@@AAEXII_N@Z 1004e34f f i libucrt:output.obj
 0001:0004d3d6       ??$type_case_integer_parse_into_buffer@I@?$output_processor@_WV?$string_output_adapter@_W@__crt_stdio_output@@V?$standard_base@_WV?$string_output_adapter@_W@__crt_stdio_output@@@2@@__crt_stdio_output@@AAEXII_N@Z 1004e3d6 f i libucrt:output.obj
 0001:0004d45d       ??$type_case_integer_parse_into_buffer@_K@?$output_processor@DV?$stream_output_adapter@D@__crt_stdio_output@@V?$format_validation_base@DV?$stream_output_adapter@D@__crt_stdio_output@@@2@@__crt_stdio_output@@AAEX_KI_N@Z 1004e45d f i libucrt:output.obj
 0001:0004d4eb       ??$type_case_integer_parse_into_buffer@_K@?$output_processor@DV?$stream_output_adapter@D@__crt_stdio_output@@V?$positional_parameter_base@DV?$stream_output_adapter@D@__crt_stdio_output@@@2@@__crt_stdio_output@@AAEX_KI_N@Z 1004e4eb f i libucrt:output.obj
 0001:0004d579       ??$type_case_integer_parse_into_buffer@_K@?$output_processor@DV?$stream_output_adapter@D@__crt_stdio_output@@V?$standard_base@DV?$stream_output_adapter@D@__crt_stdio_output@@@2@@__crt_stdio_output@@AAEX_KI_N@Z 1004e579 f i libucrt:output.obj
 0001:0004d607       ??$type_case_integer_parse_into_buffer@_K@?$output_processor@DV?$string_output_adapter@D@__crt_stdio_output@@V?$format_validation_base@DV?$string_output_adapter@D@__crt_stdio_output@@@2@@__crt_stdio_output@@AAEX_KI_N@Z 1004e607 f i libucrt:output.obj
 0001:0004d695       ??$type_case_integer_parse_into_buffer@_K@?$output_processor@DV?$string_output_adapter@D@__crt_stdio_output@@V?$positional_parameter_base@DV?$string_output_adapter@D@__crt_stdio_output@@@2@@__crt_stdio_output@@AAEX_KI_N@Z 1004e695 f i libucrt:output.obj
 0001:0004d723       ??$type_case_integer_parse_into_buffer@_K@?$output_processor@DV?$string_output_adapter@D@__crt_stdio_output@@V?$standard_base@DV?$string_output_adapter@D@__crt_stdio_output@@@2@@__crt_stdio_output@@AAEX_KI_N@Z 1004e723 f i libucrt:output.obj
 0001:0004d7b1       ??$type_case_integer_parse_into_buffer@_K@?$output_processor@_WV?$stream_output_adapter@_W@__crt_stdio_output@@V?$format_validation_base@_WV?$stream_output_adapter@_W@__crt_stdio_output@@@2@@__crt_stdio_output@@AAEX_KI_N@Z 1004e7b1 f i libucrt:output.obj
 0001:0004d853       ??$type_case_integer_parse_into_buffer@_K@?$output_processor@_WV?$stream_output_adapter@_W@__crt_stdio_output@@V?$positional_parameter_base@_WV?$stream_output_adapter@_W@__crt_stdio_output@@@2@@__crt_stdio_output@@AAEX_KI_N@Z 1004e853 f i libucrt:output.obj
 0001:0004d8f5       ??$type_case_integer_parse_into_buffer@_K@?$output_processor@_WV?$stream_output_adapter@_W@__crt_stdio_output@@V?$standard_base@_WV?$stream_output_adapter@_W@__crt_stdio_output@@@2@@__crt_stdio_output@@AAEX_KI_N@Z 1004e8f5 f i libucrt:output.obj
 0001:0004d997       ??$type_case_integer_parse_into_buffer@_K@?$output_processor@_WV?$string_output_adapter@_W@__crt_stdio_output@@V?$format_validation_base@_WV?$string_output_adapter@_W@__crt_stdio_output@@@2@@__crt_stdio_output@@AAEX_KI_N@Z 1004e997 f i libucrt:output.obj
 0001:0004da39       ??$type_case_integer_parse_into_buffer@_K@?$output_processor@_WV?$string_output_adapter@_W@__crt_stdio_output@@V?$positional_parameter_base@_WV?$string_output_adapter@_W@__crt_stdio_output@@@2@@__crt_stdio_output@@AAEX_KI_N@Z 1004ea39 f i libucrt:output.obj
 0001:0004dadb       ??$type_case_integer_parse_into_buffer@_K@?$output_processor@_WV?$string_output_adapter@_W@__crt_stdio_output@@V?$standard_base@_WV?$string_output_adapter@_W@__crt_stdio_output@@@2@@__crt_stdio_output@@AAEX_KI_N@Z 1004eadb f i libucrt:output.obj
 0001:0004db7d       ??$write_multiple_characters@V?$stream_output_adapter@D@__crt_stdio_output@@D@__crt_stdio_output@@YAXABV?$stream_output_adapter@D@0@DHQAH@Z 1004eb7d f i libucrt:output.obj
 0001:0004dbb8       ??$write_multiple_characters@V?$stream_output_adapter@_W@__crt_stdio_output@@D@__crt_stdio_output@@YAXABV?$stream_output_adapter@_W@0@DHQAH@Z 1004ebb8 f i libucrt:output.obj
 0001:0004dbf8       ??$write_multiple_characters@V?$string_output_adapter@D@__crt_stdio_output@@D@__crt_stdio_output@@YAXABV?$string_output_adapter@D@0@DHQAH@Z 1004ebf8 f i libucrt:output.obj
 0001:0004dc24       ??$write_multiple_characters@V?$string_output_adapter@_W@__crt_stdio_output@@D@__crt_stdio_output@@YAXABV?$string_output_adapter@_W@0@DHQAH@Z 1004ec24 f i libucrt:output.obj
 0001:0004de1d       ??0?$common_data@D@__crt_stdio_output@@IAE@XZ 1004ee1d f i libucrt:output.obj
 0001:0004de62       ??0?$common_data@_W@__crt_stdio_output@@IAE@XZ 1004ee62 f i libucrt:output.obj
 0001:0004deac       ??0?$output_adapter_data@DV?$stream_output_adapter@D@__crt_stdio_output@@@__crt_stdio_output@@IAE@ABV?$stream_output_adapter@D@1@_KQBDQAU__crt_locale_pointers@@QAD@Z 1004eeac f i libucrt:output.obj
 0001:0004dee8       ??0?$output_adapter_data@DV?$string_output_adapter@D@__crt_stdio_output@@@__crt_stdio_output@@IAE@ABV?$string_output_adapter@D@1@_KQBDQAU__crt_locale_pointers@@QAD@Z 1004eee8 f i libucrt:output.obj
 0001:0004df24       ??0?$output_adapter_data@_WV?$stream_output_adapter@_W@__crt_stdio_output@@@__crt_stdio_output@@IAE@ABV?$stream_output_adapter@_W@1@_KQB_WQAU__crt_locale_pointers@@QAD@Z 1004ef24 f i libucrt:output.obj
 0001:0004df60       ??0?$output_adapter_data@_WV?$string_output_adapter@_W@__crt_stdio_output@@@__crt_stdio_output@@IAE@ABV?$string_output_adapter@_W@1@_KQB_WQAU__crt_locale_pointers@@QAD@Z 1004ef60 f i libucrt:output.obj
 0001:0004df9c       ??0?$output_processor@DV?$stream_output_adapter@D@__crt_stdio_output@@V?$format_validation_base@DV?$stream_output_adapter@D@__crt_stdio_output@@@2@@__crt_stdio_output@@QAE@ABV?$stream_output_adapter@D@1@_KQBDQAU__crt_locale_pointers@@QAD@Z 1004ef9c f i libucrt:output.obj
 0001:0004dfc9       ??0?$output_processor@DV?$stream_output_adapter@D@__crt_stdio_output@@V?$positional_parameter_base@DV?$stream_output_adapter@D@__crt_stdio_output@@@2@@__crt_stdio_output@@QAE@ABV?$stream_output_adapter@D@1@_KQBDQAU__crt_locale_pointers@@QAD@Z 1004efc9 f i libucrt:output.obj
 0001:0004dff0       ??0?$output_processor@DV?$stream_output_adapter@D@__crt_stdio_output@@V?$standard_base@DV?$stream_output_adapter@D@__crt_stdio_output@@@2@@__crt_stdio_output@@QAE@ABV?$stream_output_adapter@D@1@_KQBDQAU__crt_locale_pointers@@QAD@Z 1004eff0 f i libucrt:output.obj
 0001:0004e01d       ??0?$output_processor@DV?$string_output_adapter@D@__crt_stdio_output@@V?$format_validation_base@DV?$string_output_adapter@D@__crt_stdio_output@@@2@@__crt_stdio_output@@QAE@ABV?$string_output_adapter@D@1@_KQBDQAU__crt_locale_pointers@@QAD@Z 1004f01d f i libucrt:output.obj
 0001:0004e04a       ??0?$output_processor@DV?$string_output_adapter@D@__crt_stdio_output@@V?$positional_parameter_base@DV?$string_output_adapter@D@__crt_stdio_output@@@2@@__crt_stdio_output@@QAE@ABV?$string_output_adapter@D@1@_KQBDQAU__crt_locale_pointers@@QAD@Z 1004f04a f i libucrt:output.obj
 0001:0004e071       ??0?$output_processor@DV?$string_output_adapter@D@__crt_stdio_output@@V?$standard_base@DV?$string_output_adapter@D@__crt_stdio_output@@@2@@__crt_stdio_output@@QAE@ABV?$string_output_adapter@D@1@_KQBDQAU__crt_locale_pointers@@QAD@Z 1004f071 f i libucrt:output.obj
 0001:0004e09e       ??0?$output_processor@_WV?$stream_output_adapter@_W@__crt_stdio_output@@V?$format_validation_base@_WV?$stream_output_adapter@_W@__crt_stdio_output@@@2@@__crt_stdio_output@@QAE@ABV?$stream_output_adapter@_W@1@_KQB_WQAU__crt_locale_pointers@@QAD@Z 1004f09e f i libucrt:output.obj
 0001:0004e0cb       ??0?$output_processor@_WV?$stream_output_adapter@_W@__crt_stdio_output@@V?$positional_parameter_base@_WV?$stream_output_adapter@_W@__crt_stdio_output@@@2@@__crt_stdio_output@@QAE@ABV?$stream_output_adapter@_W@1@_KQB_WQAU__crt_locale_pointers@@QAD@Z 1004f0cb f i libucrt:output.obj
 0001:0004e0f2       ??0?$output_processor@_WV?$stream_output_adapter@_W@__crt_stdio_output@@V?$standard_base@_WV?$stream_output_adapter@_W@__crt_stdio_output@@@2@@__crt_stdio_output@@QAE@ABV?$stream_output_adapter@_W@1@_KQB_WQAU__crt_locale_pointers@@QAD@Z 1004f0f2 f i libucrt:output.obj
 0001:0004e11f       ??0?$output_processor@_WV?$string_output_adapter@_W@__crt_stdio_output@@V?$format_validation_base@_WV?$string_output_adapter@_W@__crt_stdio_output@@@2@@__crt_stdio_output@@QAE@ABV?$string_output_adapter@_W@1@_KQB_WQAU__crt_locale_pointers@@QAD@Z 1004f11f f i libucrt:output.obj
 0001:0004e14c       ??0?$output_processor@_WV?$string_output_adapter@_W@__crt_stdio_output@@V?$positional_parameter_base@_WV?$string_output_adapter@_W@__crt_stdio_output@@@2@@__crt_stdio_output@@QAE@ABV?$string_output_adapter@_W@1@_KQB_WQAU__crt_locale_pointers@@QAD@Z 1004f14c f i libucrt:output.obj
 0001:0004e173       ??0?$output_processor@_WV?$string_output_adapter@_W@__crt_stdio_output@@V?$standard_base@_WV?$string_output_adapter@_W@__crt_stdio_output@@@2@@__crt_stdio_output@@QAE@ABV?$string_output_adapter@_W@1@_KQB_WQAU__crt_locale_pointers@@QAD@Z 1004f173 f i libucrt:output.obj
 0001:0004e1a0       ??0?$stream_output_adapter@D@__crt_stdio_output@@QAE@QAU_iobuf@@@Z 1004f1a0 f i libucrt:output.obj
 0001:0004e1b0       ??0?$stream_output_adapter@_W@__crt_stdio_output@@QAE@QAU_iobuf@@@Z 1004f1b0 f i libucrt:output.obj
 0001:0004e1c0       ??0?$string_output_adapter@D@__crt_stdio_output@@QAE@QAU?$string_output_adapter_context@D@1@@Z 1004f1c0 f i libucrt:output.obj
 0001:0004e1d0       ??0?$string_output_adapter@_W@__crt_stdio_output@@QAE@QAU?$string_output_adapter_context@_W@1@@Z 1004f1d0 f i libucrt:output.obj
 0001:0004e1e0       ??0_LocaleUpdate@@QAE@QAU__crt_locale_pointers@@@Z 1004f1e0 f i libucrt:output.obj
 0001:0004e263       ??0__acrt_stdio_temporary_buffering_guard@@QAE@QAU_iobuf@@@Z 1004f263 f i libucrt:output.obj
 0001:0004e281       ??0__crt_deferred_errno_cache@@QAE@XZ 1004f281 f i libucrt:output.obj
 0001:0004e287       ??0__crt_errno_guard@@QAE@QAH@Z 1004f287 f i libucrt:output.obj
 0001:0004e29f       ??0__crt_stdio_stream@@QAE@QAU_iobuf@@@Z 1004f29f f i libucrt:output.obj
 0001:0004e2b0       ??0formatting_buffer@__crt_stdio_output@@QAE@XZ 1004f2b0 f i libucrt:output.obj
 0001:0004e2c7       ??1?$common_data@D@__crt_stdio_output@@QAE@XZ 1004f2c7 f i libucrt:output.obj
 0001:0004e2cf       ??1?$common_data@_W@__crt_stdio_output@@QAE@XZ 1004f2cf f i libucrt:output.obj
 0001:0004e2d7       ??1?$format_validation_base@DV?$stream_output_adapter@D@__crt_stdio_output@@@__crt_stdio_output@@QAE@XZ 1004f2d7 f i libucrt:output.obj
 0001:0004e2df       ??1?$format_validation_base@DV?$string_output_adapter@D@__crt_stdio_output@@@__crt_stdio_output@@QAE@XZ 1004f2df f i libucrt:output.obj
 0001:0004e2e7       ??1?$format_validation_base@_WV?$stream_output_adapter@_W@__crt_stdio_output@@@__crt_stdio_output@@QAE@XZ 1004f2e7 f i libucrt:output.obj
 0001:0004e2ef       ??1?$format_validation_base@_WV?$string_output_adapter@_W@__crt_stdio_output@@@__crt_stdio_output@@QAE@XZ 1004f2ef f i libucrt:output.obj
 0001:0004e2f7       ??1?$output_adapter_data@DV?$stream_output_adapter@D@__crt_stdio_output@@@__crt_stdio_output@@QAE@XZ 1004f2f7 f i libucrt:output.obj
 0001:0004e2ff       ??1?$output_adapter_data@DV?$string_output_adapter@D@__crt_stdio_output@@@__crt_stdio_output@@QAE@XZ 1004f2ff f i libucrt:output.obj
 0001:0004e307       ??1?$output_adapter_data@_WV?$stream_output_adapter@_W@__crt_stdio_output@@@__crt_stdio_output@@QAE@XZ 1004f307 f i libucrt:output.obj
 0001:0004e30f       ??1?$output_adapter_data@_WV?$string_output_adapter@_W@__crt_stdio_output@@@__crt_stdio_output@@QAE@XZ 1004f30f f i libucrt:output.obj
 0001:0004e317       ??1?$output_processor@DV?$stream_output_adapter@D@__crt_stdio_output@@V?$format_validation_base@DV?$stream_output_adapter@D@__crt_stdio_output@@@2@@__crt_stdio_output@@QAE@XZ 1004f317 f i libucrt:output.obj
 0001:0004e31f       ??1?$output_processor@DV?$stream_output_adapter@D@__crt_stdio_output@@V?$positional_parameter_base@DV?$stream_output_adapter@D@__crt_stdio_output@@@2@@__crt_stdio_output@@QAE@XZ 1004f31f f i libucrt:output.obj
 0001:0004e327       ??1?$output_processor@DV?$stream_output_adapter@D@__crt_stdio_output@@V?$standard_base@DV?$stream_output_adapter@D@__crt_stdio_output@@@2@@__crt_stdio_output@@QAE@XZ 1004f327 f i libucrt:output.obj
 0001:0004e32f       ??1?$output_processor@DV?$string_output_adapter@D@__crt_stdio_output@@V?$format_validation_base@DV?$string_output_adapter@D@__crt_stdio_output@@@2@@__crt_stdio_output@@QAE@XZ 1004f32f f i libucrt:output.obj
 0001:0004e337       ??1?$output_processor@DV?$string_output_adapter@D@__crt_stdio_output@@V?$positional_parameter_base@DV?$string_output_adapter@D@__crt_stdio_output@@@2@@__crt_stdio_output@@QAE@XZ 1004f337 f i libucrt:output.obj
 0001:0004e33f       ??1?$output_processor@DV?$string_output_adapter@D@__crt_stdio_output@@V?$standard_base@DV?$string_output_adapter@D@__crt_stdio_output@@@2@@__crt_stdio_output@@QAE@XZ 1004f33f f i libucrt:output.obj
 0001:0004e347       ??1?$output_processor@_WV?$stream_output_adapter@_W@__crt_stdio_output@@V?$format_validation_base@_WV?$stream_output_adapter@_W@__crt_stdio_output@@@2@@__crt_stdio_output@@QAE@XZ 1004f347 f i libucrt:output.obj
 0001:0004e34f       ??1?$output_processor@_WV?$stream_output_adapter@_W@__crt_stdio_output@@V?$positional_parameter_base@_WV?$stream_output_adapter@_W@__crt_stdio_output@@@2@@__crt_stdio_output@@QAE@XZ 1004f34f f i libucrt:output.obj
 0001:0004e357       ??1?$output_processor@_WV?$stream_output_adapter@_W@__crt_stdio_output@@V?$standard_base@_WV?$stream_output_adapter@_W@__crt_stdio_output@@@2@@__crt_stdio_output@@QAE@XZ 1004f357 f i libucrt:output.obj
 0001:0004e35f       ??1?$output_processor@_WV?$string_output_adapter@_W@__crt_stdio_output@@V?$format_validation_base@_WV?$string_output_adapter@_W@__crt_stdio_output@@@2@@__crt_stdio_output@@QAE@XZ 1004f35f f i libucrt:output.obj
 0001:0004e367       ??1?$output_processor@_WV?$string_output_adapter@_W@__crt_stdio_output@@V?$positional_parameter_base@_WV?$string_output_adapter@_W@__crt_stdio_output@@@2@@__crt_stdio_output@@QAE@XZ 1004f367 f i libucrt:output.obj
 0001:0004e36f       ??1?$output_processor@_WV?$string_output_adapter@_W@__crt_stdio_output@@V?$standard_base@_WV?$string_output_adapter@_W@__crt_stdio_output@@@2@@__crt_stdio_output@@QAE@XZ 1004f36f f i libucrt:output.obj
 0001:0004e377       ??1?$positional_parameter_base@DV?$stream_output_adapter@D@__crt_stdio_output@@@__crt_stdio_output@@QAE@XZ 1004f377 f i libucrt:output.obj
 0001:0004e37f       ??1?$positional_parameter_base@DV?$string_output_adapter@D@__crt_stdio_output@@@__crt_stdio_output@@QAE@XZ 1004f37f f i libucrt:output.obj
 0001:0004e387       ??1?$positional_parameter_base@_WV?$stream_output_adapter@_W@__crt_stdio_output@@@__crt_stdio_output@@QAE@XZ 1004f387 f i libucrt:output.obj
 0001:0004e38f       ??1?$positional_parameter_base@_WV?$string_output_adapter@_W@__crt_stdio_output@@@__crt_stdio_output@@QAE@XZ 1004f38f f i libucrt:output.obj
 0001:0004e397       ??1?$standard_base@DV?$stream_output_adapter@D@__crt_stdio_output@@@__crt_stdio_output@@QAE@XZ 1004f397 f i libucrt:output.obj
 0001:0004e39f       ??1?$standard_base@DV?$string_output_adapter@D@__crt_stdio_output@@@__crt_stdio_output@@QAE@XZ 1004f39f f i libucrt:output.obj
 0001:0004e3a7       ??1?$standard_base@_WV?$stream_output_adapter@_W@__crt_stdio_output@@@__crt_stdio_output@@QAE@XZ 1004f3a7 f i libucrt:output.obj
 0001:0004e3af       ??1?$standard_base@_WV?$string_output_adapter@_W@__crt_stdio_output@@@__crt_stdio_output@@QAE@XZ 1004f3af f i libucrt:output.obj
 0001:0004e3b7       ??1_LocaleUpdate@@QAE@XZ   1004f3b7 f i libucrt:output.obj
 0001:0004e3c7       ??1__acrt_stdio_temporary_buffering_guard@@QAE@XZ 1004f3c7 f i libucrt:output.obj
 0001:0004e3d6       ??1__crt_errno_guard@@QAE@XZ 1004f3d6 f i libucrt:output.obj
 0001:0004e3e7       ??1formatting_buffer@__crt_stdio_output@@QAE@XZ 1004f3e7 f i libucrt:output.obj
 0001:0004e401       ??4?$__crt_unique_heap_ptr@DU__crt_internal_free_policy@@@@QAEAAV0@$$QAV0@@Z 1004f401 f i libucrt:output.obj
 0001:0004e425       ??A?$spectre_mitigated_lookup_table@Ustate_transition_pair@__crt_stdio_output@@$0IA@@__crt_stdio_output@@QBEABUstate_transition_pair@1@I@Z 1004f425 f i libucrt:output.obj
 0001:0004e437       ??C__crt_stdio_stream@@QBEPAU__crt_stdio_stream_data@@XZ 1004f437 f i libucrt:output.obj
 0001:0004e98a       ?GetLocaleT@_LocaleUpdate@@QAEPAU__crt_locale_pointers@@XZ 1004f98a f i libucrt:output.obj
 0001:0004e98e       ?adjust_hexit@?$output_processor@DV?$stream_output_adapter@D@__crt_stdio_output@@V?$format_validation_base@DV?$stream_output_adapter@D@__crt_stdio_output@@@2@@__crt_stdio_output@@CADH_N@Z 1004f98e f i libucrt:output.obj
 0001:0004e9a2       ?adjust_hexit@?$output_processor@DV?$stream_output_adapter@D@__crt_stdio_output@@V?$positional_parameter_base@DV?$stream_output_adapter@D@__crt_stdio_output@@@2@@__crt_stdio_output@@CADH_N@Z 1004f9a2 f i libucrt:output.obj
 0001:0004e9b6       ?adjust_hexit@?$output_processor@DV?$stream_output_adapter@D@__crt_stdio_output@@V?$standard_base@DV?$stream_output_adapter@D@__crt_stdio_output@@@2@@__crt_stdio_output@@CADH_N@Z 1004f9b6 f i libucrt:output.obj
 0001:0004e9ca       ?adjust_hexit@?$output_processor@DV?$string_output_adapter@D@__crt_stdio_output@@V?$format_validation_base@DV?$string_output_adapter@D@__crt_stdio_output@@@2@@__crt_stdio_output@@CADH_N@Z 1004f9ca f i libucrt:output.obj
 0001:0004e9de       ?adjust_hexit@?$output_processor@DV?$string_output_adapter@D@__crt_stdio_output@@V?$positional_parameter_base@DV?$string_output_adapter@D@__crt_stdio_output@@@2@@__crt_stdio_output@@CADH_N@Z 1004f9de f i libucrt:output.obj
 0001:0004e9f2       ?adjust_hexit@?$output_processor@DV?$string_output_adapter@D@__crt_stdio_output@@V?$standard_base@DV?$string_output_adapter@D@__crt_stdio_output@@@2@@__crt_stdio_output@@CADH_N@Z 1004f9f2 f i libucrt:output.obj
 0001:0004ea06       ?adjust_hexit@?$output_processor@_WV?$stream_output_adapter@_W@__crt_stdio_output@@V?$format_validation_base@_WV?$stream_output_adapter@_W@__crt_stdio_output@@@2@@__crt_stdio_output@@CADH_N@Z 1004fa06 f i libucrt:output.obj
 0001:0004ea1a       ?adjust_hexit@?$output_processor@_WV?$stream_output_adapter@_W@__crt_stdio_output@@V?$positional_parameter_base@_WV?$stream_output_adapter@_W@__crt_stdio_output@@@2@@__crt_stdio_output@@CADH_N@Z 1004fa1a f i libucrt:output.obj
 0001:0004ea2e       ?adjust_hexit@?$output_processor@_WV?$stream_output_adapter@_W@__crt_stdio_output@@V?$standard_base@_WV?$stream_output_adapter@_W@__crt_stdio_output@@@2@@__crt_stdio_output@@CADH_N@Z 1004fa2e f i libucrt:output.obj
 0001:0004ea42       ?adjust_hexit@?$output_processor@_WV?$string_output_adapter@_W@__crt_stdio_output@@V?$format_validation_base@_WV?$string_output_adapter@_W@__crt_stdio_output@@@2@@__crt_stdio_output@@CADH_N@Z 1004fa42 f i libucrt:output.obj
 0001:0004ea56       ?adjust_hexit@?$output_processor@_WV?$string_output_adapter@_W@__crt_stdio_output@@V?$positional_parameter_base@_WV?$string_output_adapter@_W@__crt_stdio_output@@@2@@__crt_stdio_output@@CADH_N@Z 1004fa56 f i libucrt:output.obj
 0001:0004ea6a       ?adjust_hexit@?$output_processor@_WV?$string_output_adapter@_W@__crt_stdio_output@@V?$standard_base@_WV?$string_output_adapter@_W@__crt_stdio_output@@@2@@__crt_stdio_output@@CADH_N@Z 1004fa6a f i libucrt:output.obj
 0001:0004ea7e       ?advance_to_next_pass@?$positional_parameter_base@DV?$stream_output_adapter@D@__crt_stdio_output@@@__crt_stdio_output@@IAE_NXZ 1004fa7e f i libucrt:output.obj
 0001:0004eaca       ?advance_to_next_pass@?$positional_parameter_base@DV?$string_output_adapter@D@__crt_stdio_output@@@__crt_stdio_output@@IAE_NXZ 1004faca f i libucrt:output.obj
 0001:0004eb16       ?advance_to_next_pass@?$positional_parameter_base@_WV?$stream_output_adapter@_W@__crt_stdio_output@@@__crt_stdio_output@@IAE_NXZ 1004fb16 f i libucrt:output.obj
 0001:0004eb62       ?advance_to_next_pass@?$positional_parameter_base@_WV?$string_output_adapter@_W@__crt_stdio_output@@@__crt_stdio_output@@IAE_NXZ 1004fb62 f i libucrt:output.obj
 0001:0004ebae       ?advance_to_next_pass@?$standard_base@DV?$stream_output_adapter@D@__crt_stdio_output@@@__crt_stdio_output@@IAE_NXZ 1004fbae f i libucrt:output.obj
 0001:0004ebbf       ?advance_to_next_pass@?$standard_base@DV?$string_output_adapter@D@__crt_stdio_output@@@__crt_stdio_output@@IAE_NXZ 1004fbbf f i libucrt:output.obj
 0001:0004ebd0       ?advance_to_next_pass@?$standard_base@_WV?$stream_output_adapter@_W@__crt_stdio_output@@@__crt_stdio_output@@IAE_NXZ 1004fbd0 f i libucrt:output.obj
 0001:0004ebe1       ?advance_to_next_pass@?$standard_base@_WV?$string_output_adapter@_W@__crt_stdio_output@@@__crt_stdio_output@@IAE_NXZ 1004fbe1 f i libucrt:output.obj
 0001:0004ec00       ?crop_zeroes@__crt_stdio_output@@YAXPADQAU__crt_locale_pointers@@@Z 1004fc00 f i libucrt:output.obj
 0001:0004ec81       ?find_next_state@?$output_processor@DV?$stream_output_adapter@D@__crt_stdio_output@@V?$format_validation_base@DV?$stream_output_adapter@D@__crt_stdio_output@@@2@@__crt_stdio_output@@ABE?AW4state@2@DW432@@Z 1004fc81 f i libucrt:output.obj
 0001:0004ecb8       ?find_next_state@?$output_processor@DV?$stream_output_adapter@D@__crt_stdio_output@@V?$positional_parameter_base@DV?$stream_output_adapter@D@__crt_stdio_output@@@2@@__crt_stdio_output@@ABE?AW4state@2@DW432@@Z 1004fcb8 f i libucrt:output.obj
 0001:0004ecef       ?find_next_state@?$output_processor@DV?$stream_output_adapter@D@__crt_stdio_output@@V?$standard_base@DV?$stream_output_adapter@D@__crt_stdio_output@@@2@@__crt_stdio_output@@ABE?AW4state@2@DW432@@Z 1004fcef f i libucrt:output.obj
 0001:0004ed26       ?find_next_state@?$output_processor@DV?$string_output_adapter@D@__crt_stdio_output@@V?$format_validation_base@DV?$string_output_adapter@D@__crt_stdio_output@@@2@@__crt_stdio_output@@ABE?AW4state@2@DW432@@Z 1004fd26 f i libucrt:output.obj
 0001:0004ed5d       ?find_next_state@?$output_processor@DV?$string_output_adapter@D@__crt_stdio_output@@V?$positional_parameter_base@DV?$string_output_adapter@D@__crt_stdio_output@@@2@@__crt_stdio_output@@ABE?AW4state@2@DW432@@Z 1004fd5d f i libucrt:output.obj
 0001:0004ed94       ?find_next_state@?$output_processor@DV?$string_output_adapter@D@__crt_stdio_output@@V?$standard_base@DV?$string_output_adapter@D@__crt_stdio_output@@@2@@__crt_stdio_output@@ABE?AW4state@2@DW432@@Z 1004fd94 f i libucrt:output.obj
 0001:0004edcb       ?find_next_state@?$output_processor@_WV?$stream_output_adapter@_W@__crt_stdio_output@@V?$format_validation_base@_WV?$stream_output_adapter@_W@__crt_stdio_output@@@2@@__crt_stdio_output@@ABE?AW4state@2@_WW432@@Z 1004fdcb f i libucrt:output.obj
 0001:0004ee01       ?find_next_state@?$output_processor@_WV?$stream_output_adapter@_W@__crt_stdio_output@@V?$positional_parameter_base@_WV?$stream_output_adapter@_W@__crt_stdio_output@@@2@@__crt_stdio_output@@ABE?AW4state@2@_WW432@@Z 1004fe01 f i libucrt:output.obj
 0001:0004ee37       ?find_next_state@?$output_processor@_WV?$stream_output_adapter@_W@__crt_stdio_output@@V?$standard_base@_WV?$stream_output_adapter@_W@__crt_stdio_output@@@2@@__crt_stdio_output@@ABE?AW4state@2@_WW432@@Z 1004fe37 f i libucrt:output.obj
 0001:0004ee6d       ?find_next_state@?$output_processor@_WV?$string_output_adapter@_W@__crt_stdio_output@@V?$format_validation_base@_WV?$string_output_adapter@_W@__crt_stdio_output@@@2@@__crt_stdio_output@@ABE?AW4state@2@_WW432@@Z 1004fe6d f i libucrt:output.obj
 0001:0004eea3       ?find_next_state@?$output_processor@_WV?$string_output_adapter@_W@__crt_stdio_output@@V?$positional_parameter_base@_WV?$string_output_adapter@_W@__crt_stdio_output@@@2@@__crt_stdio_output@@ABE?AW4state@2@_WW432@@Z 1004fea3 f i libucrt:output.obj
 0001:0004eed9       ?find_next_state@?$output_processor@_WV?$string_output_adapter@_W@__crt_stdio_output@@V?$standard_base@_WV?$string_output_adapter@_W@__crt_stdio_output@@@2@@__crt_stdio_output@@ABE?AW4state@2@_WW432@@Z 1004fed9 f i libucrt:output.obj
 0001:0004ef10       ?force_decimal_point@__crt_stdio_output@@YAXPADQAU__crt_locale_pointers@@@Z 1004ff10 f i libucrt:output.obj
 0001:0004ef75       ?get@__crt_deferred_errno_cache@@QAEAAHXZ 1004ff75 f i libucrt:output.obj
 0001:0004ef89       ?get_flags@__crt_stdio_stream@@QBEJXZ 1004ff89 f i libucrt:output.obj
 0001:0004ef90       ?get_parameter_type@?$positional_parameter_base@DV?$stream_output_adapter@D@__crt_stdio_output@@@__crt_stdio_output@@CA?AW4parameter_type@12@F@Z 1004ff90 f i libucrt:output.obj
 0001:0004ef94       ?get_parameter_type@?$positional_parameter_base@DV?$stream_output_adapter@D@__crt_stdio_output@@@__crt_stdio_output@@CA?AW4parameter_type@12@G@Z 1004ff94 f i libucrt:output.obj
 0001:0004ef98       ?get_parameter_type@?$positional_parameter_base@DV?$stream_output_adapter@D@__crt_stdio_output@@@__crt_stdio_output@@CA?AW4parameter_type@12@H@Z 1004ff98 f i libucrt:output.obj
 0001:0004ef9c       ?get_parameter_type@?$positional_parameter_base@DV?$stream_output_adapter@D@__crt_stdio_output@@@__crt_stdio_output@@CA?AW4parameter_type@12@I@Z 1004ff9c f i libucrt:output.obj
 0001:0004efa0       ?get_parameter_type@?$positional_parameter_base@DV?$stream_output_adapter@D@__crt_stdio_output@@@__crt_stdio_output@@CA?AW4parameter_type@12@U_CRT_DOUBLE@@@Z 1004ffa0 f i libucrt:output.obj
 0001:0004efa4       ?get_parameter_type@?$positional_parameter_base@DV?$stream_output_adapter@D@__crt_stdio_output@@@__crt_stdio_output@@CA?AW4parameter_type@12@_J@Z 1004ffa4 f i libucrt:output.obj
 0001:0004efa8       ?get_parameter_type@?$positional_parameter_base@DV?$stream_output_adapter@D@__crt_stdio_output@@@__crt_stdio_output@@CA?AW4parameter_type@12@_K@Z 1004ffa8 f i libucrt:output.obj
 0001:0004efac       ?get_parameter_type@?$positional_parameter_base@DV?$stream_output_adapter@D@__crt_stdio_output@@@__crt_stdio_output@@CA?AW4parameter_type@12@_W@Z 1004ffac f i libucrt:output.obj
 0001:0004efb0       ?get_parameter_type@?$positional_parameter_base@DV?$string_output_adapter@D@__crt_stdio_output@@@__crt_stdio_output@@CA?AW4parameter_type@12@F@Z 1004ffb0 f i libucrt:output.obj
 0001:0004efb4       ?get_parameter_type@?$positional_parameter_base@DV?$string_output_adapter@D@__crt_stdio_output@@@__crt_stdio_output@@CA?AW4parameter_type@12@G@Z 1004ffb4 f i libucrt:output.obj
 0001:0004efb8       ?get_parameter_type@?$positional_parameter_base@DV?$string_output_adapter@D@__crt_stdio_output@@@__crt_stdio_output@@CA?AW4parameter_type@12@H@Z 1004ffb8 f i libucrt:output.obj
 0001:0004efbc       ?get_parameter_type@?$positional_parameter_base@DV?$string_output_adapter@D@__crt_stdio_output@@@__crt_stdio_output@@CA?AW4parameter_type@12@I@Z 1004ffbc f i libucrt:output.obj
 0001:0004efc0       ?get_parameter_type@?$positional_parameter_base@DV?$string_output_adapter@D@__crt_stdio_output@@@__crt_stdio_output@@CA?AW4parameter_type@12@U_CRT_DOUBLE@@@Z 1004ffc0 f i libucrt:output.obj
 0001:0004efc4       ?get_parameter_type@?$positional_parameter_base@DV?$string_output_adapter@D@__crt_stdio_output@@@__crt_stdio_output@@CA?AW4parameter_type@12@_J@Z 1004ffc4 f i libucrt:output.obj
 0001:0004efc8       ?get_parameter_type@?$positional_parameter_base@DV?$string_output_adapter@D@__crt_stdio_output@@@__crt_stdio_output@@CA?AW4parameter_type@12@_K@Z 1004ffc8 f i libucrt:output.obj
 0001:0004efcc       ?get_parameter_type@?$positional_parameter_base@DV?$string_output_adapter@D@__crt_stdio_output@@@__crt_stdio_output@@CA?AW4parameter_type@12@_W@Z 1004ffcc f i libucrt:output.obj
 0001:0004efd0       ?get_parameter_type@?$positional_parameter_base@_WV?$stream_output_adapter@_W@__crt_stdio_output@@@__crt_stdio_output@@CA?AW4parameter_type@12@F@Z 1004ffd0 f i libucrt:output.obj
 0001:0004efd4       ?get_parameter_type@?$positional_parameter_base@_WV?$stream_output_adapter@_W@__crt_stdio_output@@@__crt_stdio_output@@CA?AW4parameter_type@12@G@Z 1004ffd4 f i libucrt:output.obj
 0001:0004efd8       ?get_parameter_type@?$positional_parameter_base@_WV?$stream_output_adapter@_W@__crt_stdio_output@@@__crt_stdio_output@@CA?AW4parameter_type@12@H@Z 1004ffd8 f i libucrt:output.obj
 0001:0004efdc       ?get_parameter_type@?$positional_parameter_base@_WV?$stream_output_adapter@_W@__crt_stdio_output@@@__crt_stdio_output@@CA?AW4parameter_type@12@I@Z 1004ffdc f i libucrt:output.obj
 0001:0004efe0       ?get_parameter_type@?$positional_parameter_base@_WV?$stream_output_adapter@_W@__crt_stdio_output@@@__crt_stdio_output@@CA?AW4parameter_type@12@U_CRT_DOUBLE@@@Z 1004ffe0 f i libucrt:output.obj
 0001:0004efe4       ?get_parameter_type@?$positional_parameter_base@_WV?$stream_output_adapter@_W@__crt_stdio_output@@@__crt_stdio_output@@CA?AW4parameter_type@12@_J@Z 1004ffe4 f i libucrt:output.obj
 0001:0004efe8       ?get_parameter_type@?$positional_parameter_base@_WV?$stream_output_adapter@_W@__crt_stdio_output@@@__crt_stdio_output@@CA?AW4parameter_type@12@_K@Z 1004ffe8 f i libucrt:output.obj
 0001:0004efec       ?get_parameter_type@?$positional_parameter_base@_WV?$stream_output_adapter@_W@__crt_stdio_output@@@__crt_stdio_output@@CA?AW4parameter_type@12@_W@Z 1004ffec f i libucrt:output.obj
 0001:0004eff0       ?get_parameter_type@?$positional_parameter_base@_WV?$string_output_adapter@_W@__crt_stdio_output@@@__crt_stdio_output@@CA?AW4parameter_type@12@F@Z 1004fff0 f i libucrt:output.obj
 0001:0004eff4       ?get_parameter_type@?$positional_parameter_base@_WV?$string_output_adapter@_W@__crt_stdio_output@@@__crt_stdio_output@@CA?AW4parameter_type@12@G@Z 1004fff4 f i libucrt:output.obj
 0001:0004eff8       ?get_parameter_type@?$positional_parameter_base@_WV?$string_output_adapter@_W@__crt_stdio_output@@@__crt_stdio_output@@CA?AW4parameter_type@12@H@Z 1004fff8 f i libucrt:output.obj
 0001:0004effc       ?get_parameter_type@?$positional_parameter_base@_WV?$string_output_adapter@_W@__crt_stdio_output@@@__crt_stdio_output@@CA?AW4parameter_type@12@I@Z 1004fffc f i libucrt:output.obj
 0001:0004f000       ?get_parameter_type@?$positional_parameter_base@_WV?$string_output_adapter@_W@__crt_stdio_output@@@__crt_stdio_output@@CA?AW4parameter_type@12@U_CRT_DOUBLE@@@Z 10050000 f i libucrt:output.obj
 0001:0004f004       ?get_parameter_type@?$positional_parameter_base@_WV?$string_output_adapter@_W@__crt_stdio_output@@@__crt_stdio_output@@CA?AW4parameter_type@12@_J@Z 10050004 f i libucrt:output.obj
 0001:0004f008       ?get_parameter_type@?$positional_parameter_base@_WV?$string_output_adapter@_W@__crt_stdio_output@@@__crt_stdio_output@@CA?AW4parameter_type@12@_K@Z 10050008 f i libucrt:output.obj
 0001:0004f00c       ?get_parameter_type@?$positional_parameter_base@_WV?$string_output_adapter@_W@__crt_stdio_output@@@__crt_stdio_output@@CA?AW4parameter_type@12@_W@Z 1005000c f i libucrt:output.obj
 0001:0004f010       ?has_flag@?$output_processor@DV?$stream_output_adapter@D@__crt_stdio_output@@V?$format_validation_base@DV?$stream_output_adapter@D@__crt_stdio_output@@@2@@__crt_stdio_output@@ABE_NI@Z 10050010 f i libucrt:output.obj
 0001:0004f022       ?has_flag@?$output_processor@DV?$stream_output_adapter@D@__crt_stdio_output@@V?$positional_parameter_base@DV?$stream_output_adapter@D@__crt_stdio_output@@@2@@__crt_stdio_output@@ABE_NI@Z 10050022 f i libucrt:output.obj
 0001:0004f034       ?has_flag@?$output_processor@DV?$stream_output_adapter@D@__crt_stdio_output@@V?$standard_base@DV?$stream_output_adapter@D@__crt_stdio_output@@@2@@__crt_stdio_output@@ABE_NI@Z 10050034 f i libucrt:output.obj
 0001:0004f046       ?has_flag@?$output_processor@DV?$string_output_adapter@D@__crt_stdio_output@@V?$format_validation_base@DV?$string_output_adapter@D@__crt_stdio_output@@@2@@__crt_stdio_output@@ABE_NI@Z 10050046 f i libucrt:output.obj
 0001:0004f058       ?has_flag@?$output_processor@DV?$string_output_adapter@D@__crt_stdio_output@@V?$positional_parameter_base@DV?$string_output_adapter@D@__crt_stdio_output@@@2@@__crt_stdio_output@@ABE_NI@Z 10050058 f i libucrt:output.obj
 0001:0004f06a       ?has_flag@?$output_processor@DV?$string_output_adapter@D@__crt_stdio_output@@V?$standard_base@DV?$string_output_adapter@D@__crt_stdio_output@@@2@@__crt_stdio_output@@ABE_NI@Z 1005006a f i libucrt:output.obj
 0001:0004f07c       ?has_flag@?$output_processor@_WV?$stream_output_adapter@_W@__crt_stdio_output@@V?$format_validation_base@_WV?$stream_output_adapter@_W@__crt_stdio_output@@@2@@__crt_stdio_output@@ABE_NI@Z 1005007c f i libucrt:output.obj
 0001:0004f08e       ?has_flag@?$output_processor@_WV?$stream_output_adapter@_W@__crt_stdio_output@@V?$positional_parameter_base@_WV?$stream_output_adapter@_W@__crt_stdio_output@@@2@@__crt_stdio_output@@ABE_NI@Z 1005008e f i libucrt:output.obj
 0001:0004f0a0       ?has_flag@?$output_processor@_WV?$stream_output_adapter@_W@__crt_stdio_output@@V?$standard_base@_WV?$stream_output_adapter@_W@__crt_stdio_output@@@2@@__crt_stdio_output@@ABE_NI@Z 100500a0 f i libucrt:output.obj
 0001:0004f0b2       ?has_flag@?$output_processor@_WV?$string_output_adapter@_W@__crt_stdio_output@@V?$format_validation_base@_WV?$string_output_adapter@_W@__crt_stdio_output@@@2@@__crt_stdio_output@@ABE_NI@Z 100500b2 f i libucrt:output.obj
 0001:0004f0c4       ?has_flag@?$output_processor@_WV?$string_output_adapter@_W@__crt_stdio_output@@V?$positional_parameter_base@_WV?$string_output_adapter@_W@__crt_stdio_output@@@2@@__crt_stdio_output@@ABE_NI@Z 100500c4 f i libucrt:output.obj
 0001:0004f0d6       ?has_flag@?$output_processor@_WV?$string_output_adapter@_W@__crt_stdio_output@@V?$standard_base@_WV?$string_output_adapter@_W@__crt_stdio_output@@@2@@__crt_stdio_output@@ABE_NI@Z 100500d6 f i libucrt:output.obj
 0001:0004f0e8       ?is_positional_parameter_reappearance_consistent@?$positional_parameter_base@DV?$stream_output_adapter@D@__crt_stdio_output@@@__crt_stdio_output@@AAE_NABUparameter_data@12@W4parameter_type@12@DW4length_modifier@2@@Z 100500e8 f i libucrt:output.obj
 0001:0004f202       ?is_positional_parameter_reappearance_consistent@?$positional_parameter_base@DV?$string_output_adapter@D@__crt_stdio_output@@@__crt_stdio_output@@AAE_NABUparameter_data@12@W4parameter_type@12@DW4length_modifier@2@@Z 10050202 f i libucrt:output.obj
 0001:0004f31c       ?is_positional_parameter_reappearance_consistent@?$positional_parameter_base@_WV?$stream_output_adapter@_W@__crt_stdio_output@@@__crt_stdio_output@@AAE_NABUparameter_data@12@W4parameter_type@12@_WW4length_modifier@2@@Z 1005031c f i libucrt:output.obj
 0001:0004f437       ?is_positional_parameter_reappearance_consistent@?$positional_parameter_base@_WV?$string_output_adapter@_W@__crt_stdio_output@@@__crt_stdio_output@@AAE_NABUparameter_data@12@W4parameter_type@12@_WW4length_modifier@2@@Z 10050437 f i libucrt:output.obj
 0001:0004f552       ?is_string_backed@__crt_stdio_stream@@QBE_NXZ 10050552 f i libucrt:output.obj
 0001:0004f55e       ?narrow_null_string@?$output_processor@DV?$stream_output_adapter@D@__crt_stdio_output@@V?$format_validation_base@DV?$stream_output_adapter@D@__crt_stdio_output@@@2@@__crt_stdio_output@@CAPADXZ 1005055e f i libucrt:output.obj
 0001:0004f564       ?narrow_null_string@?$output_processor@DV?$stream_output_adapter@D@__crt_stdio_output@@V?$positional_parameter_base@DV?$stream_output_adapter@D@__crt_stdio_output@@@2@@__crt_stdio_output@@CAPADXZ 10050564 f i libucrt:output.obj
 0001:0004f56a       ?narrow_null_string@?$output_processor@DV?$stream_output_adapter@D@__crt_stdio_output@@V?$standard_base@DV?$stream_output_adapter@D@__crt_stdio_output@@@2@@__crt_stdio_output@@CAPADXZ 1005056a f i libucrt:output.obj
 0001:0004f570       ?narrow_null_string@?$output_processor@DV?$string_output_adapter@D@__crt_stdio_output@@V?$format_validation_base@DV?$string_output_adapter@D@__crt_stdio_output@@@2@@__crt_stdio_output@@CAPADXZ 10050570 f i libucrt:output.obj
 0001:0004f576       ?narrow_null_string@?$output_processor@DV?$string_output_adapter@D@__crt_stdio_output@@V?$positional_parameter_base@DV?$string_output_adapter@D@__crt_stdio_output@@@2@@__crt_stdio_output@@CAPADXZ 10050576 f i libucrt:output.obj
 0001:0004f57c       ?narrow_null_string@?$output_processor@DV?$string_output_adapter@D@__crt_stdio_output@@V?$standard_base@DV?$string_output_adapter@D@__crt_stdio_output@@@2@@__crt_stdio_output@@CAPADXZ 1005057c f i libucrt:output.obj
 0001:0004f582       ?narrow_null_string@?$output_processor@_WV?$stream_output_adapter@_W@__crt_stdio_output@@V?$format_validation_base@_WV?$stream_output_adapter@_W@__crt_stdio_output@@@2@@__crt_stdio_output@@CAPADXZ 10050582 f i libucrt:output.obj
 0001:0004f588       ?narrow_null_string@?$output_processor@_WV?$stream_output_adapter@_W@__crt_stdio_output@@V?$positional_parameter_base@_WV?$stream_output_adapter@_W@__crt_stdio_output@@@2@@__crt_stdio_output@@CAPADXZ 10050588 f i libucrt:output.obj
 0001:0004f58e       ?narrow_null_string@?$output_processor@_WV?$stream_output_adapter@_W@__crt_stdio_output@@V?$standard_base@_WV?$stream_output_adapter@_W@__crt_stdio_output@@@2@@__crt_stdio_output@@CAPADXZ 1005058e f i libucrt:output.obj
 0001:0004f594       ?narrow_null_string@?$output_processor@_WV?$string_output_adapter@_W@__crt_stdio_output@@V?$format_validation_base@_WV?$string_output_adapter@_W@__crt_stdio_output@@@2@@__crt_stdio_output@@CAPADXZ 10050594 f i libucrt:output.obj
 0001:0004f59a       ?narrow_null_string@?$output_processor@_WV?$string_output_adapter@_W@__crt_stdio_output@@V?$positional_parameter_base@_WV?$string_output_adapter@_W@__crt_stdio_output@@@2@@__crt_stdio_output@@CAPADXZ 1005059a f i libucrt:output.obj
 0001:0004f5a0       ?narrow_null_string@?$output_processor@_WV?$string_output_adapter@_W@__crt_stdio_output@@V?$standard_base@_WV?$string_output_adapter@_W@__crt_stdio_output@@@2@@__crt_stdio_output@@CAPADXZ 100505a0 f i libucrt:output.obj
 0001:0004f5a6       ?parse_int_from_format_string@?$output_processor@DV?$stream_output_adapter@D@__crt_stdio_output@@V?$format_validation_base@DV?$stream_output_adapter@D@__crt_stdio_output@@@2@@__crt_stdio_output@@AAE_NQAH@Z 100505a6 f i libucrt:output.obj
 0001:0004f61a       ?parse_int_from_format_string@?$output_processor@DV?$stream_output_adapter@D@__crt_stdio_output@@V?$positional_parameter_base@DV?$stream_output_adapter@D@__crt_stdio_output@@@2@@__crt_stdio_output@@AAE_NQAH@Z 1005061a f i libucrt:output.obj
 0001:0004f68e       ?parse_int_from_format_string@?$output_processor@DV?$stream_output_adapter@D@__crt_stdio_output@@V?$standard_base@DV?$stream_output_adapter@D@__crt_stdio_output@@@2@@__crt_stdio_output@@AAE_NQAH@Z 1005068e f i libucrt:output.obj
 0001:0004f702       ?parse_int_from_format_string@?$output_processor@DV?$string_output_adapter@D@__crt_stdio_output@@V?$format_validation_base@DV?$string_output_adapter@D@__crt_stdio_output@@@2@@__crt_stdio_output@@AAE_NQAH@Z 10050702 f i libucrt:output.obj
 0001:0004f776       ?parse_int_from_format_string@?$output_processor@DV?$string_output_adapter@D@__crt_stdio_output@@V?$positional_parameter_base@DV?$string_output_adapter@D@__crt_stdio_output@@@2@@__crt_stdio_output@@AAE_NQAH@Z 10050776 f i libucrt:output.obj
 0001:0004f7ea       ?parse_int_from_format_string@?$output_processor@DV?$string_output_adapter@D@__crt_stdio_output@@V?$standard_base@DV?$string_output_adapter@D@__crt_stdio_output@@@2@@__crt_stdio_output@@AAE_NQAH@Z 100507ea f i libucrt:output.obj
 0001:0004f85e       ?parse_int_from_format_string@?$output_processor@_WV?$stream_output_adapter@_W@__crt_stdio_output@@V?$format_validation_base@_WV?$stream_output_adapter@_W@__crt_stdio_output@@@2@@__crt_stdio_output@@AAE_NQAH@Z 1005085e f i libucrt:output.obj
 0001:0004f8d4       ?parse_int_from_format_string@?$output_processor@_WV?$stream_output_adapter@_W@__crt_stdio_output@@V?$positional_parameter_base@_WV?$stream_output_adapter@_W@__crt_stdio_output@@@2@@__crt_stdio_output@@AAE_NQAH@Z 100508d4 f i libucrt:output.obj
 0001:0004f94a       ?parse_int_from_format_string@?$output_processor@_WV?$stream_output_adapter@_W@__crt_stdio_output@@V?$standard_base@_WV?$stream_output_adapter@_W@__crt_stdio_output@@@2@@__crt_stdio_output@@AAE_NQAH@Z 1005094a f i libucrt:output.obj
 0001:0004f9c0       ?parse_int_from_format_string@?$output_processor@_WV?$string_output_adapter@_W@__crt_stdio_output@@V?$format_validation_base@_WV?$string_output_adapter@_W@__crt_stdio_output@@@2@@__crt_stdio_output@@AAE_NQAH@Z 100509c0 f i libucrt:output.obj
 0001:0004fa36       ?parse_int_from_format_string@?$output_processor@_WV?$string_output_adapter@_W@__crt_stdio_output@@V?$positional_parameter_base@_WV?$string_output_adapter@_W@__crt_stdio_output@@@2@@__crt_stdio_output@@AAE_NQAH@Z 10050a36 f i libucrt:output.obj
 0001:0004faac       ?parse_int_from_format_string@?$output_processor@_WV?$string_output_adapter@_W@__crt_stdio_output@@V?$standard_base@_WV?$string_output_adapter@_W@__crt_stdio_output@@@2@@__crt_stdio_output@@AAE_NQAH@Z 10050aac f i libucrt:output.obj
 0001:0004fb22       ?process@?$output_processor@DV?$stream_output_adapter@D@__crt_stdio_output@@V?$format_validation_base@DV?$stream_output_adapter@D@__crt_stdio_output@@@2@@__crt_stdio_output@@QAEHXZ 10050b22 f i libucrt:output.obj
 0001:0004fc46       ?process@?$output_processor@DV?$stream_output_adapter@D@__crt_stdio_output@@V?$positional_parameter_base@DV?$stream_output_adapter@D@__crt_stdio_output@@@2@@__crt_stdio_output@@QAEHXZ 10050c46 f i libucrt:output.obj
 0001:0004fd76       ?process@?$output_processor@DV?$stream_output_adapter@D@__crt_stdio_output@@V?$standard_base@DV?$stream_output_adapter@D@__crt_stdio_output@@@2@@__crt_stdio_output@@QAEHXZ 10050d76 f i libucrt:output.obj
 0001:0004fe8a       ?process@?$output_processor@DV?$string_output_adapter@D@__crt_stdio_output@@V?$format_validation_base@DV?$string_output_adapter@D@__crt_stdio_output@@@2@@__crt_stdio_output@@QAEHXZ 10050e8a f i libucrt:output.obj
 0001:0004ffae       ?process@?$output_processor@DV?$string_output_adapter@D@__crt_stdio_output@@V?$positional_parameter_base@DV?$string_output_adapter@D@__crt_stdio_output@@@2@@__crt_stdio_output@@QAEHXZ 10050fae f i libucrt:output.obj
 0001:000500de       ?process@?$output_processor@DV?$string_output_adapter@D@__crt_stdio_output@@V?$standard_base@DV?$string_output_adapter@D@__crt_stdio_output@@@2@@__crt_stdio_output@@QAEHXZ 100510de f i libucrt:output.obj
 0001:000501f2       ?process@?$output_processor@_WV?$stream_output_adapter@_W@__crt_stdio_output@@V?$format_validation_base@_WV?$stream_output_adapter@_W@__crt_stdio_output@@@2@@__crt_stdio_output@@QAEHXZ 100511f2 f i libucrt:output.obj
 0001:0005031a       ?process@?$output_processor@_WV?$stream_output_adapter@_W@__crt_stdio_output@@V?$positional_parameter_base@_WV?$stream_output_adapter@_W@__crt_stdio_output@@@2@@__crt_stdio_output@@QAEHXZ 1005131a f i libucrt:output.obj
 0001:0005044e       ?process@?$output_processor@_WV?$stream_output_adapter@_W@__crt_stdio_output@@V?$standard_base@_WV?$stream_output_adapter@_W@__crt_stdio_output@@@2@@__crt_stdio_output@@QAEHXZ 1005144e f i libucrt:output.obj
 0001:0005056a       ?process@?$output_processor@_WV?$string_output_adapter@_W@__crt_stdio_output@@V?$format_validation_base@_WV?$string_output_adapter@_W@__crt_stdio_output@@@2@@__crt_stdio_output@@QAEHXZ 1005156a f i libucrt:output.obj
 0001:00050692       ?process@?$output_processor@_WV?$string_output_adapter@_W@__crt_stdio_output@@V?$positional_parameter_base@_WV?$string_output_adapter@_W@__crt_stdio_output@@@2@@__crt_stdio_output@@QAEHXZ 10051692 f i libucrt:output.obj
 0001:000507c6       ?process@?$output_processor@_WV?$string_output_adapter@_W@__crt_stdio_output@@V?$standard_base@_WV?$string_output_adapter@_W@__crt_stdio_output@@@2@@__crt_stdio_output@@QAEHXZ 100517c6 f i libucrt:output.obj
 0001:000508e2       ?public_stream@__crt_stdio_stream@@QBEPAU_iobuf@@XZ 100518e2 f i libucrt:output.obj
 0001:000508e5       ?set_flag@?$output_processor@DV?$stream_output_adapter@D@__crt_stdio_output@@V?$format_validation_base@DV?$stream_output_adapter@D@__crt_stdio_output@@@2@@__crt_stdio_output@@AAEXI@Z 100518e5 f i libucrt:output.obj
 0001:000508f4       ?set_flag@?$output_processor@DV?$stream_output_adapter@D@__crt_stdio_output@@V?$positional_parameter_base@DV?$stream_output_adapter@D@__crt_stdio_output@@@2@@__crt_stdio_output@@AAEXI@Z 100518f4 f i libucrt:output.obj
 0001:00050903       ?set_flag@?$output_processor@DV?$stream_output_adapter@D@__crt_stdio_output@@V?$standard_base@DV?$stream_output_adapter@D@__crt_stdio_output@@@2@@__crt_stdio_output@@AAEXI@Z 10051903 f i libucrt:output.obj
 0001:00050912       ?set_flag@?$output_processor@DV?$string_output_adapter@D@__crt_stdio_output@@V?$format_validation_base@DV?$string_output_adapter@D@__crt_stdio_output@@@2@@__crt_stdio_output@@AAEXI@Z 10051912 f i libucrt:output.obj
 0001:00050921       ?set_flag@?$output_processor@DV?$string_output_adapter@D@__crt_stdio_output@@V?$positional_parameter_base@DV?$string_output_adapter@D@__crt_stdio_output@@@2@@__crt_stdio_output@@AAEXI@Z 10051921 f i libucrt:output.obj
 0001:00050930       ?set_flag@?$output_processor@DV?$string_output_adapter@D@__crt_stdio_output@@V?$standard_base@DV?$string_output_adapter@D@__crt_stdio_output@@@2@@__crt_stdio_output@@AAEXI@Z 10051930 f i libucrt:output.obj
 0001:0005093f       ?set_flag@?$output_processor@_WV?$stream_output_adapter@_W@__crt_stdio_output@@V?$format_validation_base@_WV?$stream_output_adapter@_W@__crt_stdio_output@@@2@@__crt_stdio_output@@AAEXI@Z 1005193f f i libucrt:output.obj
 0001:0005094e       ?set_flag@?$output_processor@_WV?$stream_output_adapter@_W@__crt_stdio_output@@V?$positional_parameter_base@_WV?$stream_output_adapter@_W@__crt_stdio_output@@@2@@__crt_stdio_output@@AAEXI@Z 1005194e f i libucrt:output.obj
 0001:0005095d       ?set_flag@?$output_processor@_WV?$stream_output_adapter@_W@__crt_stdio_output@@V?$standard_base@_WV?$stream_output_adapter@_W@__crt_stdio_output@@@2@@__crt_stdio_output@@AAEXI@Z 1005195d f i libucrt:output.obj
 0001:0005096c       ?set_flag@?$output_processor@_WV?$string_output_adapter@_W@__crt_stdio_output@@V?$format_validation_base@_WV?$string_output_adapter@_W@__crt_stdio_output@@@2@@__crt_stdio_output@@AAEXI@Z 1005196c f i libucrt:output.obj
 0001:0005097b       ?set_flag@?$output_processor@_WV?$string_output_adapter@_W@__crt_stdio_output@@V?$positional_parameter_base@_WV?$string_output_adapter@_W@__crt_stdio_output@@@2@@__crt_stdio_output@@AAEXI@Z 1005197b f i libucrt:output.obj
 0001:0005098a       ?set_flag@?$output_processor@_WV?$string_output_adapter@_W@__crt_stdio_output@@V?$standard_base@_WV?$string_output_adapter@_W@__crt_stdio_output@@@2@@__crt_stdio_output@@AAEXI@Z 1005198a f i libucrt:output.obj
 0001:00050999       ?should_format@?$positional_parameter_base@DV?$stream_output_adapter@D@__crt_stdio_output@@@__crt_stdio_output@@IAE_NXZ 10051999 f i libucrt:output.obj
 0001:000509af       ?should_format@?$positional_parameter_base@DV?$string_output_adapter@D@__crt_stdio_output@@@__crt_stdio_output@@IAE_NXZ 100519af f i libucrt:output.obj
 0001:000509c5       ?should_format@?$positional_parameter_base@_WV?$stream_output_adapter@_W@__crt_stdio_output@@@__crt_stdio_output@@IAE_NXZ 100519c5 f i libucrt:output.obj
 0001:000509db       ?should_format@?$positional_parameter_base@_WV?$string_output_adapter@_W@__crt_stdio_output@@@__crt_stdio_output@@IAE_NXZ 100519db f i libucrt:output.obj
 0001:000509f1       ?should_format@?$standard_base@DV?$stream_output_adapter@D@__crt_stdio_output@@@__crt_stdio_output@@IAE_NXZ 100519f1 f i libucrt:output.obj
 0001:000509f4       ?should_format@?$standard_base@DV?$string_output_adapter@D@__crt_stdio_output@@@__crt_stdio_output@@IAE_NXZ 100519f4 f i libucrt:output.obj
 0001:000509f7       ?should_format@?$standard_base@_WV?$stream_output_adapter@_W@__crt_stdio_output@@@__crt_stdio_output@@IAE_NXZ 100519f7 f i libucrt:output.obj
 0001:000509fa       ?should_format@?$standard_base@_WV?$string_output_adapter@_W@__crt_stdio_output@@@__crt_stdio_output@@IAE_NXZ 100519fa f i libucrt:output.obj
 0001:000509fd       ?should_skip_normal_state_processing@?$positional_parameter_base@DV?$stream_output_adapter@D@__crt_stdio_output@@@__crt_stdio_output@@IAE_NXZ 100519fd f i libucrt:output.obj
 0001:00050a25       ?should_skip_normal_state_processing@?$positional_parameter_base@DV?$string_output_adapter@D@__crt_stdio_output@@@__crt_stdio_output@@IAE_NXZ 10051a25 f i libucrt:output.obj
 0001:00050a4d       ?should_skip_normal_state_processing@?$positional_parameter_base@_WV?$stream_output_adapter@_W@__crt_stdio_output@@@__crt_stdio_output@@IAE_NXZ 10051a4d f i libucrt:output.obj
 0001:00050a75       ?should_skip_normal_state_processing@?$positional_parameter_base@_WV?$string_output_adapter@_W@__crt_stdio_output@@@__crt_stdio_output@@IAE_NXZ 10051a75 f i libucrt:output.obj
 0001:00050a9d       ?should_skip_normal_state_processing@?$standard_base@DV?$stream_output_adapter@D@__crt_stdio_output@@@__crt_stdio_output@@IAE_NXZ 10051a9d f i libucrt:output.obj
 0001:00050aa0       ?should_skip_normal_state_processing@?$standard_base@DV?$string_output_adapter@D@__crt_stdio_output@@@__crt_stdio_output@@IAE_NXZ 10051aa0 f i libucrt:output.obj
 0001:00050aa3       ?should_skip_normal_state_processing@?$standard_base@_WV?$stream_output_adapter@_W@__crt_stdio_output@@@__crt_stdio_output@@IAE_NXZ 10051aa3 f i libucrt:output.obj
 0001:00050aa6       ?should_skip_normal_state_processing@?$standard_base@_WV?$string_output_adapter@_W@__crt_stdio_output@@@__crt_stdio_output@@IAE_NXZ 10051aa6 f i libucrt:output.obj
 0001:00050aa9       ?should_skip_type_state_output@?$positional_parameter_base@DV?$stream_output_adapter@D@__crt_stdio_output@@@__crt_stdio_output@@IBE_NXZ 10051aa9 f i libucrt:output.obj
 0001:00050ac0       ?should_skip_type_state_output@?$positional_parameter_base@DV?$string_output_adapter@D@__crt_stdio_output@@@__crt_stdio_output@@IBE_NXZ 10051ac0 f i libucrt:output.obj
 0001:00050ad7       ?should_skip_type_state_output@?$positional_parameter_base@_WV?$stream_output_adapter@_W@__crt_stdio_output@@@__crt_stdio_output@@IBE_NXZ 10051ad7 f i libucrt:output.obj
 0001:00050aee       ?should_skip_type_state_output@?$positional_parameter_base@_WV?$string_output_adapter@_W@__crt_stdio_output@@@__crt_stdio_output@@IBE_NXZ 10051aee f i libucrt:output.obj
 0001:00050b05       ?should_skip_type_state_output@?$standard_base@DV?$stream_output_adapter@D@__crt_stdio_output@@@__crt_stdio_output@@IBE_NXZ 10051b05 f i libucrt:output.obj
 0001:00050b08       ?should_skip_type_state_output@?$standard_base@DV?$string_output_adapter@D@__crt_stdio_output@@@__crt_stdio_output@@IBE_NXZ 10051b08 f i libucrt:output.obj
 0001:00050b0b       ?should_skip_type_state_output@?$standard_base@_WV?$stream_output_adapter@_W@__crt_stdio_output@@@__crt_stdio_output@@IBE_NXZ 10051b0b f i libucrt:output.obj
 0001:00050b0e       ?should_skip_type_state_output@?$standard_base@_WV?$string_output_adapter@_W@__crt_stdio_output@@@__crt_stdio_output@@IBE_NXZ 10051b0e f i libucrt:output.obj
 0001:00050b11       ?state_case_dot@?$output_processor@DV?$stream_output_adapter@D@__crt_stdio_output@@V?$format_validation_base@DV?$stream_output_adapter@D@__crt_stdio_output@@@2@@__crt_stdio_output@@AAE_NXZ 10051b11 f i libucrt:output.obj
 0001:00050b18       ?state_case_dot@?$output_processor@DV?$stream_output_adapter@D@__crt_stdio_output@@V?$positional_parameter_base@DV?$stream_output_adapter@D@__crt_stdio_output@@@2@@__crt_stdio_output@@AAE_NXZ 10051b18 f i libucrt:output.obj
 0001:00050b1f       ?state_case_dot@?$output_processor@DV?$stream_output_adapter@D@__crt_stdio_output@@V?$standard_base@DV?$stream_output_adapter@D@__crt_stdio_output@@@2@@__crt_stdio_output@@AAE_NXZ 10051b1f f i libucrt:output.obj
 0001:00050b26       ?state_case_dot@?$output_processor@DV?$string_output_adapter@D@__crt_stdio_output@@V?$format_validation_base@DV?$string_output_adapter@D@__crt_stdio_output@@@2@@__crt_stdio_output@@AAE_NXZ 10051b26 f i libucrt:output.obj
 0001:00050b2d       ?state_case_dot@?$output_processor@DV?$string_output_adapter@D@__crt_stdio_output@@V?$positional_parameter_base@DV?$string_output_adapter@D@__crt_stdio_output@@@2@@__crt_stdio_output@@AAE_NXZ 10051b2d f i libucrt:output.obj
 0001:00050b34       ?state_case_dot@?$output_processor@DV?$string_output_adapter@D@__crt_stdio_output@@V?$standard_base@DV?$string_output_adapter@D@__crt_stdio_output@@@2@@__crt_stdio_output@@AAE_NXZ 10051b34 f i libucrt:output.obj
 0001:00050b3b       ?state_case_dot@?$output_processor@_WV?$stream_output_adapter@_W@__crt_stdio_output@@V?$format_validation_base@_WV?$stream_output_adapter@_W@__crt_stdio_output@@@2@@__crt_stdio_output@@AAE_NXZ 10051b3b f i libucrt:output.obj
 0001:00050b42       ?state_case_dot@?$output_processor@_WV?$stream_output_adapter@_W@__crt_stdio_output@@V?$positional_parameter_base@_WV?$stream_output_adapter@_W@__crt_stdio_output@@@2@@__crt_stdio_output@@AAE_NXZ 10051b42 f i libucrt:output.obj
 0001:00050b49       ?state_case_dot@?$output_processor@_WV?$stream_output_adapter@_W@__crt_stdio_output@@V?$standard_base@_WV?$stream_output_adapter@_W@__crt_stdio_output@@@2@@__crt_stdio_output@@AAE_NXZ 10051b49 f i libucrt:output.obj
 0001:00050b50       ?state_case_dot@?$output_processor@_WV?$string_output_adapter@_W@__crt_stdio_output@@V?$format_validation_base@_WV?$string_output_adapter@_W@__crt_stdio_output@@@2@@__crt_stdio_output@@AAE_NXZ 10051b50 f i libucrt:output.obj
 0001:00050b57       ?state_case_dot@?$output_processor@_WV?$string_output_adapter@_W@__crt_stdio_output@@V?$positional_parameter_base@_WV?$string_output_adapter@_W@__crt_stdio_output@@@2@@__crt_stdio_output@@AAE_NXZ 10051b57 f i libucrt:output.obj
 0001:00050b5e       ?state_case_dot@?$output_processor@_WV?$string_output_adapter@_W@__crt_stdio_output@@V?$standard_base@_WV?$string_output_adapter@_W@__crt_stdio_output@@@2@@__crt_stdio_output@@AAE_NXZ 10051b5e f i libucrt:output.obj
 0001:00050b65       ?state_case_flag@?$output_processor@DV?$stream_output_adapter@D@__crt_stdio_output@@V?$format_validation_base@DV?$stream_output_adapter@D@__crt_stdio_output@@@2@@__crt_stdio_output@@AAE_NXZ 10051b65 f i libucrt:output.obj
 0001:00050ba2       ?state_case_flag@?$output_processor@DV?$stream_output_adapter@D@__crt_stdio_output@@V?$positional_parameter_base@DV?$stream_output_adapter@D@__crt_stdio_output@@@2@@__crt_stdio_output@@AAE_NXZ 10051ba2 f i libucrt:output.obj
 0001:00050bdf       ?state_case_flag@?$output_processor@DV?$stream_output_adapter@D@__crt_stdio_output@@V?$standard_base@DV?$stream_output_adapter@D@__crt_stdio_output@@@2@@__crt_stdio_output@@AAE_NXZ 10051bdf f i libucrt:output.obj
 0001:00050c1c       ?state_case_flag@?$output_processor@DV?$string_output_adapter@D@__crt_stdio_output@@V?$format_validation_base@DV?$string_output_adapter@D@__crt_stdio_output@@@2@@__crt_stdio_output@@AAE_NXZ 10051c1c f i libucrt:output.obj
 0001:00050c59       ?state_case_flag@?$output_processor@DV?$string_output_adapter@D@__crt_stdio_output@@V?$positional_parameter_base@DV?$string_output_adapter@D@__crt_stdio_output@@@2@@__crt_stdio_output@@AAE_NXZ 10051c59 f i libucrt:output.obj
 0001:00050c96       ?state_case_flag@?$output_processor@DV?$string_output_adapter@D@__crt_stdio_output@@V?$standard_base@DV?$string_output_adapter@D@__crt_stdio_output@@@2@@__crt_stdio_output@@AAE_NXZ 10051c96 f i libucrt:output.obj
 0001:00050cd3       ?state_case_flag@?$output_processor@_WV?$stream_output_adapter@_W@__crt_stdio_output@@V?$format_validation_base@_WV?$stream_output_adapter@_W@__crt_stdio_output@@@2@@__crt_stdio_output@@AAE_NXZ 10051cd3 f i libucrt:output.obj
 0001:00050d10       ?state_case_flag@?$output_processor@_WV?$stream_output_adapter@_W@__crt_stdio_output@@V?$positional_parameter_base@_WV?$stream_output_adapter@_W@__crt_stdio_output@@@2@@__crt_stdio_output@@AAE_NXZ 10051d10 f i libucrt:output.obj
 0001:00050d4d       ?state_case_flag@?$output_processor@_WV?$stream_output_adapter@_W@__crt_stdio_output@@V?$standard_base@_WV?$stream_output_adapter@_W@__crt_stdio_output@@@2@@__crt_stdio_output@@AAE_NXZ 10051d4d f i libucrt:output.obj
 0001:00050d8a       ?state_case_flag@?$output_processor@_WV?$string_output_adapter@_W@__crt_stdio_output@@V?$format_validation_base@_WV?$string_output_adapter@_W@__crt_stdio_output@@@2@@__crt_stdio_output@@AAE_NXZ 10051d8a f i libucrt:output.obj
 0001:00050dc7       ?state_case_flag@?$output_processor@_WV?$string_output_adapter@_W@__crt_stdio_output@@V?$positional_parameter_base@_WV?$string_output_adapter@_W@__crt_stdio_output@@@2@@__crt_stdio_output@@AAE_NXZ 10051dc7 f i libucrt:output.obj
 0001:00050e04       ?state_case_flag@?$output_processor@_WV?$string_output_adapter@_W@__crt_stdio_output@@V?$standard_base@_WV?$string_output_adapter@_W@__crt_stdio_output@@@2@@__crt_stdio_output@@AAE_NXZ 10051e04 f i libucrt:output.obj
 0001:00050e41       ?state_case_normal@?$output_processor@DV?$stream_output_adapter@D@__crt_stdio_output@@V?$format_validation_base@DV?$stream_output_adapter@D@__crt_stdio_output@@@2@@__crt_stdio_output@@AAE_NXZ 10051e41 f i libucrt:output.obj
 0001:00050e60       ?state_case_normal@?$output_processor@DV?$stream_output_adapter@D@__crt_stdio_output@@V?$positional_parameter_base@DV?$stream_output_adapter@D@__crt_stdio_output@@@2@@__crt_stdio_output@@AAE_NXZ 10051e60 f i libucrt:output.obj
 0001:00050e91       ?state_case_normal@?$output_processor@DV?$stream_output_adapter@D@__crt_stdio_output@@V?$standard_base@DV?$stream_output_adapter@D@__crt_stdio_output@@@2@@__crt_stdio_output@@AAE_NXZ 10051e91 f i libucrt:output.obj
 0001:00050eb0       ?state_case_normal@?$output_processor@DV?$string_output_adapter@D@__crt_stdio_output@@V?$format_validation_base@DV?$string_output_adapter@D@__crt_stdio_output@@@2@@__crt_stdio_output@@AAE_NXZ 10051eb0 f i libucrt:output.obj
 0001:00050ecf       ?state_case_normal@?$output_processor@DV?$string_output_adapter@D@__crt_stdio_output@@V?$positional_parameter_base@DV?$string_output_adapter@D@__crt_stdio_output@@@2@@__crt_stdio_output@@AAE_NXZ 10051ecf f i libucrt:output.obj
 0001:00050f00       ?state_case_normal@?$output_processor@DV?$string_output_adapter@D@__crt_stdio_output@@V?$standard_base@DV?$string_output_adapter@D@__crt_stdio_output@@@2@@__crt_stdio_output@@AAE_NXZ 10051f00 f i libucrt:output.obj
 0001:00050f1f       ?state_case_normal@?$output_processor@_WV?$stream_output_adapter@_W@__crt_stdio_output@@V?$format_validation_base@_WV?$stream_output_adapter@_W@__crt_stdio_output@@@2@@__crt_stdio_output@@AAE_NXZ 10051f1f f i libucrt:output.obj
 0001:00050f3e       ?state_case_normal@?$output_processor@_WV?$stream_output_adapter@_W@__crt_stdio_output@@V?$positional_parameter_base@_WV?$stream_output_adapter@_W@__crt_stdio_output@@@2@@__crt_stdio_output@@AAE_NXZ 10051f3e f i libucrt:output.obj
 0001:00050f6f       ?state_case_normal@?$output_processor@_WV?$stream_output_adapter@_W@__crt_stdio_output@@V?$standard_base@_WV?$stream_output_adapter@_W@__crt_stdio_output@@@2@@__crt_stdio_output@@AAE_NXZ 10051f6f f i libucrt:output.obj
 0001:00050f8e       ?state_case_normal@?$output_processor@_WV?$string_output_adapter@_W@__crt_stdio_output@@V?$format_validation_base@_WV?$string_output_adapter@_W@__crt_stdio_output@@@2@@__crt_stdio_output@@AAE_NXZ 10051f8e f i libucrt:output.obj
 0001:00050fad       ?state_case_normal@?$output_processor@_WV?$string_output_adapter@_W@__crt_stdio_output@@V?$positional_parameter_base@_WV?$string_output_adapter@_W@__crt_stdio_output@@@2@@__crt_stdio_output@@AAE_NXZ 10051fad f i libucrt:output.obj
 0001:00050fde       ?state_case_normal@?$output_processor@_WV?$string_output_adapter@_W@__crt_stdio_output@@V?$standard_base@_WV?$string_output_adapter@_W@__crt_stdio_output@@@2@@__crt_stdio_output@@AAE_NXZ 10051fde f i libucrt:output.obj
 0001:00050ffd       ?state_case_normal_common@?$output_processor@DV?$stream_output_adapter@D@__crt_stdio_output@@V?$format_validation_base@DV?$stream_output_adapter@D@__crt_stdio_output@@@2@@__crt_stdio_output@@AAE_NXZ 10051ffd f i libucrt:output.obj
 0001:00051037       ?state_case_normal_common@?$output_processor@DV?$stream_output_adapter@D@__crt_stdio_output@@V?$positional_parameter_base@DV?$stream_output_adapter@D@__crt_stdio_output@@@2@@__crt_stdio_output@@AAE_NXZ 10052037 f i libucrt:output.obj
 0001:00051071       ?state_case_normal_common@?$output_processor@DV?$stream_output_adapter@D@__crt_stdio_output@@V?$standard_base@DV?$stream_output_adapter@D@__crt_stdio_output@@@2@@__crt_stdio_output@@AAE_NXZ 10052071 f i libucrt:output.obj
 0001:000510ab       ?state_case_normal_common@?$output_processor@DV?$string_output_adapter@D@__crt_stdio_output@@V?$format_validation_base@DV?$string_output_adapter@D@__crt_stdio_output@@@2@@__crt_stdio_output@@AAE_NXZ 100520ab f i libucrt:output.obj
 0001:000510d5       ?state_case_normal_common@?$output_processor@DV?$string_output_adapter@D@__crt_stdio_output@@V?$positional_parameter_base@DV?$string_output_adapter@D@__crt_stdio_output@@@2@@__crt_stdio_output@@AAE_NXZ 100520d5 f i libucrt:output.obj
 0001:000510ff       ?state_case_normal_common@?$output_processor@DV?$string_output_adapter@D@__crt_stdio_output@@V?$standard_base@DV?$string_output_adapter@D@__crt_stdio_output@@@2@@__crt_stdio_output@@AAE_NXZ 100520ff f i libucrt:output.obj
 0001:00051129       ?state_case_normal_common@?$output_processor@_WV?$stream_output_adapter@_W@__crt_stdio_output@@V?$format_validation_base@_WV?$stream_output_adapter@_W@__crt_stdio_output@@@2@@__crt_stdio_output@@AAE_NXZ 10052129 f i libucrt:output.obj
 0001:00051153       ?state_case_normal_common@?$output_processor@_WV?$stream_output_adapter@_W@__crt_stdio_output@@V?$positional_parameter_base@_WV?$stream_output_adapter@_W@__crt_stdio_output@@@2@@__crt_stdio_output@@AAE_NXZ 10052153 f i libucrt:output.obj
 0001:0005117d       ?state_case_normal_common@?$output_processor@_WV?$stream_output_adapter@_W@__crt_stdio_output@@V?$standard_base@_WV?$stream_output_adapter@_W@__crt_stdio_output@@@2@@__crt_stdio_output@@AAE_NXZ 1005217d f i libucrt:output.obj
 0001:000511a7       ?state_case_normal_common@?$output_processor@_WV?$string_output_adapter@_W@__crt_stdio_output@@V?$format_validation_base@_WV?$string_output_adapter@_W@__crt_stdio_output@@@2@@__crt_stdio_output@@AAE_NXZ 100521a7 f i libucrt:output.obj
 0001:000511c2       ?state_case_normal_common@?$output_processor@_WV?$string_output_adapter@_W@__crt_stdio_output@@V?$positional_parameter_base@_WV?$string_output_adapter@_W@__crt_stdio_output@@@2@@__crt_stdio_output@@AAE_NXZ 100521c2 f i libucrt:output.obj
 0001:000511dd       ?state_case_normal_common@?$output_processor@_WV?$string_output_adapter@_W@__crt_stdio_output@@V?$standard_base@_WV?$string_output_adapter@_W@__crt_stdio_output@@@2@@__crt_stdio_output@@AAE_NXZ 100521dd f i libucrt:output.obj
 0001:000511f8       ?state_case_normal_tchar@?$output_processor@DV?$stream_output_adapter@D@__crt_stdio_output@@V?$format_validation_base@DV?$stream_output_adapter@D@__crt_stdio_output@@@2@@__crt_stdio_output@@AAE_ND@Z 100521f8 f i libucrt:output.obj
 0001:00051265       ?state_case_normal_tchar@?$output_processor@DV?$stream_output_adapter@D@__crt_stdio_output@@V?$positional_parameter_base@DV?$stream_output_adapter@D@__crt_stdio_output@@@2@@__crt_stdio_output@@AAE_ND@Z 10052265 f i libucrt:output.obj
 0001:000512d2       ?state_case_normal_tchar@?$output_processor@DV?$stream_output_adapter@D@__crt_stdio_output@@V?$standard_base@DV?$stream_output_adapter@D@__crt_stdio_output@@@2@@__crt_stdio_output@@AAE_ND@Z 100522d2 f i libucrt:output.obj
 0001:0005133f       ?state_case_normal_tchar@?$output_processor@DV?$string_output_adapter@D@__crt_stdio_output@@V?$format_validation_base@DV?$string_output_adapter@D@__crt_stdio_output@@@2@@__crt_stdio_output@@AAE_ND@Z 1005233f f i libucrt:output.obj
 0001:000513a3       ?state_case_normal_tchar@?$output_processor@DV?$string_output_adapter@D@__crt_stdio_output@@V?$positional_parameter_base@DV?$string_output_adapter@D@__crt_stdio_output@@@2@@__crt_stdio_output@@AAE_ND@Z 100523a3 f i libucrt:output.obj
 0001:00051407       ?state_case_normal_tchar@?$output_processor@DV?$string_output_adapter@D@__crt_stdio_output@@V?$standard_base@DV?$string_output_adapter@D@__crt_stdio_output@@@2@@__crt_stdio_output@@AAE_ND@Z 10052407 f i libucrt:output.obj
 0001:0005146b       ?state_case_normal_tchar@?$output_processor@_WV?$stream_output_adapter@_W@__crt_stdio_output@@V?$format_validation_base@_WV?$stream_output_adapter@_W@__crt_stdio_output@@@2@@__crt_stdio_output@@AAE_N_W@Z 1005246b f i libucrt:output.obj
 0001:00051474       ?state_case_normal_tchar@?$output_processor@_WV?$stream_output_adapter@_W@__crt_stdio_output@@V?$positional_parameter_base@_WV?$stream_output_adapter@_W@__crt_stdio_output@@@2@@__crt_stdio_output@@AAE_N_W@Z 10052474 f i libucrt:output.obj
 0001:0005147d       ?state_case_normal_tchar@?$output_processor@_WV?$stream_output_adapter@_W@__crt_stdio_output@@V?$standard_base@_WV?$stream_output_adapter@_W@__crt_stdio_output@@@2@@__crt_stdio_output@@AAE_N_W@Z 1005247d f i libucrt:output.obj
 0001:00051486       ?state_case_normal_tchar@?$output_processor@_WV?$string_output_adapter@_W@__crt_stdio_output@@V?$format_validation_base@_WV?$string_output_adapter@_W@__crt_stdio_output@@@2@@__crt_stdio_output@@AAE_N_W@Z 10052486 f i libucrt:output.obj
 0001:0005148f       ?state_case_normal_tchar@?$output_processor@_WV?$string_output_adapter@_W@__crt_stdio_output@@V?$positional_parameter_base@_WV?$string_output_adapter@_W@__crt_stdio_output@@@2@@__crt_stdio_output@@AAE_N_W@Z 1005248f f i libucrt:output.obj
 0001:00051498       ?state_case_normal_tchar@?$output_processor@_WV?$string_output_adapter@_W@__crt_stdio_output@@V?$standard_base@_WV?$string_output_adapter@_W@__crt_stdio_output@@@2@@__crt_stdio_output@@AAE_N_W@Z 10052498 f i libucrt:output.obj
 0001:000514a1       ?state_case_percent@?$output_processor@DV?$stream_output_adapter@D@__crt_stdio_output@@V?$format_validation_base@DV?$stream_output_adapter@D@__crt_stdio_output@@@2@@__crt_stdio_output@@AAE_NXZ 100524a1 f i libucrt:output.obj
 0001:000514b9       ?state_case_percent@?$output_processor@DV?$stream_output_adapter@D@__crt_stdio_output@@V?$positional_parameter_base@DV?$stream_output_adapter@D@__crt_stdio_output@@@2@@__crt_stdio_output@@AAE_NXZ 100524b9 f i libucrt:output.obj
 0001:000514d1       ?state_case_percent@?$output_processor@DV?$stream_output_adapter@D@__crt_stdio_output@@V?$standard_base@DV?$stream_output_adapter@D@__crt_stdio_output@@@2@@__crt_stdio_output@@AAE_NXZ 100524d1 f i libucrt:output.obj
 0001:000514e9       ?state_case_percent@?$output_processor@DV?$string_output_adapter@D@__crt_stdio_output@@V?$format_validation_base@DV?$string_output_adapter@D@__crt_stdio_output@@@2@@__crt_stdio_output@@AAE_NXZ 100524e9 f i libucrt:output.obj
 0001:00051501       ?state_case_percent@?$output_processor@DV?$string_output_adapter@D@__crt_stdio_output@@V?$positional_parameter_base@DV?$string_output_adapter@D@__crt_stdio_output@@@2@@__crt_stdio_output@@AAE_NXZ 10052501 f i libucrt:output.obj
 0001:00051519       ?state_case_percent@?$output_processor@DV?$string_output_adapter@D@__crt_stdio_output@@V?$standard_base@DV?$string_output_adapter@D@__crt_stdio_output@@@2@@__crt_stdio_output@@AAE_NXZ 10052519 f i libucrt:output.obj
 0001:00051531       ?state_case_percent@?$output_processor@_WV?$stream_output_adapter@_W@__crt_stdio_output@@V?$format_validation_base@_WV?$stream_output_adapter@_W@__crt_stdio_output@@@2@@__crt_stdio_output@@AAE_NXZ 10052531 f i libucrt:output.obj
 0001:00051549       ?state_case_percent@?$output_processor@_WV?$stream_output_adapter@_W@__crt_stdio_output@@V?$positional_parameter_base@_WV?$stream_output_adapter@_W@__crt_stdio_output@@@2@@__crt_stdio_output@@AAE_NXZ 10052549 f i libucrt:output.obj
 0001:00051561       ?state_case_percent@?$output_processor@_WV?$stream_output_adapter@_W@__crt_stdio_output@@V?$standard_base@_WV?$stream_output_adapter@_W@__crt_stdio_output@@@2@@__crt_stdio_output@@AAE_NXZ 10052561 f i libucrt:output.obj
 0001:00051579       ?state_case_percent@?$output_processor@_WV?$string_output_adapter@_W@__crt_stdio_output@@V?$format_validation_base@_WV?$string_output_adapter@_W@__crt_stdio_output@@@2@@__crt_stdio_output@@AAE_NXZ 10052579 f i libucrt:output.obj
 0001:00051591       ?state_case_percent@?$output_processor@_WV?$string_output_adapter@_W@__crt_stdio_output@@V?$positional_parameter_base@_WV?$string_output_adapter@_W@__crt_stdio_output@@@2@@__crt_stdio_output@@AAE_NXZ 10052591 f i libucrt:output.obj
 0001:000515a9       ?state_case_percent@?$output_processor@_WV?$string_output_adapter@_W@__crt_stdio_output@@V?$standard_base@_WV?$string_output_adapter@_W@__crt_stdio_output@@@2@@__crt_stdio_output@@AAE_NXZ 100525a9 f i libucrt:output.obj
 0001:000515c1       ?state_case_precision@?$output_processor@DV?$stream_output_adapter@D@__crt_stdio_output@@V?$format_validation_base@DV?$stream_output_adapter@D@__crt_stdio_output@@@2@@__crt_stdio_output@@AAE_NXZ 100525c1 f i libucrt:output.obj
 0001:000515e7       ?state_case_precision@?$output_processor@DV?$stream_output_adapter@D@__crt_stdio_output@@V?$positional_parameter_base@DV?$stream_output_adapter@D@__crt_stdio_output@@@2@@__crt_stdio_output@@AAE_NXZ 100525e7 f i libucrt:output.obj
 0001:00051621       ?state_case_precision@?$output_processor@DV?$stream_output_adapter@D@__crt_stdio_output@@V?$standard_base@DV?$stream_output_adapter@D@__crt_stdio_output@@@2@@__crt_stdio_output@@AAE_NXZ 10052621 f i libucrt:output.obj
 0001:00051647       ?state_case_precision@?$output_processor@DV?$string_output_adapter@D@__crt_stdio_output@@V?$format_validation_base@DV?$string_output_adapter@D@__crt_stdio_output@@@2@@__crt_stdio_output@@AAE_NXZ 10052647 f i libucrt:output.obj
 0001:0005166d       ?state_case_precision@?$output_processor@DV?$string_output_adapter@D@__crt_stdio_output@@V?$positional_parameter_base@DV?$string_output_adapter@D@__crt_stdio_output@@@2@@__crt_stdio_output@@AAE_NXZ 1005266d f i libucrt:output.obj
 0001:000516a7       ?state_case_precision@?$output_processor@DV?$string_output_adapter@D@__crt_stdio_output@@V?$standard_base@DV?$string_output_adapter@D@__crt_stdio_output@@@2@@__crt_stdio_output@@AAE_NXZ 100526a7 f i libucrt:output.obj
 0001:000516cd       ?state_case_precision@?$output_processor@_WV?$stream_output_adapter@_W@__crt_stdio_output@@V?$format_validation_base@_WV?$stream_output_adapter@_W@__crt_stdio_output@@@2@@__crt_stdio_output@@AAE_NXZ 100526cd f i libucrt:output.obj
 0001:000516f4       ?state_case_precision@?$output_processor@_WV?$stream_output_adapter@_W@__crt_stdio_output@@V?$positional_parameter_base@_WV?$stream_output_adapter@_W@__crt_stdio_output@@@2@@__crt_stdio_output@@AAE_NXZ 100526f4 f i libucrt:output.obj
 0001:0005172f       ?state_case_precision@?$output_processor@_WV?$stream_output_adapter@_W@__crt_stdio_output@@V?$standard_base@_WV?$stream_output_adapter@_W@__crt_stdio_output@@@2@@__crt_stdio_output@@AAE_NXZ 1005272f f i libucrt:output.obj
 0001:00051756       ?state_case_precision@?$output_processor@_WV?$string_output_adapter@_W@__crt_stdio_output@@V?$format_validation_base@_WV?$string_output_adapter@_W@__crt_stdio_output@@@2@@__crt_stdio_output@@AAE_NXZ 10052756 f i libucrt:output.obj
 0001:0005177d       ?state_case_precision@?$output_processor@_WV?$string_output_adapter@_W@__crt_stdio_output@@V?$positional_parameter_base@_WV?$string_output_adapter@_W@__crt_stdio_output@@@2@@__crt_stdio_output@@AAE_NXZ 1005277d f i libucrt:output.obj
 0001:000517b8       ?state_case_precision@?$output_processor@_WV?$string_output_adapter@_W@__crt_stdio_output@@V?$standard_base@_WV?$string_output_adapter@_W@__crt_stdio_output@@@2@@__crt_stdio_output@@AAE_NXZ 100527b8 f i libucrt:output.obj
 0001:000517df       ?state_case_size@?$output_processor@DV?$stream_output_adapter@D@__crt_stdio_output@@V?$format_validation_base@DV?$stream_output_adapter@D@__crt_stdio_output@@@2@@__crt_stdio_output@@AAE_NXZ 100527df f i libucrt:output.obj
 0001:0005192d       ?state_case_size@?$output_processor@DV?$stream_output_adapter@D@__crt_stdio_output@@V?$positional_parameter_base@DV?$stream_output_adapter@D@__crt_stdio_output@@@2@@__crt_stdio_output@@AAE_NXZ 1005292d f i libucrt:output.obj
 0001:00051a7b       ?state_case_size@?$output_processor@DV?$stream_output_adapter@D@__crt_stdio_output@@V?$standard_base@DV?$stream_output_adapter@D@__crt_stdio_output@@@2@@__crt_stdio_output@@AAE_NXZ 10052a7b f i libucrt:output.obj
 0001:00051bc9       ?state_case_size@?$output_processor@DV?$string_output_adapter@D@__crt_stdio_output@@V?$format_validation_base@DV?$string_output_adapter@D@__crt_stdio_output@@@2@@__crt_stdio_output@@AAE_NXZ 10052bc9 f i libucrt:output.obj
 0001:00051d17       ?state_case_size@?$output_processor@DV?$string_output_adapter@D@__crt_stdio_output@@V?$positional_parameter_base@DV?$string_output_adapter@D@__crt_stdio_output@@@2@@__crt_stdio_output@@AAE_NXZ 10052d17 f i libucrt:output.obj
 0001:00051e65       ?state_case_size@?$output_processor@DV?$string_output_adapter@D@__crt_stdio_output@@V?$standard_base@DV?$string_output_adapter@D@__crt_stdio_output@@@2@@__crt_stdio_output@@AAE_NXZ 10052e65 f i libucrt:output.obj
 0001:00051fb3       ?state_case_size@?$output_processor@_WV?$stream_output_adapter@_W@__crt_stdio_output@@V?$format_validation_base@_WV?$stream_output_adapter@_W@__crt_stdio_output@@@2@@__crt_stdio_output@@AAE_NXZ 10052fb3 f i libucrt:output.obj
 0001:0005212b       ?state_case_size@?$output_processor@_WV?$stream_output_adapter@_W@__crt_stdio_output@@V?$positional_parameter_base@_WV?$stream_output_adapter@_W@__crt_stdio_output@@@2@@__crt_stdio_output@@AAE_NXZ 1005312b f i libucrt:output.obj
 0001:000522a3       ?state_case_size@?$output_processor@_WV?$stream_output_adapter@_W@__crt_stdio_output@@V?$standard_base@_WV?$stream_output_adapter@_W@__crt_stdio_output@@@2@@__crt_stdio_output@@AAE_NXZ 100532a3 f i libucrt:output.obj
 0001:0005241b       ?state_case_size@?$output_processor@_WV?$string_output_adapter@_W@__crt_stdio_output@@V?$format_validation_base@_WV?$string_output_adapter@_W@__crt_stdio_output@@@2@@__crt_stdio_output@@AAE_NXZ 1005341b f i libucrt:output.obj
 0001:00052593       ?state_case_size@?$output_processor@_WV?$string_output_adapter@_W@__crt_stdio_output@@V?$positional_parameter_base@_WV?$string_output_adapter@_W@__crt_stdio_output@@@2@@__crt_stdio_output@@AAE_NXZ 10053593 f i libucrt:output.obj
 0001:0005270b       ?state_case_size@?$output_processor@_WV?$string_output_adapter@_W@__crt_stdio_output@@V?$standard_base@_WV?$string_output_adapter@_W@__crt_stdio_output@@@2@@__crt_stdio_output@@AAE_NXZ 1005370b f i libucrt:output.obj
 0001:00052883       ?state_case_type@?$output_processor@DV?$stream_output_adapter@D@__crt_stdio_output@@V?$format_validation_base@DV?$stream_output_adapter@D@__crt_stdio_output@@@2@@__crt_stdio_output@@AAE_NXZ 10053883 f i libucrt:output.obj
 0001:00052ab5       ?state_case_type@?$output_processor@DV?$stream_output_adapter@D@__crt_stdio_output@@V?$positional_parameter_base@DV?$stream_output_adapter@D@__crt_stdio_output@@@2@@__crt_stdio_output@@AAE_NXZ 10053ab5 f i libucrt:output.obj
 0001:00052cf6       ?state_case_type@?$output_processor@DV?$stream_output_adapter@D@__crt_stdio_output@@V?$standard_base@DV?$stream_output_adapter@D@__crt_stdio_output@@@2@@__crt_stdio_output@@AAE_NXZ 10053cf6 f i libucrt:output.obj
 0001:00052f28       ?state_case_type@?$output_processor@DV?$string_output_adapter@D@__crt_stdio_output@@V?$format_validation_base@DV?$string_output_adapter@D@__crt_stdio_output@@@2@@__crt_stdio_output@@AAE_NXZ 10053f28 f i libucrt:output.obj
 0001:0005315a       ?state_case_type@?$output_processor@DV?$string_output_adapter@D@__crt_stdio_output@@V?$positional_parameter_base@DV?$string_output_adapter@D@__crt_stdio_output@@@2@@__crt_stdio_output@@AAE_NXZ 1005415a f i libucrt:output.obj
 0001:0005339b       ?state_case_type@?$output_processor@DV?$string_output_adapter@D@__crt_stdio_output@@V?$standard_base@DV?$string_output_adapter@D@__crt_stdio_output@@@2@@__crt_stdio_output@@AAE_NXZ 1005439b f i libucrt:output.obj
 0001:000535cd       ?state_case_type@?$output_processor@_WV?$stream_output_adapter@_W@__crt_stdio_output@@V?$format_validation_base@_WV?$stream_output_adapter@_W@__crt_stdio_output@@@2@@__crt_stdio_output@@AAE_NXZ 100545cd f i libucrt:output.obj
 0001:0005382a       ?state_case_type@?$output_processor@_WV?$stream_output_adapter@_W@__crt_stdio_output@@V?$positional_parameter_base@_WV?$stream_output_adapter@_W@__crt_stdio_output@@@2@@__crt_stdio_output@@AAE_NXZ 1005482a f i libucrt:output.obj
 0001:00053a96       ?state_case_type@?$output_processor@_WV?$stream_output_adapter@_W@__crt_stdio_output@@V?$standard_base@_WV?$stream_output_adapter@_W@__crt_stdio_output@@@2@@__crt_stdio_output@@AAE_NXZ 10054a96 f i libucrt:output.obj
 0001:00053cf3       ?state_case_type@?$output_processor@_WV?$string_output_adapter@_W@__crt_stdio_output@@V?$format_validation_base@_WV?$string_output_adapter@_W@__crt_stdio_output@@@2@@__crt_stdio_output@@AAE_NXZ 10054cf3 f i libucrt:output.obj
 0001:00053f50       ?state_case_type@?$output_processor@_WV?$string_output_adapter@_W@__crt_stdio_output@@V?$positional_parameter_base@_WV?$string_output_adapter@_W@__crt_stdio_output@@@2@@__crt_stdio_output@@AAE_NXZ 10054f50 f i libucrt:output.obj
 0001:000541bc       ?state_case_type@?$output_processor@_WV?$string_output_adapter@_W@__crt_stdio_output@@V?$standard_base@_WV?$string_output_adapter@_W@__crt_stdio_output@@@2@@__crt_stdio_output@@AAE_NXZ 100551bc f i libucrt:output.obj
 0001:00054419       ?state_case_width@?$output_processor@DV?$stream_output_adapter@D@__crt_stdio_output@@V?$format_validation_base@DV?$stream_output_adapter@D@__crt_stdio_output@@@2@@__crt_stdio_output@@AAE_NXZ 10055419 f i libucrt:output.obj
 0001:00054444       ?state_case_width@?$output_processor@DV?$stream_output_adapter@D@__crt_stdio_output@@V?$positional_parameter_base@DV?$stream_output_adapter@D@__crt_stdio_output@@@2@@__crt_stdio_output@@AAE_NXZ 10055444 f i libucrt:output.obj
 0001:00054484       ?state_case_width@?$output_processor@DV?$stream_output_adapter@D@__crt_stdio_output@@V?$standard_base@DV?$stream_output_adapter@D@__crt_stdio_output@@@2@@__crt_stdio_output@@AAE_NXZ 10055484 f i libucrt:output.obj
 0001:000544af       ?state_case_width@?$output_processor@DV?$string_output_adapter@D@__crt_stdio_output@@V?$format_validation_base@DV?$string_output_adapter@D@__crt_stdio_output@@@2@@__crt_stdio_output@@AAE_NXZ 100554af f i libucrt:output.obj
 0001:000544da       ?state_case_width@?$output_processor@DV?$string_output_adapter@D@__crt_stdio_output@@V?$positional_parameter_base@DV?$string_output_adapter@D@__crt_stdio_output@@@2@@__crt_stdio_output@@AAE_NXZ 100554da f i libucrt:output.obj
 0001:0005451a       ?state_case_width@?$output_processor@DV?$string_output_adapter@D@__crt_stdio_output@@V?$standard_base@DV?$string_output_adapter@D@__crt_stdio_output@@@2@@__crt_stdio_output@@AAE_NXZ 1005551a f i libucrt:output.obj
 0001:00054545       ?state_case_width@?$output_processor@_WV?$stream_output_adapter@_W@__crt_stdio_output@@V?$format_validation_base@_WV?$stream_output_adapter@_W@__crt_stdio_output@@@2@@__crt_stdio_output@@AAE_NXZ 10055545 f i libucrt:output.obj
 0001:00054571       ?state_case_width@?$output_processor@_WV?$stream_output_adapter@_W@__crt_stdio_output@@V?$positional_parameter_base@_WV?$stream_output_adapter@_W@__crt_stdio_output@@@2@@__crt_stdio_output@@AAE_NXZ 10055571 f i libucrt:output.obj
 0001:000545b2       ?state_case_width@?$output_processor@_WV?$stream_output_adapter@_W@__crt_stdio_output@@V?$standard_base@_WV?$stream_output_adapter@_W@__crt_stdio_output@@@2@@__crt_stdio_output@@AAE_NXZ 100555b2 f i libucrt:output.obj
 0001:000545de       ?state_case_width@?$output_processor@_WV?$string_output_adapter@_W@__crt_stdio_output@@V?$format_validation_base@_WV?$string_output_adapter@_W@__crt_stdio_output@@@2@@__crt_stdio_output@@AAE_NXZ 100555de f i libucrt:output.obj
 0001:0005460a       ?state_case_width@?$output_processor@_WV?$string_output_adapter@_W@__crt_stdio_output@@V?$positional_parameter_base@_WV?$string_output_adapter@_W@__crt_stdio_output@@@2@@__crt_stdio_output@@AAE_NXZ 1005560a f i libucrt:output.obj
 0001:0005464b       ?state_case_width@?$output_processor@_WV?$string_output_adapter@_W@__crt_stdio_output@@V?$standard_base@_WV?$string_output_adapter@_W@__crt_stdio_output@@@2@@__crt_stdio_output@@AAE_NXZ 1005564b f i libucrt:output.obj
 0001:00054677       ?state_count@?$format_validation_base@DV?$stream_output_adapter@D@__crt_stdio_output@@@__crt_stdio_output@@KAIXZ 10055677 f i libucrt:output.obj
 0001:0005467b       ?state_count@?$format_validation_base@DV?$string_output_adapter@D@__crt_stdio_output@@@__crt_stdio_output@@KAIXZ 1005567b f i libucrt:output.obj
 0001:0005467f       ?state_count@?$format_validation_base@_WV?$stream_output_adapter@_W@__crt_stdio_output@@@__crt_stdio_output@@KAIXZ 1005567f f i libucrt:output.obj
 0001:00054683       ?state_count@?$format_validation_base@_WV?$string_output_adapter@_W@__crt_stdio_output@@@__crt_stdio_output@@KAIXZ 10055683 f i libucrt:output.obj
 0001:00054687       ?state_count@?$standard_base@DV?$stream_output_adapter@D@__crt_stdio_output@@@__crt_stdio_output@@KAIXZ 10055687 f i libucrt:output.obj
 0001:0005468b       ?state_count@?$standard_base@DV?$string_output_adapter@D@__crt_stdio_output@@@__crt_stdio_output@@KAIXZ 1005568b f i libucrt:output.obj
 0001:0005468f       ?state_count@?$standard_base@_WV?$stream_output_adapter@_W@__crt_stdio_output@@@__crt_stdio_output@@KAIXZ 1005568f f i libucrt:output.obj
 0001:00054693       ?state_count@?$standard_base@_WV?$string_output_adapter@_W@__crt_stdio_output@@@__crt_stdio_output@@KAIXZ 10055693 f i libucrt:output.obj
 0001:00054697       ?state_transition_table@?$format_validation_base@DV?$stream_output_adapter@D@__crt_stdio_output@@@__crt_stdio_output@@KAABV?$spectre_mitigated_lookup_table@Ustate_transition_pair@__crt_stdio_output@@$0IA@@2@XZ 10055697 f i libucrt:output.obj
 0001:0005469d       ?state_transition_table@?$format_validation_base@DV?$string_output_adapter@D@__crt_stdio_output@@@__crt_stdio_output@@KAABV?$spectre_mitigated_lookup_table@Ustate_transition_pair@__crt_stdio_output@@$0IA@@2@XZ 1005569d f i libucrt:output.obj
 0001:000546a3       ?state_transition_table@?$format_validation_base@_WV?$stream_output_adapter@_W@__crt_stdio_output@@@__crt_stdio_output@@KAABV?$spectre_mitigated_lookup_table@Ustate_transition_pair@__crt_stdio_output@@$0IA@@2@XZ 100556a3 f i libucrt:output.obj
 0001:000546a9       ?state_transition_table@?$format_validation_base@_WV?$string_output_adapter@_W@__crt_stdio_output@@@__crt_stdio_output@@KAABV?$spectre_mitigated_lookup_table@Ustate_transition_pair@__crt_stdio_output@@$0IA@@2@XZ 100556a9 f i libucrt:output.obj
 0001:000546af       ?state_transition_table@?$standard_base@DV?$stream_output_adapter@D@__crt_stdio_output@@@__crt_stdio_output@@KAABV?$spectre_mitigated_lookup_table@Ustate_transition_pair@__crt_stdio_output@@$0IA@@2@XZ 100556af f i libucrt:output.obj
 0001:000546b5       ?state_transition_table@?$standard_base@DV?$string_output_adapter@D@__crt_stdio_output@@@__crt_stdio_output@@KAABV?$spectre_mitigated_lookup_table@Ustate_transition_pair@__crt_stdio_output@@$0IA@@2@XZ 100556b5 f i libucrt:output.obj
 0001:000546bb       ?state_transition_table@?$standard_base@_WV?$stream_output_adapter@_W@__crt_stdio_output@@@__crt_stdio_output@@KAABV?$spectre_mitigated_lookup_table@Ustate_transition_pair@__crt_stdio_output@@$0IA@@2@XZ 100556bb f i libucrt:output.obj
 0001:000546c1       ?state_transition_table@?$standard_base@_WV?$string_output_adapter@_W@__crt_stdio_output@@@__crt_stdio_output@@KAABV?$spectre_mitigated_lookup_table@Ustate_transition_pair@__crt_stdio_output@@$0IA@@2@XZ 100556c1 f i libucrt:output.obj
 0001:000546c7       ?tchar_string@?$common_data@D@__crt_stdio_output@@IAEAAPADD@Z 100556c7 f i libucrt:output.obj
 0001:000546cd       ?tchar_string@?$common_data@D@__crt_stdio_output@@IAEAAPADXZ 100556cd f i libucrt:output.obj
 0001:000546d1       ?tchar_string@?$common_data@_W@__crt_stdio_output@@IAEAAPA_WXZ 100556d1 f i libucrt:output.obj
 0001:000546d5       ?tchar_string@?$common_data@_W@__crt_stdio_output@@IAEAAPA_W_W@Z 100556d5 f i libucrt:output.obj
 0001:000546e0       ?to_integer_size@__crt_stdio_output@@YAIW4length_modifier@1@@Z 100556e0 f i libucrt:output.obj
 0001:0005473c       ?type_case_X@?$output_processor@DV?$stream_output_adapter@D@__crt_stdio_output@@V?$format_validation_base@DV?$stream_output_adapter@D@__crt_stdio_output@@@2@@__crt_stdio_output@@AAE_NXZ 1005573c f i libucrt:output.obj
 0001:00054746       ?type_case_X@?$output_processor@DV?$stream_output_adapter@D@__crt_stdio_output@@V?$positional_parameter_base@DV?$stream_output_adapter@D@__crt_stdio_output@@@2@@__crt_stdio_output@@AAE_NXZ 10055746 f i libucrt:output.obj
 0001:00054750       ?type_case_X@?$output_processor@DV?$stream_output_adapter@D@__crt_stdio_output@@V?$standard_base@DV?$stream_output_adapter@D@__crt_stdio_output@@@2@@__crt_stdio_output@@AAE_NXZ 10055750 f i libucrt:output.obj
 0001:0005475a       ?type_case_X@?$output_processor@DV?$string_output_adapter@D@__crt_stdio_output@@V?$format_validation_base@DV?$string_output_adapter@D@__crt_stdio_output@@@2@@__crt_stdio_output@@AAE_NXZ 1005575a f i libucrt:output.obj
 0001:00054764       ?type_case_X@?$output_processor@DV?$string_output_adapter@D@__crt_stdio_output@@V?$positional_parameter_base@DV?$string_output_adapter@D@__crt_stdio_output@@@2@@__crt_stdio_output@@AAE_NXZ 10055764 f i libucrt:output.obj
 0001:0005476e       ?type_case_X@?$output_processor@DV?$string_output_adapter@D@__crt_stdio_output@@V?$standard_base@DV?$string_output_adapter@D@__crt_stdio_output@@@2@@__crt_stdio_output@@AAE_NXZ 1005576e f i libucrt:output.obj
 0001:00054778       ?type_case_X@?$output_processor@_WV?$stream_output_adapter@_W@__crt_stdio_output@@V?$format_validation_base@_WV?$stream_output_adapter@_W@__crt_stdio_output@@@2@@__crt_stdio_output@@AAE_NXZ 10055778 f i libucrt:output.obj
 0001:00054782       ?type_case_X@?$output_processor@_WV?$stream_output_adapter@_W@__crt_stdio_output@@V?$positional_parameter_base@_WV?$stream_output_adapter@_W@__crt_stdio_output@@@2@@__crt_stdio_output@@AAE_NXZ 10055782 f i libucrt:output.obj
 0001:0005478c       ?type_case_X@?$output_processor@_WV?$stream_output_adapter@_W@__crt_stdio_output@@V?$standard_base@_WV?$stream_output_adapter@_W@__crt_stdio_output@@@2@@__crt_stdio_output@@AAE_NXZ 1005578c f i libucrt:output.obj
 0001:00054796       ?type_case_X@?$output_processor@_WV?$string_output_adapter@_W@__crt_stdio_output@@V?$format_validation_base@_WV?$string_output_adapter@_W@__crt_stdio_output@@@2@@__crt_stdio_output@@AAE_NXZ 10055796 f i libucrt:output.obj
 0001:000547a0       ?type_case_X@?$output_processor@_WV?$string_output_adapter@_W@__crt_stdio_output@@V?$positional_parameter_base@_WV?$string_output_adapter@_W@__crt_stdio_output@@@2@@__crt_stdio_output@@AAE_NXZ 100557a0 f i libucrt:output.obj
 0001:000547aa       ?type_case_X@?$output_processor@_WV?$string_output_adapter@_W@__crt_stdio_output@@V?$standard_base@_WV?$string_output_adapter@_W@__crt_stdio_output@@@2@@__crt_stdio_output@@AAE_NXZ 100557aa f i libucrt:output.obj
 0001:000547b4       ?type_case_Z@?$output_processor@DV?$stream_output_adapter@D@__crt_stdio_output@@V?$format_validation_base@DV?$stream_output_adapter@D@__crt_stdio_output@@@2@@__crt_stdio_output@@AAE_NXZ 100557b4 f i libucrt:output.obj
 0001:0005480e       ?type_case_Z@?$output_processor@DV?$stream_output_adapter@D@__crt_stdio_output@@V?$positional_parameter_base@DV?$stream_output_adapter@D@__crt_stdio_output@@@2@@__crt_stdio_output@@AAE_NXZ 1005580e f i libucrt:output.obj
 0001:00054882       ?type_case_Z@?$output_processor@DV?$stream_output_adapter@D@__crt_stdio_output@@V?$standard_base@DV?$stream_output_adapter@D@__crt_stdio_output@@@2@@__crt_stdio_output@@AAE_NXZ 10055882 f i libucrt:output.obj
 0001:000548dc       ?type_case_Z@?$output_processor@DV?$string_output_adapter@D@__crt_stdio_output@@V?$format_validation_base@DV?$string_output_adapter@D@__crt_stdio_output@@@2@@__crt_stdio_output@@AAE_NXZ 100558dc f i libucrt:output.obj
 0001:00054936       ?type_case_Z@?$output_processor@DV?$string_output_adapter@D@__crt_stdio_output@@V?$positional_parameter_base@DV?$string_output_adapter@D@__crt_stdio_output@@@2@@__crt_stdio_output@@AAE_NXZ 10055936 f i libucrt:output.obj
 0001:000549aa       ?type_case_Z@?$output_processor@DV?$string_output_adapter@D@__crt_stdio_output@@V?$standard_base@DV?$string_output_adapter@D@__crt_stdio_output@@@2@@__crt_stdio_output@@AAE_NXZ 100559aa f i libucrt:output.obj
 0001:00054a04       ?type_case_Z@?$output_processor@_WV?$stream_output_adapter@_W@__crt_stdio_output@@V?$format_validation_base@_WV?$stream_output_adapter@_W@__crt_stdio_output@@@2@@__crt_stdio_output@@AAE_NXZ 10055a04 f i libucrt:output.obj
 0001:00054a5e       ?type_case_Z@?$output_processor@_WV?$stream_output_adapter@_W@__crt_stdio_output@@V?$positional_parameter_base@_WV?$stream_output_adapter@_W@__crt_stdio_output@@@2@@__crt_stdio_output@@AAE_NXZ 10055a5e f i libucrt:output.obj
 0001:00054ad2       ?type_case_Z@?$output_processor@_WV?$stream_output_adapter@_W@__crt_stdio_output@@V?$standard_base@_WV?$stream_output_adapter@_W@__crt_stdio_output@@@2@@__crt_stdio_output@@AAE_NXZ 10055ad2 f i libucrt:output.obj
 0001:00054b2c       ?type_case_Z@?$output_processor@_WV?$string_output_adapter@_W@__crt_stdio_output@@V?$format_validation_base@_WV?$string_output_adapter@_W@__crt_stdio_output@@@2@@__crt_stdio_output@@AAE_NXZ 10055b2c f i libucrt:output.obj
 0001:00054b86       ?type_case_Z@?$output_processor@_WV?$string_output_adapter@_W@__crt_stdio_output@@V?$positional_parameter_base@_WV?$string_output_adapter@_W@__crt_stdio_output@@@2@@__crt_stdio_output@@AAE_NXZ 10055b86 f i libucrt:output.obj
 0001:00054bfa       ?type_case_Z@?$output_processor@_WV?$string_output_adapter@_W@__crt_stdio_output@@V?$standard_base@_WV?$string_output_adapter@_W@__crt_stdio_output@@@2@@__crt_stdio_output@@AAE_NXZ 10055bfa f i libucrt:output.obj
 0001:00054c54       ?type_case_a@?$output_processor@DV?$stream_output_adapter@D@__crt_stdio_output@@V?$format_validation_base@DV?$stream_output_adapter@D@__crt_stdio_output@@@2@@__crt_stdio_output@@AAE_NXZ 10055c54 f i libucrt:output.obj
 0001:00054da5       ?type_case_a@?$output_processor@DV?$stream_output_adapter@D@__crt_stdio_output@@V?$positional_parameter_base@DV?$stream_output_adapter@D@__crt_stdio_output@@@2@@__crt_stdio_output@@AAE_NXZ 10055da5 f i libucrt:output.obj
 0001:00054f22       ?type_case_a@?$output_processor@DV?$stream_output_adapter@D@__crt_stdio_output@@V?$standard_base@DV?$stream_output_adapter@D@__crt_stdio_output@@@2@@__crt_stdio_output@@AAE_NXZ 10055f22 f i libucrt:output.obj
 0001:00055073       ?type_case_a@?$output_processor@DV?$string_output_adapter@D@__crt_stdio_output@@V?$format_validation_base@DV?$string_output_adapter@D@__crt_stdio_output@@@2@@__crt_stdio_output@@AAE_NXZ 10056073 f i libucrt:output.obj
 0001:000551c4       ?type_case_a@?$output_processor@DV?$string_output_adapter@D@__crt_stdio_output@@V?$positional_parameter_base@DV?$string_output_adapter@D@__crt_stdio_output@@@2@@__crt_stdio_output@@AAE_NXZ 100561c4 f i libucrt:output.obj
 0001:00055341       ?type_case_a@?$output_processor@DV?$string_output_adapter@D@__crt_stdio_output@@V?$standard_base@DV?$string_output_adapter@D@__crt_stdio_output@@@2@@__crt_stdio_output@@AAE_NXZ 10056341 f i libucrt:output.obj
 0001:00055492       ?type_case_a@?$output_processor@_WV?$stream_output_adapter@_W@__crt_stdio_output@@V?$format_validation_base@_WV?$stream_output_adapter@_W@__crt_stdio_output@@@2@@__crt_stdio_output@@AAE_NXZ 10056492 f i libucrt:output.obj
 0001:000555f9       ?type_case_a@?$output_processor@_WV?$stream_output_adapter@_W@__crt_stdio_output@@V?$positional_parameter_base@_WV?$stream_output_adapter@_W@__crt_stdio_output@@@2@@__crt_stdio_output@@AAE_NXZ 100565f9 f i libucrt:output.obj
 0001:0005578c       ?type_case_a@?$output_processor@_WV?$stream_output_adapter@_W@__crt_stdio_output@@V?$standard_base@_WV?$stream_output_adapter@_W@__crt_stdio_output@@@2@@__crt_stdio_output@@AAE_NXZ 1005678c f i libucrt:output.obj
 0001:000558f3       ?type_case_a@?$output_processor@_WV?$string_output_adapter@_W@__crt_stdio_output@@V?$format_validation_base@_WV?$string_output_adapter@_W@__crt_stdio_output@@@2@@__crt_stdio_output@@AAE_NXZ 100568f3 f i libucrt:output.obj
 0001:00055a5a       ?type_case_a@?$output_processor@_WV?$string_output_adapter@_W@__crt_stdio_output@@V?$positional_parameter_base@_WV?$string_output_adapter@_W@__crt_stdio_output@@@2@@__crt_stdio_output@@AAE_NXZ 10056a5a f i libucrt:output.obj
 0001:00055bed       ?type_case_a@?$output_processor@_WV?$string_output_adapter@_W@__crt_stdio_output@@V?$standard_base@_WV?$string_output_adapter@_W@__crt_stdio_output@@@2@@__crt_stdio_output@@AAE_NXZ 10056bed f i libucrt:output.obj
 0001:00055d54       ?type_case_c@?$output_processor@DV?$stream_output_adapter@D@__crt_stdio_output@@V?$format_validation_base@DV?$stream_output_adapter@D@__crt_stdio_output@@@2@@__crt_stdio_output@@AAE_NXZ 10056d54 f i libucrt:output.obj
 0001:00055d5c       ?type_case_c@?$output_processor@DV?$stream_output_adapter@D@__crt_stdio_output@@V?$positional_parameter_base@DV?$stream_output_adapter@D@__crt_stdio_output@@@2@@__crt_stdio_output@@AAE_NXZ 10056d5c f i libucrt:output.obj
 0001:00055d64       ?type_case_c@?$output_processor@DV?$stream_output_adapter@D@__crt_stdio_output@@V?$standard_base@DV?$stream_output_adapter@D@__crt_stdio_output@@@2@@__crt_stdio_output@@AAE_NXZ 10056d64 f i libucrt:output.obj
 0001:00055d6c       ?type_case_c@?$output_processor@DV?$string_output_adapter@D@__crt_stdio_output@@V?$format_validation_base@DV?$string_output_adapter@D@__crt_stdio_output@@@2@@__crt_stdio_output@@AAE_NXZ 10056d6c f i libucrt:output.obj
 0001:00055d74       ?type_case_c@?$output_processor@DV?$string_output_adapter@D@__crt_stdio_output@@V?$positional_parameter_base@DV?$string_output_adapter@D@__crt_stdio_output@@@2@@__crt_stdio_output@@AAE_NXZ 10056d74 f i libucrt:output.obj
 0001:00055d7c       ?type_case_c@?$output_processor@DV?$string_output_adapter@D@__crt_stdio_output@@V?$standard_base@DV?$string_output_adapter@D@__crt_stdio_output@@@2@@__crt_stdio_output@@AAE_NXZ 10056d7c f i libucrt:output.obj
 0001:00055d84       ?type_case_c@?$output_processor@_WV?$stream_output_adapter@_W@__crt_stdio_output@@V?$format_validation_base@_WV?$stream_output_adapter@_W@__crt_stdio_output@@@2@@__crt_stdio_output@@AAE_NXZ 10056d84 f i libucrt:output.obj
 0001:00055d8c       ?type_case_c@?$output_processor@_WV?$stream_output_adapter@_W@__crt_stdio_output@@V?$positional_parameter_base@_WV?$stream_output_adapter@_W@__crt_stdio_output@@@2@@__crt_stdio_output@@AAE_NXZ 10056d8c f i libucrt:output.obj
 0001:00055d94       ?type_case_c@?$output_processor@_WV?$stream_output_adapter@_W@__crt_stdio_output@@V?$standard_base@_WV?$stream_output_adapter@_W@__crt_stdio_output@@@2@@__crt_stdio_output@@AAE_NXZ 10056d94 f i libucrt:output.obj
 0001:00055d9c       ?type_case_c@?$output_processor@_WV?$string_output_adapter@_W@__crt_stdio_output@@V?$format_validation_base@_WV?$string_output_adapter@_W@__crt_stdio_output@@@2@@__crt_stdio_output@@AAE_NXZ 10056d9c f i libucrt:output.obj
 0001:00055da4       ?type_case_c@?$output_processor@_WV?$string_output_adapter@_W@__crt_stdio_output@@V?$positional_parameter_base@_WV?$string_output_adapter@_W@__crt_stdio_output@@@2@@__crt_stdio_output@@AAE_NXZ 10056da4 f i libucrt:output.obj
 0001:00055dac       ?type_case_c@?$output_processor@_WV?$string_output_adapter@_W@__crt_stdio_output@@V?$standard_base@_WV?$string_output_adapter@_W@__crt_stdio_output@@@2@@__crt_stdio_output@@AAE_NXZ 10056dac f i libucrt:output.obj
 0001:00055db4       ?type_case_c_tchar@?$output_processor@DV?$stream_output_adapter@D@__crt_stdio_output@@V?$format_validation_base@DV?$stream_output_adapter@D@__crt_stdio_output@@@2@@__crt_stdio_output@@AAE_ND@Z 10056db4 f i libucrt:output.obj
 0001:00055e47       ?type_case_c_tchar@?$output_processor@DV?$stream_output_adapter@D@__crt_stdio_output@@V?$positional_parameter_base@DV?$stream_output_adapter@D@__crt_stdio_output@@@2@@__crt_stdio_output@@AAE_ND@Z 10056e47 f i libucrt:output.obj
 0001:00055f08       ?type_case_c_tchar@?$output_processor@DV?$stream_output_adapter@D@__crt_stdio_output@@V?$standard_base@DV?$stream_output_adapter@D@__crt_stdio_output@@@2@@__crt_stdio_output@@AAE_ND@Z 10056f08 f i libucrt:output.obj
 0001:00055f9b       ?type_case_c_tchar@?$output_processor@DV?$string_output_adapter@D@__crt_stdio_output@@V?$format_validation_base@DV?$string_output_adapter@D@__crt_stdio_output@@@2@@__crt_stdio_output@@AAE_ND@Z 10056f9b f i libucrt:output.obj
 0001:0005602e       ?type_case_c_tchar@?$output_processor@DV?$string_output_adapter@D@__crt_stdio_output@@V?$positional_parameter_base@DV?$string_output_adapter@D@__crt_stdio_output@@@2@@__crt_stdio_output@@AAE_ND@Z 1005702e f i libucrt:output.obj
 0001:000560ef       ?type_case_c_tchar@?$output_processor@DV?$string_output_adapter@D@__crt_stdio_output@@V?$standard_base@DV?$string_output_adapter@D@__crt_stdio_output@@@2@@__crt_stdio_output@@AAE_ND@Z 100570ef f i libucrt:output.obj
 0001:00056182       ?type_case_c_tchar@?$output_processor@_WV?$stream_output_adapter@_W@__crt_stdio_output@@V?$format_validation_base@_WV?$stream_output_adapter@_W@__crt_stdio_output@@@2@@__crt_stdio_output@@AAE_N_W@Z 10057182 f i libucrt:output.obj
 0001:00056218       ?type_case_c_tchar@?$output_processor@_WV?$stream_output_adapter@_W@__crt_stdio_output@@V?$positional_parameter_base@_WV?$stream_output_adapter@_W@__crt_stdio_output@@@2@@__crt_stdio_output@@AAE_N_W@Z 10057218 f i libucrt:output.obj
 0001:000562c5       ?type_case_c_tchar@?$output_processor@_WV?$stream_output_adapter@_W@__crt_stdio_output@@V?$standard_base@_WV?$stream_output_adapter@_W@__crt_stdio_output@@@2@@__crt_stdio_output@@AAE_N_W@Z 100572c5 f i libucrt:output.obj
 0001:0005635b       ?type_case_c_tchar@?$output_processor@_WV?$string_output_adapter@_W@__crt_stdio_output@@V?$format_validation_base@_WV?$string_output_adapter@_W@__crt_stdio_output@@@2@@__crt_stdio_output@@AAE_N_W@Z 1005735b f i libucrt:output.obj
 0001:000563f1       ?type_case_c_tchar@?$output_processor@_WV?$string_output_adapter@_W@__crt_stdio_output@@V?$positional_parameter_base@_WV?$string_output_adapter@_W@__crt_stdio_output@@@2@@__crt_stdio_output@@AAE_N_W@Z 100573f1 f i libucrt:output.obj
 0001:0005649e       ?type_case_c_tchar@?$output_processor@_WV?$string_output_adapter@_W@__crt_stdio_output@@V?$standard_base@_WV?$string_output_adapter@_W@__crt_stdio_output@@@2@@__crt_stdio_output@@AAE_N_W@Z 1005749e f i libucrt:output.obj
 0001:00056534       ?type_case_d@?$output_processor@DV?$stream_output_adapter@D@__crt_stdio_output@@V?$format_validation_base@DV?$stream_output_adapter@D@__crt_stdio_output@@@2@@__crt_stdio_output@@AAE_NXZ 10057534 f i libucrt:output.obj
 0001:00056542       ?type_case_d@?$output_processor@DV?$stream_output_adapter@D@__crt_stdio_output@@V?$positional_parameter_base@DV?$stream_output_adapter@D@__crt_stdio_output@@@2@@__crt_stdio_output@@AAE_NXZ 10057542 f i libucrt:output.obj
 0001:00056550       ?type_case_d@?$output_processor@DV?$stream_output_adapter@D@__crt_stdio_output@@V?$standard_base@DV?$stream_output_adapter@D@__crt_stdio_output@@@2@@__crt_stdio_output@@AAE_NXZ 10057550 f i libucrt:output.obj
 0001:0005655e       ?type_case_d@?$output_processor@DV?$string_output_adapter@D@__crt_stdio_output@@V?$format_validation_base@DV?$string_output_adapter@D@__crt_stdio_output@@@2@@__crt_stdio_output@@AAE_NXZ 1005755e f i libucrt:output.obj
 0001:0005656c       ?type_case_d@?$output_processor@DV?$string_output_adapter@D@__crt_stdio_output@@V?$positional_parameter_base@DV?$string_output_adapter@D@__crt_stdio_output@@@2@@__crt_stdio_output@@AAE_NXZ 1005756c f i libucrt:output.obj
 0001:0005657a       ?type_case_d@?$output_processor@DV?$string_output_adapter@D@__crt_stdio_output@@V?$standard_base@DV?$string_output_adapter@D@__crt_stdio_output@@@2@@__crt_stdio_output@@AAE_NXZ 1005757a f i libucrt:output.obj
 0001:00056588       ?type_case_d@?$output_processor@_WV?$stream_output_adapter@_W@__crt_stdio_output@@V?$format_validation_base@_WV?$stream_output_adapter@_W@__crt_stdio_output@@@2@@__crt_stdio_output@@AAE_NXZ 10057588 f i libucrt:output.obj
 0001:00056596       ?type_case_d@?$output_processor@_WV?$stream_output_adapter@_W@__crt_stdio_output@@V?$positional_parameter_base@_WV?$stream_output_adapter@_W@__crt_stdio_output@@@2@@__crt_stdio_output@@AAE_NXZ 10057596 f i libucrt:output.obj
 0001:000565a4       ?type_case_d@?$output_processor@_WV?$stream_output_adapter@_W@__crt_stdio_output@@V?$standard_base@_WV?$stream_output_adapter@_W@__crt_stdio_output@@@2@@__crt_stdio_output@@AAE_NXZ 100575a4 f i libucrt:output.obj
 0001:000565b2       ?type_case_d@?$output_processor@_WV?$string_output_adapter@_W@__crt_stdio_output@@V?$format_validation_base@_WV?$string_output_adapter@_W@__crt_stdio_output@@@2@@__crt_stdio_output@@AAE_NXZ 100575b2 f i libucrt:output.obj
 0001:000565c0       ?type_case_d@?$output_processor@_WV?$string_output_adapter@_W@__crt_stdio_output@@V?$positional_parameter_base@_WV?$string_output_adapter@_W@__crt_stdio_output@@@2@@__crt_stdio_output@@AAE_NXZ 100575c0 f i libucrt:output.obj
 0001:000565ce       ?type_case_d@?$output_processor@_WV?$string_output_adapter@_W@__crt_stdio_output@@V?$standard_base@_WV?$string_output_adapter@_W@__crt_stdio_output@@@2@@__crt_stdio_output@@AAE_NXZ 100575ce f i libucrt:output.obj
 0001:000565dc       ?type_case_integer@?$output_processor@DV?$stream_output_adapter@D@__crt_stdio_output@@V?$format_validation_base@DV?$stream_output_adapter@D@__crt_stdio_output@@@2@@__crt_stdio_output@@AAE_NI_N@Z 100575dc f i libucrt:output.obj
 0001:0005672d       ?type_case_integer@?$output_processor@DV?$stream_output_adapter@D@__crt_stdio_output@@V?$positional_parameter_base@DV?$stream_output_adapter@D@__crt_stdio_output@@@2@@__crt_stdio_output@@AAE_NI_N@Z 1005772d f i libucrt:output.obj
 0001:000568ae       ?type_case_integer@?$output_processor@DV?$stream_output_adapter@D@__crt_stdio_output@@V?$standard_base@DV?$stream_output_adapter@D@__crt_stdio_output@@@2@@__crt_stdio_output@@AAE_NI_N@Z 100578ae f i libucrt:output.obj
 0001:000569ff       ?type_case_integer@?$output_processor@DV?$string_output_adapter@D@__crt_stdio_output@@V?$format_validation_base@DV?$string_output_adapter@D@__crt_stdio_output@@@2@@__crt_stdio_output@@AAE_NI_N@Z 100579ff f i libucrt:output.obj
 0001:00056b50       ?type_case_integer@?$output_processor@DV?$string_output_adapter@D@__crt_stdio_output@@V?$positional_parameter_base@DV?$string_output_adapter@D@__crt_stdio_output@@@2@@__crt_stdio_output@@AAE_NI_N@Z 10057b50 f i libucrt:output.obj
 0001:00056cd1       ?type_case_integer@?$output_processor@DV?$string_output_adapter@D@__crt_stdio_output@@V?$standard_base@DV?$string_output_adapter@D@__crt_stdio_output@@@2@@__crt_stdio_output@@AAE_NI_N@Z 10057cd1 f i libucrt:output.obj
 0001:00056e22       ?type_case_integer@?$output_processor@_WV?$stream_output_adapter@_W@__crt_stdio_output@@V?$format_validation_base@_WV?$stream_output_adapter@_W@__crt_stdio_output@@@2@@__crt_stdio_output@@AAE_NI_N@Z 10057e22 f i libucrt:output.obj
 0001:00056f77       ?type_case_integer@?$output_processor@_WV?$stream_output_adapter@_W@__crt_stdio_output@@V?$positional_parameter_base@_WV?$stream_output_adapter@_W@__crt_stdio_output@@@2@@__crt_stdio_output@@AAE_NI_N@Z 10057f77 f i libucrt:output.obj
 0001:000570fc       ?type_case_integer@?$output_processor@_WV?$stream_output_adapter@_W@__crt_stdio_output@@V?$standard_base@_WV?$stream_output_adapter@_W@__crt_stdio_output@@@2@@__crt_stdio_output@@AAE_NI_N@Z 100580fc f i libucrt:output.obj
 0001:00057251       ?type_case_integer@?$output_processor@_WV?$string_output_adapter@_W@__crt_stdio_output@@V?$format_validation_base@_WV?$string_output_adapter@_W@__crt_stdio_output@@@2@@__crt_stdio_output@@AAE_NI_N@Z 10058251 f i libucrt:output.obj
 0001:000573a6       ?type_case_integer@?$output_processor@_WV?$string_output_adapter@_W@__crt_stdio_output@@V?$positional_parameter_base@_WV?$string_output_adapter@_W@__crt_stdio_output@@@2@@__crt_stdio_output@@AAE_NI_N@Z 100583a6 f i libucrt:output.obj
 0001:0005752b       ?type_case_integer@?$output_processor@_WV?$string_output_adapter@_W@__crt_stdio_output@@V?$standard_base@_WV?$string_output_adapter@_W@__crt_stdio_output@@@2@@__crt_stdio_output@@AAE_NI_N@Z 1005852b f i libucrt:output.obj
 0001:00057680       ?type_case_n@?$output_processor@DV?$stream_output_adapter@D@__crt_stdio_output@@V?$format_validation_base@DV?$stream_output_adapter@D@__crt_stdio_output@@@2@@__crt_stdio_output@@AAE_NXZ 10058680 f i libucrt:output.obj
 0001:000576f4       ?type_case_n@?$output_processor@DV?$stream_output_adapter@D@__crt_stdio_output@@V?$positional_parameter_base@DV?$stream_output_adapter@D@__crt_stdio_output@@@2@@__crt_stdio_output@@AAE_NXZ 100586f4 f i libucrt:output.obj
 0001:0005778b       ?type_case_n@?$output_processor@DV?$stream_output_adapter@D@__crt_stdio_output@@V?$standard_base@DV?$stream_output_adapter@D@__crt_stdio_output@@@2@@__crt_stdio_output@@AAE_NXZ 1005878b f i libucrt:output.obj
 0001:000577ff       ?type_case_n@?$output_processor@DV?$string_output_adapter@D@__crt_stdio_output@@V?$format_validation_base@DV?$string_output_adapter@D@__crt_stdio_output@@@2@@__crt_stdio_output@@AAE_NXZ 100587ff f i libucrt:output.obj
 0001:00057873       ?type_case_n@?$output_processor@DV?$string_output_adapter@D@__crt_stdio_output@@V?$positional_parameter_base@DV?$string_output_adapter@D@__crt_stdio_output@@@2@@__crt_stdio_output@@AAE_NXZ 10058873 f i libucrt:output.obj
 0001:0005790a       ?type_case_n@?$output_processor@DV?$string_output_adapter@D@__crt_stdio_output@@V?$standard_base@DV?$string_output_adapter@D@__crt_stdio_output@@@2@@__crt_stdio_output@@AAE_NXZ 1005890a f i libucrt:output.obj
 0001:0005797e       ?type_case_n@?$output_processor@_WV?$stream_output_adapter@_W@__crt_stdio_output@@V?$format_validation_base@_WV?$stream_output_adapter@_W@__crt_stdio_output@@@2@@__crt_stdio_output@@AAE_NXZ 1005897e f i libucrt:output.obj
 0001:000579f2       ?type_case_n@?$output_processor@_WV?$stream_output_adapter@_W@__crt_stdio_output@@V?$positional_parameter_base@_WV?$stream_output_adapter@_W@__crt_stdio_output@@@2@@__crt_stdio_output@@AAE_NXZ 100589f2 f i libucrt:output.obj
 0001:00057a89       ?type_case_n@?$output_processor@_WV?$stream_output_adapter@_W@__crt_stdio_output@@V?$standard_base@_WV?$stream_output_adapter@_W@__crt_stdio_output@@@2@@__crt_stdio_output@@AAE_NXZ 10058a89 f i libucrt:output.obj
 0001:00057afd       ?type_case_n@?$output_processor@_WV?$string_output_adapter@_W@__crt_stdio_output@@V?$format_validation_base@_WV?$string_output_adapter@_W@__crt_stdio_output@@@2@@__crt_stdio_output@@AAE_NXZ 10058afd f i libucrt:output.obj
 0001:00057b71       ?type_case_n@?$output_processor@_WV?$string_output_adapter@_W@__crt_stdio_output@@V?$positional_parameter_base@_WV?$string_output_adapter@_W@__crt_stdio_output@@@2@@__crt_stdio_output@@AAE_NXZ 10058b71 f i libucrt:output.obj
 0001:00057c08       ?type_case_n@?$output_processor@_WV?$string_output_adapter@_W@__crt_stdio_output@@V?$standard_base@_WV?$string_output_adapter@_W@__crt_stdio_output@@@2@@__crt_stdio_output@@AAE_NXZ 10058c08 f i libucrt:output.obj
 0001:00057c7c       ?type_case_o@?$output_processor@DV?$stream_output_adapter@D@__crt_stdio_output@@V?$format_validation_base@DV?$stream_output_adapter@D@__crt_stdio_output@@@2@@__crt_stdio_output@@AAE_NXZ 10058c7c f i libucrt:output.obj
 0001:00057c9b       ?type_case_o@?$output_processor@DV?$stream_output_adapter@D@__crt_stdio_output@@V?$positional_parameter_base@DV?$stream_output_adapter@D@__crt_stdio_output@@@2@@__crt_stdio_output@@AAE_NXZ 10058c9b f i libucrt:output.obj
 0001:00057cba       ?type_case_o@?$output_processor@DV?$stream_output_adapter@D@__crt_stdio_output@@V?$standard_base@DV?$stream_output_adapter@D@__crt_stdio_output@@@2@@__crt_stdio_output@@AAE_NXZ 10058cba f i libucrt:output.obj
 0001:00057cd9       ?type_case_o@?$output_processor@DV?$string_output_adapter@D@__crt_stdio_output@@V?$format_validation_base@DV?$string_output_adapter@D@__crt_stdio_output@@@2@@__crt_stdio_output@@AAE_NXZ 10058cd9 f i libucrt:output.obj
 0001:00057cf8       ?type_case_o@?$output_processor@DV?$string_output_adapter@D@__crt_stdio_output@@V?$positional_parameter_base@DV?$string_output_adapter@D@__crt_stdio_output@@@2@@__crt_stdio_output@@AAE_NXZ 10058cf8 f i libucrt:output.obj
 0001:00057d17       ?type_case_o@?$output_processor@DV?$string_output_adapter@D@__crt_stdio_output@@V?$standard_base@DV?$string_output_adapter@D@__crt_stdio_output@@@2@@__crt_stdio_output@@AAE_NXZ 10058d17 f i libucrt:output.obj
 0001:00057d36       ?type_case_o@?$output_processor@_WV?$stream_output_adapter@_W@__crt_stdio_output@@V?$format_validation_base@_WV?$stream_output_adapter@_W@__crt_stdio_output@@@2@@__crt_stdio_output@@AAE_NXZ 10058d36 f i libucrt:output.obj
 0001:00057d55       ?type_case_o@?$output_processor@_WV?$stream_output_adapter@_W@__crt_stdio_output@@V?$positional_parameter_base@_WV?$stream_output_adapter@_W@__crt_stdio_output@@@2@@__crt_stdio_output@@AAE_NXZ 10058d55 f i libucrt:output.obj
 0001:00057d74       ?type_case_o@?$output_processor@_WV?$stream_output_adapter@_W@__crt_stdio_output@@V?$standard_base@_WV?$stream_output_adapter@_W@__crt_stdio_output@@@2@@__crt_stdio_output@@AAE_NXZ 10058d74 f i libucrt:output.obj
 0001:00057d93       ?type_case_o@?$output_processor@_WV?$string_output_adapter@_W@__crt_stdio_output@@V?$format_validation_base@_WV?$string_output_adapter@_W@__crt_stdio_output@@@2@@__crt_stdio_output@@AAE_NXZ 10058d93 f i libucrt:output.obj
 0001:00057db2       ?type_case_o@?$output_processor@_WV?$string_output_adapter@_W@__crt_stdio_output@@V?$positional_parameter_base@_WV?$string_output_adapter@_W@__crt_stdio_output@@@2@@__crt_stdio_output@@AAE_NXZ 10058db2 f i libucrt:output.obj
 0001:00057dd1       ?type_case_o@?$output_processor@_WV?$string_output_adapter@_W@__crt_stdio_output@@V?$standard_base@_WV?$string_output_adapter@_W@__crt_stdio_output@@@2@@__crt_stdio_output@@AAE_NXZ 10058dd1 f i libucrt:output.obj
 0001:00057df0       ?type_case_p@?$output_processor@DV?$stream_output_adapter@D@__crt_stdio_output@@V?$format_validation_base@DV?$stream_output_adapter@D@__crt_stdio_output@@@2@@__crt_stdio_output@@AAE_NXZ 10058df0 f i libucrt:output.obj
 0001:00057e08       ?type_case_p@?$output_processor@DV?$stream_output_adapter@D@__crt_stdio_output@@V?$positional_parameter_base@DV?$stream_output_adapter@D@__crt_stdio_output@@@2@@__crt_stdio_output@@AAE_NXZ 10058e08 f i libucrt:output.obj
 0001:00057e20       ?type_case_p@?$output_processor@DV?$stream_output_adapter@D@__crt_stdio_output@@V?$standard_base@DV?$stream_output_adapter@D@__crt_stdio_output@@@2@@__crt_stdio_output@@AAE_NXZ 10058e20 f i libucrt:output.obj
 0001:00057e38       ?type_case_p@?$output_processor@DV?$string_output_adapter@D@__crt_stdio_output@@V?$format_validation_base@DV?$string_output_adapter@D@__crt_stdio_output@@@2@@__crt_stdio_output@@AAE_NXZ 10058e38 f i libucrt:output.obj
 0001:00057e50       ?type_case_p@?$output_processor@DV?$string_output_adapter@D@__crt_stdio_output@@V?$positional_parameter_base@DV?$string_output_adapter@D@__crt_stdio_output@@@2@@__crt_stdio_output@@AAE_NXZ 10058e50 f i libucrt:output.obj
 0001:00057e68       ?type_case_p@?$output_processor@DV?$string_output_adapter@D@__crt_stdio_output@@V?$standard_base@DV?$string_output_adapter@D@__crt_stdio_output@@@2@@__crt_stdio_output@@AAE_NXZ 10058e68 f i libucrt:output.obj
 0001:00057e80       ?type_case_p@?$output_processor@_WV?$stream_output_adapter@_W@__crt_stdio_output@@V?$format_validation_base@_WV?$stream_output_adapter@_W@__crt_stdio_output@@@2@@__crt_stdio_output@@AAE_NXZ 10058e80 f i libucrt:output.obj
 0001:00057e98       ?type_case_p@?$output_processor@_WV?$stream_output_adapter@_W@__crt_stdio_output@@V?$positional_parameter_base@_WV?$stream_output_adapter@_W@__crt_stdio_output@@@2@@__crt_stdio_output@@AAE_NXZ 10058e98 f i libucrt:output.obj
 0001:00057eb0       ?type_case_p@?$output_processor@_WV?$stream_output_adapter@_W@__crt_stdio_output@@V?$standard_base@_WV?$stream_output_adapter@_W@__crt_stdio_output@@@2@@__crt_stdio_output@@AAE_NXZ 10058eb0 f i libucrt:output.obj
 0001:00057ec8       ?type_case_p@?$output_processor@_WV?$string_output_adapter@_W@__crt_stdio_output@@V?$format_validation_base@_WV?$string_output_adapter@_W@__crt_stdio_output@@@2@@__crt_stdio_output@@AAE_NXZ 10058ec8 f i libucrt:output.obj
 0001:00057ee0       ?type_case_p@?$output_processor@_WV?$string_output_adapter@_W@__crt_stdio_output@@V?$positional_parameter_base@_WV?$string_output_adapter@_W@__crt_stdio_output@@@2@@__crt_stdio_output@@AAE_NXZ 10058ee0 f i libucrt:output.obj
 0001:00057ef8       ?type_case_p@?$output_processor@_WV?$string_output_adapter@_W@__crt_stdio_output@@V?$standard_base@_WV?$string_output_adapter@_W@__crt_stdio_output@@@2@@__crt_stdio_output@@AAE_NXZ 10058ef8 f i libucrt:output.obj
 0001:00057f10       ?type_case_s@?$output_processor@DV?$stream_output_adapter@D@__crt_stdio_output@@V?$format_validation_base@DV?$stream_output_adapter@D@__crt_stdio_output@@@2@@__crt_stdio_output@@AAE_NXZ 10058f10 f i libucrt:output.obj
 0001:00057f81       ?type_case_s@?$output_processor@DV?$stream_output_adapter@D@__crt_stdio_output@@V?$positional_parameter_base@DV?$stream_output_adapter@D@__crt_stdio_output@@@2@@__crt_stdio_output@@AAE_NXZ 10058f81 f i libucrt:output.obj
 0001:00057fff       ?type_case_s@?$output_processor@DV?$stream_output_adapter@D@__crt_stdio_output@@V?$standard_base@DV?$stream_output_adapter@D@__crt_stdio_output@@@2@@__crt_stdio_output@@AAE_NXZ 10058fff f i libucrt:output.obj
 0001:00058070       ?type_case_s@?$output_processor@DV?$string_output_adapter@D@__crt_stdio_output@@V?$format_validation_base@DV?$string_output_adapter@D@__crt_stdio_output@@@2@@__crt_stdio_output@@AAE_NXZ 10059070 f i libucrt:output.obj
 0001:000580e1       ?type_case_s@?$output_processor@DV?$string_output_adapter@D@__crt_stdio_output@@V?$positional_parameter_base@DV?$string_output_adapter@D@__crt_stdio_output@@@2@@__crt_stdio_output@@AAE_NXZ 100590e1 f i libucrt:output.obj
 0001:0005815f       ?type_case_s@?$output_processor@DV?$string_output_adapter@D@__crt_stdio_output@@V?$standard_base@DV?$string_output_adapter@D@__crt_stdio_output@@@2@@__crt_stdio_output@@AAE_NXZ 1005915f f i libucrt:output.obj
 0001:000581d0       ?type_case_s@?$output_processor@_WV?$stream_output_adapter@_W@__crt_stdio_output@@V?$format_validation_base@_WV?$stream_output_adapter@_W@__crt_stdio_output@@@2@@__crt_stdio_output@@AAE_NXZ 100591d0 f i libucrt:output.obj
 0001:00058243       ?type_case_s@?$output_processor@_WV?$stream_output_adapter@_W@__crt_stdio_output@@V?$positional_parameter_base@_WV?$stream_output_adapter@_W@__crt_stdio_output@@@2@@__crt_stdio_output@@AAE_NXZ 10059243 f i libucrt:output.obj
 0001:000582c3       ?type_case_s@?$output_processor@_WV?$stream_output_adapter@_W@__crt_stdio_output@@V?$standard_base@_WV?$stream_output_adapter@_W@__crt_stdio_output@@@2@@__crt_stdio_output@@AAE_NXZ 100592c3 f i libucrt:output.obj
 0001:00058336       ?type_case_s@?$output_processor@_WV?$string_output_adapter@_W@__crt_stdio_output@@V?$format_validation_base@_WV?$string_output_adapter@_W@__crt_stdio_output@@@2@@__crt_stdio_output@@AAE_NXZ 10059336 f i libucrt:output.obj
 0001:000583a9       ?type_case_s@?$output_processor@_WV?$string_output_adapter@_W@__crt_stdio_output@@V?$positional_parameter_base@_WV?$string_output_adapter@_W@__crt_stdio_output@@@2@@__crt_stdio_output@@AAE_NXZ 100593a9 f i libucrt:output.obj
 0001:00058429       ?type_case_s@?$output_processor@_WV?$string_output_adapter@_W@__crt_stdio_output@@V?$standard_base@_WV?$string_output_adapter@_W@__crt_stdio_output@@@2@@__crt_stdio_output@@AAE_NXZ 10059429 f i libucrt:output.obj
 0001:0005849c       ?type_case_s_compute_narrow_string_length@?$output_processor@DV?$stream_output_adapter@D@__crt_stdio_output@@V?$format_validation_base@DV?$stream_output_adapter@D@__crt_stdio_output@@@2@@__crt_stdio_output@@ABEHHD@Z 1005949c f i libucrt:output.obj
 0001:000584b2       ?type_case_s_compute_narrow_string_length@?$output_processor@DV?$stream_output_adapter@D@__crt_stdio_output@@V?$positional_parameter_base@DV?$stream_output_adapter@D@__crt_stdio_output@@@2@@__crt_stdio_output@@ABEHHD@Z 100594b2 f i libucrt:output.obj
 0001:000584c8       ?type_case_s_compute_narrow_string_length@?$output_processor@DV?$stream_output_adapter@D@__crt_stdio_output@@V?$standard_base@DV?$stream_output_adapter@D@__crt_stdio_output@@@2@@__crt_stdio_output@@ABEHHD@Z 100594c8 f i libucrt:output.obj
 0001:000584de       ?type_case_s_compute_narrow_string_length@?$output_processor@DV?$string_output_adapter@D@__crt_stdio_output@@V?$format_validation_base@DV?$string_output_adapter@D@__crt_stdio_output@@@2@@__crt_stdio_output@@ABEHHD@Z 100594de f i libucrt:output.obj
 0001:000584f4       ?type_case_s_compute_narrow_string_length@?$output_processor@DV?$string_output_adapter@D@__crt_stdio_output@@V?$positional_parameter_base@DV?$string_output_adapter@D@__crt_stdio_output@@@2@@__crt_stdio_output@@ABEHHD@Z 100594f4 f i libucrt:output.obj
 0001:0005850a       ?type_case_s_compute_narrow_string_length@?$output_processor@DV?$string_output_adapter@D@__crt_stdio_output@@V?$standard_base@DV?$string_output_adapter@D@__crt_stdio_output@@@2@@__crt_stdio_output@@ABEHHD@Z 1005950a f i libucrt:output.obj
 0001:00058520       ?type_case_s_compute_narrow_string_length@?$output_processor@_WV?$stream_output_adapter@_W@__crt_stdio_output@@V?$format_validation_base@_WV?$stream_output_adapter@_W@__crt_stdio_output@@@2@@__crt_stdio_output@@ABEHH_W@Z 10059520 f i libucrt:output.obj
 0001:00058567       ?type_case_s_compute_narrow_string_length@?$output_processor@_WV?$stream_output_adapter@_W@__crt_stdio_output@@V?$positional_parameter_base@_WV?$stream_output_adapter@_W@__crt_stdio_output@@@2@@__crt_stdio_output@@ABEHH_W@Z 10059567 f i libucrt:output.obj
 0001:000585ae       ?type_case_s_compute_narrow_string_length@?$output_processor@_WV?$stream_output_adapter@_W@__crt_stdio_output@@V?$standard_base@_WV?$stream_output_adapter@_W@__crt_stdio_output@@@2@@__crt_stdio_output@@ABEHH_W@Z 100595ae f i libucrt:output.obj
 0001:000585f5       ?type_case_s_compute_narrow_string_length@?$output_processor@_WV?$string_output_adapter@_W@__crt_stdio_output@@V?$format_validation_base@_WV?$string_output_adapter@_W@__crt_stdio_output@@@2@@__crt_stdio_output@@ABEHH_W@Z 100595f5 f i libucrt:output.obj
 0001:0005863c       ?type_case_s_compute_narrow_string_length@?$output_processor@_WV?$string_output_adapter@_W@__crt_stdio_output@@V?$positional_parameter_base@_WV?$string_output_adapter@_W@__crt_stdio_output@@@2@@__crt_stdio_output@@ABEHH_W@Z 1005963c f i libucrt:output.obj
 0001:00058683       ?type_case_s_compute_narrow_string_length@?$output_processor@_WV?$string_output_adapter@_W@__crt_stdio_output@@V?$standard_base@_WV?$string_output_adapter@_W@__crt_stdio_output@@@2@@__crt_stdio_output@@ABEHH_W@Z 10059683 f i libucrt:output.obj
 0001:000586ca       ?type_case_u@?$output_processor@DV?$stream_output_adapter@D@__crt_stdio_output@@V?$format_validation_base@DV?$stream_output_adapter@D@__crt_stdio_output@@@2@@__crt_stdio_output@@AAE_NXZ 100596ca f i libucrt:output.obj
 0001:000586d4       ?type_case_u@?$output_processor@DV?$stream_output_adapter@D@__crt_stdio_output@@V?$positional_parameter_base@DV?$stream_output_adapter@D@__crt_stdio_output@@@2@@__crt_stdio_output@@AAE_NXZ 100596d4 f i libucrt:output.obj
 0001:000586de       ?type_case_u@?$output_processor@DV?$stream_output_adapter@D@__crt_stdio_output@@V?$standard_base@DV?$stream_output_adapter@D@__crt_stdio_output@@@2@@__crt_stdio_output@@AAE_NXZ 100596de f i libucrt:output.obj
 0001:000586e8       ?type_case_u@?$output_processor@DV?$string_output_adapter@D@__crt_stdio_output@@V?$format_validation_base@DV?$string_output_adapter@D@__crt_stdio_output@@@2@@__crt_stdio_output@@AAE_NXZ 100596e8 f i libucrt:output.obj
 0001:000586f2       ?type_case_u@?$output_processor@DV?$string_output_adapter@D@__crt_stdio_output@@V?$positional_parameter_base@DV?$string_output_adapter@D@__crt_stdio_output@@@2@@__crt_stdio_output@@AAE_NXZ 100596f2 f i libucrt:output.obj
 0001:000586fc       ?type_case_u@?$output_processor@DV?$string_output_adapter@D@__crt_stdio_output@@V?$standard_base@DV?$string_output_adapter@D@__crt_stdio_output@@@2@@__crt_stdio_output@@AAE_NXZ 100596fc f i libucrt:output.obj
 0001:00058706       ?type_case_u@?$output_processor@_WV?$stream_output_adapter@_W@__crt_stdio_output@@V?$format_validation_base@_WV?$stream_output_adapter@_W@__crt_stdio_output@@@2@@__crt_stdio_output@@AAE_NXZ 10059706 f i libucrt:output.obj
 0001:00058710       ?type_case_u@?$output_processor@_WV?$stream_output_adapter@_W@__crt_stdio_output@@V?$positional_parameter_base@_WV?$stream_output_adapter@_W@__crt_stdio_output@@@2@@__crt_stdio_output@@AAE_NXZ 10059710 f i libucrt:output.obj
 0001:0005871a       ?type_case_u@?$output_processor@_WV?$stream_output_adapter@_W@__crt_stdio_output@@V?$standard_base@_WV?$stream_output_adapter@_W@__crt_stdio_output@@@2@@__crt_stdio_output@@AAE_NXZ 1005971a f i libucrt:output.obj
 0001:00058724       ?type_case_u@?$output_processor@_WV?$string_output_adapter@_W@__crt_stdio_output@@V?$format_validation_base@_WV?$string_output_adapter@_W@__crt_stdio_output@@@2@@__crt_stdio_output@@AAE_NXZ 10059724 f i libucrt:output.obj
 0001:0005872e       ?type_case_u@?$output_processor@_WV?$string_output_adapter@_W@__crt_stdio_output@@V?$positional_parameter_base@_WV?$string_output_adapter@_W@__crt_stdio_output@@@2@@__crt_stdio_output@@AAE_NXZ 1005972e f i libucrt:output.obj
 0001:00058738       ?type_case_u@?$output_processor@_WV?$string_output_adapter@_W@__crt_stdio_output@@V?$standard_base@_WV?$string_output_adapter@_W@__crt_stdio_output@@@2@@__crt_stdio_output@@AAE_NXZ 10059738 f i libucrt:output.obj
 0001:00058742       ?type_case_x@?$output_processor@DV?$stream_output_adapter@D@__crt_stdio_output@@V?$format_validation_base@DV?$stream_output_adapter@D@__crt_stdio_output@@@2@@__crt_stdio_output@@AAE_NXZ 10059742 f i libucrt:output.obj
 0001:0005874c       ?type_case_x@?$output_processor@DV?$stream_output_adapter@D@__crt_stdio_output@@V?$positional_parameter_base@DV?$stream_output_adapter@D@__crt_stdio_output@@@2@@__crt_stdio_output@@AAE_NXZ 1005974c f i libucrt:output.obj
 0001:00058756       ?type_case_x@?$output_processor@DV?$stream_output_adapter@D@__crt_stdio_output@@V?$standard_base@DV?$stream_output_adapter@D@__crt_stdio_output@@@2@@__crt_stdio_output@@AAE_NXZ 10059756 f i libucrt:output.obj
 0001:00058760       ?type_case_x@?$output_processor@DV?$string_output_adapter@D@__crt_stdio_output@@V?$format_validation_base@DV?$string_output_adapter@D@__crt_stdio_output@@@2@@__crt_stdio_output@@AAE_NXZ 10059760 f i libucrt:output.obj
 0001:0005876a       ?type_case_x@?$output_processor@DV?$string_output_adapter@D@__crt_stdio_output@@V?$positional_parameter_base@DV?$string_output_adapter@D@__crt_stdio_output@@@2@@__crt_stdio_output@@AAE_NXZ 1005976a f i libucrt:output.obj
 0001:00058774       ?type_case_x@?$output_processor@DV?$string_output_adapter@D@__crt_stdio_output@@V?$standard_base@DV?$string_output_adapter@D@__crt_stdio_output@@@2@@__crt_stdio_output@@AAE_NXZ 10059774 f i libucrt:output.obj
 0001:0005877e       ?type_case_x@?$output_processor@_WV?$stream_output_adapter@_W@__crt_stdio_output@@V?$format_validation_base@_WV?$stream_output_adapter@_W@__crt_stdio_output@@@2@@__crt_stdio_output@@AAE_NXZ 1005977e f i libucrt:output.obj
 0001:00058788       ?type_case_x@?$output_processor@_WV?$stream_output_adapter@_W@__crt_stdio_output@@V?$positional_parameter_base@_WV?$stream_output_adapter@_W@__crt_stdio_output@@@2@@__crt_stdio_output@@AAE_NXZ 10059788 f i libucrt:output.obj
 0001:00058792       ?type_case_x@?$output_processor@_WV?$stream_output_adapter@_W@__crt_stdio_output@@V?$standard_base@_WV?$stream_output_adapter@_W@__crt_stdio_output@@@2@@__crt_stdio_output@@AAE_NXZ 10059792 f i libucrt:output.obj
 0001:0005879c       ?type_case_x@?$output_processor@_WV?$string_output_adapter@_W@__crt_stdio_output@@V?$format_validation_base@_WV?$string_output_adapter@_W@__crt_stdio_output@@@2@@__crt_stdio_output@@AAE_NXZ 1005979c f i libucrt:output.obj
 0001:000587a6       ?type_case_x@?$output_processor@_WV?$string_output_adapter@_W@__crt_stdio_output@@V?$positional_parameter_base@_WV?$string_output_adapter@_W@__crt_stdio_output@@@2@@__crt_stdio_output@@AAE_NXZ 100597a6 f i libucrt:output.obj
 0001:000587b0       ?type_case_x@?$output_processor@_WV?$string_output_adapter@_W@__crt_stdio_output@@V?$standard_base@_WV?$string_output_adapter@_W@__crt_stdio_output@@@2@@__crt_stdio_output@@AAE_NXZ 100597b0 f i libucrt:output.obj
 0001:000587ba       ?unset_flag@?$output_processor@DV?$stream_output_adapter@D@__crt_stdio_output@@V?$format_validation_base@DV?$stream_output_adapter@D@__crt_stdio_output@@@2@@__crt_stdio_output@@AAEXI@Z 100597ba f i libucrt:output.obj
 0001:000587cb       ?unset_flag@?$output_processor@DV?$stream_output_adapter@D@__crt_stdio_output@@V?$positional_parameter_base@DV?$stream_output_adapter@D@__crt_stdio_output@@@2@@__crt_stdio_output@@AAEXI@Z 100597cb f i libucrt:output.obj
 0001:000587dc       ?unset_flag@?$output_processor@DV?$stream_output_adapter@D@__crt_stdio_output@@V?$standard_base@DV?$stream_output_adapter@D@__crt_stdio_output@@@2@@__crt_stdio_output@@AAEXI@Z 100597dc f i libucrt:output.obj
 0001:000587ed       ?unset_flag@?$output_processor@DV?$string_output_adapter@D@__crt_stdio_output@@V?$format_validation_base@DV?$string_output_adapter@D@__crt_stdio_output@@@2@@__crt_stdio_output@@AAEXI@Z 100597ed f i libucrt:output.obj
 0001:000587fe       ?unset_flag@?$output_processor@DV?$string_output_adapter@D@__crt_stdio_output@@V?$positional_parameter_base@DV?$string_output_adapter@D@__crt_stdio_output@@@2@@__crt_stdio_output@@AAEXI@Z 100597fe f i libucrt:output.obj
 0001:0005880f       ?unset_flag@?$output_processor@DV?$string_output_adapter@D@__crt_stdio_output@@V?$standard_base@DV?$string_output_adapter@D@__crt_stdio_output@@@2@@__crt_stdio_output@@AAEXI@Z 1005980f f i libucrt:output.obj
 0001:00058820       ?unset_flag@?$output_processor@_WV?$stream_output_adapter@_W@__crt_stdio_output@@V?$format_validation_base@_WV?$stream_output_adapter@_W@__crt_stdio_output@@@2@@__crt_stdio_output@@AAEXI@Z 10059820 f i libucrt:output.obj
 0001:00058831       ?unset_flag@?$output_processor@_WV?$stream_output_adapter@_W@__crt_stdio_output@@V?$positional_parameter_base@_WV?$stream_output_adapter@_W@__crt_stdio_output@@@2@@__crt_stdio_output@@AAEXI@Z 10059831 f i libucrt:output.obj
 0001:00058842       ?unset_flag@?$output_processor@_WV?$stream_output_adapter@_W@__crt_stdio_output@@V?$standard_base@_WV?$stream_output_adapter@_W@__crt_stdio_output@@@2@@__crt_stdio_output@@AAEXI@Z 10059842 f i libucrt:output.obj
 0001:00058853       ?unset_flag@?$output_processor@_WV?$string_output_adapter@_W@__crt_stdio_output@@V?$format_validation_base@_WV?$string_output_adapter@_W@__crt_stdio_output@@@2@@__crt_stdio_output@@AAEXI@Z 10059853 f i libucrt:output.obj
 0001:00058864       ?unset_flag@?$output_processor@_WV?$string_output_adapter@_W@__crt_stdio_output@@V?$positional_parameter_base@_WV?$string_output_adapter@_W@__crt_stdio_output@@@2@@__crt_stdio_output@@AAEXI@Z 10059864 f i libucrt:output.obj
 0001:00058875       ?unset_flag@?$output_processor@_WV?$string_output_adapter@_W@__crt_stdio_output@@V?$standard_base@_WV?$string_output_adapter@_W@__crt_stdio_output@@@2@@__crt_stdio_output@@AAEXI@Z 10059875 f i libucrt:output.obj
 0001:00058886       ?update_field_width@?$positional_parameter_base@DV?$stream_output_adapter@D@__crt_stdio_output@@@__crt_stdio_output@@IAE_NXZ 10059886 f i libucrt:output.obj
 0001:0005893a       ?update_field_width@?$positional_parameter_base@DV?$string_output_adapter@D@__crt_stdio_output@@@__crt_stdio_output@@IAE_NXZ 1005993a f i libucrt:output.obj
 0001:000589ee       ?update_field_width@?$positional_parameter_base@_WV?$stream_output_adapter@_W@__crt_stdio_output@@@__crt_stdio_output@@IAE_NXZ 100599ee f i libucrt:output.obj
 0001:00058aa3       ?update_field_width@?$positional_parameter_base@_WV?$string_output_adapter@_W@__crt_stdio_output@@@__crt_stdio_output@@IAE_NXZ 10059aa3 f i libucrt:output.obj
 0001:00058b58       ?update_field_width@?$standard_base@DV?$stream_output_adapter@D@__crt_stdio_output@@@__crt_stdio_output@@IAE_NXZ 10059b58 f i libucrt:output.obj
 0001:00058b68       ?update_field_width@?$standard_base@DV?$string_output_adapter@D@__crt_stdio_output@@@__crt_stdio_output@@IAE_NXZ 10059b68 f i libucrt:output.obj
 0001:00058b78       ?update_field_width@?$standard_base@_WV?$stream_output_adapter@_W@__crt_stdio_output@@@__crt_stdio_output@@IAE_NXZ 10059b78 f i libucrt:output.obj
 0001:00058b88       ?update_field_width@?$standard_base@_WV?$string_output_adapter@_W@__crt_stdio_output@@@__crt_stdio_output@@IAE_NXZ 10059b88 f i libucrt:output.obj
 0001:00058b98       ?update_precision@?$positional_parameter_base@DV?$stream_output_adapter@D@__crt_stdio_output@@@__crt_stdio_output@@IAE_NXZ 10059b98 f i libucrt:output.obj
 0001:00058c4c       ?update_precision@?$positional_parameter_base@DV?$string_output_adapter@D@__crt_stdio_output@@@__crt_stdio_output@@IAE_NXZ 10059c4c f i libucrt:output.obj
 0001:00058d00       ?update_precision@?$positional_parameter_base@_WV?$stream_output_adapter@_W@__crt_stdio_output@@@__crt_stdio_output@@IAE_NXZ 10059d00 f i libucrt:output.obj
 0001:00058db5       ?update_precision@?$positional_parameter_base@_WV?$string_output_adapter@_W@__crt_stdio_output@@@__crt_stdio_output@@IAE_NXZ 10059db5 f i libucrt:output.obj
 0001:00058e6a       ?update_precision@?$standard_base@DV?$stream_output_adapter@D@__crt_stdio_output@@@__crt_stdio_output@@IAE_NXZ 10059e6a f i libucrt:output.obj
 0001:00058e7a       ?update_precision@?$standard_base@DV?$string_output_adapter@D@__crt_stdio_output@@@__crt_stdio_output@@IAE_NXZ 10059e7a f i libucrt:output.obj
 0001:00058e8a       ?update_precision@?$standard_base@_WV?$stream_output_adapter@_W@__crt_stdio_output@@@__crt_stdio_output@@IAE_NXZ 10059e8a f i libucrt:output.obj
 0001:00058e9a       ?update_precision@?$standard_base@_WV?$string_output_adapter@_W@__crt_stdio_output@@@__crt_stdio_output@@IAE_NXZ 10059e9a f i libucrt:output.obj
 0001:00058eaa       ?valid@__crt_stdio_stream@@QBE_NXZ 10059eaa f i libucrt:output.obj
 0001:00058eb1       ?validate@?$stream_output_adapter@D@__crt_stdio_output@@QBE_NXZ 10059eb1 f i libucrt:output.obj
 0001:00058ed2       ?validate@?$stream_output_adapter@_W@__crt_stdio_output@@QBE_NXZ 10059ed2 f i libucrt:output.obj
 0001:00058eed       ?validate@?$string_output_adapter@D@__crt_stdio_output@@QBE_NXZ 10059eed f i libucrt:output.obj
 0001:00058f08       ?validate@?$string_output_adapter@_W@__crt_stdio_output@@QBE_NXZ 10059f08 f i libucrt:output.obj
 0001:00058f23       ?validate_and_store_parameter_data@?$positional_parameter_base@DV?$stream_output_adapter@D@__crt_stdio_output@@@__crt_stdio_output@@AAE_NAAUparameter_data@12@W4parameter_type@12@DW4length_modifier@2@@Z 10059f23 f i libucrt:output.obj
 0001:00058f6e       ?validate_and_store_parameter_data@?$positional_parameter_base@DV?$string_output_adapter@D@__crt_stdio_output@@@__crt_stdio_output@@AAE_NAAUparameter_data@12@W4parameter_type@12@DW4length_modifier@2@@Z 10059f6e f i libucrt:output.obj
 0001:00058fb9       ?validate_and_store_parameter_data@?$positional_parameter_base@_WV?$stream_output_adapter@_W@__crt_stdio_output@@@__crt_stdio_output@@AAE_NAAUparameter_data@12@W4parameter_type@12@_WW4length_modifier@2@@Z 10059fb9 f i libucrt:output.obj
 0001:00059006       ?validate_and_store_parameter_data@?$positional_parameter_base@_WV?$string_output_adapter@_W@__crt_stdio_output@@@__crt_stdio_output@@AAE_NAAUparameter_data@12@W4parameter_type@12@_WW4length_modifier@2@@Z 1005a006 f i libucrt:output.obj
 0001:00059053       ?validate_and_update_state_at_beginning_of_format_character@?$positional_parameter_base@DV?$stream_output_adapter@D@__crt_stdio_output@@@__crt_stdio_output@@IAE_NXZ 1005a053 f i libucrt:output.obj
 0001:0005914b       ?validate_and_update_state_at_beginning_of_format_character@?$positional_parameter_base@DV?$string_output_adapter@D@__crt_stdio_output@@@__crt_stdio_output@@IAE_NXZ 1005a14b f i libucrt:output.obj
 0001:00059243       ?validate_and_update_state_at_beginning_of_format_character@?$positional_parameter_base@_WV?$stream_output_adapter@_W@__crt_stdio_output@@@__crt_stdio_output@@IAE_NXZ 1005a243 f i libucrt:output.obj
 0001:00059344       ?validate_and_update_state_at_beginning_of_format_character@?$positional_parameter_base@_WV?$string_output_adapter@_W@__crt_stdio_output@@@__crt_stdio_output@@IAE_NXZ 1005a344 f i libucrt:output.obj
 0001:00059445       ?validate_and_update_state_at_beginning_of_format_character@?$standard_base@DV?$stream_output_adapter@D@__crt_stdio_output@@@__crt_stdio_output@@IAE_NXZ 1005a445 f i libucrt:output.obj
 0001:00059448       ?validate_and_update_state_at_beginning_of_format_character@?$standard_base@DV?$string_output_adapter@D@__crt_stdio_output@@@__crt_stdio_output@@IAE_NXZ 1005a448 f i libucrt:output.obj
 0001:0005944b       ?validate_and_update_state_at_beginning_of_format_character@?$standard_base@_WV?$stream_output_adapter@_W@__crt_stdio_output@@@__crt_stdio_output@@IAE_NXZ 1005a44b f i libucrt:output.obj
 0001:0005944e       ?validate_and_update_state_at_beginning_of_format_character@?$standard_base@_WV?$string_output_adapter@_W@__crt_stdio_output@@@__crt_stdio_output@@IAE_NXZ 1005a44e f i libucrt:output.obj
 0001:00059451       ?validate_and_update_state_at_end_of_format_string@?$format_validation_base@DV?$stream_output_adapter@D@__crt_stdio_output@@@__crt_stdio_output@@IBE_NXZ 1005a451 f i libucrt:output.obj
 0001:00059473       ?validate_and_update_state_at_end_of_format_string@?$format_validation_base@DV?$string_output_adapter@D@__crt_stdio_output@@@__crt_stdio_output@@IBE_NXZ 1005a473 f i libucrt:output.obj
 0001:00059495       ?validate_and_update_state_at_end_of_format_string@?$format_validation_base@_WV?$stream_output_adapter@_W@__crt_stdio_output@@@__crt_stdio_output@@IBE_NXZ 1005a495 f i libucrt:output.obj
 0001:000594b7       ?validate_and_update_state_at_end_of_format_string@?$format_validation_base@_WV?$string_output_adapter@_W@__crt_stdio_output@@@__crt_stdio_output@@IBE_NXZ 1005a4b7 f i libucrt:output.obj
 0001:000594d9       ?validate_and_update_state_at_end_of_format_string@?$positional_parameter_base@DV?$stream_output_adapter@D@__crt_stdio_output@@@__crt_stdio_output@@IAE_NXZ 1005a4d9 f i libucrt:output.obj
 0001:00059569       ?validate_and_update_state_at_end_of_format_string@?$positional_parameter_base@DV?$string_output_adapter@D@__crt_stdio_output@@@__crt_stdio_output@@IAE_NXZ 1005a569 f i libucrt:output.obj
 0001:000595f9       ?validate_and_update_state_at_end_of_format_string@?$positional_parameter_base@_WV?$stream_output_adapter@_W@__crt_stdio_output@@@__crt_stdio_output@@IAE_NXZ 1005a5f9 f i libucrt:output.obj
 0001:00059689       ?validate_and_update_state_at_end_of_format_string@?$positional_parameter_base@_WV?$string_output_adapter@_W@__crt_stdio_output@@@__crt_stdio_output@@IAE_NXZ 1005a689 f i libucrt:output.obj
 0001:00059719       ?validate_and_update_state_at_end_of_format_string@?$standard_base@DV?$stream_output_adapter@D@__crt_stdio_output@@@__crt_stdio_output@@IBE_NXZ 1005a719 f i libucrt:output.obj
 0001:0005971c       ?validate_and_update_state_at_end_of_format_string@?$standard_base@DV?$string_output_adapter@D@__crt_stdio_output@@@__crt_stdio_output@@IBE_NXZ 1005a71c f i libucrt:output.obj
 0001:0005971f       ?validate_and_update_state_at_end_of_format_string@?$standard_base@_WV?$stream_output_adapter@_W@__crt_stdio_output@@@__crt_stdio_output@@IBE_NXZ 1005a71f f i libucrt:output.obj
 0001:00059722       ?validate_and_update_state_at_end_of_format_string@?$standard_base@_WV?$string_output_adapter@_W@__crt_stdio_output@@@__crt_stdio_output@@IBE_NXZ 1005a722 f i libucrt:output.obj
 0001:00059725       ?validate_state_for_type_case_a@?$positional_parameter_base@DV?$stream_output_adapter@D@__crt_stdio_output@@@__crt_stdio_output@@IAE_NXZ 1005a725 f i libucrt:output.obj
 0001:00059774       ?validate_state_for_type_case_a@?$positional_parameter_base@DV?$string_output_adapter@D@__crt_stdio_output@@@__crt_stdio_output@@IAE_NXZ 1005a774 f i libucrt:output.obj
 0001:000597c3       ?validate_state_for_type_case_a@?$positional_parameter_base@_WV?$stream_output_adapter@_W@__crt_stdio_output@@@__crt_stdio_output@@IAE_NXZ 1005a7c3 f i libucrt:output.obj
 0001:00059812       ?validate_state_for_type_case_a@?$positional_parameter_base@_WV?$string_output_adapter@_W@__crt_stdio_output@@@__crt_stdio_output@@IAE_NXZ 1005a812 f i libucrt:output.obj
 0001:00059861       ?validate_state_for_type_case_a@?$standard_base@DV?$stream_output_adapter@D@__crt_stdio_output@@@__crt_stdio_output@@IBE_NXZ 1005a861 f i libucrt:output.obj
 0001:00059864       ?validate_state_for_type_case_a@?$standard_base@DV?$string_output_adapter@D@__crt_stdio_output@@@__crt_stdio_output@@IBE_NXZ 1005a864 f i libucrt:output.obj
 0001:00059867       ?validate_state_for_type_case_a@?$standard_base@_WV?$stream_output_adapter@_W@__crt_stdio_output@@@__crt_stdio_output@@IBE_NXZ 1005a867 f i libucrt:output.obj
 0001:0005986a       ?validate_state_for_type_case_a@?$standard_base@_WV?$string_output_adapter@_W@__crt_stdio_output@@@__crt_stdio_output@@IBE_NXZ 1005a86a f i libucrt:output.obj
 0001:0005986d       ?validate_stream_is_ansi_if_required@?$__acrt_stdio_char_traits@D@@SA_NQAU_iobuf@@@Z 1005a86d f i libucrt:output.obj
 0001:000598f4       ?validate_stream_is_ansi_if_required@?$__acrt_stdio_char_traits@_W@@SA_NQAU_iobuf@@@Z 1005a8f4 f i libucrt:output.obj
 0001:000598f7       ?wide_null_string@?$output_processor@DV?$stream_output_adapter@D@__crt_stdio_output@@V?$format_validation_base@DV?$stream_output_adapter@D@__crt_stdio_output@@@2@@__crt_stdio_output@@CAPA_WXZ 1005a8f7 f i libucrt:output.obj
 0001:000598fd       ?wide_null_string@?$output_processor@DV?$stream_output_adapter@D@__crt_stdio_output@@V?$positional_parameter_base@DV?$stream_output_adapter@D@__crt_stdio_output@@@2@@__crt_stdio_output@@CAPA_WXZ 1005a8fd f i libucrt:output.obj
 0001:00059903       ?wide_null_string@?$output_processor@DV?$stream_output_adapter@D@__crt_stdio_output@@V?$standard_base@DV?$stream_output_adapter@D@__crt_stdio_output@@@2@@__crt_stdio_output@@CAPA_WXZ 1005a903 f i libucrt:output.obj
 0001:00059909       ?wide_null_string@?$output_processor@DV?$string_output_adapter@D@__crt_stdio_output@@V?$format_validation_base@DV?$string_output_adapter@D@__crt_stdio_output@@@2@@__crt_stdio_output@@CAPA_WXZ 1005a909 f i libucrt:output.obj
 0001:0005990f       ?wide_null_string@?$output_processor@DV?$string_output_adapter@D@__crt_stdio_output@@V?$positional_parameter_base@DV?$string_output_adapter@D@__crt_stdio_output@@@2@@__crt_stdio_output@@CAPA_WXZ 1005a90f f i libucrt:output.obj
 0001:00059915       ?wide_null_string@?$output_processor@DV?$string_output_adapter@D@__crt_stdio_output@@V?$standard_base@DV?$string_output_adapter@D@__crt_stdio_output@@@2@@__crt_stdio_output@@CAPA_WXZ 1005a915 f i libucrt:output.obj
 0001:0005991b       ?wide_null_string@?$output_processor@_WV?$stream_output_adapter@_W@__crt_stdio_output@@V?$format_validation_base@_WV?$stream_output_adapter@_W@__crt_stdio_output@@@2@@__crt_stdio_output@@CAPA_WXZ 1005a91b f i libucrt:output.obj
 0001:00059921       ?wide_null_string@?$output_processor@_WV?$stream_output_adapter@_W@__crt_stdio_output@@V?$positional_parameter_base@_WV?$stream_output_adapter@_W@__crt_stdio_output@@@2@@__crt_stdio_output@@CAPA_WXZ 1005a921 f i libucrt:output.obj
 0001:00059927       ?wide_null_string@?$output_processor@_WV?$stream_output_adapter@_W@__crt_stdio_output@@V?$standard_base@_WV?$stream_output_adapter@_W@__crt_stdio_output@@@2@@__crt_stdio_output@@CAPA_WXZ 1005a927 f i libucrt:output.obj
 0001:0005992d       ?wide_null_string@?$output_processor@_WV?$string_output_adapter@_W@__crt_stdio_output@@V?$format_validation_base@_WV?$string_output_adapter@_W@__crt_stdio_output@@@2@@__crt_stdio_output@@CAPA_WXZ 1005a92d f i libucrt:output.obj
 0001:00059933       ?wide_null_string@?$output_processor@_WV?$string_output_adapter@_W@__crt_stdio_output@@V?$positional_parameter_base@_WV?$string_output_adapter@_W@__crt_stdio_output@@@2@@__crt_stdio_output@@CAPA_WXZ 1005a933 f i libucrt:output.obj
 0001:00059939       ?wide_null_string@?$output_processor@_WV?$string_output_adapter@_W@__crt_stdio_output@@V?$standard_base@_WV?$string_output_adapter@_W@__crt_stdio_output@@@2@@__crt_stdio_output@@CAPA_WXZ 1005a939 f i libucrt:output.obj
 0001:0005993f       ?write_character@?$output_adapter_common@DV?$stream_output_adapter@D@__crt_stdio_output@@@__crt_stdio_output@@QBEXDQAH@Z 1005a93f f i libucrt:output.obj
 0001:0005995e       ?write_character@?$output_adapter_common@_WV?$stream_output_adapter@_W@__crt_stdio_output@@@__crt_stdio_output@@QBEX_WQAH@Z 1005a95e f i libucrt:output.obj
 0001:0005997d       ?write_character@?$string_output_adapter@D@__crt_stdio_output@@QBE_NDQAH@Z 1005a97d f i libucrt:output.obj
 0001:000599bf       ?write_character@?$string_output_adapter@_W@__crt_stdio_output@@QBE_N_WQAH@Z 1005a9bf f i libucrt:output.obj
 0001:00059a04       ?write_character_without_count_update@?$stream_output_adapter@D@__crt_stdio_output@@QBE_ND@Z 1005aa04 f i libucrt:output.obj
 0001:00059a3a       ?write_character_without_count_update@?$stream_output_adapter@_W@__crt_stdio_output@@QBE_N_W@Z 1005aa3a f i libucrt:output.obj
 0001:00059a73       ?write_stored_string_tchar@?$output_processor@DV?$stream_output_adapter@D@__crt_stdio_output@@V?$format_validation_base@DV?$stream_output_adapter@D@__crt_stdio_output@@@2@@__crt_stdio_output@@AAE_ND@Z 1005aa73 f i libucrt:output.obj
 0001:00059b18       ?write_stored_string_tchar@?$output_processor@DV?$stream_output_adapter@D@__crt_stdio_output@@V?$positional_parameter_base@DV?$stream_output_adapter@D@__crt_stdio_output@@@2@@__crt_stdio_output@@AAE_ND@Z 1005ab18 f i libucrt:output.obj
 0001:00059bbd       ?write_stored_string_tchar@?$output_processor@DV?$stream_output_adapter@D@__crt_stdio_output@@V?$standard_base@DV?$stream_output_adapter@D@__crt_stdio_output@@@2@@__crt_stdio_output@@AAE_ND@Z 1005abbd f i libucrt:output.obj
 0001:00059c62       ?write_stored_string_tchar@?$output_processor@DV?$string_output_adapter@D@__crt_stdio_output@@V?$format_validation_base@DV?$string_output_adapter@D@__crt_stdio_output@@@2@@__crt_stdio_output@@AAE_ND@Z 1005ac62 f i libucrt:output.obj
 0001:00059d07       ?write_stored_string_tchar@?$output_processor@DV?$string_output_adapter@D@__crt_stdio_output@@V?$positional_parameter_base@DV?$string_output_adapter@D@__crt_stdio_output@@@2@@__crt_stdio_output@@AAE_ND@Z 1005ad07 f i libucrt:output.obj
 0001:00059dac       ?write_stored_string_tchar@?$output_processor@DV?$string_output_adapter@D@__crt_stdio_output@@V?$standard_base@DV?$string_output_adapter@D@__crt_stdio_output@@@2@@__crt_stdio_output@@AAE_ND@Z 1005adac f i libucrt:output.obj
 0001:00059e51       ?write_stored_string_tchar@?$output_processor@_WV?$stream_output_adapter@_W@__crt_stdio_output@@V?$format_validation_base@_WV?$stream_output_adapter@_W@__crt_stdio_output@@@2@@__crt_stdio_output@@AAE_N_W@Z 1005ae51 f i libucrt:output.obj
 0001:00059ede       ?write_stored_string_tchar@?$output_processor@_WV?$stream_output_adapter@_W@__crt_stdio_output@@V?$positional_parameter_base@_WV?$stream_output_adapter@_W@__crt_stdio_output@@@2@@__crt_stdio_output@@AAE_N_W@Z 1005aede f i libucrt:output.obj
 0001:00059f6b       ?write_stored_string_tchar@?$output_processor@_WV?$stream_output_adapter@_W@__crt_stdio_output@@V?$standard_base@_WV?$stream_output_adapter@_W@__crt_stdio_output@@@2@@__crt_stdio_output@@AAE_N_W@Z 1005af6b f i libucrt:output.obj
 0001:00059ff8       ?write_stored_string_tchar@?$output_processor@_WV?$string_output_adapter@_W@__crt_stdio_output@@V?$format_validation_base@_WV?$string_output_adapter@_W@__crt_stdio_output@@@2@@__crt_stdio_output@@AAE_N_W@Z 1005aff8 f i libucrt:output.obj
 0001:0005a085       ?write_stored_string_tchar@?$output_processor@_WV?$string_output_adapter@_W@__crt_stdio_output@@V?$positional_parameter_base@_WV?$string_output_adapter@_W@__crt_stdio_output@@@2@@__crt_stdio_output@@AAE_N_W@Z 1005b085 f i libucrt:output.obj
 0001:0005a112       ?write_stored_string_tchar@?$output_processor@_WV?$string_output_adapter@_W@__crt_stdio_output@@V?$standard_base@_WV?$string_output_adapter@_W@__crt_stdio_output@@@2@@__crt_stdio_output@@AAE_N_W@Z 1005b112 f i libucrt:output.obj
 0001:0005a19f       ?write_string@?$stream_output_adapter@D@__crt_stdio_output@@QBEXQBDHQAHAAV__crt_deferred_errno_cache@@@Z 1005b19f f i libucrt:output.obj
 0001:0005a1cb       ?write_string@?$stream_output_adapter@_W@__crt_stdio_output@@QBEXQB_WHQAHAAV__crt_deferred_errno_cache@@@Z 1005b1cb f i libucrt:output.obj
 0001:0005a1f7       ?write_string@?$string_output_adapter@D@__crt_stdio_output@@QBEXQBDHQAHAAV__crt_deferred_errno_cache@@@Z 1005b1f7 f i libucrt:output.obj
 0001:0005a25e       ?write_string@?$string_output_adapter@_W@__crt_stdio_output@@QBEXQB_WHQAHAAV__crt_deferred_errno_cache@@@Z 1005b25e f i libucrt:output.obj
 0001:0005a2cf       ?write_string_impl@?$output_adapter_common@DV?$stream_output_adapter@D@__crt_stdio_output@@@__crt_stdio_output@@IBEXQBDHQAHAAV__crt_deferred_errno_cache@@@Z 1005b2cf f i libucrt:output.obj
 0001:0005a36d       ?write_string_impl@?$output_adapter_common@_WV?$stream_output_adapter@_W@__crt_stdio_output@@@__crt_stdio_output@@IBEXQB_WHQAHAAV__crt_deferred_errno_cache@@@Z 1005b36d f i libucrt:output.obj
 0001:0005a40e       ___acrt_disable_global_locale_sync 1005b40e f i libucrt:output.obj
 0001:0005a421       ___acrt_enable_global_locale_sync 1005b421 f i libucrt:output.obj
 0001:0005a436       ___acrt_isleadbyte_l_noupdate 1005b436 f i libucrt:output.obj
 0001:0005a454       ___acrt_locale_changed     1005b454 f i libucrt:output.obj
 0001:0005a45f       ___acrt_locale_get_ctype_array_value 1005b45f f i libucrt:output.obj
 0001:0005a481       ___stdio_common_vfprintf   1005b481 f   libucrt:output.obj
 0001:0005a504       ___stdio_common_vfprintf_p 1005b504 f   libucrt:output.obj
 0001:0005a587       ___stdio_common_vfprintf_s 1005b587 f   libucrt:output.obj
 0001:0005a60a       ___stdio_common_vfwprintf  1005b60a f   libucrt:output.obj
 0001:0005a68d       ___stdio_common_vfwprintf_p 1005b68d f   libucrt:output.obj
 0001:0005a710       ___stdio_common_vfwprintf_s 1005b710 f   libucrt:output.obj
 0001:0005a793       ___stdio_common_vsnprintf_s 1005b793 f   libucrt:output.obj
 0001:0005a7ba       ___stdio_common_vsnwprintf_s 1005b7ba f   libucrt:output.obj
 0001:0005a7e1       ___stdio_common_vsprintf   1005b7e1 f   libucrt:output.obj
 0001:0005a805       ___stdio_common_vsprintf_p 1005b805 f   libucrt:output.obj
 0001:0005a829       ___stdio_common_vsprintf_s 1005b829 f   libucrt:output.obj
 0001:0005a84d       ___stdio_common_vswprintf  1005b84d f   libucrt:output.obj
 0001:0005a871       ___stdio_common_vswprintf_p 1005b871 f   libucrt:output.obj
 0001:0005a895       ___stdio_common_vswprintf_s 1005b895 f   libucrt:output.obj
 0001:0005a8b9       __ctype_fast_check_internal 1005b8b9 f i libucrt:output.obj
 0001:0005a8d3       __isdigit_fast_internal    1005b8d3 f i libucrt:output.obj
 0001:0005a8ed       __tolower_fast_internal    1005b8ed f i libucrt:output.obj
 0001:0005a960       _strcpy_s                  1005b960 f   libucrt:strcpy_s.obj
 0001:0005a9c0       _strcmp                    1005b9c0 f   libucrt:strcmp.obj
 0001:0005aa50       _strlen                    1005ba50 f   libucrt:strlen.obj
 0001:0005aadb       ??0?$__crt_scoped_stack_ptr@D@@QAE@U?$__crt_scoped_stack_ptr_tag@D@@@Z 1005badb f i libucrt:strlwr.obj
 0001:0005aaeb       ??0?$__crt_scoped_stack_ptr_tag@D@@QAE@QAD@Z 1005baeb f i libucrt:strlwr.obj
 0001:0005aafb       ??1?$__crt_scoped_stack_ptr@D@@QAE@XZ 1005bafb f i libucrt:strlwr.obj
 0001:0005ab04       ??B?$__crt_scoped_stack_ptr@D@@QBE_NXZ 1005bb04 f i libucrt:strlwr.obj
 0001:0005ac77       ?get@?$__crt_scoped_stack_ptr@D@@QBEPADXZ 1005bc77 f i libucrt:strlwr.obj
 0001:0005ac7a       __MallocaComputeSize       1005bc7a f i libucrt:strlwr.obj
 0001:0005ac8d       __MarkAllocaS              1005bc8d f i libucrt:strlwr.obj
 0001:0005aca3       __freea_crt                1005bca3 f i libucrt:strlwr.obj
 0001:0005acc3       __strlwr                   1005bcc3 f   libucrt:strlwr.obj
 0001:0005ad1f       __strlwr_l                 1005bd1f f   libucrt:strlwr.obj
 0001:0005ad39       __strlwr_s                 1005bd39 f   libucrt:strlwr.obj
 0001:0005ad50       __strlwr_s_l               1005bd50 f   libucrt:strlwr.obj
 0001:0005b27b       ??$gmtime_s@ABQAUtm@@ABQBJ@?$__crt_integer_traits@J@@SAHABQAUtm@@ABQBJ@Z 1005c27b f i libucrt:localtime.obj
 0001:0005b293       ??$gmtime_s@ABQAUtm@@ABQB_J@?$__crt_integer_traits@_J@@SAHABQAUtm@@ABQB_J@Z 1005c293 f i libucrt:localtime.obj
 0001:0005b2ab       ??$gmtime_s@ABQAUtm@@PAJ@?$__crt_integer_traits@J@@SAHABQAUtm@@$$QAPAJ@Z 1005c2ab f i libucrt:localtime.obj
 0001:0005b2c3       ??$gmtime_s@ABQAUtm@@PA_J@?$__crt_integer_traits@_J@@SAHABQAUtm@@$$QAPA_J@Z 1005c2c3 f i libucrt:localtime.obj
 0001:0005b2db       ??$localtime_s@ABQAUtm@@ABQBJ@?$__crt_integer_traits@J@@SAHABQAUtm@@ABQBJ@Z 1005c2db f i libucrt:localtime.obj
 0001:0005b2f4       ??$localtime_s@ABQAUtm@@ABQB_J@?$__crt_integer_traits@_J@@SAHABQAUtm@@ABQB_J@Z 1005c2f4 f i libucrt:localtime.obj
 0001:0005b30d       __invoke_watson_if_error   1005c30d f i libucrt:localtime.obj
 0001:0005b32f       __localtime32              1005c32f f   libucrt:localtime.obj
 0001:0005b356       __localtime32_s            1005c356 f   libucrt:localtime.obj
 0001:0005b361       __localtime64              1005c361 f   libucrt:localtime.obj
 0001:0005b388       __localtime64_s            1005c388 f   libucrt:localtime.obj
 0001:0005b393       ??$?R_W@__crt_internal_free_policy@@QBEXQB_W@Z 1005c393 f i libucrt:strftime.obj
 0001:0005b51e       ??$__acrt_mbs_to_wcs_cp@U__crt_win32_buffer_internal_dynamic_resizing@@@@YAHQBDAAV?$__crt_win32_buffer@_WU__crt_win32_buffer_internal_dynamic_resizing@@@@I@Z 1005c51e f i libucrt:strftime.obj
 0001:0005b53b       ??$__acrt_wcs_to_mbs_cp@U__crt_win32_buffer_no_resizing@@@@YAHQB_WAAV?$__crt_win32_buffer@DU__crt_win32_buffer_no_resizing@@@@I@Z 1005c53b f i libucrt:strftime.obj
 0001:0005b558       ??0?$__crt_unique_heap_ptr@_WU__crt_internal_free_policy@@@@QAE@QA_W@Z 1005c558 f i libucrt:strftime.obj
 0001:0005b568       ??0?$__crt_win32_buffer@DU__crt_win32_buffer_no_resizing@@@@QAE@QADI@Z 1005c568 f i libucrt:strftime.obj
 0001:0005b58c       ??0?$__crt_win32_buffer@_WU__crt_win32_buffer_internal_dynamic_resizing@@@@QAE@XZ 1005c58c f i libucrt:strftime.obj
 0001:0005b5a2       ??1?$__crt_unique_heap_ptr@_WU__crt_internal_free_policy@@@@QAE@XZ 1005c5a2 f i libucrt:strftime.obj
 0001:0005b5b4       ??1?$__crt_win32_buffer@DU__crt_win32_buffer_no_resizing@@@@QAE@XZ 1005c5b4 f i libucrt:strftime.obj
 0001:0005b5bf       ??1?$__crt_win32_buffer@_WU__crt_win32_buffer_internal_dynamic_resizing@@@@QAE@XZ 1005c5bf f i libucrt:strftime.obj
 0001:0005b609       ?_deallocate@?$__crt_win32_buffer@DU__crt_win32_buffer_no_resizing@@@@AAEXXZ 1005c609 f i libucrt:strftime.obj
 0001:0005b614       ?_deallocate@?$__crt_win32_buffer@_WU__crt_win32_buffer_internal_dynamic_resizing@@@@AAEXXZ 1005c614 f i libucrt:strftime.obj
 0001:0005b62e       ?allocate@?$__crt_win32_buffer@DU__crt_win32_buffer_no_resizing@@@@QAEHI@Z 1005c62e f i libucrt:strftime.obj
 0001:0005b655       ?allocate@?$__crt_win32_buffer@_WU__crt_win32_buffer_internal_dynamic_resizing@@@@QAEHI@Z 1005c655 f i libucrt:strftime.obj
 0001:0005b694       ?allocate@__crt_win32_buffer_internal_dynamic_resizing@@SAHQAPAXIABV__crt_win32_buffer_empty_debug_info@@@Z 1005c694 f i libucrt:strftime.obj
 0001:0005b6b3       ?allocate@__crt_win32_buffer_no_resizing@@SAHQAPAXIABV__crt_win32_buffer_empty_debug_info@@@Z 1005c6b3 f i libucrt:strftime.obj
 0001:0005b6c0       ?capacity@?$__crt_win32_buffer@DU__crt_win32_buffer_no_resizing@@@@QBEIXZ 1005c6c0 f i libucrt:strftime.obj
 0001:0005b6c4       ?capacity@?$__crt_win32_buffer@_WU__crt_win32_buffer_internal_dynamic_resizing@@@@QBEIXZ 1005c6c4 f i libucrt:strftime.obj
 0001:0005b6c8       ?data@?$__crt_win32_buffer@DU__crt_win32_buffer_no_resizing@@@@QAEPADXZ 1005c6c8 f i libucrt:strftime.obj
 0001:0005b6cc       ?data@?$__crt_win32_buffer@_WU__crt_win32_buffer_internal_dynamic_resizing@@@@QAEPA_WXZ 1005c6cc f i libucrt:strftime.obj
 0001:0005b6d0       ?deallocate@__crt_win32_buffer_internal_dynamic_resizing@@SAXQAXABV__crt_win32_buffer_empty_debug_info@@@Z 1005c6d0 f i libucrt:strftime.obj
 0001:0005b6e0       ?deallocate@__crt_win32_buffer_no_resizing@@SAXQAXABV__crt_win32_buffer_empty_debug_info@@@Z 1005c6e0 f i libucrt:strftime.obj
 0001:0005b6e3       ?debug_info@?$__crt_win32_buffer@DU__crt_win32_buffer_no_resizing@@@@QBEABV__crt_win32_buffer_empty_debug_info@@XZ 1005c6e3 f i libucrt:strftime.obj
 0001:0005b6e6       ?debug_info@?$__crt_win32_buffer@_WU__crt_win32_buffer_internal_dynamic_resizing@@@@QBEABV__crt_win32_buffer_empty_debug_info@@XZ 1005c6e6 f i libucrt:strftime.obj
 0001:0005b6e9       ?detach@?$__crt_unique_heap_ptr@DU__crt_internal_free_policy@@@@QAEPADXZ 1005c6e9 f i libucrt:strftime.obj
 0001:0005b6ef       ?get@?$__crt_unique_heap_ptr@_WU__crt_internal_free_policy@@@@QBEPA_WXZ 1005c6ef f i libucrt:strftime.obj
 0001:0005b6f2       ?release@?$__crt_unique_heap_ptr@_WU__crt_internal_free_policy@@@@QAEXXZ 1005c6f2 f i libucrt:strftime.obj
 0001:0005b704       ?set_to_nullptr@?$__crt_win32_buffer@DU__crt_win32_buffer_no_resizing@@@@QAEXXZ 1005c704 f i libucrt:strftime.obj
 0001:0005b718       ?set_to_nullptr@?$__crt_win32_buffer@_WU__crt_win32_buffer_internal_dynamic_resizing@@@@QAEXXZ 1005c718 f i libucrt:strftime.obj
 0001:0005b72f       ?size@?$__crt_win32_buffer@DU__crt_win32_buffer_no_resizing@@@@QAEXI@Z 1005c72f f i libucrt:strftime.obj
 0001:0005b73e       ?size@?$__crt_win32_buffer@DU__crt_win32_buffer_no_resizing@@@@QBEIXZ 1005c73e f i libucrt:strftime.obj
 0001:0005b742       ?size@?$__crt_win32_buffer@_WU__crt_win32_buffer_internal_dynamic_resizing@@@@QAEXI@Z 1005c742 f i libucrt:strftime.obj
 0001:0005b751       __Getdays                  1005c751 f   libucrt:strftime.obj
 0001:0005b75a       __Getdays_l                1005c75a f   libucrt:strftime.obj
 0001:0005b860       __Getmonths                1005c860 f   libucrt:strftime.obj
 0001:0005b869       __Getmonths_l              1005c869 f   libucrt:strftime.obj
 0001:0005b97d       __Gettnames                1005c97d f   libucrt:strftime.obj
 0001:0005b982       __Strftime                 1005c982 f   libucrt:strftime.obj
 0001:0005b9a2       __Strftime_l               1005c9a2 f   libucrt:strftime.obj
 0001:0005ba9f       __strftime_l               1005ca9f f   libucrt:strftime.obj
 0001:0005babf       _strftime                  1005cabf f   libucrt:strftime.obj
 0001:0005bdcd       __time32                   1005cdcd f   libucrt:time.obj
 0001:0005be26       __time64                   1005ce26 f   libucrt:time.obj
 0001:0005be84       __timespec32_get           1005ce84 f   libucrt:time.obj
 0001:0005be8f       __timespec64_get           1005ce8f f   libucrt:time.obj
 0001:0005be9a       ___acrt_errno_from_os_error 1005ce9a f   libucrt:errno.obj
 0001:0005bedd       ___acrt_errno_map_os_error 1005cedd f   libucrt:errno.obj
 0001:0005bf00       ___doserrno                1005cf00 f   libucrt:errno.obj
 0001:0005bf13       __errno                    1005cf13 f   libucrt:errno.obj
 0001:0005bf26       __get_doserrno             1005cf26 f   libucrt:errno.obj
 0001:0005bf4b       __get_errno                1005cf4b f   libucrt:errno.obj
 0001:0005bf70       __set_doserrno             1005cf70 f   libucrt:errno.obj
 0001:0005bf91       __set_errno                1005cf91 f   libucrt:errno.obj
 0001:0005bfb2       ??$is_overflow_condition@K@__crt_strtox@@YA_NIK@Z 1005cfb2 f i libucrt:atox.obj
 0001:0005bfe3       ??$is_overflow_condition@_K@__crt_strtox@@YA_NI_K@Z 1005cfe3 f i libucrt:atox.obj
 0001:0005c024       ??$make_c_string_character_source@D$$T@__crt_strtox@@YA?AV?$c_string_character_source@D@0@QBD$$T@Z 1005d024 f i libucrt:atox.obj
 0001:0005c03f       ??$make_c_string_character_source@_W$$T@__crt_strtox@@YA?AV?$c_string_character_source@_W@0@QB_W$$T@Z 1005d03f f i libucrt:atox.obj
 0001:0005c05a       ??$parse_integer@KV?$c_string_character_source@D@__crt_strtox@@@__crt_strtox@@YAKQAU__crt_locale_pointers@@V?$c_string_character_source@D@0@H_N@Z 1005d05a f i libucrt:atox.obj
 0001:0005c27d       ??$parse_integer@KV?$c_string_character_source@_W@__crt_strtox@@@__crt_strtox@@YAKQAU__crt_locale_pointers@@V?$c_string_character_source@_W@0@H_N@Z 1005d27d f i libucrt:atox.obj
 0001:0005c885       ??$parse_integer@_KV?$c_string_character_source@D@__crt_strtox@@@__crt_strtox@@YA_KQAU__crt_locale_pointers@@V?$c_string_character_source@D@0@H_N@Z 1005d885 f i libucrt:atox.obj
 0001:0005cb2b       ??$parse_integer@_KV?$c_string_character_source@_W@__crt_strtox@@@__crt_strtox@@YA_KQAU__crt_locale_pointers@@V?$c_string_character_source@_W@0@H_N@Z 1005db2b f i libucrt:atox.obj
 0001:0005d1fc       ??$parse_integer_from_string@JD$$T@__crt_strtox@@YAJQBD$$THQAU__crt_locale_pointers@@@Z 1005e1fc f i libucrt:atox.obj
 0001:0005d227       ??$parse_integer_from_string@J_W$$T@__crt_strtox@@YAJQB_W$$THQAU__crt_locale_pointers@@@Z 1005e227 f i libucrt:atox.obj
 0001:0005d252       ??$parse_integer_from_string@_JD$$T@__crt_strtox@@YA_JQBD$$THQAU__crt_locale_pointers@@@Z 1005e252 f i libucrt:atox.obj
 0001:0005d27d       ??$parse_integer_from_string@_J_W$$T@__crt_strtox@@YA_JQB_W$$THQAU__crt_locale_pointers@@@Z 1005e27d f i libucrt:atox.obj
 0001:0005d2a8       ??0?$c_string_character_source@D@__crt_strtox@@QAE@QBDQAPBD@Z 1005e2a8 f i libucrt:atox.obj
 0001:0005d2c4       ??0?$c_string_character_source@_W@__crt_strtox@@QAE@QB_WQAPB_W@Z 1005e2c4 f i libucrt:atox.obj
 0001:0005d2e0       ??1?$c_string_character_source@D@__crt_strtox@@QAE@XZ 1005e2e0 f i libucrt:atox.obj
 0001:0005d2ec       ??1?$c_string_character_source@_W@__crt_strtox@@QAE@XZ 1005e2ec f i libucrt:atox.obj
 0001:0005d2f8       ?get@?$c_string_character_source@D@__crt_strtox@@QAEDXZ 1005e2f8 f i libucrt:atox.obj
 0001:0005d300       ?get@?$c_string_character_source@_W@__crt_strtox@@QAE_WXZ 1005e300 f i libucrt:atox.obj
 0001:0005d30b       ?is_space@__crt_strtox@@YA_NDQAU__crt_locale_pointers@@@Z 1005e30b f i libucrt:atox.obj
 0001:0005d329       ?is_space@__crt_strtox@@YA_N_WPAU__crt_locale_pointers@@@Z 1005e329 f i libucrt:atox.obj
 0001:0005d341       ?maximum_signed_value@__crt_strtox@@YAJK@Z 1005e341 f i libucrt:atox.obj
 0001:0005d347       ?maximum_signed_value@__crt_strtox@@YA_J_K@Z 1005e347 f i libucrt:atox.obj
 0001:0005d350       ?minimum_signed_value@__crt_strtox@@YAJK@Z 1005e350 f i libucrt:atox.obj
 0001:0005d356       ?minimum_signed_value@__crt_strtox@@YA_J_K@Z 1005e356 f i libucrt:atox.obj
 0001:0005d35e       ?parse_digit@__crt_strtox@@YAID@Z 1005e35e f i libucrt:atox.obj
 0001:0005d398       ?parse_digit@__crt_strtox@@YAI_W@Z 1005e398 f i libucrt:atox.obj
 0001:0005d577       ?restore_state@?$c_string_character_source@D@__crt_strtox@@QAE_NQBD@Z 1005e577 f i libucrt:atox.obj
 0001:0005d587       ?restore_state@?$c_string_character_source@_W@__crt_strtox@@QAE_NQB_W@Z 1005e587 f i libucrt:atox.obj
 0001:0005d597       ?save_state@?$c_string_character_source@D@__crt_strtox@@QBEPBDXZ 1005e597 f i libucrt:atox.obj
 0001:0005d59a       ?save_state@?$c_string_character_source@_W@__crt_strtox@@QBEPB_WXZ 1005e59a f i libucrt:atox.obj
 0001:0005d59d       ?unget@?$c_string_character_source@D@__crt_strtox@@QAEXD@Z 1005e59d f i libucrt:atox.obj
 0001:0005d5c6       ?unget@?$c_string_character_source@_W@__crt_strtox@@QAEX_W@Z 1005e5c6 f i libucrt:atox.obj
 0001:0005d5f4       ?validate@?$c_string_character_source@D@__crt_strtox@@QBE_NXZ 1005e5f4 f i libucrt:atox.obj
 0001:0005d60f       ?validate@?$c_string_character_source@_W@__crt_strtox@@QBE_NXZ 1005e60f f i libucrt:atox.obj
 0001:0005d62a       ?wide_character_to_digit@__crt_strtox@@YAH_W@Z 1005e62a f i libucrt:atox.obj
 0001:0005d7cb       ___acrt_get_locale_data_prefix 1005e7cb f i libucrt:atox.obj
 0001:0005d7d7       ___ascii_iswalpha          1005e7d7 f i libucrt:atox.obj
 0001:0005d7fa       ___ascii_toupper           1005e7fa f i libucrt:atox.obj
 0001:0005d811       ___ascii_towupper          1005e811 f i libucrt:atox.obj
 0001:0005d828       __atoi64                   1005e828 f   libucrt:atox.obj
 0001:0005d84b       __atoi64_l                 1005e84b f   libucrt:atox.obj
 0001:0005d86f       __atoi_l                   1005e86f f   libucrt:atox.obj
 0001:0005d893       __atol_l                   1005e893 f   libucrt:atox.obj
 0001:0005d8b7       __atoll_l                  1005e8b7 f   libucrt:atox.obj
 0001:0005d8db       __chvalidchk_l             1005e8db f i libucrt:atox.obj
 0001:0005d903       __ischartype_l             1005e903 f i libucrt:atox.obj
 0001:0005d957       __wtoi                     1005e957 f   libucrt:atox.obj
 0001:0005d97a       __wtoi64                   1005e97a f   libucrt:atox.obj
 0001:0005d99d       __wtoi64_l                 1005e99d f   libucrt:atox.obj
 0001:0005d9c1       __wtoi_l                   1005e9c1 f   libucrt:atox.obj
 0001:0005d9e5       __wtol                     1005e9e5 f   libucrt:atox.obj
 0001:0005da08       __wtol_l                   1005ea08 f   libucrt:atox.obj
 0001:0005da2c       __wtoll                    1005ea2c f   libucrt:atox.obj
 0001:0005da4f       __wtoll_l                  1005ea4f f   libucrt:atox.obj
 0001:0005da73       _atoi                      1005ea73 f   libucrt:atox.obj
 0001:0005da96       _atol                      1005ea96 f   libucrt:atox.obj
 0001:0005dab9       _atoll                     1005eab9 f   libucrt:atox.obj
 0001:0005db45       _strcat_s                  1005eb45 f   libucrt:strcat_s.obj
 0001:0005dbb0       _strncmp                   1005ebb0 f   libucrt:strncmp.obj
 0001:0005dd94       __strupr                   1005ed94 f   libucrt:strupr.obj
 0001:0005ddf0       __strupr_l                 1005edf0 f   libucrt:strupr.obj
 0001:0005de0a       __strupr_s                 1005ee0a f   libucrt:strupr.obj
 0001:0005de21       __strupr_s_l               1005ee21 f   libucrt:strupr.obj
 0001:0005de58       ??$make_c_string_character_source@DPAPAD@__crt_strtox@@YA?AV?$c_string_character_source@D@0@QBDQAPAD@Z 1005ee58 f i libucrt:strtox.obj
 0001:0005de73       ??$make_c_string_character_source@_WPAPA_W@__crt_strtox@@YA?AV?$c_string_character_source@_W@0@QB_WQAPA_W@Z 1005ee73 f i libucrt:strtox.obj
 0001:0005de8e       ??$parse_integer_from_string@JDPAPAD@__crt_strtox@@YAJQBDQAPADHQAU__crt_locale_pointers@@@Z 1005ee8e f i libucrt:strtox.obj
 0001:0005deb9       ??$parse_integer_from_string@J_WPAPA_W@__crt_strtox@@YAJQB_WQAPA_WHQAU__crt_locale_pointers@@@Z 1005eeb9 f i libucrt:strtox.obj
 0001:0005dee4       ??$parse_integer_from_string@KDPAPAD@__crt_strtox@@YAKQBDQAPADHQAU__crt_locale_pointers@@@Z 1005eee4 f i libucrt:strtox.obj
 0001:0005df0f       ??$parse_integer_from_string@K_WPAPA_W@__crt_strtox@@YAKQB_WQAPA_WHQAU__crt_locale_pointers@@@Z 1005ef0f f i libucrt:strtox.obj
 0001:0005df3a       ??$parse_integer_from_string@_JDPAPAD@__crt_strtox@@YA_JQBDQAPADHQAU__crt_locale_pointers@@@Z 1005ef3a f i libucrt:strtox.obj
 0001:0005df65       ??$parse_integer_from_string@_J_WPAPA_W@__crt_strtox@@YA_JQB_WQAPA_WHQAU__crt_locale_pointers@@@Z 1005ef65 f i libucrt:strtox.obj
 0001:0005df90       ??$parse_integer_from_string@_KDPAPAD@__crt_strtox@@YA_KQBDQAPADHQAU__crt_locale_pointers@@@Z 1005ef90 f i libucrt:strtox.obj
 0001:0005dfbb       ??$parse_integer_from_string@_K_WPAPA_W@__crt_strtox@@YA_KQB_WQAPA_WHQAU__crt_locale_pointers@@@Z 1005efbb f i libucrt:strtox.obj
 0001:0005dfe6       __strtoi64                 1005efe6 f   libucrt:strtox.obj
 0001:0005e010       __strtoi64_l               1005f010 f   libucrt:strtox.obj
 0001:0005e03b       __strtoimax_l              1005f03b f   libucrt:strtox.obj
 0001:0005e066       __strtol_l                 1005f066 f   libucrt:strtox.obj
 0001:0005e091       __strtoll_l                1005f091 f   libucrt:strtox.obj
 0001:0005e0bc       __strtoui64                1005f0bc f   libucrt:strtox.obj
 0001:0005e0e6       __strtoui64_l              1005f0e6 f   libucrt:strtox.obj
 0001:0005e111       __strtoul_l                1005f111 f   libucrt:strtox.obj
 0001:0005e13c       __strtoull_l               1005f13c f   libucrt:strtox.obj
 0001:0005e167       __strtoumax_l              1005f167 f   libucrt:strtox.obj
 0001:0005e192       __wcstoi64                 1005f192 f   libucrt:strtox.obj
 0001:0005e1bc       __wcstoi64_l               1005f1bc f   libucrt:strtox.obj
 0001:0005e1e7       __wcstoimax_l              1005f1e7 f   libucrt:strtox.obj
 0001:0005e212       __wcstol_l                 1005f212 f   libucrt:strtox.obj
 0001:0005e23d       __wcstoll_l                1005f23d f   libucrt:strtox.obj
 0001:0005e268       __wcstoui64                1005f268 f   libucrt:strtox.obj
 0001:0005e292       __wcstoui64_l              1005f292 f   libucrt:strtox.obj
 0001:0005e2bd       __wcstoul_l                1005f2bd f   libucrt:strtox.obj
 0001:0005e2e8       __wcstoull_l               1005f2e8 f   libucrt:strtox.obj
 0001:0005e313       __wcstoumax_l              1005f313 f   libucrt:strtox.obj
 0001:0005e33e       _strtoimax                 1005f33e f   libucrt:strtox.obj
 0001:0005e368       _strtol                    1005f368 f   libucrt:strtox.obj
 0001:0005e392       _strtoll                   1005f392 f   libucrt:strtox.obj
 0001:0005e3bc       _strtoul                   1005f3bc f   libucrt:strtox.obj
 0001:0005e3e6       _strtoull                  1005f3e6 f   libucrt:strtox.obj
 0001:0005e410       _strtoumax                 1005f410 f   libucrt:strtox.obj
 0001:0005e43a       _wcstoimax                 1005f43a f   libucrt:strtox.obj
 0001:0005e464       _wcstol                    1005f464 f   libucrt:strtox.obj
 0001:0005e48e       _wcstoll                   1005f48e f   libucrt:strtox.obj
 0001:0005e4b8       _wcstoul                   1005f4b8 f   libucrt:strtox.obj
 0001:0005e4e2       _wcstoull                  1005f4e2 f   libucrt:strtox.obj
 0001:0005e50c       _wcstoumax                 1005f50c f   libucrt:strtox.obj
 0001:0005ef4b       ??$tcsncpy_s@AAPADIAAPBDABI@?$__crt_char_traits@D@@SAHAAPAD$$QAIAAPBDABI@Z 1005ff4b f i libucrt:splitpath.obj
 0001:0005ef6e       ??$tcsncpy_s@AAPADIAAPBDH@?$__crt_char_traits@D@@SAHAAPAD$$QAIAAPBD$$QAH@Z 1005ff6e f i libucrt:splitpath.obj
 0001:0005ef91       ??$tcsncpy_s@AAPA_WIAAPB_WABI@?$__crt_char_traits@_W@@SAHAAPA_W$$QAIAAPB_WABI@Z 1005ff91 f i libucrt:splitpath.obj
 0001:0005efb4       ??$tcsncpy_s@AAPA_WIAAPB_WH@?$__crt_char_traits@_W@@SAHAAPA_W$$QAIAAPB_W$$QAH@Z 1005ffb4 f i libucrt:splitpath.obj
 0001:0005f071       __splitpath                10060071 f   libucrt:splitpath.obj
 0001:0005f0da       __splitpath_s              100600da f   libucrt:splitpath.obj
 0001:0005f131       __wsplitpath               10060131 f   libucrt:splitpath.obj
 0001:0005f19a       __wsplitpath_s             1006019a f   libucrt:splitpath.obj
 0001:0005f9ec       ??1?$__crt_simd_cleanup_guard@$00@@QAE@XZ 100609ec f i libucrt:strnlen.obj
 0001:0005f9f0       ??1?$__crt_simd_cleanup_guard@$0A@@@QAE@XZ 100609f0 f i libucrt:strnlen.obj
 0001:0005f9f3       ?compare_equals@?$__crt_simd_traits@$00E@@SA?AT__m256i@@T2@0@Z 100609f3 f i libucrt:strnlen.obj
 0001:0005f9f8       ?compare_equals@?$__crt_simd_traits@$00G@@SA?AT__m256i@@T2@0@Z 100609f8 f i libucrt:strnlen.obj
 0001:0005f9fd       ?compare_equals@?$__crt_simd_traits@$0A@E@@SA?AT__m128i@@T2@0@Z 100609fd f i libucrt:strnlen.obj
 0001:0005fa02       ?compare_equals@?$__crt_simd_traits@$0A@G@@SA?AT__m128i@@T2@0@Z 10060a02 f i libucrt:strnlen.obj
 0001:0005fa07       ?compute_byte_mask@?$__crt_simd_pack_traits@$00@@SAHT__m256i@@@Z 10060a07 f i libucrt:strnlen.obj
 0001:0005fa0c       ?compute_byte_mask@?$__crt_simd_pack_traits@$0A@@@SAHT__m128i@@@Z 10060a0c f i libucrt:strnlen.obj
 0001:0005fa11       ?get_zero_pack@?$__crt_simd_pack_traits@$00@@SA?AT__m256i@@XZ 10060a11 f i libucrt:strnlen.obj
 0001:0005fa16       ?get_zero_pack@?$__crt_simd_pack_traits@$0A@@@SA?AT__m128i@@XZ 10060a16 f i libucrt:strnlen.obj
 0001:0005fa1a       _strnlen                   10060a1a f   libucrt:strnlen.obj
 0001:0005fb3c       _wcslen                    10060b3c f   libucrt:strnlen.obj
 0001:0005fc64       _wcsnlen                   10060c64 f   libucrt:strnlen.obj
 0001:0005fe14       __abs64                    10060e14 f   libucrt:abs.obj
 0001:0005fe2e       _abs                       10060e2e f   libucrt:abs.obj
 0001:0005fe40       _cos                       10060e40 f   libucrt:cos.obj
 0001:0005fe90       _sin                       10060e90 f   libucrt:sin.obj
 0001:0005fed3       ??$?B$$A6AHI@Z@__crt_fast_encoded_nullptr_t@@QBEP6AHI@ZXZ 10060ed3 f i libucrt:new_handler.obj
 0001:0005fed9       ??$__crt_fast_decode_pointer@P6AHI@Z@@YAP6AHI@ZQ6AHI@Z@Z 10060ed9 f i libucrt:new_handler.obj
 0001:0005feef       ??$__crt_fast_encode_pointer@P6AHI@Z@@YAP6AHI@ZQ6AHI@Z@Z 10060eef f i libucrt:new_handler.obj
 0001:0005ff0e       ?__crt_fast_encode_pointer@@YA?AU__crt_fast_encoded_nullptr_t@@$$T@Z 10060f0e f i libucrt:new_handler.obj
 0001:0005ff19       ?_set_new_handler@@YAP6AHI@ZH@Z 10060f19 f   libucrt:new_handler.obj
 0001:0005ff26       ?initialize@?$dual_state_global@P6AHI@Z@__crt_state_management@@QAEXQ6AHI@Z@Z 10060f26 f i libucrt:new_handler.obj
 0001:0005ff4c       ?value@?$dual_state_global@P6AHI@Z@__crt_state_management@@QAEAAP6AHI@ZXZ 10060f4c f i libucrt:new_handler.obj
 0001:0005ff4f       ___acrt_initialize_new_handler 10060f4f f   libucrt:new_handler.obj
 0001:0005ff5e       __callnewh                 10060f5e f   libucrt:new_handler.obj
 0001:0005ff8b       __query_new_handler        10060f8b f   libucrt:new_handler.obj
 0001:0005ffe7       __set_new_handler          10060fe7 f   libucrt:new_handler.obj
 0001:00060051       ___ascii_stricmp           10061051 f   libucrt:stricmp.obj
 0001:0006008a       ___ascii_tolower           1006108a f i libucrt:stricmp.obj
 0001:000600a1       __strcmpi                  100610a1 f   libucrt:stricmp.obj
 0001:000600a1       __stricmp                  100610a1 f   libucrt:stricmp.obj
 0001:000600ea       __stricmp_l                100610ea f   libucrt:stricmp.obj
 0001:00060178       __errcode                  10061178 f   libucrt:fpexcept.obj
 0001:000601ac       __except1                  100611ac f   libucrt:fpexcept.obj
 0001:0006027a       __except2                  1006127a f   libucrt:fpexcept.obj
 0001:00060382       __handle_exc               10061382 f   libucrt:fpexcept.obj
 0001:0006056d       __handle_qnan2             1006156d f   libucrt:fpexcept.obj
 0001:0006057a       __raise_exc                1006157a f   libucrt:fpexcept.obj
 0001:0006059d       __raise_exc_ex             1006159d f   libucrt:fpexcept.obj
 0001:00060893       __raise_excf               10061893 f   libucrt:fpexcept.obj
 0001:000608b6       __set_errno_from_matherr   100618b6 f   libucrt:fpexcept.obj
 0001:000608e5       __umatherr                 100618e5 f   libucrt:fpexcept.obj
 0001:0006099b       __get_terminate            1006199b f   libucrt:terminate.obj
 0001:000609ad       _set_terminate             100619ad f   libucrt:terminate.obj
 0001:000609cd       _terminate                 100619cd f   libucrt:terminate.obj
 0001:00060a09       __initterm                 10061a09 f   libucrt:initterm.obj
 0001:00060a4e       __initterm_e               10061a4e f   libucrt:initterm.obj
 0001:00060aa0       __seh_filter_dll           10061aa0 f   libucrt:exception_filter.obj
 0001:00060ac0       __seh_filter_exe           10061ac0 f   libucrt:exception_filter.obj
 0001:00060c18       ??$?B$$A6GXPAXK0@Z@__crt_fast_encoded_nullptr_t@@QBEP6GXPAXK0@ZXZ 10061c18 f i libucrt:exit.obj
 0001:00060c91       ??$__crt_fast_decode_pointer@P6GXPAXK0@Z@@YAP6GXPAXK0@ZQ6GX0K0@Z@Z 10061c91 f i libucrt:exit.obj
 0001:00060ca7       ??$__crt_fast_encode_pointer@P6GXPAXK0@Z@@YAP6GXPAXK0@ZQ6GX0K0@Z@Z 10061ca7 f i libucrt:exit.obj
 0001:00060cc6       ??$__crt_get_proc_address@P6GXI@Z@@YAP6GXI@ZQAUHINSTANCE__@@QBD@Z 10061cc6 f i libucrt:exit.obj
 0001:00060d19       ??0?$__crt_unique_handle_t@U__crt_hmodule_traits@@@@QAE@QAUHINSTANCE__@@@Z 10061d19 f i libucrt:exit.obj
 0001:00060d29       ??1?$__crt_unique_handle_t@U__crt_hmodule_traits@@@@QAE@XZ 10061d29 f i libucrt:exit.obj
 0001:00060e2c       ?__acrt_select_exit_lock@@YA?AW4__acrt_lock_id@@XZ 10061e2c f i libucrt:exit.obj
 0001:00060e43       ?close@?$__crt_unique_handle_t@U__crt_hmodule_traits@@@@QAEXXZ 10061e43 f i libucrt:exit.obj
 0001:00060e5a       ?close@__crt_hmodule_traits@@SA_NPAUHINSTANCE__@@@Z 10061e5a f i libucrt:exit.obj
 0001:00060f15       ?get@?$__crt_unique_handle_t@U__crt_hmodule_traits@@@@QBEPAUHINSTANCE__@@XZ 10061f15 f i libucrt:exit.obj
 0001:00060f18       ?get_address_of@?$__crt_unique_handle_t@U__crt_hmodule_traits@@@@QAEPAPAUHINSTANCE__@@XZ 10061f18 f i libucrt:exit.obj
 0001:00060f1b       ?get_invalid_value@__crt_hmodule_traits@@SAPAUHINSTANCE__@@XZ 10061f1b f i libucrt:exit.obj
 0001:00060fd6       __Exit                     10061fd6 f   libucrt:exit.obj
 0001:00060fec       ___acrt_initialize_thread_local_exit_callback 10061fec f   libucrt:exit.obj
 0001:00060ffb       __c_exit                   10061ffb f   libucrt:exit.obj
 0001:0006100a       __cexit                    1006200a f   libucrt:exit.obj
 0001:00061019       __exit                     10062019 f   libucrt:exit.obj
 0001:0006102f       __is_c_termination_complete 1006202f f   libucrt:exit.obj
 0001:00061036       __register_thread_local_exe_atexit_callback 10062036 f   libucrt:exit.obj
 0001:0006105c       _exit                      1006205c f   libucrt:exit.obj
 0001:00061072       _quick_exit                10062072 f   libucrt:exit.obj
 0001:00061088       ??$?RE@__crt_internal_free_policy@@QBEXQBE@Z 10062088 f i libucrt:argv_parsing.obj
 0001:0006109a       ??$?RPAD@__crt_internal_free_policy@@QBEXQBQAD@Z 1006209a f i libucrt:argv_parsing.obj
 0001:000610ac       ??$?RPA_W@__crt_internal_free_policy@@QBEXQBQA_W@Z 100620ac f i libucrt:argv_parsing.obj
 0001:00061323       ??$get_module_file_name@$$TAAY0BAF@DH@?$__crt_char_traits@D@@SAK$$QA$$TAAY0BAF@D$$QAH@Z 10062323 f i libucrt:argv_parsing.obj
 0001:0006133f       ??$get_module_file_name@$$TAAY0BAF@_WH@?$__crt_char_traits@_W@@SAK$$QA$$TAAY0BAF@_W$$QAH@Z 1006233f f i libucrt:argv_parsing.obj
 0001:00061661       ??$set_program_name@PAD@?$__crt_char_traits@D@@SAX$$QAPAD@Z 10062661 f i libucrt:argv_parsing.obj
 0001:00061672       ??$set_program_name@PA_W@?$__crt_char_traits@_W@@SAX$$QAPA_W@Z 10062672 f i libucrt:argv_parsing.obj
 0001:000616a3       ??0?$__crt_unique_heap_ptr@EU__crt_internal_free_policy@@@@QAE@QAE@Z 100626a3 f i libucrt:argv_parsing.obj
 0001:000616b3       ??0?$__crt_unique_heap_ptr@PADU__crt_internal_free_policy@@@@QAE@QAPAD@Z 100626b3 f i libucrt:argv_parsing.obj
 0001:000616c3       ??0?$__crt_unique_heap_ptr@PA_WU__crt_internal_free_policy@@@@QAE@QAPA_W@Z 100626c3 f i libucrt:argv_parsing.obj
 0001:000616d3       ??1?$__crt_unique_heap_ptr@EU__crt_internal_free_policy@@@@QAE@XZ 100626d3 f i libucrt:argv_parsing.obj
 0001:000616e5       ??1?$__crt_unique_heap_ptr@PADU__crt_internal_free_policy@@@@QAE@XZ 100626e5 f i libucrt:argv_parsing.obj
 0001:000616f7       ??1?$__crt_unique_heap_ptr@PA_WU__crt_internal_free_policy@@@@QAE@XZ 100626f7 f i libucrt:argv_parsing.obj
 0001:00061709       ??B?$__crt_unique_heap_ptr@EU__crt_internal_free_policy@@@@QBE_NXZ 10062709 f i libucrt:argv_parsing.obj
 0001:0006173c       ?detach@?$__crt_unique_heap_ptr@EU__crt_internal_free_policy@@@@QAEPAEXZ 1006273c f i libucrt:argv_parsing.obj
 0001:00061742       ?detach@?$__crt_unique_heap_ptr@PADU__crt_internal_free_policy@@@@QAEPAPADXZ 10062742 f i libucrt:argv_parsing.obj
 0001:00061748       ?detach@?$__crt_unique_heap_ptr@PA_WU__crt_internal_free_policy@@@@QAEPAPA_WXZ 10062748 f i libucrt:argv_parsing.obj
 0001:0006176c       ?get@?$__crt_unique_heap_ptr@EU__crt_internal_free_policy@@@@QBEPAEXZ 1006276c f i libucrt:argv_parsing.obj
 0001:0006176f       ?get@?$__crt_unique_heap_ptr@PADU__crt_internal_free_policy@@@@QBEPAPADXZ 1006276f f i libucrt:argv_parsing.obj
 0001:00061772       ?get@?$__crt_unique_heap_ptr@PA_WU__crt_internal_free_policy@@@@QBEPAPA_WXZ 10062772 f i libucrt:argv_parsing.obj
 0001:00061775       ?get_address_of@?$__crt_unique_heap_ptr@PADU__crt_internal_free_policy@@@@QAEPAPAPADXZ 10062775 f i libucrt:argv_parsing.obj
 0001:00061778       ?get_address_of@?$__crt_unique_heap_ptr@PA_WU__crt_internal_free_policy@@@@QAEPAPAPA_WXZ 10062778 f i libucrt:argv_parsing.obj
 0001:00061793       ?is_valid@?$__crt_unique_heap_ptr@EU__crt_internal_free_policy@@@@QBE_NXZ 10062793 f i libucrt:argv_parsing.obj
 0001:0006179a       ?release@?$__crt_unique_heap_ptr@EU__crt_internal_free_policy@@@@QAEXXZ 1006279a f i libucrt:argv_parsing.obj
 0001:000617ac       ?release@?$__crt_unique_heap_ptr@PADU__crt_internal_free_policy@@@@QAEXXZ 100627ac f i libucrt:argv_parsing.obj
 0001:000617be       ?release@?$__crt_unique_heap_ptr@PA_WU__crt_internal_free_policy@@@@QAEXXZ 100627be f i libucrt:argv_parsing.obj
 0001:000617ea       ___acrt_allocate_buffer_for_argv 100627ea f   libucrt:argv_parsing.obj
 0001:00061839       __configure_narrow_argv    10062839 f   libucrt:argv_parsing.obj
 0001:00061844       __configure_wide_argv      10062844 f   libucrt:argv_parsing.obj
 0001:0006184f       __set_pgmptr               1006284f f i libucrt:argv_parsing.obj
 0001:0006185e       __set_wpgmptr              1006285e f i libucrt:argv_parsing.obj
 0001:00061c46       ??$get_environment_from_os@$$V@?$__crt_char_traits@D@@SAPADXZ 10062c46 f i libucrt:environment_initialization.obj
 0001:00061c4b       ??$get_environment_from_os@$$V@?$__crt_char_traits@_W@@SAPA_WXZ 10062c4b f i libucrt:environment_initialization.obj
 0001:00061d50       ??$set_variable_in_environment_nolock@PADH@?$__crt_char_traits@D@@SAH$$QAPAD$$QAH@Z 10062d50 f i libucrt:environment_initialization.obj
 0001:00061d68       ??$set_variable_in_environment_nolock@PA_WH@?$__crt_char_traits@_W@@SAH$$QAPA_W$$QAH@Z 10062d68 f i libucrt:environment_initialization.obj
 0001:00061d80       ??$tcscpy_s@PADABIAAPAD@?$__crt_char_traits@D@@SAH$$QAPADABIAAPAD@Z 10062d80 f i libucrt:environment_initialization.obj
 0001:00061d9e       ??$tcscpy_s@PA_WABIAAPA_W@?$__crt_char_traits@_W@@SAH$$QAPA_WABIAAPA_W@Z 10062d9e f i libucrt:environment_initialization.obj
 0001:00061dbc       ??$tcslen@AAPAD@?$__crt_char_traits@D@@SAIAAPAD@Z 10062dbc f i libucrt:environment_initialization.obj
 0001:00061dd4       ??$tcslen@AAPA_W@?$__crt_char_traits@_W@@SAIAAPA_W@Z 10062dd4 f i libucrt:environment_initialization.obj
 0001:00061df2       ??$uninitialize@A6AXAAPAPAD@Z@?$dual_state_global@PAPAD@__crt_state_management@@QAEXA6AXAAPAPAD@Z@Z 10062df2 f i libucrt:environment_initialization.obj
 0001:00061e1b       ??$uninitialize@A6AXAAPAPA_W@Z@?$dual_state_global@PAPA_W@__crt_state_management@@QAEXA6AXAAPAPA_W@Z@Z 10062e1b f i libucrt:environment_initialization.obj
 0001:00061e7a       ??B?$__crt_unique_heap_ptr@PADU__crt_internal_free_policy@@@@QBE_NXZ 10062e7a f i libucrt:environment_initialization.obj
 0001:00061e81       ??B?$__crt_unique_heap_ptr@PA_WU__crt_internal_free_policy@@@@QBE_NXZ 10062e81 f i libucrt:environment_initialization.obj
 0001:00061e88       ??B?$__crt_unique_heap_ptr@_WU__crt_internal_free_policy@@@@QBE_NXZ 10062e88 f i libucrt:environment_initialization.obj
 0001:00061e8f       ?__crt_compute_required_transform_buffer_count@@YAIIQBD@Z 10062e8f f i libucrt:environment_initialization.obj
 0001:00061eab       ?__crt_compute_required_transform_buffer_count@@YAIIQB_W@Z 10062eab f i libucrt:environment_initialization.obj
 0001:00061ec9       ?__crt_transform_string@@YAIIQBDQA_WI@Z 10062ec9 f i libucrt:environment_initialization.obj
 0001:00061ee8       ?__crt_transform_string@@YAIIQB_WQADI@Z 10062ee8 f i libucrt:environment_initialization.obj
 0001:00061f0a       ?detach@?$__crt_unique_heap_ptr@_WU__crt_internal_free_policy@@@@QAEPA_WXZ 10062f0a f i libucrt:environment_initialization.obj
 0001:00061f34       ?initialize@?$dual_state_global@PAPAD@__crt_state_management@@QAEXQAPAD@Z 10062f34 f i libucrt:environment_initialization.obj
 0001:00061f5a       ?initialize@?$dual_state_global@PAPA_W@__crt_state_management@@QAEXQAPA_W@Z 10062f5a f i libucrt:environment_initialization.obj
 0001:00061f80       ?is_valid@?$__crt_unique_heap_ptr@PADU__crt_internal_free_policy@@@@QBE_NXZ 10062f80 f i libucrt:environment_initialization.obj
 0001:00061f87       ?is_valid@?$__crt_unique_heap_ptr@PA_WU__crt_internal_free_policy@@@@QBE_NXZ 10062f87 f i libucrt:environment_initialization.obj
 0001:00061f8e       ?is_valid@?$__crt_unique_heap_ptr@_WU__crt_internal_free_policy@@@@QBE_NXZ 10062f8e f i libucrt:environment_initialization.obj
 0001:00061f9d       ?value@?$dual_state_global@PAPAD@__crt_state_management@@QAEAAPAPADXZ 10062f9d f i libucrt:environment_initialization.obj
 0001:00061fa0       ?value@?$dual_state_global@PAPA_W@__crt_state_management@@QAEAAPAPA_WXZ 10062fa0 f i libucrt:environment_initialization.obj
 0001:00061fa3       ___dcrt_get_or_create_narrow_environment_nolock 10062fa3 f   libucrt:environment_initialization.obj
 0001:00061fa8       ___dcrt_get_or_create_wide_environment_nolock 10062fa8 f   libucrt:environment_initialization.obj
 0001:00061fad       ___dcrt_uninitialize_environments_nolock 10062fad f   libucrt:environment_initialization.obj
 0001:00061fe4       ___p__environ              10062fe4 f   libucrt:environment_initialization.obj
 0001:00061fea       ___p__wenviron             10062fea f   libucrt:environment_initialization.obj
 0001:00061ff1       __get_initial_narrow_environment 10062ff1 f   libucrt:environment_initialization.obj
 0001:00062005       __get_initial_wide_environment 10063005 f   libucrt:environment_initialization.obj
 0001:00062019       __initialize_narrow_environment 10063019 f   libucrt:environment_initialization.obj
 0001:0006201e       __initialize_wide_environment 1006301e f   libucrt:environment_initialization.obj
 0001:00062023       ??$?B$$A6AXXZ@__crt_fast_encoded_nullptr_t@@QBEP6AXXZXZ 10063023 f i libucrt:onexit.obj
 0001:00062029       ??$?BP6AXXZ@__crt_fast_encoded_nullptr_t@@QBEPAP6AXXZXZ 10063029 f i libucrt:onexit.obj
 0001:0006202f       ??$?RP6AXXZ@__crt_internal_free_policy@@QBEXQBQ6AXXZ@Z 1006302f f i libucrt:onexit.obj
 0001:00062143       ??$__crt_fast_decode_pointer@P6AXXZ@@YAP6AXXZQ6AXXZ@Z 10063143 f i libucrt:onexit.obj
 0001:00062159       ??$__crt_fast_decode_pointer@PAP6AXXZ@@YAPAP6AXXZQAP6AXXZ@Z 10063159 f i libucrt:onexit.obj
 0001:0006216f       ??$__crt_fast_encode_pointer@P6AHXZ@@YAP6AHXZQ6AHXZ@Z 1006316f f i libucrt:onexit.obj
 0001:0006218e       ??$__crt_fast_encode_pointer@P6AXXZ@@YAP6AXXZQ6AXXZ@Z 1006318e f i libucrt:onexit.obj
 0001:000621ad       ??$__crt_fast_encode_pointer@PAP6AXXZ@@YAPAP6AXXZQAP6AXXZ@Z 100631ad f i libucrt:onexit.obj
 0001:0006223a       ??0?$__crt_unique_heap_ptr@P6AXXZU__crt_internal_free_policy@@@@QAE@QAP6AXXZ@Z 1006323a f i libucrt:onexit.obj
 0001:0006224a       ??1?$__crt_unique_heap_ptr@P6AXXZU__crt_internal_free_policy@@@@QAE@XZ 1006324a f i libucrt:onexit.obj
 0001:0006225c       ??1scoped_global_state_reset@__crt_state_management@@QAE@XZ 1006325c f i libucrt:onexit.obj
 0001:00062486       ?detach@?$__crt_unique_heap_ptr@P6AXXZU__crt_internal_free_policy@@@@QAEPAP6AXXZXZ 10063486 f i libucrt:onexit.obj
 0001:0006248c       ?release@?$__crt_unique_heap_ptr@P6AXXZU__crt_internal_free_policy@@@@QAEXXZ 1006348c f i libucrt:onexit.obj
 0001:0006249e       __crt_at_quick_exit        1006349e f   libucrt:onexit.obj
 0001:000624b4       __crt_atexit               100634b4 f   libucrt:onexit.obj
 0001:000624ca       __execute_onexit_table     100634ca f   libucrt:onexit.obj
 0001:000624f7       __initialize_onexit_table  100634f7 f   libucrt:onexit.obj
 0001:00062520       __register_onexit_function 10063520 f   libucrt:onexit.obj
 0001:0006262f       ??$?BX@__crt_fast_encoded_nullptr_t@@QBEPAXXZ 1006362f f i libucrt:initialization.obj
 0001:00062635       ??$__crt_fast_encode_pointer@PAX@@YAPAXQAX@Z 10063635 f i libucrt:initialization.obj
 0001:000626a6       ?__acrt_stdio_is_initialized@@YA_NXZ 100636a6 f i libucrt:initialization.obj
 0001:000626b1       ?initialize@?$dual_state_global@PAU__crt_locale_data@@@__crt_state_management@@QAEXQAU__crt_locale_data@@@Z 100636b1 f i libucrt:initialization.obj
 0001:000626d7       ___acrt_initialize         100636d7 f   libucrt:initialization.obj
 0001:000626e9       ___acrt_thread_attach      100636e9 f   libucrt:initialization.obj
 0001:000626f4       ___acrt_thread_detach      100636f4 f   libucrt:initialization.obj
 0001:000626fc       ___acrt_uninitialize       100636fc f   libucrt:initialization.obj
 0001:0006272c       ___acrt_uninitialize_critical 1006372c f   libucrt:initialization.obj
 0001:0006273e       __set_abort_behavior       1006373e f   libucrt:abort.obj
 0001:0006275f       _abort                     1006375f f   libucrt:abort.obj
 0001:000627a3       _calloc                    100637a3 f   libucrt:calloc.obj
 0001:000627ae       _wcsncmp                   100637ae f   libucrt:wcsncmp.obj
 0001:000627e8       __malloc_base              100637e8 f   libucrt:malloc_base.obj
 0001:00062836       ??$?RU__acrt_ptd@@@__crt_internal_free_policy@@QBEXQBU__acrt_ptd@@@Z 10063836 f i libucrt:per_thread_data.obj
 0001:00062b22       ??0?$__crt_unique_heap_ptr@U__acrt_ptd@@U__crt_internal_free_policy@@@@QAE@QAU__acrt_ptd@@@Z 10063b22 f i libucrt:per_thread_data.obj
 0001:00062b32       ??0__crt_scoped_get_last_error_reset@@QAE@XZ 10063b32 f i libucrt:per_thread_data.obj
 0001:00062b43       ??1?$__crt_unique_heap_ptr@U__acrt_ptd@@U__crt_internal_free_policy@@@@QAE@XZ 10063b43 f i libucrt:per_thread_data.obj
 0001:00062b55       ??1__crt_scoped_get_last_error_reset@@QAE@XZ 10063b55 f i libucrt:per_thread_data.obj
 0001:00062b5e       ??B?$__crt_unique_heap_ptr@U__acrt_ptd@@U__crt_internal_free_policy@@@@QBE_NXZ 10063b5e f i libucrt:per_thread_data.obj
 0001:00062cac       ?dangerous_get_state_array@?$dual_state_global@PAU__crt_locale_data@@@__crt_state_management@@QAEPAPAU__crt_locale_data@@XZ 10063cac f i libucrt:per_thread_data.obj
 0001:00062da2       ?detach@?$__crt_unique_heap_ptr@U__acrt_ptd@@U__crt_internal_free_policy@@@@QAEPAU__acrt_ptd@@XZ 10063da2 f i libucrt:per_thread_data.obj
 0001:00062da8       ?get@?$__crt_unique_heap_ptr@U__acrt_ptd@@U__crt_internal_free_policy@@@@QBEPAU__acrt_ptd@@XZ 10063da8 f i libucrt:per_thread_data.obj
 0001:00062dab       ?get_current_state_index@__crt_state_management@@YAIABV__crt_scoped_get_last_error_reset@@@Z 10063dab f i libucrt:per_thread_data.obj
 0001:00062ee0       ?is_valid@?$__crt_unique_heap_ptr@U__acrt_ptd@@U__crt_internal_free_policy@@@@QBE_NXZ 10063ee0 f i libucrt:per_thread_data.obj
 0001:00062ee7       ?release@?$__crt_unique_heap_ptr@U__acrt_ptd@@U__crt_internal_free_policy@@@@QAEXXZ 10063ee7 f i libucrt:per_thread_data.obj
 0001:00062f5b       ?value@?$dual_state_global@PAU__crt_locale_data@@@__crt_state_management@@QAEAAPAU__crt_locale_data@@XZ 10063f5b f i libucrt:per_thread_data.obj
 0001:00062f5e       ___acrt_freeptd            10063f5e f   libucrt:per_thread_data.obj
 0001:00062f8a       ___acrt_getptd             10063f8a f   libucrt:per_thread_data.obj
 0001:00063047       ___acrt_getptd_head        10064047 f   libucrt:per_thread_data.obj
 0001:000630e1       ___acrt_getptd_noexit      100640e1 f   libucrt:per_thread_data.obj
 0001:00063196       ___acrt_initialize_ptd     10064196 f   libucrt:per_thread_data.obj
 0001:000631c2       ___acrt_uninitialize_ptd   100641c2 f   libucrt:per_thread_data.obj
 0001:000631dc       ___threadhandle            100641dc f   libucrt:per_thread_data.obj
 0001:000631e2       ___threadid                100641e2 f   libucrt:per_thread_data.obj
 0001:000631ee       __free_base                100641ee f   libucrt:free_base.obj
 0001:00063230       __twoToTOS                 10064230 f   libucrt:common.obj
 0001:00063245       __load_CW                  10064245 f   libucrt:common.obj
 0001:0006325c       __convertTOStoQNaN         1006425c f   libucrt:common.obj
 0001:00063275       __fload_withFB             10064275 f   libucrt:common.obj
 0001:000632b8       __checkTOS_withFB          100642b8 f   libucrt:common.obj
 0001:000632ce       __fast_exit                100642ce f   libucrt:common.obj
 0001:000632db       __math_exit                100642db f   libucrt:common.obj
 0001:00063305       __check_overflow_exit      10064305 f   libucrt:common.obj
 0001:00063319       __check_range_exit         10064319 f   libucrt:common.obj
 0001:000633c0       __CIsqrt                   100643c0 f   libucrt:sqrt_impl.obj
 0001:000633d4       __sqrt_common              100643d4     libucrt:sqrt_impl.obj
 0001:00063471       __mbtowc_l                 10064471 f   libucrt:mbtowc.obj
 0001:000635b3       _mbtowc                    100645b3 f   libucrt:mbtowc.obj
 0001:000635cd       __wctomb_l                 100645cd f   libucrt:wctomb.obj
 0001:0006361e       __wctomb_s_l               1006461e f   libucrt:wctomb.obj
 0001:00063779       _wctomb                    10064779 f   libucrt:wctomb.obj
 0001:000637ab       _wctomb_s                  100647ab f   libucrt:wctomb.obj
 0001:000637c8       ?value@?$dual_state_global@PAU__crt_multibyte_data@@@__crt_state_management@@QAEAAPAU__crt_multibyte_data@@XZ 100647c8 f i libucrt:locale_update.obj
 0001:000637cb       ___acrt_should_sync_with_global_locale 100647cb f i libucrt:locale_update.obj
 0001:000637e7       ___acrt_update_locale_info 100647e7 f   libucrt:locale_update.obj
 0001:00063814       ___acrt_update_multibyte_info 10064814 f   libucrt:locale_update.obj
 0001:00063841       ?__acrt_fp_classify@@YA?AW4__acrt_fp_class@@ABN@Z 10064841 f i libucrt:cvt.obj
 0001:000638a3       ?__acrt_fp_is_negative@@YA_NABN@Z 100648a3 f i libucrt:cvt.obj
 0001:0006420d       ___acrt_fp_format          1006520d f   libucrt:cvt.obj
 0001:00064399       __fputwc_nolock            10065399 f   libucrt:fputwc.obj
 0001:000644c2       __fputwchar                100654c2 f   libucrt:fputwc.obj
 0001:000644dc       __putwc_nolock             100654dc f   libucrt:fputwc.obj
 0001:000644e7       _fputwc                    100654e7 f   libucrt:fputwc.obj
 0001:00064565       _putwc                     10065565 f   libucrt:fputwc.obj
 0001:00064570       _putwchar                  10065570 f   libucrt:fputwc.obj
 0001:0006457b       ?lowio_handle@__crt_stdio_stream@@QBEHXZ 1006557b f i libucrt:fileno.obj
 0001:00064582       __fileno                   10065582 f   libucrt:fileno.obj
 0001:000645a9       ??$?RPAU__crt_stdio_stream_data@@@__crt_internal_free_policy@@QBEXQBQAU__crt_stdio_stream_data@@@Z 100655a9 f i libucrt:_file.obj
 0001:000645bb       ??0?$__crt_unique_heap_ptr@PAU__crt_stdio_stream_data@@U__crt_internal_free_policy@@@@QAE@QAPAU__crt_stdio_stream_data@@@Z 100655bb f i libucrt:_file.obj
 0001:000645cb       ??1?$__crt_unique_heap_ptr@PAU__crt_stdio_stream_data@@U__crt_internal_free_policy@@@@QAE@XZ 100655cb f i libucrt:_file.obj
 0001:000645dd       ?detach@?$__crt_unique_heap_ptr@PAU__crt_stdio_stream_data@@U__crt_internal_free_policy@@@@QAEPAPAU__crt_stdio_stream_data@@XZ 100655dd f i libucrt:_file.obj
 0001:000645e3       ?release@?$__crt_unique_heap_ptr@PAU__crt_stdio_stream_data@@U__crt_internal_free_policy@@@@QAEXXZ 100655e3 f i libucrt:_file.obj
 0001:000645f5       ___acrt_initialize_stdio   100655f5 f   libucrt:_file.obj
 0001:000646bd       ___acrt_iob_func           100656bd f   libucrt:_file.obj
 0001:000646cd       ___acrt_uninitialize_stdio 100656cd f   libucrt:_file.obj
 0001:00064719       __get_stream_buffer_pointers 10065719 f   libucrt:_file.obj
 0001:0006475f       __lock_file                1006575f f   libucrt:_file.obj
 0001:00064773       __unlock_file              10065773 f   libucrt:_file.obj
 0001:00064787       __fputc_nolock             10065787 f   libucrt:fputc.obj
 0001:000647b0       __fputchar                 100657b0 f   libucrt:fputc.obj
 0001:000647ca       __putc_nolock              100657ca f   libucrt:fputc.obj
 0001:000647d5       _fputc                     100657d5 f   libucrt:fputc.obj
 0001:000648df       _putc                      100658df f   libucrt:fputc.obj
 0001:000648ea       _putchar                   100658ea f   libucrt:fputc.obj
 0001:000648f5       __get_printf_count_output  100658f5 f   libucrt:printf_count_output.obj
 0001:0006490a       __set_printf_count_output  1006590a f   libucrt:printf_count_output.obj
 0001:00064934       ?has_any_buffer@__crt_stdio_stream@@QBE_NXZ 10065934 f i libucrt:_sftbuf.obj
 0001:00064943       ?has_any_of@__crt_stdio_stream@@QBE_NJ@Z 10065943 f i libucrt:_sftbuf.obj
 0001:00064958       ?has_temporary_buffer@__crt_stdio_stream@@QBE_NXZ 10065958 f i libucrt:_sftbuf.obj
 0001:00064964       ?set_flags@__crt_stdio_stream@@QBE_NJ@Z 10065964 f i libucrt:_sftbuf.obj
 0001:00064988       ?unset_flags@__crt_stdio_stream@@QBE_NJ@Z 10065988 f i libucrt:_sftbuf.obj
 0001:000649b1       ___acrt_should_use_temporary_buffer 100659b1 f   libucrt:_sftbuf.obj
 0001:000649ec       ___acrt_stdio_begin_temporary_buffering_nolock 100659ec f   libucrt:_sftbuf.obj
 0001:00064a98       ___acrt_stdio_end_temporary_buffering_nolock 10065a98 f   libucrt:_sftbuf.obj
 0001:00064ad5       ??$?RU__crt_locale_data@@@__crt_internal_free_policy@@QBEXQBU__crt_locale_data@@@Z 10065ad5 f i libucrt:wsetlocale.obj
 0001:00064ae7       ??$?RU__crt_locale_pointers@@@__crt_internal_free_policy@@QBEXQBU__crt_locale_pointers@@@Z 10065ae7 f i libucrt:wsetlocale.obj
 0001:00064af9       ??$?RU__crt_multibyte_data@@@__crt_internal_free_policy@@QBEXQBU__crt_multibyte_data@@@Z 10065af9 f i libucrt:wsetlocale.obj
 0001:00064ea2       ??0?$__crt_unique_heap_ptr@U__crt_locale_data@@U__crt_internal_free_policy@@@@QAE@QAU__crt_locale_data@@@Z 10065ea2 f i libucrt:wsetlocale.obj
 0001:00064eb2       ??0?$__crt_unique_heap_ptr@U__crt_locale_pointers@@U__crt_internal_free_policy@@@@QAE@QAU__crt_locale_pointers@@@Z 10065eb2 f i libucrt:wsetlocale.obj
 0001:00064ec2       ??0?$__crt_unique_heap_ptr@U__crt_multibyte_data@@U__crt_internal_free_policy@@@@QAE@QAU__crt_multibyte_data@@@Z 10065ec2 f i libucrt:wsetlocale.obj
 0001:00064ed2       ??0_expandlocale_locale_name_cache@@QAE@QA_WIQAU__crt_qualified_locale_data@@@Z 10065ed2 f i libucrt:wsetlocale.obj
 0001:00064f1c       ??1?$__crt_unique_heap_ptr@U__crt_locale_data@@U__crt_internal_free_policy@@@@QAE@XZ 10065f1c f i libucrt:wsetlocale.obj
 0001:00064f2e       ??1?$__crt_unique_heap_ptr@U__crt_locale_pointers@@U__crt_internal_free_policy@@@@QAE@XZ 10065f2e f i libucrt:wsetlocale.obj
 0001:00064f40       ??1?$__crt_unique_heap_ptr@U__crt_multibyte_data@@U__crt_internal_free_policy@@@@QAE@XZ 10065f40 f i libucrt:wsetlocale.obj
 0001:00064f52       ??1_expandlocale_locale_name_cache@@QAE@XZ 10065f52 f i libucrt:wsetlocale.obj
 0001:00064f82       ??B?$__crt_unique_heap_ptr@U__crt_locale_data@@U__crt_internal_free_policy@@@@QBE_NXZ 10065f82 f i libucrt:wsetlocale.obj
 0001:00064f89       ??B?$__crt_unique_heap_ptr@U__crt_locale_pointers@@U__crt_internal_free_policy@@@@QBE_NXZ 10065f89 f i libucrt:wsetlocale.obj
 0001:00064f90       ??B?$__crt_unique_heap_ptr@U__crt_multibyte_data@@U__crt_internal_free_policy@@@@QBE_NXZ 10065f90 f i libucrt:wsetlocale.obj
 0001:000651b0       ?commit_locale_name@_expandlocale_locale_name_cache@@QAEXQB_WI@Z 100661b0 f i libucrt:wsetlocale.obj
 0001:000651f4       ?commit_locale_name_cache_already_updated@_expandlocale_locale_name_cache@@QAEXQB_WI@Z 100661f4 f i libucrt:wsetlocale.obj
 0001:00065229       ?detach@?$__crt_unique_heap_ptr@U__crt_locale_data@@U__crt_internal_free_policy@@@@QAEPAU__crt_locale_data@@XZ 10066229 f i libucrt:wsetlocale.obj
 0001:0006522f       ?detach@?$__crt_unique_heap_ptr@U__crt_locale_pointers@@U__crt_internal_free_policy@@@@QAEPAU__crt_locale_pointers@@XZ 1006622f f i libucrt:wsetlocale.obj
 0001:00065235       ?detach@?$__crt_unique_heap_ptr@U__crt_multibyte_data@@U__crt_internal_free_policy@@@@QAEPAU__crt_multibyte_data@@XZ 10066235 f i libucrt:wsetlocale.obj
 0001:0006523b       ?get@?$__crt_unique_heap_ptr@U__crt_locale_data@@U__crt_internal_free_policy@@@@QBEPAU__crt_locale_data@@XZ 1006623b f i libucrt:wsetlocale.obj
 0001:0006523e       ?get@?$__crt_unique_heap_ptr@U__crt_locale_pointers@@U__crt_internal_free_policy@@@@QBEPAU__crt_locale_pointers@@XZ 1006623e f i libucrt:wsetlocale.obj
 0001:00065241       ?get@?$__crt_unique_heap_ptr@U__crt_multibyte_data@@U__crt_internal_free_policy@@@@QBEPAU__crt_multibyte_data@@XZ 10066241 f i libucrt:wsetlocale.obj
 0001:00065244       ?is_valid@?$__crt_unique_heap_ptr@U__crt_locale_data@@U__crt_internal_free_policy@@@@QBE_NXZ 10066244 f i libucrt:wsetlocale.obj
 0001:0006524b       ?is_valid@?$__crt_unique_heap_ptr@U__crt_locale_pointers@@U__crt_internal_free_policy@@@@QBE_NXZ 1006624b f i libucrt:wsetlocale.obj
 0001:00065252       ?is_valid@?$__crt_unique_heap_ptr@U__crt_multibyte_data@@U__crt_internal_free_policy@@@@QBE_NXZ 10066252 f i libucrt:wsetlocale.obj
 0001:00065259       ?release@?$__crt_unique_heap_ptr@U__crt_locale_data@@U__crt_internal_free_policy@@@@QAEXXZ 10066259 f i libucrt:wsetlocale.obj
 0001:0006526b       ?release@?$__crt_unique_heap_ptr@U__crt_locale_pointers@@U__crt_internal_free_policy@@@@QAEXXZ 1006626b f i libucrt:wsetlocale.obj
 0001:0006527d       ?release@?$__crt_unique_heap_ptr@U__crt_multibyte_data@@U__crt_internal_free_policy@@@@QAEXXZ 1006627d f i libucrt:wsetlocale.obj
 0001:0006528f       ___acrt_copy_locale_name   1006628f f   libucrt:wsetlocale.obj
 0001:000652ef       ___acrt_set_locale_changed 100662ef f   libucrt:wsetlocale.obj
 0001:000652fa       ___acrt_uninitialize_locale 100662fa f   libucrt:wsetlocale.obj
 0001:00065321       ___ascii_towlower          10066321 f i libucrt:wsetlocale.obj
 0001:00065338       ___lc_lctowcs              10066338 f   libucrt:wsetlocale.obj
 0001:000653a8       ___lc_wcstolc              100663a8 f   libucrt:wsetlocale.obj
 0001:000654f8       __configthreadlocale       100664f8 f   libucrt:wsetlocale.obj
 0001:00065589       __create_locale            10066589 f   libucrt:wsetlocale.obj
 0001:000659b3       __free_locale              100669b3 f   libucrt:wsetlocale.obj
 0001:00065a75       __get_current_locale       10066a75 f   libucrt:wsetlocale.obj
 0001:00065b10       __wcreate_locale           10066b10 f   libucrt:wsetlocale.obj
 0001:00065c17       __wcscats                  10066c17 f   libucrt:wsetlocale.obj
 0001:00065c58       __wsetlocale               10066c58 f   libucrt:wsetlocale.obj
 0001:000669bd       ___p___mb_cur_max          100679bd f   libucrt:nlsdata.obj
 0001:00066b6e       ___acrt_initialize_lowio   10067b6e f   libucrt:ioinit.obj
 0001:00066bce       ___acrt_uninitialize_lowio 10067bce f   libucrt:ioinit.obj
 0001:00066bfa       ??0?$__crt_scoped_stack_ptr@_W@@QAE@U?$__crt_scoped_stack_ptr_tag@_W@@@Z 10067bfa f i libucrt:lcmapstringa.obj
 0001:00066c0a       ??0?$__crt_scoped_stack_ptr_tag@_W@@QAE@QA_W@Z 10067c0a f i libucrt:lcmapstringa.obj
 0001:00066c1a       ??1?$__crt_scoped_stack_ptr@_W@@QAE@XZ 10067c1a f i libucrt:lcmapstringa.obj
 0001:00066c23       ??B?$__crt_scoped_stack_ptr@_W@@QBE_NXZ 10067c23 f i libucrt:lcmapstringa.obj
 0001:00066e14       ?get@?$__crt_scoped_stack_ptr@_W@@QBEPA_WXZ 10067e14 f i libucrt:lcmapstringa.obj
 0001:00066e17       ___acrt_LCMapStringA       10067e17 f   libucrt:lcmapstringa.obj
 0001:00066e60       ?dangerous_get_state_array@?$dual_state_global@PAPAD@__crt_state_management@@QAEPAPAPADXZ 10067e60 f i libucrt:timeset.obj
 0001:00066e63       ?dangerous_get_state_array@?$dual_state_global@PAPA_W@__crt_state_management@@QAEPAPAPA_WXZ 10067e63 f i libucrt:timeset.obj
 0001:00066e66       ?initialize@?$dual_state_global@H@__crt_state_management@@QAEXH@Z 10067e66 f i libucrt:timeset.obj
 0001:00066e8c       ?initialize@?$dual_state_global@J@__crt_state_management@@QAEXJ@Z 10067e8c f i libucrt:timeset.obj
 0001:00066eb2       ?value@?$dual_state_global@H@__crt_state_management@@QAEAAHXZ 10067eb2 f i libucrt:timeset.obj
 0001:00066eb5       ?value@?$dual_state_global@J@__crt_state_management@@QAEAAJXZ 10067eb5 f i libucrt:timeset.obj
 0001:00066eb8       ___acrt_initialize_timeset 10067eb8 f   libucrt:timeset.obj
 0001:00066eed       ___daylight                10067eed f   libucrt:timeset.obj
 0001:00066ef3       ___dstbias                 10067ef3 f   libucrt:timeset.obj
 0001:00066ef9       ___timezone                10067ef9 f   libucrt:timeset.obj
 0001:00066eff       ___tzname                  10067eff f   libucrt:timeset.obj
 0001:00066f05       ___wide_tzname             10067f05 f   libucrt:timeset.obj
 0001:00066f0b       __get_daylight             10067f0b f   libucrt:timeset.obj
 0001:00066f37       __get_dstbias              10067f37 f   libucrt:timeset.obj
 0001:00066f63       __get_timezone             10067f63 f   libucrt:timeset.obj
 0001:00066f91       __get_tzname               10067f91 f   libucrt:timeset.obj
 0001:00067042       ??$?RUtm@@@__crt_internal_free_policy@@QBEXQBUtm@@@Z 10068042 f i libucrt:gmtime.obj
 0001:00067054       ??$__crt_time_elapsed_leap_years@H@@YAHH@Z 10068054 f i libucrt:gmtime.obj
 0001:0006708e       ??$__crt_time_is_leap_year@H@@YA_NH@Z 1006808e f i libucrt:gmtime.obj
 0001:00067370       ??0?$__crt_unique_heap_ptr@Utm@@U__crt_internal_free_policy@@@@QAE@QAUtm@@@Z 10068370 f i libucrt:gmtime.obj
 0001:00067380       ??1?$__crt_unique_heap_ptr@Utm@@U__crt_internal_free_policy@@@@QAE@XZ 10068380 f i libucrt:gmtime.obj
 0001:000674ad       ?detach@?$__crt_unique_heap_ptr@Utm@@U__crt_internal_free_policy@@@@QAEPAUtm@@XZ 100684ad f i libucrt:gmtime.obj
 0001:000674b3       ?release@?$__crt_unique_heap_ptr@Utm@@U__crt_internal_free_policy@@@@QAEXXZ 100684b3 f i libucrt:gmtime.obj
 0001:000674c5       ___getgmtimebuf            100684c5 f   libucrt:gmtime.obj
 0001:00067503       __gmtime32                 10068503 f   libucrt:gmtime.obj
 0001:0006752a       __gmtime32_s               1006852a f   libucrt:gmtime.obj
 0001:00067535       __gmtime64                 10068535 f   libucrt:gmtime.obj
 0001:0006755c       __gmtime64_s               1006855c f   libucrt:gmtime.obj
 0001:00067567       ?__acrt_get_utf8_acp_compatibility_codepage@@YAIXZ 10068567 f i libucrt:tzset.obj
 0001:000677c0       ?_set_daylight@@YAXH@Z     100687c0 f i libucrt:tzset.obj
 0001:000677d1       ?_set_dstbias@@YAXJ@Z      100687d1 f i libucrt:tzset.obj
 0001:000677e2       ?_set_timezone@@YAXJ@Z     100687e2 f i libucrt:tzset.obj
 0001:00067933       ?dangerous_get_state_array@?$dual_state_global@J@__crt_state_management@@QAEPAJXZ 10068933 f i libucrt:tzset.obj
 0001:00067f10       ___tzset                   10068f10 f   libucrt:tzset.obj
 0001:00067f6d       __isindst                  10068f6d f   libucrt:tzset.obj
 0001:00067fc1       __tzset                    10068fc1 f   libucrt:tzset.obj
 0001:0006806b       ___acrt_MultiByteToWideChar 1006906b f   libucrt:multibytetowidechar.obj
 0001:0006814c       ___acrt_WideCharToMultiByte 1006914c f   libucrt:widechartomultibyte.obj
 0001:00068203       ?__crt_get_2digit_year@@YAHH@Z 10069203 f i libucrt:wcsftime.obj
 0001:0006821a       ?__crt_get_century@@YAHH@Z 1006921a f i libucrt:wcsftime.obj
 0001:00069292       __W_Getdays                1006a292 f   libucrt:wcsftime.obj
 0001:000693f1       __W_Getmonths              1006a3f1 f   libucrt:wcsftime.obj
 0001:00069550       __W_Gettnames              1006a550 f   libucrt:wcsftime.obj
 0001:00069c4c       __Wcsftime                 1006ac4c f   libucrt:wcsftime.obj
 0001:00069c6c       __Wcsftime_l               1006ac6c f   libucrt:wcsftime.obj
 0001:00069ddd       __wcsftime_l               1006addd f   libucrt:wcsftime.obj
 0001:00069dfd       _wcsftime                  1006adfd f   libucrt:wcsftime.obj
 0001:00069e29       ??$?B$$A6GHPA_WKJ@Z@__crt_fast_encoded_nullptr_t@@QBEP6GHPA_WKJ@ZXZ 1006ae29 f i libucrt:winapi_thunks.obj
 0001:00069ed1       ??$__crt_fast_decode_pointer@P6GHPA_WKJ@Z@@YAP6GHPA_WKJ@ZQ6GH0KJ@Z@Z 1006aed1 f i libucrt:winapi_thunks.obj
 0001:00069ee7       ??$__crt_fast_decode_pointer@PAX@@YAPAXQAX@Z 1006aee7 f i libucrt:winapi_thunks.obj
 0001:00069efd       ??$__crt_fast_encode_pointer@P6GHPA_WKJ@Z@@YAP6GHPA_WKJ@ZQ6GH0KJ@Z@Z 1006aefd f i libucrt:winapi_thunks.obj
 0001:0006a58c       _GetCurrentThreadEffectiveToken 1006b58c f i libucrt:winapi_thunks.obj
 0001:0006a590       ___acrt_AppPolicyGetProcessTerminationMethodInternal@4 1006b590 f   libucrt:winapi_thunks.obj
 0001:0006a5d0       ___acrt_AppPolicyGetShowDeveloperDiagnosticInternal@4 1006b5d0 f   libucrt:winapi_thunks.obj
 0001:0006a610       ___acrt_AppPolicyGetThreadInitializationTypeInternal@4 1006b610 f   libucrt:winapi_thunks.obj
 0001:0006a650       ___acrt_AppPolicyGetWindowingModelInternal@4 1006b650 f   libucrt:winapi_thunks.obj
 0001:0006a690       ___acrt_AreFileApisANSI@0  1006b690 f   libucrt:winapi_thunks.obj
 0001:0006a6af       ___acrt_CompareStringEx@36 1006b6af f   libucrt:winapi_thunks.obj
 0001:0006a70c       ___acrt_EnumSystemLocalesEx@16 1006b70c f   libucrt:winapi_thunks.obj
 0001:0006a760       ___acrt_FlsAlloc@4         1006b760 f   libucrt:winapi_thunks.obj
 0001:0006a79f       ___acrt_FlsFree@4          1006b79f f   libucrt:winapi_thunks.obj
 0001:0006a7de       ___acrt_FlsGetValue@4      1006b7de f   libucrt:winapi_thunks.obj
 0001:0006a81d       ___acrt_FlsSetValue@8      1006b81d f   libucrt:winapi_thunks.obj
 0001:0006a85f       ___acrt_GetDateFormatEx@28 1006b85f f   libucrt:winapi_thunks.obj
 0001:0006a8b6       ___acrt_GetEnabledXStateFeatures@0 1006b8b6 f   libucrt:winapi_thunks.obj
 0001:0006a8ea       ___acrt_GetLocaleInfoEx@16 1006b8ea f   libucrt:winapi_thunks.obj
 0001:0006a929       ___acrt_GetSystemTimePreciseAsFileTime@4 1006b929 f   libucrt:winapi_thunks.obj
 0001:0006a968       ___acrt_GetTimeFormatEx@24 1006b968 f   libucrt:winapi_thunks.obj
 0001:0006a9ad       ___acrt_GetUserDefaultLocaleName@8 1006b9ad f   libucrt:winapi_thunks.obj
 0001:0006a9e9       ___acrt_GetXStateFeaturesMask@8 1006b9e9 f   libucrt:winapi_thunks.obj
 0001:0006aa29       ___acrt_InitializeCriticalSectionEx@12 1006ba29 f   libucrt:winapi_thunks.obj
 0001:0006aa74       ___acrt_IsValidLocaleName@4 1006ba74 f   libucrt:winapi_thunks.obj
 0001:0006aaac       ___acrt_LCIDToLocaleName@16 1006baac f   libucrt:winapi_thunks.obj
 0001:0006aaeb       ___acrt_LCMapStringEx@36   1006baeb f   libucrt:winapi_thunks.obj
 0001:0006ab48       ___acrt_LocaleNameToLCID@8 1006bb48 f   libucrt:winapi_thunks.obj
 0001:0006ab79       ___acrt_LocateXStateFeature@12 1006bb79 f   libucrt:winapi_thunks.obj
 0001:0006aba8       ___acrt_MessageBoxA@16     1006bba8 f   libucrt:winapi_thunks.obj
 0001:0006abda       ___acrt_MessageBoxW@16     1006bbda f   libucrt:winapi_thunks.obj
 0001:0006ac0c       ___acrt_RoInitialize@4     1006bc0c f   libucrt:winapi_thunks.obj
 0001:0006ac47       ___acrt_RoUninitialize@0   1006bc47 f   libucrt:winapi_thunks.obj
 0001:0006ac75       ___acrt_RtlGenRandom@8     1006bc75 f   libucrt:winapi_thunks.obj
 0001:0006acb5       ___acrt_SetThreadStackGuarantee@4 1006bcb5 f   libucrt:winapi_thunks.obj
 0001:0006acf0       ___acrt_can_show_message_box 1006bcf0 f   libucrt:winapi_thunks.obj
 0001:0006ad17       ___acrt_can_use_vista_locale_apis 1006bd17 f   libucrt:winapi_thunks.obj
 0001:0006ad22       ___acrt_can_use_xstate_apis 1006bd22 f   libucrt:winapi_thunks.obj
 0001:0006ad2d       ___acrt_eagerly_load_locale_apis 1006bd2d f   libucrt:winapi_thunks.obj
 0001:0006ad64       ___acrt_get_parent_window  1006bd64 f   libucrt:winapi_thunks.obj
 0001:0006adcc       ___acrt_initialize_winapi_thunks 1006bdcc f   libucrt:winapi_thunks.obj
 0001:0006adf7       ___acrt_is_interactive     1006bdf7 f   libucrt:winapi_thunks.obj
 0001:0006ae96       ___acrt_uninitialize_winapi_thunks 1006be96 f   libucrt:winapi_thunks.obj
 0001:0006aecc       ___pctype_func             1006becc f   libucrt:ctype.obj
 0001:0006aef0       ___pwctype_func            1006bef0 f   libucrt:ctype.obj
 0001:0006aef6       __iswctype_l               1006bef6 f   libucrt:iswctype.obj
 0001:0006af0a       _iswctype                  1006bf0a f   libucrt:iswctype.obj
 0001:0006af73       __isctype                  1006bf73 f   libucrt:isctype.obj
 0001:0006afa6       __isctype_l                1006bfa6 f   libucrt:isctype.obj
 0001:0006b071       __isleadbyte_fast_internal 1006c071 f i libucrt:isctype.obj
 0001:0006b15a       _wcsncpy_s                 1006c15a f   libucrt:wcsncpy_s.obj
 0001:0006b218       _strncpy_s                 1006c218 f   libucrt:strncpy_s.obj
 0001:0006b27a       __ismbbalnum               1006c27a f   libucrt:ismbbyte.obj
 0001:0006b295       __ismbbalnum_l             1006c295 f   libucrt:ismbbyte.obj
 0001:0006b2b1       __ismbbalpha               1006c2b1 f   libucrt:ismbbyte.obj
 0001:0006b2cc       __ismbbalpha_l             1006c2cc f   libucrt:ismbbyte.obj
 0001:0006b2e8       __ismbbblank               1006c2e8 f   libucrt:ismbbyte.obj
 0001:0006b30b       __ismbbblank_l             1006c30b f   libucrt:ismbbyte.obj
 0001:0006b32f       __ismbbgraph               1006c32f f   libucrt:ismbbyte.obj
 0001:0006b34a       __ismbbgraph_l             1006c34a f   libucrt:ismbbyte.obj
 0001:0006b366       __ismbbkalnum              1006c366 f   libucrt:ismbbyte.obj
 0001:0006b37e       __ismbbkalnum_l            1006c37e f   libucrt:ismbbyte.obj
 0001:0006b397       __ismbbkana                1006c397 f   libucrt:ismbbyte.obj
 0001:0006b3aa       __ismbbkana_l              1006c3aa f   libucrt:ismbbyte.obj
 0001:0006b3f9       __ismbbkprint              1006c3f9 f   libucrt:ismbbyte.obj
 0001:0006b411       __ismbbkprint_l            1006c411 f   libucrt:ismbbyte.obj
 0001:0006b42a       __ismbbkpunct              1006c42a f   libucrt:ismbbyte.obj
 0001:0006b442       __ismbbkpunct_l            1006c442 f   libucrt:ismbbyte.obj
 0001:0006b45b       __ismbblead                1006c45b f   libucrt:ismbbyte.obj
 0001:0006b473       __ismbblead_l              1006c473 f   libucrt:ismbbyte.obj
 0001:0006b48c       __ismbbprint               1006c48c f   libucrt:ismbbyte.obj
 0001:0006b4a7       __ismbbprint_l             1006c4a7 f   libucrt:ismbbyte.obj
 0001:0006b4c3       __ismbbpunct               1006c4c3 f   libucrt:ismbbyte.obj
 0001:0006b4db       __ismbbpunct_l             1006c4db f   libucrt:ismbbyte.obj
 0001:0006b4f4       __ismbbtrail               1006c4f4 f   libucrt:ismbbyte.obj
 0001:0006b50c       __ismbbtrail_l             1006c50c f   libucrt:ismbbyte.obj
 0001:0006b525       ___acrt_initialize_sse2    1006c525 f   libucrt:mathfcns.obj
 0001:0006b535       __set_SSE2_enable          1006c535 f   libucrt:mathfcns.obj
 0001:0006b560       __CIcos                    1006c560 f   libucrt:cos_impl.obj
 0001:0006b59b       __CIcos_default            1006c59b f   libucrt:cos_impl.obj
 0001:0006b5af       __cos_default              1006c5af     libucrt:cos_impl.obj
 0001:0006b650       __CIcos_pentium4           1006c650 f   libucrt:cos_pentium4.obj
 0001:0006b668       __cos_pentium4             1006c668     libucrt:cos_pentium4.obj
 0001:0006b800       __CIsin                    1006c800 f   libucrt:sin_impl.obj
 0001:0006b83b       __CIsin_default            1006c83b f   libucrt:sin_impl.obj
 0001:0006b84f       __sin_default              1006c84f     libucrt:sin_impl.obj
 0001:0006b8f0       __CIsin_pentium4           1006c8f0 f   libucrt:sin_pentium4.obj
 0001:0006b908       __sin_pentium4             1006c908     libucrt:sin_pentium4.obj
 0001:0006bab8       ___acrt_initialize_locks   1006cab8 f   libucrt:locks.obj
 0001:0006baf9       ___acrt_lock               1006caf9 f   libucrt:locks.obj
 0001:0006bb10       ___acrt_uninitialize_locks 1006cb10 f   libucrt:locks.obj
 0001:0006bb41       ___acrt_unlock             1006cb41 f   libucrt:locks.obj
 0001:0006bb58       __lock_locales             1006cb58 f   libucrt:locks.obj
 0001:0006bb66       __unlock_locales           1006cb66 f   libucrt:locks.obj
 0001:0006bb6f       ??$__crt_fast_decode_pointer@P6AHPAU_exception@@@Z@@YAP6AHPAU_exception@@@ZQ6AH0@Z@Z 1006cb6f f i libucrt:matherr.obj
 0001:0006bb85       ??$__crt_fast_encode_pointer@P6AHPAU_exception@@@Z@@YAP6AHPAU_exception@@@ZQ6AH0@Z@Z 1006cb85 f i libucrt:matherr.obj
 0001:0006bba4       ?initialize@?$dual_state_global@P6AHPAU_exception@@@Z@__crt_state_management@@QAEXQ6AHPAU_exception@@@Z@Z 1006cba4 f i libucrt:matherr.obj
 0001:0006bbca       ?value@?$dual_state_global@P6AHPAU_exception@@@Z@__crt_state_management@@QAEAAP6AHPAU_exception@@@ZXZ 1006cbca f i libucrt:matherr.obj
 0001:0006bbcd       ___acrt_has_user_matherr   1006cbcd f   libucrt:matherr.obj
 0001:0006bbe5       ___acrt_initialize_user_matherr 1006cbe5 f   libucrt:matherr.obj
 0001:0006bbf4       ___acrt_invoke_user_matherr 1006cbf4 f   libucrt:matherr.obj
 0001:0006bc26       ___setusermatherr          1006cc26 f   libucrt:matherr.obj
 0001:0006bc3b       __add_exp                  1006cc3b f   libucrt:util.obj
 0001:0006bc6a       __decomp                   1006cc6a f   libucrt:util.obj
 0001:0006bd3c       __get_exp                  1006cd3c f   libucrt:util.obj
 0001:0006bd54       __set_bexp                 1006cd54 f   libucrt:util.obj
 0001:0006bd7b       __set_exp                  1006cd7b f   libucrt:util.obj
 0001:0006bda8       __sptype                   1006cda8 f   libucrt:util.obj
 0001:0006be06       ___clrfp_sse2              1006ce06 f   libucrt:fpctrl.obj
 0001:0006be38       ___ctrlfp_sse2             1006ce38 f   libucrt:fpctrl.obj
 0001:0006be73       ___fclrf_sse2              1006ce73 f   libucrt:fpctrl.obj
 0001:0006be90       ___get_fpsr_sse2           1006ce90 f   libucrt:fpctrl.obj
 0001:0006beac       ___set_fpsr_sse2           1006ceac f   libucrt:fpctrl.obj
 0001:0006bf2c       ___set_statfp_sse2         1006cf2c f   libucrt:fpctrl.obj
 0001:0006bf47       ___statfp_sse2             1006cf47 f   libucrt:fpctrl.obj
 0001:0006bf5c       __clrfp                    1006cf5c f   libucrt:fpctrl.obj
 0001:0006bf6d       __ctrlfp                   1006cf6d f   libucrt:fpctrl.obj
 0001:0006bf97       __set_statfp               1006cf97 f   libucrt:fpctrl.obj
 0001:0006bff0       __statfp                   1006cff0 f   libucrt:fpctrl.obj
 0001:0006c1a7       ___acrt_get_begin_thread_init_policy 1006d1a7 f   libucrt:win_policies.obj
 0001:0006c1eb       ___acrt_get_developer_information_policy 1006d1eb f   libucrt:win_policies.obj
 0001:0006c22f       ___acrt_get_process_end_policy 1006d22f f   libucrt:win_policies.obj
 0001:0006c260       ___acrt_get_windowing_model_policy 1006d260 f   libucrt:win_policies.obj
 0001:0006c2bc       __calloc_base              1006d2bc f   libucrt:calloc_base.obj
 0001:0006c4ca       ??$__acrt_wcs_to_mbs_cp@U__crt_win32_buffer_internal_dynamic_resizing@@@@YAHQB_WAAV?$__crt_win32_buffer@DU__crt_win32_buffer_internal_dynamic_resizing@@@@I@Z 1006d4ca f i libucrt:argv_wildcards.obj
 0001:0006ce2c       ??$tcslen@ABQBD@?$__crt_char_traits@D@@SAIABQBD@Z 1006de2c f i libucrt:argv_wildcards.obj
 0001:0006ce44       ??$tcslen@ABQB_W@?$__crt_char_traits@_W@@SAIABQB_W@Z 1006de44 f i libucrt:argv_wildcards.obj
 0001:0006ce62       ??$tcsncpy_s@AAPADIAAPADABI@?$__crt_char_traits@D@@SAHAAPAD$$QAI0ABI@Z 1006de62 f i libucrt:argv_wildcards.obj
 0001:0006ce85       ??$tcsncpy_s@AAPA_WIAAPA_WABI@?$__crt_char_traits@_W@@SAHAAPA_W$$QAI0ABI@Z 1006de85 f i libucrt:argv_wildcards.obj
 0001:0006cea8       ??$tcsncpy_s@PADABIABQBDABI@?$__crt_char_traits@D@@SAH$$QAPADABIABQBD1@Z 1006dea8 f i libucrt:argv_wildcards.obj
 0001:0006cecb       ??$tcsncpy_s@PADIABQBDABI@?$__crt_char_traits@D@@SAH$$QAPAD$$QAIABQBDABI@Z 1006decb f i libucrt:argv_wildcards.obj
 0001:0006ceee       ??$tcsncpy_s@PA_WABIABQB_WABI@?$__crt_char_traits@_W@@SAH$$QAPA_WABIABQB_W1@Z 1006deee f i libucrt:argv_wildcards.obj
 0001:0006cf11       ??$tcsncpy_s@PA_WIABQB_WABI@?$__crt_char_traits@_W@@SAH$$QAPA_W$$QAIABQB_WABI@Z 1006df11 f i libucrt:argv_wildcards.obj
 0001:0006cf34       ??$tcspbrk@AAPADAAY02$$CBD@?$__crt_char_traits@D@@SAPADAAPADAAY02$$CBD@Z 1006df34 f i libucrt:argv_wildcards.obj
 0001:0006cf4a       ??$tcspbrk@AAPA_WAAY02$$CB_W@?$__crt_char_traits@_W@@SAPA_WAAPA_WAAY02$$CB_W@Z 1006df4a f i libucrt:argv_wildcards.obj
 0001:0006cf60       ??0?$__crt_unique_handle_t@U__crt_findfile_traits@@@@QAE@QAX@Z 1006df60 f i libucrt:argv_wildcards.obj
 0001:0006cf70       ??0?$__crt_win32_buffer@DU__crt_win32_buffer_internal_dynamic_resizing@@@@QAE@XZ 1006df70 f i libucrt:argv_wildcards.obj
 0001:0006cfa0       ??1?$__crt_unique_handle_t@U__crt_findfile_traits@@@@QAE@XZ 1006dfa0 f i libucrt:argv_wildcards.obj
 0001:0006cfb7       ??1?$__crt_win32_buffer@DU__crt_win32_buffer_internal_dynamic_resizing@@@@QAE@XZ 1006dfb7 f i libucrt:argv_wildcards.obj
 0001:0006d0d5       ?_deallocate@?$__crt_win32_buffer@DU__crt_win32_buffer_internal_dynamic_resizing@@@@AAEXXZ 1006e0d5 f i libucrt:argv_wildcards.obj
 0001:0006d0ef       ?allocate@?$__crt_win32_buffer@DU__crt_win32_buffer_internal_dynamic_resizing@@@@QAEHI@Z 1006e0ef f i libucrt:argv_wildcards.obj
 0001:0006d19b       ?capacity@?$__crt_win32_buffer@DU__crt_win32_buffer_internal_dynamic_resizing@@@@QBEIXZ 1006e19b f i libucrt:argv_wildcards.obj
 0001:0006d19f       ?close@?$__crt_unique_handle_t@U__crt_findfile_traits@@@@QAEXXZ 1006e19f f i libucrt:argv_wildcards.obj
 0001:0006d1b6       ?close@__crt_findfile_traits@@SA_NPAX@Z 1006e1b6 f i libucrt:argv_wildcards.obj
 0001:0006d1cb       ?data@?$__crt_win32_buffer@DU__crt_win32_buffer_internal_dynamic_resizing@@@@QAEPADXZ 1006e1cb f i libucrt:argv_wildcards.obj
 0001:0006d1cf       ?debug_info@?$__crt_win32_buffer@DU__crt_win32_buffer_internal_dynamic_resizing@@@@QBEABV__crt_win32_buffer_empty_debug_info@@XZ 1006e1cf f i libucrt:argv_wildcards.obj
 0001:0006d2e8       ?get@?$__crt_unique_handle_t@U__crt_findfile_traits@@@@QBEPAXXZ 1006e2e8 f i libucrt:argv_wildcards.obj
 0001:0006d31e       ?get_invalid_value@__crt_findfile_traits@@SAPAXXZ 1006e31e f i libucrt:argv_wildcards.obj
 0001:0006d36d       ?set_to_nullptr@?$__crt_win32_buffer@DU__crt_win32_buffer_internal_dynamic_resizing@@@@QAEXXZ 1006e36d f i libucrt:argv_wildcards.obj
 0001:0006d384       ?size@?$__crt_win32_buffer@DU__crt_win32_buffer_internal_dynamic_resizing@@@@QAEXI@Z 1006e384 f i libucrt:argv_wildcards.obj
 0001:0006d3a5       ?strpbrk@@YAPADQADQBD@Z    1006e3a5 f i libucrt:argv_wildcards.obj
