 idraw

 Timestamp is 62d5c6d9 (Mon Jul 18 16:47:21 2022)

 Preferred load address is 10000000

 Start         Length     Name                   Class
 0001:00000000 000002e0H .text$di                CODE
 0001:000002e0 00080230H .text$mn                CODE
 0001:00080510 00001233H .text$x                 CODE
 0002:00000000 00000284H .idata$5                DATA
 0002:00000284 0000000cH .00cfg                  DATA
 0002:00000290 00000004H .CRT$XCA                DATA
 0002:00000294 0000005cH .CRT$XCU                DATA
 0002:000002f0 00000004H .CRT$XCZ                DATA
 0002:000002f4 00000004H .CRT$XIA                DATA
 0002:000002f8 00000010H .CRT$XIC                DATA
 0002:00000308 00000004H .CRT$XIZ                DATA
 0002:0000030c 00000004H .CRT$XPA                DATA
 0002:00000310 00000008H .CRT$XPX                DATA
 0002:00000318 00000004H .CRT$XPXA               DATA
 0002:0000031c 00000004H .CRT$XPZ                DATA
 0002:00000320 00000004H .CRT$XTA                DATA
 0002:00000324 0000000cH .CRT$XTZ                DATA
 0002:00000328 00000000H .gfids$y                DATA
 0002:00000330 0000b050H .rdata                  DATA
 0002:0000b380 00000040H .rdata$CastGuardVftablesA DATA
 0002:0000b3c0 00000040H .rdata$CastGuardVftablesC DATA
 0002:0000b400 000009dcH .rdata$r                DATA
 0002:0000bddc 000001ecH .rdata$sxdata           DATA
 0002:0000bfc8 00000164H .rdata$voltmd           DATA
 0002:0000c12c 000003a0H .rdata$zzzdbg           DATA
 0002:0000c4cc 00000004H .rtc$IAA                DATA
 0002:0000c4d0 00000004H .rtc$IZZ                DATA
 0002:0000c4d4 00000004H .rtc$TAA                DATA
 0002:0000c4d8 00000008H .rtc$TZZ                DATA
 0002:0000c4e0 00002620H .xdata$x                DATA
 0002:0000eb00 000002bcH .edata                  DATA
 0002:0000edbc 00000064H .idata$2                DATA
 0002:0000ee20 00000014H .idata$3                DATA
 0002:0000ee34 00000284H .idata$4                DATA
 0002:0000f0b8 00000b78H .idata$6                DATA
 0003:00000000 00003540H .data                   DATA
 0003:00003540 000001acH .data$r                 DATA
 0003:000036ec 0000026cH .data$rs                DATA
 0003:00003958 00001d60H .bss                    DATA
 0004:00000000 00000360H .rsrc$01                DATA
 0004:00000360 0001d9e0H .rsrc$02                DATA

  Address         Publics by Value              Rva+Base       Lib:Object

 0000:00000000       ___AbsoluteZero            00000000     <absolute>
 0000:00000000       ___arm64x_extra_rfe_table  00000000     <absolute>
 0000:00000000       ___arm64x_extra_rfe_table_size 00000000     <absolute>
 0000:00000000       ___arm64x_native_entrypoint 00000000     <absolute>
 0000:00000000       ___arm64x_redirection_metadata 00000000     <absolute>
 0000:00000000       ___arm64x_redirection_metadata_count 00000000     <absolute>
 0000:00000000       ___dynamic_value_reloc_table 00000000     <absolute>
 0000:00000000       ___enclave_config          00000000     <absolute>
 0000:00000000       ___guard_check_icall_a64n_fptr 00000000     <absolute>
 0000:00000000       ___guard_eh_cont_count     00000000     <absolute>
 0000:00000000       ___guard_eh_cont_table     00000000     <absolute>
 0000:00000000       ___guard_fids_count        00000000     <absolute>
 0000:00000000       ___guard_fids_table        00000000     <absolute>
 0000:00000000       ___guard_iat_count         00000000     <absolute>
 0000:00000000       ___guard_iat_table         00000000     <absolute>
 0000:00000000       ___guard_longjmp_count     00000000     <absolute>
 0000:00000000       ___guard_longjmp_table     00000000     <absolute>
 0000:00000000       ___hybrid_auxiliary_iat    00000000     <absolute>
 0000:00000000       ___hybrid_auxiliary_iat_copy 00000000     <absolute>
 0000:00000000       ___hybrid_code_map         00000000     <absolute>
 0000:00000000       ___hybrid_code_map_count   00000000     <absolute>
 0000:00000000       ___x64_code_ranges_to_entry_points 00000000     <absolute>
 0000:00000000       ___x64_code_ranges_to_entry_points_count 00000000     <absolute>
 0000:00000000       __except_list              00000000     <absolute>
 0000:0000007b       ___safe_se_handler_count   0000007b     <absolute>
 0000:00000100       ___guard_flags             00000100     <absolute>
 0000:00000000       ___ImageBase               10000000     <linker-defined>
 0001:000002e0       ??0MappedMap@@QAE@HH@Z     100012e0 f   MappedMAP.obj
 0001:00000340       ??1MappedMap@@QAE@XZ       10001340 f   MappedMAP.obj
 0001:00000390       ?NowDrawMapped@MappedMap@@QAEHPAEPAUtagPOINT@@@Z 10001390 f   MappedMAP.obj
 0001:00000a70       ?PictureInfo@MappedMap@@QAEPAEPAPAEPAUtagPOINT@@@Z 10001a70 f   MappedMAP.obj
 0001:00000aa0       ??0MegaMapControl@@QAE@PAVFullScreenMinimap@@PAUtagRECT@@11HHHHHH@Z 10001aa0 f   MegamapControl.obj
 0001:00000c60       ??1MegaMapControl@@QAE@XZ  10001c60 f   MegamapControl.obj
 0001:00000d00       ??_GInlineSingleHook@@QAEPAXI@Z 10001d00 f i MegamapControl.obj
 0001:00000d30       ?CheckInControl@MegaMapControl@@AAEHHH@Z 10001d30 f   MegamapControl.obj
 0001:00000e40       ?CheckInMap@MegaMapControl@@AAEHHH@Z 10001e40 f   MegamapControl.obj
 0001:00000e90       ?DoubleClick@MegaMapControl@@AAEHHH_N@Z 10001e90 f   MegamapControl.obj
 0001:00000fe0       ?EnterMegaMap@MegaMapControl@@QAEXXZ 10001fe0 f   MegamapControl.obj
 0001:000010d0       ?FindMouseUnitRounte@@YGHPAUtagInlineX86StackBuffer@@@Z 100020d0 f   MegamapControl.obj
 0001:00001110       ?GetGridPosFeatureRounte@@YGHPAUtagInlineX86StackBuffer@@@Z 10002110 f   MegamapControl.obj
 0001:00001150       ?GetPosition_DwordRounte@@YGHPAUtagInlineX86StackBuffer@@@Z 10002150 f   MegamapControl.obj
 0001:00001180       ?Init@MegaMapControl@@QAEXPAVFullScreenMinimap@@PAUtagRECT@@11HHHHHH@Z 10002180 f   MegamapControl.obj
 0001:00001320       ?IsBliting@MegaMapControl@@QAEHXZ 10002320 f   MegamapControl.obj
 0001:00001340       ?IsDrawCursor@MegaMapControl@@QAEHHH@Z 10002340 f   MegamapControl.obj
 0001:000014b0       ?IsDrawOrder@MegaMapControl@@QAEHXZ 100024b0 f   MegamapControl.obj
 0001:000014e0       ?IsDrawRect@MegaMapControl@@QAEHH@Z 100024e0 f   MegamapControl.obj
 0001:000015b0       ?IsInControl@MegaMapControl@@QAEHXZ 100025b0 f   MegamapControl.obj
 0001:000015d0       ?IsInMap@MegaMapControl@@QAEHXZ 100025d0 f   MegamapControl.obj
 0001:000015f0       ?LeftDown@MegaMapControl@@AAEHHH_N@Z 100025f0 f   MegamapControl.obj
 0001:00001610       ?LeftUp@MegaMapControl@@AAEHHH_N@Z 10002610 f   MegamapControl.obj
 0001:00001910       ?MegamapMoveSceen@MegaMapControl@@AAEXHH@Z 10002910 f   MegamapControl.obj
 0001:00001a00       ?Message@MegaMapControl@@QAE_NPAUHWND__@@IIJ@Z 10002a00 f   MegamapControl.obj
 0001:00001e30       ?MouseMove@MegaMapControl@@AAEHHH@Z 10002e30 f   MegamapControl.obj
 0001:000020a0       ?MoveScreen@MegaMapControl@@AAEXHHH@Z 100030a0 f   MegamapControl.obj
 0001:000021b0       ?QuitMegaMap@MegaMapControl@@QAEXXZ 100031b0 f   MegamapControl.obj
 0001:00002220       ?ReadSelectRect@MegaMapControl@@QAEPAUtagRECT@@PAU2@@Z 10003220 f   MegamapControl.obj
 0001:00002250       ?ReadSelectState@MegaMapControl@@QAE?AW4SELECTBUTTOM@selectbuttom@@XZ 10003250 f   MegamapControl.obj
 0001:00002270       ?RightDown@MegaMapControl@@AAEHHH_N@Z 10003270 f   MegamapControl.obj
 0001:00002290       ?RightUp@MegaMapControl@@AAEHHH_N@Z 10003290 f   MegamapControl.obj
 0001:000023d0       ?ScreenPos2TAPos@MegaMapControl@@AAEPAU_Position_Dword@@PAU2@HHH@Z 100033d0 f   MegamapControl.obj
 0001:00002460       ?SelectDown@MegaMapControl@@AAEHHH_N@Z 10003460 f   MegamapControl.obj
 0001:000024a0       ?SelectMove@MegaMapControl@@AAEHHH_N0@Z 100034a0 f   MegamapControl.obj
 0001:00002560       ?SelectUp@MegaMapControl@@AAEHHH_N0@Z 10003560 f   MegamapControl.obj
 0001:00002760       ?Set@MegaMapControl@@QAEXH@Z 10003760 f   MegamapControl.obj
 0001:00002780       ?TAPos2ScreenPos@MegaMapControl@@AAEPAUtagPOINT@@PAU2@III@Z 10003780 f   MegamapControl.obj
 0001:000027f0       ?WheelBack@MegaMapControl@@AAEHHH@Z 100037f0 f   MegamapControl.obj
 0001:00002830       ?WheelFont@MegaMapControl@@AAEHHH@Z 10003830 f   MegamapControl.obj
 0001:00002890       ?abs@@YGJJ@Z               10003890 f i MegamapControl.obj
 0001:000028b0       ??$?0$$V@?$_Compressed_pair@V?$allocator@U_Position_Dword@@@std@@V?$_Vector_val@U?$_Simple_types@U_Position_Dword@@@std@@@2@$00@std@@QAE@U_Zero_then_variadic_args_t@1@@Z 100038b0 f i MegamapTAStuff.obj
 0001:000028d0       ??$_Allocate@$07U_Default_allocate_traits@std@@$0A@@std@@YGPAXI@Z 100038d0 f i MegamapTAStuff.obj
 0001:00002900       ??$_Allocate_manually_vector_aligned@U_Default_allocate_traits@std@@@std@@YGPAXI@Z 10003900 f i MegamapTAStuff.obj
 0001:00002970       ??$_Construct_in_place@U_Position_Dword@@ABU1@@std@@YGXAAU_Position_Dword@@ABU1@@Z 10003970 f i MegamapTAStuff.obj
 0001:000029c0       ??$_Copy_memmove@PAU_Position_Dword@@PAU1@@std@@YGPAU_Position_Dword@@PAU1@00@Z 100039c0 f i MegamapTAStuff.obj
 0001:00002a30       ??$_Deallocate@$07$0A@@std@@YGXPAXI@Z 10003a30 f i MegamapTAStuff.obj
 0001:00002a90       ??$_Destroy_range@V?$allocator@U_Position_Dword@@@std@@@std@@YGXPAU_Position_Dword@@QAU1@AAV?$allocator@U_Position_Dword@@@0@@Z 10003a90 f i MegamapTAStuff.obj
 0001:00002aa0       ??$_Emplace_back@U_Position_Dword@@@?$_Uninitialized_backout_al@V?$allocator@U_Position_Dword@@@std@@@std@@QAEX$$QAU_Position_Dword@@@Z 10003aa0 f i MegamapTAStuff.obj
 0001:00002ae0       ??$_Emplace_back_with_unused_capacity@ABU_Position_Dword@@@?$vector@U_Position_Dword@@V?$allocator@U_Position_Dword@@@std@@@std@@AAEAAU_Position_Dword@@ABU2@@Z 10003ae0 f i MegamapTAStuff.obj
 0001:00002b40       ??$_Emplace_one_at_back@ABU_Position_Dword@@@?$vector@U_Position_Dword@@V?$allocator@U_Position_Dword@@@std@@@std@@AAEAAU_Position_Dword@@ABU2@@Z 10003b40 f i MegamapTAStuff.obj
 0001:00002ba0       ??$_Emplace_reallocate@ABU_Position_Dword@@@?$vector@U_Position_Dword@@V?$allocator@U_Position_Dword@@@std@@@std@@AAEPAU_Position_Dword@@QAU2@ABU2@@Z 10003ba0 f i MegamapTAStuff.obj
 0001:00002d70       ??$_Get_size_of_n@$0M@@std@@YGII@Z 10003d70 f i MegamapTAStuff.obj
 0001:00002da0       ??$_Get_unwrapped@ABQAU_Position_Dword@@@std@@YG?A_TABQAU_Position_Dword@@@Z 10003da0 f i MegamapTAStuff.obj
 0001:00002db0       ??$_To_address@PAU_Position_Dword@@@std@@YG?A_PABQAU_Position_Dword@@@Z 10003db0 f i MegamapTAStuff.obj
 0001:00002dc0       ??$_Unfancy@U_Position_Dword@@@std@@YGPAU_Position_Dword@@PAU1@@Z 10003dc0 f i MegamapTAStuff.obj
 0001:00002dd0       ??$_Uninitialized_move@PAU_Position_Dword@@V?$allocator@U_Position_Dword@@@std@@@std@@YGPAU_Position_Dword@@QAU1@0PAU1@AAV?$allocator@U_Position_Dword@@@0@@Z 10003dd0 f i MegamapTAStuff.obj
 0001:00002ea0       ??$_Voidify_iter@PAU_Position_Dword@@@std@@YGPAXPAU_Position_Dword@@@Z 10003ea0 f i MegamapTAStuff.obj
 0001:00002eb0       ??$addressof@U_Position_Dword@@@std@@YGPAU_Position_Dword@@AAU1@@Z 10003eb0 f i MegamapTAStuff.obj
 0001:00002ec0       ??$addressof@V?$_Vector_val@U?$_Simple_types@U_Position_Dword@@@std@@@std@@@std@@YGPAV?$_Vector_val@U?$_Simple_types@U_Position_Dword@@@std@@@0@AAV10@@Z 10003ec0 f i MegamapTAStuff.obj
 0001:00002ed0       ??$construct@U_Position_Dword@@ABU1@@?$_Default_allocator_traits@V?$allocator@U_Position_Dword@@@std@@@std@@SGXAAV?$allocator@U_Position_Dword@@@1@QAU_Position_Dword@@ABU3@@Z 10003ed0 f i MegamapTAStuff.obj
 0001:00002f10       ??$construct@U_Position_Dword@@U1@@?$_Default_allocator_traits@V?$allocator@U_Position_Dword@@@std@@@std@@SGXAAV?$allocator@U_Position_Dword@@@1@QAU_Position_Dword@@$$QAU3@@Z 10003f10 f i MegamapTAStuff.obj
 0001:00002f50       ??$emplace_back@ABU_Position_Dword@@@?$vector@U_Position_Dword@@V?$allocator@U_Position_Dword@@@std@@@std@@QAE?A_TABU_Position_Dword@@@Z 10003f50 f i MegamapTAStuff.obj
 0001:00002f80       ??$forward@ABU_Position_Dword@@@std@@YGABU_Position_Dword@@ABU1@@Z 10003f80 f i MegamapTAStuff.obj
 0001:00002f90       ??$forward@U_Position_Dword@@@std@@YG$$QAU_Position_Dword@@AAU1@@Z 10003f90 f i MegamapTAStuff.obj
 0001:00002fa0       ??$min@I@std@@YGABIABI0@Z  10003fa0 f i MegamapTAStuff.obj
 0001:00002fd0       ??$move@AAU_Position_Dword@@@std@@YG$$QAU_Position_Dword@@AAU1@@Z 10003fd0 f i MegamapTAStuff.obj
 0001:00002fe0       ??$sprintf_s@$0BAA@@@YAHAAY0BAA@DPBDZZ 10003fe0 f i MegamapTAStuff.obj
 0001:00003010       ??0?$_Uninitialized_backout_al@V?$allocator@U_Position_Dword@@@std@@@std@@QAE@PAU_Position_Dword@@AAV?$allocator@U_Position_Dword@@@1@@Z 10004010 f i MegamapTAStuff.obj
 0001:00003040       ??0?$_Vector_const_iterator@V?$_Vector_val@U?$_Simple_types@U_Position_Dword@@@std@@@std@@@std@@QAE@PAU_Position_Dword@@PBU_Container_base0@1@@Z 10004040 f i MegamapTAStuff.obj
 0001:00003070       ??0?$_Vector_iterator@V?$_Vector_val@U?$_Simple_types@U_Position_Dword@@@std@@@std@@@std@@QAE@PAU_Position_Dword@@PBU_Container_base0@1@@Z 10004070 f i MegamapTAStuff.obj
 0001:00003090       ??0?$_Vector_val@U?$_Simple_types@U_Position_Dword@@@std@@@std@@QAE@XZ 10004090 f i MegamapTAStuff.obj
 0001:000030c0       ??0?$allocator@U_Position_Dword@@@std@@QAE@XZ 100040c0 f i MegamapTAStuff.obj
 0001:000030d0       ??0?$vector@U_Position_Dword@@V?$allocator@U_Position_Dword@@@std@@@std@@QAE@XZ 100040d0 f i MegamapTAStuff.obj
 0001:00003100       ??0MegamapTAStuff@@QAE@PAVFullScreenMinimap@@PAUtagRECT@@11HHH@Z 10004100 f   MegamapTAStuff.obj
 0001:00003180       ??0bad_alloc@std@@AAE@QBD@Z 10004180 f i MegamapTAStuff.obj
 0001:000031b0       ??0bad_alloc@std@@QAE@ABV01@@Z 100041b0 f i MegamapTAStuff.obj
 0001:000031e0       ??0bad_array_new_length@std@@QAE@ABV01@@Z 100041e0 f i MegamapTAStuff.obj
 0001:00003210       ??0bad_array_new_length@std@@QAE@XZ 10004210 f i MegamapTAStuff.obj
 0001:00003240       ??0exception@std@@QAE@ABV01@@Z 10004240 f i MegamapTAStuff.obj
 0001:00003280       ??0exception@std@@QAE@QBDH@Z 10004280 f i MegamapTAStuff.obj
 0001:000032b0       ??1?$_Uninitialized_backout_al@V?$allocator@U_Position_Dword@@@std@@@std@@QAE@XZ 100042b0 f i MegamapTAStuff.obj
 0001:000032e0       ??1?$vector@U_Position_Dword@@V?$allocator@U_Position_Dword@@@std@@@std@@QAE@XZ 100042e0 f i MegamapTAStuff.obj
 0001:00003300       ??1MegamapTAStuff@@QAE@XZ  10004300 f   MegamapTAStuff.obj
 0001:00003340       ??1bad_alloc@std@@UAE@XZ   10004340 f i MegamapTAStuff.obj
 0001:00003360       ??1bad_array_new_length@std@@UAE@XZ 10004360 f i MegamapTAStuff.obj
 0001:00003380       ??1exception@std@@UAE@XZ   10004380 f i MegamapTAStuff.obj
 0001:000033b0       ??2@YAPAXIPAX@Z            100043b0 f i MegamapTAStuff.obj
 0001:000033c0       ??8?$_Vector_const_iterator@V?$_Vector_val@U?$_Simple_types@U_Position_Dword@@@std@@@std@@@std@@QBE_NABV01@@Z 100043c0 f i MegamapTAStuff.obj
 0001:00003400       ??9?$_Vector_const_iterator@V?$_Vector_val@U?$_Simple_types@U_Position_Dword@@@std@@@std@@@std@@QBE_NABV01@@Z 10004400 f i MegamapTAStuff.obj
 0001:00003440       ??C?$_Vector_iterator@V?$_Vector_val@U?$_Simple_types@U_Position_Dword@@@std@@@std@@@std@@QBEPAU_Position_Dword@@XZ 10004440 f i MegamapTAStuff.obj
 0001:00003450       ??E?$_Vector_const_iterator@V?$_Vector_val@U?$_Simple_types@U_Position_Dword@@@std@@@std@@@std@@QAEAAV01@XZ 10004450 f i MegamapTAStuff.obj
 0001:00003470       ??E?$_Vector_iterator@V?$_Vector_val@U?$_Simple_types@U_Position_Dword@@@std@@@std@@@std@@QAEAAV01@XZ 10004470 f i MegamapTAStuff.obj
 0001:00003490       ??_Ebad_alloc@std@@UAEPAXI@Z 10004490 f i MegamapTAStuff.obj
 0001:00003490       ??_Gbad_alloc@std@@UAEPAXI@Z 10004490 f i MegamapTAStuff.obj
 0001:000034c0       ??_Ebad_array_new_length@std@@UAEPAXI@Z 100044c0 f i MegamapTAStuff.obj
 0001:000034c0       ??_Gbad_array_new_length@std@@UAEPAXI@Z 100044c0 f i MegamapTAStuff.obj
 0001:000034f0       ??_Eexception@std@@UAEPAXI@Z 100044f0 f i MegamapTAStuff.obj
 0001:000034f0       ??_Gexception@std@@UAEPAXI@Z 100044f0 f i MegamapTAStuff.obj
 0001:00003520       ?BlitOrder@MegamapTAStuff@@QAEXPAXHHH@Z 10004520 f   MegamapTAStuff.obj
 0001:00003c60       ?BlitSelect@MegamapTAStuff@@QAEXPAXHHH@Z 10004c60 f   MegamapTAStuff.obj
 0001:00003e40       ?DrawBuildRect@MegamapTAStuff@@QAEXPAU_OFFSCREEN@@EPAUUnitDefStruct@@HHH@Z 10004e40 f   MegamapTAStuff.obj
 0001:00003f50       ?DrawCursor@MegamapTAStuff@@QAEXPAXHHHII@Z 10004f50 f   MegamapTAStuff.obj
 0001:00003fb0       ?DrawOrderPath@MegamapTAStuff@@QAEXPAU_OFFSCREEN@@PAUUnitOrdersStruct@@PAU_Position_Dword@@@Z 10004fb0 f   MegamapTAStuff.obj
 0001:000042b0       ?DrawTargatOrder@MegamapTAStuff@@QAEXPAU_OFFSCREEN@@PAUUnitOrdersStruct@@PAUPlayerStruct@@@Z 100052b0 f   MegamapTAStuff.obj
 0001:00004420       ?GetTAStuffSurface@MegamapTAStuff@@QAEPAEXZ 10005420 f   MegamapTAStuff.obj
 0001:00004440       ?Init@MegamapTAStuff@@QAEXPAVFullScreenMinimap@@PAUtagRECT@@11HHH@Z 10005440 f   MegamapTAStuff.obj
 0001:00004650       ?InitSurface@MegamapTAStuff@@QAEXPAUIDirectDraw@@H@Z 10005650 f   MegamapTAStuff.obj
 0001:00004a50       ?LockBlit@MegamapTAStuff@@QAEXPAXHHH@Z 10005a50 f   MegamapTAStuff.obj
 0001:00004b90       ?LockBlit_MEGA@MegamapTAStuff@@QAEXPAXHHH@Z 10005b90 f   MegamapTAStuff.obj
 0001:00004c00       ?LockBlit_TA@MegamapTAStuff@@QAEXPAXHHHPAH@Z 10005c00 f   MegamapTAStuff.obj
 0001:00004f10       ?ReleaseSurface@MegamapTAStuff@@QAEXXZ 10005f10 f   MegamapTAStuff.obj
 0001:00004fc0       ?ScreenPos2TAPos@MegamapTAStuff@@AAEPAU_Position_Dword@@PAU2@HHH@Z 10005fc0 f   MegamapTAStuff.obj
 0001:00005050       ?TADrawRect@MegamapTAStuff@@QAEXPAU_OFFSCREEN@@HHHHHHH@Z 10006050 f   MegamapTAStuff.obj
 0001:00005160       ?TAPos2ScreenPos@MegamapTAStuff@@AAEPAUtagPOINT@@PAU2@III@Z 10006160 f   MegamapTAStuff.obj
 0001:000051c0       ?UpdateTAGameStuffMEGA@MegamapTAStuff@@QAEXPAXHHPAH@Z 100061c0 f   MegamapTAStuff.obj
 0001:00005260       ?UpdateTAGameStuffTA@MegamapTAStuff@@QAEXPAU_DDSURFACEDESC@@HHPAH@Z 10006260 f   MegamapTAStuff.obj
 0001:00005310       ?_Adjust_manually_vector_aligned@std@@YGXAAPAXAAI@Z 10006310 f i MegamapTAStuff.obj
 0001:00005380       ?_Adopt@_Iterator_base0@std@@QAEXPBX@Z 10006380 f i MegamapTAStuff.obj
 0001:00005390       ?_Alloc_proxy@_Container_base0@std@@QAEXABU_Fake_allocator@2@@Z 10006390 f i MegamapTAStuff.obj
 0001:000053a0       ?_Allocate@_Default_allocate_traits@std@@SGPAXI@Z 100063a0 f i MegamapTAStuff.obj
 0001:000053c0       ?_Calculate_growth@?$vector@U_Position_Dword@@V?$allocator@U_Position_Dword@@@std@@@std@@ABEII@Z 100063c0 f i MegamapTAStuff.obj
 0001:00005420       ?_Change_array@?$vector@U_Position_Dword@@V?$allocator@U_Position_Dword@@@std@@@std@@AAEXQAU_Position_Dword@@II@Z 10006420 f i MegamapTAStuff.obj
 0001:000054c0       ?_Compat@?$_Vector_const_iterator@V?$_Vector_val@U?$_Simple_types@U_Position_Dword@@@std@@@std@@@std@@QBEXABV12@@Z 100064c0 f i MegamapTAStuff.obj
 0001:000054d0       ?_Get_first@?$_Compressed_pair@V?$allocator@U_Position_Dword@@@std@@V?$_Vector_val@U?$_Simple_types@U_Position_Dword@@@std@@@2@$00@std@@QAEAAV?$allocator@U_Position_Dword@@@2@XZ 100064d0 f i MegamapTAStuff.obj
 0001:000054e0       ?_Get_first@?$_Compressed_pair@V?$allocator@U_Position_Dword@@@std@@V?$_Vector_val@U?$_Simple_types@U_Position_Dword@@@std@@@2@$00@std@@QBEABV?$allocator@U_Position_Dword@@@2@XZ 100064e0 f i MegamapTAStuff.obj
 0001:000054f0       ?_Getal@?$vector@U_Position_Dword@@V?$allocator@U_Position_Dword@@@std@@@std@@AAEAAV?$allocator@U_Position_Dword@@@2@XZ 100064f0 f i MegamapTAStuff.obj
 0001:00005510       ?_Getal@?$vector@U_Position_Dword@@V?$allocator@U_Position_Dword@@@std@@@std@@ABEABV?$allocator@U_Position_Dword@@@2@XZ 10006510 f i MegamapTAStuff.obj
 0001:00005530       ?_Orphan_all@_Container_base0@std@@QAEXXZ 10006530 f i MegamapTAStuff.obj
 0001:00005540       ?_Orphan_range@?$vector@U_Position_Dword@@V?$allocator@U_Position_Dword@@@std@@@std@@ABEXPAU_Position_Dword@@0@Z 10006540 f i MegamapTAStuff.obj
 0001:00005550       ?_Release@?$_Uninitialized_backout_al@V?$allocator@U_Position_Dword@@@std@@@std@@QAEPAU_Position_Dword@@XZ 10006550 f i MegamapTAStuff.obj
 0001:00005570       ?_Throw_bad_array_new_length@std@@YGXXZ 10006570 f i MegamapTAStuff.obj
 0001:00005590       ?_Tidy@?$vector@U_Position_Dword@@V?$allocator@U_Position_Dword@@@std@@@std@@AAEXXZ 10006590 f i MegamapTAStuff.obj
 0001:00005650       ?_Xlength@?$vector@U_Position_Dword@@V?$allocator@U_Position_Dword@@@std@@@std@@CGXXZ 10006650 f i MegamapTAStuff.obj
 0001:00005660       ?allocate@?$allocator@U_Position_Dword@@@std@@QAEPAU_Position_Dword@@I@Z 10006660 f i MegamapTAStuff.obj
 0001:00005680       ?begin@?$vector@U_Position_Dword@@V?$allocator@U_Position_Dword@@@std@@@std@@QAE?AV?$_Vector_iterator@V?$_Vector_val@U?$_Simple_types@U_Position_Dword@@@std@@@std@@@2@XZ 10006680 f i MegamapTAStuff.obj
 0001:000056b0       ?capacity@?$vector@U_Position_Dword@@V?$allocator@U_Position_Dword@@@std@@@std@@QBEIXZ 100066b0 f i MegamapTAStuff.obj
 0001:000056e0       ?deallocate@?$allocator@U_Position_Dword@@@std@@QAEXQAU_Position_Dword@@I@Z 100066e0 f i MegamapTAStuff.obj
 0001:00005700       ?end@?$vector@U_Position_Dword@@V?$allocator@U_Position_Dword@@@std@@@std@@QAE?AV?$_Vector_iterator@V?$_Vector_val@U?$_Simple_types@U_Position_Dword@@@std@@@std@@@2@XZ 10006700 f i MegamapTAStuff.obj
 0001:00005740       ?max@?$numeric_limits@H@std@@SGHXZ 10006740 f i MegamapTAStuff.obj
 0001:00005750       ?max_size@?$_Default_allocator_traits@V?$allocator@U_Position_Dword@@@std@@@std@@SGIABV?$allocator@U_Position_Dword@@@2@@Z 10006750 f i MegamapTAStuff.obj
 0001:00005760       ?max_size@?$vector@U_Position_Dword@@V?$allocator@U_Position_Dword@@@std@@@std@@QBEIXZ 10006760 f i MegamapTAStuff.obj
 0001:000057a0       ?push_back@?$vector@U_Position_Dword@@V?$allocator@U_Position_Dword@@@std@@@std@@QAEXABU_Position_Dword@@@Z 100067a0 f i MegamapTAStuff.obj
 0001:000057c0       ?what@exception@std@@UBEPBDXZ 100067c0 f i MegamapTAStuff.obj
 0001:000057f0       ___local_stdio_printf_options 100067f0 f i MegamapTAStuff.obj
 0001:00005800       __vsprintf_s_l             10006800 f i MegamapTAStuff.obj
 0001:00005850       _vsprintf_s                10006850 f i MegamapTAStuff.obj
 0001:00005870       ??0ProjectileMap@@QAE@PAVFullScreenMinimap@@PAVUnitsMinimap@@@Z 10006870 f   ProjectileMap.obj
 0001:000058a0       ??1ProjectileMap@@QAE@XZ   100068a0 f   ProjectileMap.obj
 0001:000058b0       ?DrawNuke@ProjectileMap@@AAEXPAEPAUtagPOINT@@HHPAUProjectileStruct@@@Z 100068b0 f   ProjectileMap.obj
 0001:00005aa0       ?DrawProjectile@ProjectileMap@@AAEXPAEPAUtagPOINT@@PAUProjectileStruct@@@Z 10006aa0 f   ProjectileMap.obj
 0001:00005bb0       ?DrawWeapon@ProjectileMap@@AAEXPAEPAUtagPOINT@@HH@Z 10006bb0 f   ProjectileMap.obj
 0001:00005ca0       ?IsPosInPlayerLos@ProjectileMap@@AAEHIIPAUProjectileStruct@@@Z 10006ca0 f   ProjectileMap.obj
 0001:00005df0       ?NowDrawProjectile@ProjectileMap@@QAEXPAEPAUtagPOINT@@@Z 10006df0 f   ProjectileMap.obj
 0001:00005e70       ??$strcpy_s@$0BAA@@@YAHAAY0BAA@DPBD@Z 10006e70 f i UnitIcon.obj
 0001:00005e90       ??0TABMP@@QAE@XZ           10006e90 f   UnitIcon.obj
 0001:00005f10       ??0UnitIcon@@QAE@PAD@Z     10006f10 f   UnitIcon.obj
 0001:00006030       ??1TABMP@@QAE@XZ           10007030 f   UnitIcon.obj
 0001:000060b0       ??1UnitIcon@@QAE@XZ        100070b0 f   UnitIcon.obj
 0001:00006140       ??_GPCX@@QAEPAXI@Z         10007140 f i UnitIcon.obj
 0001:00006180       ??_GTABMP@@QAEPAXI@Z       10007180 f i UnitIcon.obj
 0001:000061b0       ?BufSize@PCX@@QAEJXZ       100071b0 f i UnitIcon.obj
 0001:000061d0       ?BufSize@TABMP@@QAEJXZ     100071d0 f i UnitIcon.obj
 0001:000061f0       ?BufSize@UnitIcon@@QAEJXZ  100071f0 f   UnitIcon.obj
 0001:00006230       ?Data@TABMP@@QAEPAEXZ      10007230 f i UnitIcon.obj
 0001:00006250       ?Data@UnitIcon@@QAEPAEXZ   10007250 f   UnitIcon.obj
 0001:00006290       ?Height@TABMP@@QAEJXZ      10007290 f i UnitIcon.obj
 0001:000062b0       ?Height@UnitIcon@@QAEJXZ   100072b0 f   UnitIcon.obj
 0001:000062f0       ?Load@TABMP@@QAEXPAD@Z     100072f0 f   UnitIcon.obj
 0001:000064e0       ?PCXData@PCX@@QAEPAEXZ     100074e0 f i UnitIcon.obj
 0001:00006500       ?Transformer@TABMP@@QAEXPAEPAUtagLOGPALETTE@@PAUtagBITMAPINFO@@0@Z 10007500 f   UnitIcon.obj
 0001:000065c0       ?Width@TABMP@@QAEJXZ       100075c0 f i UnitIcon.obj
 0001:000065e0       ?Width@UnitIcon@@QAEJXZ    100075e0 f   UnitIcon.obj
 0001:00006620       ??_GLimitCrack@@QAEPAXI@Z  10007620 f i ddraw.obj
 0001:00006650       ??_GTABugFixing@@QAEPAXI@Z 10007650 f i ddraw.obj
 0001:00006690       ??_GTADRConfig@@QAEPAXI@Z  10007690 f i ddraw.obj
 0001:000066d0       ??_GUnicodeSupport@@QAEPAXI@Z 100076d0 f i ddraw.obj
 0001:00006710       ??_G_TAHPI@@QAEPAXI@Z      10007710 f i ddraw.obj
 0001:00006740       ?AddtionInit@@YGHPAUtagInlineX86StackBuffer@@@Z 10007740 f   ddraw.obj
 0001:00006760       ?AddtionInitAfterDDraw@@YGHPAUtagInlineX86StackBuffer@@@Z 10007760 f   ddraw.obj
 0001:000068e0       ?AddtionRelease@@YGXXZ     100078e0 f   ddraw.obj
 0001:00006940       ?AddtionReleaseAfterDDraw@@YGXXZ 10007940 f   ddraw.obj
 0001:000069d0       ?AllocateNewArray@@YGXXZ   100079d0 f   ddraw.obj
 0001:00006a80       ?ApplyWeaponIdsPatches@@YGXXZ 10007a80 f   ddraw.obj
 0001:00006c90       ?DirectDrawCreate@@YGJPAU_GUID@@PAPAUIDirectDraw@@PAUIUnknown@@@Z 10007c90 f   ddraw.obj
 0001:00006d60       ?EnableSound@@YGXXZ        10007d60 f   ddraw.obj
 0001:00006d90       ?GetAddress@@YGP6GHXZPBD@Z 10007d90 f   ddraw.obj
 0001:00006dc0       ?GetSysDir@@YGXXZ          10007dc0 f   ddraw.obj
 0001:00006f10       ?MyMod@@YGXXZ              10007f10 f   ddraw.obj
 0001:00007790       ?SetExeMemoryProtection@@YGHPAX0K@Z 10008790 f   ddraw.obj
 0001:000077c0       ?SetupFileMap@@YG_NXZ      100087c0 f   ddraw.obj
 0001:00007850       ?SetupLocalFileMap@@YG_NXZ 10008850 f   ddraw.obj
 0001:000078d0       ?SetupTAHookFileMap@@YGXXZ 100088d0 f   ddraw.obj
 0001:00007940       ?ShutDownTAHookFileMap@@YGXXZ 10008940 f   ddraw.obj
 0001:00007970       ?ShutdownFileMap@@YGXXZ    10008970 f   ddraw.obj
 0001:000079a0       ?ShutdownLocalFileMap@@YGXXZ 100089a0 f   ddraw.obj
 0001:000079d0       ?StaticInitializers_DllMain@@YGXXZ 100089d0 f   ddraw.obj
 0001:00007a40       ?StaticInitializers_WeaponIds@@YGXXZ 10008a40 f   ddraw.obj
 0001:00007c40       ?WeaponIds@@YGXXZ          10008c40 f   ddraw.obj
 0001:00007c50       ?WriteBytes@@YGXPAXQAEK@Z  10008c50 f   ddraw.obj
 0001:00007c70       ?WriteJumpHook@@YGXPAX0@Z  10008c70 f   ddraw.obj
 0001:00007c90       ?____AreaOfEffectDamage_Hook_1@@YGXXZ 10008c90 f   ddraw.obj
 0001:00007dc0       ?____AreaOfEffectDamage_Hook_1_HelperA@@YGXXZ 10008dc0 f   ddraw.obj
 0001:00007e00       ?____FeaturesTakeWeaponDamage_Hook_0_1@@YGXXZ 10008e00 f   ddraw.obj
 0001:00007e70       ?____FeaturesTakeWeaponDamage_Hook_1@@YGXXZ 10008e70 f   ddraw.obj
 0001:00007f30       ?____FeaturesTakeWeaponDamage_Hook_1_HelperA@@YGXXZ 10008f30 f   ddraw.obj
 0001:00007f70       ?____FeaturesTakeWeaponDamage_Hook_2@@YGXXZ 10008f70 f   ddraw.obj
 0001:00007f90       ?____FeaturesTakeWeaponDamage_Hook_3@@YGXXZ 10008f90 f   ddraw.obj
 0001:00007fb0       ?____FeaturesTakeWeaponDamage_Hook_4@@YGXXZ 10008fb0 f   ddraw.obj
 0001:00007fd0       ?____FeaturesTakeWeaponDamage_Hook_5@@YGXXZ 10008fd0 f   ddraw.obj
 0001:00008050       ?____FeaturesTakeWeaponDamage_Hook_5_HelperA@@YGHK@Z 10009050 f   ddraw.obj
 0001:00008080       ?____FireCallback1_Hook_1@@YGXXZ 10009080 f   ddraw.obj
 0001:00008230       ?____FireCallback2_Hook_1@@YGXXZ 10009230 f   ddraw.obj
 0001:000083e0       ?____FireCallback3_Hook_1@@YGXXZ 100093e0 f   ddraw.obj
 0001:000085a0       ?____FireCallback4_Hook_1@@YGXXZ 100095a0 f   ddraw.obj
 0001:00008750       ?____FireMapWeapon_Hook_1@@YGXXZ 10009750 f   ddraw.obj
 0001:00008870       ?____LoadAllWeapons_Hook_1@@YGXXZ 10009870 f   ddraw.obj
 0001:00008890       ?____LoadGame_LoadUnit_Hook_1@@YGXXZ 10009890 f   ddraw.obj
 0001:000088b0       ?____LoadUnitInfoFromFBI_Hook_1@@YGXXZ 100098b0 f   ddraw.obj
 0001:000088e0       ?____LoadWeaponFromTDF_Hook_1@@YGXXZ 100098e0 f   ddraw.obj
 0001:00008910       ?____LoadWeaponFromTDF_Hook_1_HelperA@@YGPAXK@Z 10009910 f   ddraw.obj
 0001:00008930       ?____LoadWeaponFromTDF_Hook_2@@YGXXZ 10009930 f   ddraw.obj
 0001:000089b0       ?____LoadWeaponFromTDF_Hook_3@@YGXXZ 100099b0 f   ddraw.obj
 0001:00008a00       ?____LoadWeaponFromTDF_Hook_4@@YGXXZ 10009a00 f   ddraw.obj
 0001:00008a40       ?____NewDataFile_Hook_1_HelperA@@YGXXZ 10009a40 f   ddraw.obj
 0001:00008c90       ?____Order_Resurrect_Hook_1@@YGXXZ 10009c90 f   ddraw.obj
 0001:00008d60       ?____PacketDispatcher_Hook_1@@YGXXZ 10009d60 f   ddraw.obj
 0001:00008e30       ?____PacketSize_PacketFeatureExplode_Hook_1@@YGXXZ 10009e30 f   ddraw.obj
 0001:00008e50       ?____ReceiveAreaOfEffectDamage_Hook_1@@YGXXZ 10009e50 f   ddraw.obj
 0001:00008e60       ?____ReceiveWeaponFired_Hook_1@@YGXXZ 10009e60 f   ddraw.obj
 0001:00008ec0       ?____ReclaimFinished_Hook_1@@YGXXZ 10009ec0 f   ddraw.obj
 0001:00008fd0       ?____SaveGame_SaveUnit_Hook_1@@YGXXZ 10009fd0 f   ddraw.obj
 0001:00008ff0       ?____SendFireWeapon_Hook_1@@YGXXZ 10009ff0 f   ddraw.obj
 0001:000091c0       ?____SendFireWeapon_Hook_1_HelperA@@YGXXZ 1000a1c0 f   ddraw.obj
 0001:00009200       ?____StartTreeBurn_Hook_1@@YGXXZ 1000a200 f   ddraw.obj
 0001:000092b0       ?____StartWeaponsScripts_Hook_1@@YGXXZ 1000a2b0 f   ddraw.obj
 0001:000092d0       ?____WeaponNameToWeaponTypeDefinition_Replace@@YGPADPAD@Z 1000a2d0 f   ddraw.obj
 0001:00009340       ?____WeaponUnknown1_Hook_1@@YGXXZ 1000a340 f   ddraw.obj
 0001:00009350       ?____WeaponUnknown2_Hook_1@@YGXXZ 1000a350 f   ddraw.obj
 0001:00009360       ?____WeaponUnknown3_Hook_1@@YGXXZ 1000a360 f   ddraw.obj
 0001:00009370       ?____free@@YAXPAX@Z        1000a370 f   ddraw.obj
 0001:00009390       ?____malloc@@YAPAXI@Z      1000a390 f   ddraw.obj
 0001:000093b0       ?____strlen@@YGIPBD@Z      1000a3b0 f   ddraw.obj
 0001:000093e0       _AheadLib_AcquireDDThreadLock 1000a3e0 f   ddraw.obj
 0001:000093f0       _AheadLib_CompleteCreateSysmemSurface 1000a3f0 f   ddraw.obj
 0001:00009400       _AheadLib_D3DParseUnknownCommand 1000a400 f   ddraw.obj
 0001:00009410       _AheadLib_DDGetAttachedSurfaceLcl 1000a410 f   ddraw.obj
 0001:00009420       _AheadLib_DDInternalLock   1000a420 f   ddraw.obj
 0001:00009430       _AheadLib_DDInternalUnlock 1000a430 f   ddraw.obj
 0001:00009440       _AheadLib_DSoundHelp       1000a440 f   ddraw.obj
 0001:00009450       _AheadLib_DirectDrawCreateClipper 1000a450 f   ddraw.obj
 0001:00009460       _AheadLib_DirectDrawCreateEx 1000a460 f   ddraw.obj
 0001:00009470       _AheadLib_DirectDrawEnumerateA 1000a470 f   ddraw.obj
 0001:00009480       _AheadLib_DirectDrawEnumerateExA 1000a480 f   ddraw.obj
 0001:00009490       _AheadLib_DirectDrawEnumerateExW 1000a490 f   ddraw.obj
 0001:000094a0       _AheadLib_DirectDrawEnumerateW 1000a4a0 f   ddraw.obj
 0001:000094b0       _AheadLib_DllCanUnloadNow  1000a4b0 f   ddraw.obj
 0001:000094c0       _AheadLib_DllGetClassObject 1000a4c0 f   ddraw.obj
 0001:000094d0       _AheadLib_GetDDSurfaceLocal 1000a4d0 f   ddraw.obj
 0001:000094e0       _AheadLib_GetOLEThunkData  1000a4e0 f   ddraw.obj
 0001:000094f0       _AheadLib_GetSurfaceFromDC 1000a4f0 f   ddraw.obj
 0001:00009500       _AheadLib_RegisterSpecialCase 1000a500 f   ddraw.obj
 0001:00009510       _AheadLib_ReleaseDDThreadLock 1000a510 f   ddraw.obj
 0001:00009520       _AheadLib_SetAppCompatData 1000a520 f   ddraw.obj
 0001:00009530       _DllMain@12                1000a530 f   ddraw.obj
 0001:00009800       ??0ExternHotKey@@QAE@XZ    1000a800 f   ExternhotKey.obj
 0001:00009b20       ??1ExternHotKey@@QAE@XZ    1000ab20 f   ExternhotKey.obj
 0001:00009ca0       ?AddRoutine_InitAfterExternKey@@YGXXZ 1000aca0 f   ExternhotKey.obj
 0001:00009ce0       ?AddtionRoutine_CircleSelect@@YGHPAUtagInlineX86StackBuffer@@@Z 1000ace0 f   ExternhotKey.obj
 0001:00009da0       ?AddtionRoutine_UnitINFOInit@@YGHPAUtagInlineX86StackBuffer@@@Z 1000ada0 f   ExternhotKey.obj
 0001:00009dd0       ?DestroyExternTypeMask@ExternHotKey@@QAEXXZ 1000add0 f   ExternhotKey.obj
 0001:00009f00       ?FilterSelectedUnit@ExternHotKey@@QAEHXZ 1000af00 f   ExternhotKey.obj
 0001:00009f70       ?FilterSelectedUnitProc@ExternHotKey@@QAEHW4TAUnitType@@@Z 1000af70 f   ExternhotKey.obj
 0001:0000a170       ?FindIdelFactory@ExternHotKey@@QAEXXZ 1000b170 f   ExternhotKey.obj
 0001:0000a330       ?FindIdleConst@ExternHotKey@@QAEXXZ 1000b330 f   ExternhotKey.obj
 0001:0000a540       ?InitExternTypeMask@ExternHotKey@@QAEHXZ 1000b540 f   ExternhotKey.obj
 0001:0000add0       ?Message@ExternHotKey@@QAE_NPAUHWND__@@IIJ@Z 1000bdd0 f   ExternhotKey.obj
 0001:0000b1b0       ?SelectOnlyInScreenSameTypeUnit@ExternHotKey@@QAEHH@Z 1000c1b0 f   ExternhotKey.obj
 0001:0000b3d0       ?SelectOnlyInScreenWeaponUnit@ExternHotKey@@QAEHI@Z 1000c3d0 f   ExternhotKey.obj
 0001:0000b540       ?SelectUnitInRect@ExternHotKey@@QAEHW4TAUnitType@@PAUtagRECT@@_N@Z 1000c540 f   ExternhotKey.obj
 0001:0000b710       ??0FullScreenMinimap@@QAE@HH@Z 1000c710 f   fullscreenminimap.obj
 0001:0000bad0       ??1FullScreenMinimap@@QAE@XZ 1000cad0 f   fullscreenminimap.obj
 0001:0000bd60       ??_GMappedMap@@QAEPAXI@Z   1000cd60 f i fullscreenminimap.obj
 0001:0000bda0       ??_GMegaMapControl@@QAEPAXI@Z 1000cda0 f i fullscreenminimap.obj
 0001:0000bde0       ??_GMegamapTAStuff@@QAEPAXI@Z 1000cde0 f i fullscreenminimap.obj
 0001:0000be20       ??_GProjectileMap@@QAEPAXI@Z 1000ce20 f i fullscreenminimap.obj
 0001:0000be50       ??_GSingleHook@@QAEPAXI@Z  1000ce50 f i fullscreenminimap.obj
 0001:0000be80       ??_GTAGameAreaReDrawer@@QAEPAXI@Z 1000ce80 f i fullscreenminimap.obj
 0001:0000beb0       ??_GTNTtoMiniMap@@QAEPAXI@Z 1000ceb0 f i fullscreenminimap.obj
 0001:0000bee0       ??_GUnitsMinimap@@QAEPAXI@Z 1000cee0 f i fullscreenminimap.obj
 0001:0000bf20       ?BlockGUIState@FullScreenMinimap@@QAEXXZ 1000cf20 f   fullscreenminimap.obj
 0001:0000bf30       ?BlockTADraw@@YGHPAUtagInlineX86StackBuffer@@@Z 1000cf30 f   fullscreenminimap.obj
 0001:0000bf80       ?DischargeGUIState@FullScreenMinimap@@QAEXXZ 1000cf80 f   fullscreenminimap.obj
 0001:0000bf90       ?DischargeTADraw@@YGHPAUtagInlineX86StackBuffer@@@Z 1000cf90 f   fullscreenminimap.obj
 0001:0000bfc0       ?EnterMegaMap@FullScreenMinimap@@QAEXXZ 1000cfc0 f   fullscreenminimap.obj
 0001:0000bfe0       ?ForceTADrawBlit@@YGHPAUtagInlineX86StackBuffer@@@Z 1000cfe0 f   fullscreenminimap.obj
 0001:0000c020       ?IfRenderMegaThenBlock2@@YGXXZ 1000d020 f   fullscreenminimap.obj
 0001:0000c050       ?IfRenderMegaThenBlock@@YGXXZ 1000d050 f   fullscreenminimap.obj
 0001:0000c090       ?InitMinimap@FullScreenMinimap@@QAEXPAUtagTNTHeaderStruct@@PAUtagRECT@@@Z 1000d090 f   fullscreenminimap.obj
 0001:0000cc00       ?InitSurface@FullScreenMinimap@@QAEXPAUIDirectDraw@@@Z 1000dc00 f   fullscreenminimap.obj
 0001:0000cc30       ?InitSurface@FullScreenMinimap@@QAEXPAUIDirectDraw@@H@Z 1000dc30 f   fullscreenminimap.obj
 0001:0000cd00       ?IsBliting@FullScreenMinimap@@QAEHXZ 1000dd00 f   fullscreenminimap.obj
 0001:0000cd20       ?LoadMap_Routine@@YGHPAUtagInlineX86StackBuffer@@@Z 1000dd20 f   fullscreenminimap.obj
 0001:0000cd60       ?LockBlit@FullScreenMinimap@@QAEXPAXHHH@Z 1000dd60 f   fullscreenminimap.obj
 0001:0000cde0       ?MegamapFrameThd@@YGKXZ    1000dde0 f   fullscreenminimap.obj
 0001:0000cfb0       ?Message@FullScreenMinimap@@QAE_NPAUHWND__@@IIJ@Z 1000dfb0 f   fullscreenminimap.obj
 0001:0000d010       ?QuitMegaMap@FullScreenMinimap@@QAEXXZ 1000e010 f   fullscreenminimap.obj
 0001:0000d030       ?ReleaseSurface@FullScreenMinimap@@QAEXXZ 1000e030 f   fullscreenminimap.obj
 0001:0000d090       ?Set@FullScreenMinimap@@QAEXH@Z 1000e090 f   fullscreenminimap.obj
 0001:0000d0d0       ?SetVid@FullScreenMinimap@@QAEXH@Z 1000e0d0 f   fullscreenminimap.obj
 0001:0000d0f0       ?UpdateFrame@FullScreenMinimap@@QAGXPAXPAU_DDSURFACEDESC@@@Z 1000e0f0 f   fullscreenminimap.obj
 0001:0000d430       ?gametimeupdate@@YGXXZ     1000e430 f   fullscreenminimap.obj
 0001:0000d450       ?writejmp@FullScreenMinimap@@QAEXII@Z 1000e450 f i fullscreenminimap.obj
 0001:0000d4a0       ?CopyGafSequenceToBits@@YGPAEPAEPAUtagPOINT@@PAU_GAFSequence@@H@Z 1000e4a0 f   gaf.obj
 0001:0000d510       ?CopyGafToBits@@YGXPAEPAUtagPOINT@@IIPAU_GAFFrame@@PAUtagRECT@@@Z 1000e510 f   gaf.obj
 0001:0000d5a0       ?CreateSurfByGafFrame@@YGPAUIDirectDrawSurface@@PAUIDirectDraw@@PAU_GAFFrame@@H@Z 1000e5a0 f   gaf.obj
 0001:0000d6f0       ?CreateSurfByGafSequence@@YGPAUIDirectDrawSurface@@PAUIDirectDraw@@PAU_GAFSequence@@_N@Z 1000e6f0 f   gaf.obj
 0001:0000d900       ?InstanceGAFFrame@@YGPAEPAU_GAFFrame@@PAPAEPAUtagPOINT@@@Z 1000e900 f   gaf.obj
 0001:0000d9b0       ??0GUIExpand@@QAE@XZ       1000e9b0 f   GuiExpand.obj
 0001:0000dbb0       ??1GUIExpand@@QAE@XZ       1000ebb0 f   GuiExpand.obj
 0001:0000dc50       ??_GFullScreenMinimap@@QAEPAXI@Z 1000ec50 f i GuiExpand.obj
 0001:0000dc90       ??_GMenuResolution@@QAEPAXI@Z 1000ec90 f i GuiExpand.obj
 0001:0000dcc0       ??_GShareDialogExpand@@QAEPAXI@Z 1000ecc0 f i GuiExpand.obj
 0001:0000dcf0       ?ApplySelectUnitMenu_Wapper@@YGXXZ 1000ecf0 f   HardCodeFunctions.obj
 0001:0000dd30       ?ChatText@@YGHPAD@Z        1000ed30 f   HardCodeFunctions.obj
 0001:0000dda0       ?CleanIDMaskInTypeAry@@YG_NGQAK@Z 1000eda0 f   HardCodeFunctions.obj
 0001:0000de00       ?CountSelectedUnits@@YGHXZ 1000ee00 f   HardCodeFunctions.obj
 0001:0000ded0       ?DeselectUnits@@YGXXZ      1000eed0 f   HardCodeFunctions.obj
 0001:0000df90       ?DrawDotteCircle@@YGHPAEPAUtagPOINT@@HHHHHH@Z 1000ef90 f   HardCodeFunctions.obj
 0001:0000e010       ?DrawRadarCircle@@YGHPAEPAUtagPOINT@@HHHH@Z 1000f010 f   HardCodeFunctions.obj
 0001:0000e090       ?DrawTextInScreen_ez@@YG_NPAU_OFFSCREEN@@PADHH@Z 1000f090 f   HardCodeFunctions.obj
 0001:0000e0c0       ?GetMaxScrollX@@YGHXZ      1000f0c0 f   HardCodeFunctions.obj
 0001:0000e100       ?GetMaxScrollY@@YGHXZ      1000f100 f   HardCodeFunctions.obj
 0001:0000e140       ?GetUnitIDMaskAryByCategory@@YGPAKPAD@Z 1000f140 f   HardCodeFunctions.obj
 0001:0000e1c0       ?IsPlayerAllyUnit@@YGHHH@Z 1000f1c0 f   HardCodeFunctions.obj
 0001:0000e270       ?MatchInTypeAry@@YG_NGQAK@Z 1000f270 f   HardCodeFunctions.obj
 0001:0000e2a0       ?PauseCDMusic@@YGHXZ       1000f2a0 f   HardCodeFunctions.obj
 0001:0000e2d0       ?ScrollToCenter@@YGXHH@Z   1000f2d0 f   HardCodeFunctions.obj
 0001:0000e390       ?SendOrder@@YGXIIIH_N@Z    1000f390 f   HardCodeFunctions.obj
 0001:0000e410       ?SetIDMaskInTypeAry@@YG_NGQAK@Z 1000f410 f   HardCodeFunctions.obj
 0001:0000e450       ?UpdateSelectUnitEffect@@YGXXZ 1000f450 f   HardCodeFunctions.obj
 0001:0000e490       ?UpdateTAProcess@@YGHXZ    1000f490 f   HardCodeFunctions.obj
 0001:0000e540       ?ViewPlayerLos_Replay@@YGHHH@Z 1000f540 f   HardCodeFunctions.obj
 0001:0000e740       ?freeTAMem@@YGXPAX@Z       1000f740 f   HardCodeFunctions.obj
 0001:0000e7b0       ?resumeOffScreen@@YGXXZ    1000f7b0 f   HardCodeFunctions.obj
 0001:0000e7c0       ?resumeScreenPlatte@@YGXXZ 1000f7c0 f   HardCodeFunctions.obj
 0001:0000e820       _sprintf_s                 1000f820 f i HardCodeFunctions.obj
 0001:0000e860       ??0ModifyHook@@QAE@IHKPAEKK@Z 1000f860 f   ModifyHook.obj
 0001:0000e910       ??0ModifyHook@@QAE@PAEHK0KK@Z 1000f910 f   ModifyHook.obj
 0001:0000e9c0       ??0ModifyHook@@QAE@XZ      1000f9c0 f   ModifyHook.obj
 0001:0000ea10       ??1ModifyHook@@QAE@XZ      1000fa10 f   ModifyHook.obj
 0001:0000ead0       ?Hook@ModifyHook@@UAEXXZ   1000fad0 f   ModifyHook.obj
 0001:0000ec10       ?InitHookClass@ModifyHook@@AAEXPAEHK0KK@Z 1000fc10 f   ModifyHook.obj
 0001:0000ee10       ??0_TAHPI@@QAE@H@Z         1000fe10 f   HPIfunc.obj
 0001:0000eef0       ??1_TAHPI@@QAE@XZ          1000fef0 f   HPIfunc.obj
 0001:0000ef40       ?TADontInit@@YGHPAUtagInlineX86StackBuffer@@@Z 1000ff40 f   HPIfunc.obj
 0001:0000ef60       ?fclose@_TAHPI@@QAEHPAU_OPENTAFILE@@@Z 1000ff60 f   HPIfunc.obj
 0001:0000ef80       ?filelen@_TAHPI@@QAEIPAU_OPENTAFILE@@@Z 1000ff80 f   HPIfunc.obj
 0001:0000efa0       ?filelength@_TAHPI@@QAEIPAD@Z 1000ffa0 f   HPIfunc.obj
 0001:0000efc0       ?fopen@_TAHPI@@QAEPAU_OPENTAFILE@@PAD0@Z 1000ffc0 f   HPIfunc.obj
 0001:0000efe0       ?free_readfile@_TAHPI@@QAEXPAD@Z 1000ffe0 f   HPIfunc.obj
 0001:0000f000       ?read@_TAHPI@@QAEHPAU_OPENTAFILE@@PAXH@Z 10010000 f   HPIfunc.obj
 0001:0000f020       ?readfile@_TAHPI@@QAEPADPADPAI@Z 10010020 f   HPIfunc.obj
 0001:0000f040       ??0IDDraw@@QAE@PAUIDirectDraw@@_N@Z 10010040 f   iddraw.obj
 0001:0000f0e0       ??0IDirectDraw@@QAE@XZ     100100e0 f i iddraw.obj
 0001:0000f100       ??0IUnknown@@QAE@XZ        10010100 f i iddraw.obj
 0001:0000f110       ?AddRef@IDDraw@@UAGKXZ     10010110 f   iddraw.obj
 0001:0000f140       ?Compact@IDDraw@@UAGJXZ    10010140 f   iddraw.obj
 0001:0000f170       ?CreateClipper@IDDraw@@UAGJKPAPAUIDirectDrawClipper@@PAUIUnknown@@@Z 10010170 f   iddraw.obj
 0001:0000f1b0       ?CreatePalette@IDDraw@@UAGJKPAUtagPALETTEENTRY@@PAPAUIDirectDrawPalette@@PAUIUnknown@@@Z 100101b0 f   iddraw.obj
 0001:0000f1f0       ?CreateSurface@IDDraw@@UAGJPAU_DDSURFACEDESC@@PAPAUIDirectDrawSurface@@PAUIUnknown@@@Z 100101f0 f   iddraw.obj
 0001:0000f2b0       ?DuplicateSurface@IDDraw@@UAGJPAUIDirectDrawSurface@@PAPAU2@@Z 100102b0 f   iddraw.obj
 0001:0000f2e0       ?EnumDisplayModes@IDDraw@@UAGJKPAU_DDSURFACEDESC@@PAXP6GJ01@Z@Z 100102e0 f   iddraw.obj
 0001:0000f320       ?EnumSurfaces@IDDraw@@UAGJKPAU_DDSURFACEDESC@@PAXP6GJPAUIDirectDrawSurface@@01@Z@Z 10010320 f   iddraw.obj
 0001:0000f360       ?FlipToGDISurface@IDDraw@@UAGJXZ 10010360 f   iddraw.obj
 0001:0000f390       ?GetCaps@IDDraw@@UAGJPAU_DDCAPS_DX7@@0@Z 10010390 f   iddraw.obj
 0001:0000f3c0       ?GetDisplayMode@IDDraw@@UAGJPAU_DDSURFACEDESC@@@Z 100103c0 f   iddraw.obj
 0001:0000f3f0       ?GetFourCCCodes@IDDraw@@UAGJPAK0@Z 100103f0 f   iddraw.obj
 0001:0000f420       ?GetGDISurface@IDDraw@@UAGJPAPAUIDirectDrawSurface@@@Z 10010420 f   iddraw.obj
 0001:0000f450       ?GetMonitorFrequency@IDDraw@@UAGJPAK@Z 10010450 f   iddraw.obj
 0001:0000f480       ?GetScanLine@IDDraw@@UAGJPAK@Z 10010480 f   iddraw.obj
 0001:0000f4b0       ?GetVerticalBlankStatus@IDDraw@@UAGJPAH@Z 100104b0 f   iddraw.obj
 0001:0000f4e0       ?Initialize@IDDraw@@UAGJPAU_GUID@@@Z 100104e0 f   iddraw.obj
 0001:0000f510       ?QueryInterface@IDDraw@@UAGJABU_GUID@@PAPAX@Z 10010510 f   iddraw.obj
 0001:0000f540       ?Release@IDDraw@@UAGKXZ    10010540 f   iddraw.obj
 0001:0000f590       ?RestoreDisplayMode@IDDraw@@UAGJXZ 10010590 f   iddraw.obj
 0001:0000f5c0       ?SetCooperativeLevel@IDDraw@@UAGJPAUHWND__@@K@Z 100105c0 f   iddraw.obj
 0001:0000f620       ?SetDisplayMode@IDDraw@@UAGJKKK@Z 10010620 f   iddraw.obj
 0001:0000f690       ?WaitForVerticalBlank@IDDraw@@UAGJKPAX@Z 10010690 f   iddraw.obj
 0001:0000f6c0       ?resume@IDDraw@@QAGXXZ     100106c0 f   iddraw.obj
 0001:0000f6f0       ??0IDDrawSurface@@QAE@PAUIDirectDraw@@PAU_DDSURFACEDESC@@PAPAUIDirectDrawSurface@@PAUIUnknown@@PAJ_NHH@Z 100106f0 f   iddrawsurface.obj
 0001:0000fb90       ??0IDirectDrawSurface@@QAE@XZ 10010b90 f i iddrawsurface.obj
 0001:0000fbb0       ??_GCChangeQueue@@QAEPAXI@Z 10010bb0 f i iddrawsurface.obj
 0001:0000fbe0       ??_GCDDDTA@@QAEPAXI@Z      10010be0 f i iddrawsurface.obj
 0001:0000fc10       ??_GCTAHook@@QAEPAXI@Z     10010c10 f i iddrawsurface.obj
 0001:0000fc50       ??_GCWarp@@QAEPAXI@Z       10010c50 f i iddrawsurface.obj
 0001:0000fc80       ?AddAttachedSurface@IDDrawSurface@@UAGJPAUIDirectDrawSurface@@@Z 10010c80 f   iddrawsurface.obj
 0001:0000fcb0       ?AddOverlayDirtyRect@IDDrawSurface@@UAGJPAUtagRECT@@@Z 10010cb0 f   iddrawsurface.obj
 0001:0000fce0       ?AddRef@IDDrawSurface@@UAGKXZ 10010ce0 f   iddrawsurface.obj
 0001:0000fd10       ?Blt@IDDrawSurface@@UAGJPAUtagRECT@@PAUIDirectDrawSurface@@0KPAU_DDBLTFX@@@Z 10010d10 f   iddrawsurface.obj
 0001:0000fd60       ?BltBatch@IDDrawSurface@@UAGJPAU_DDBLTBATCH@@KK@Z 10010d60 f   iddrawsurface.obj
 0001:0000fda0       ?BltFast@IDDrawSurface@@UAGJKKPAUIDirectDrawSurface@@PAUtagRECT@@K@Z 10010da0 f   iddrawsurface.obj
 0001:0000fde0       ?CorrectName@IDDrawSurface@@QAEXPAD@Z 10010de0 f   iddrawsurface.obj
 0001:0000fe40       ?CreateClipplist@IDDrawSurface@@QAEXXZ 10010e40 f   iddrawsurface.obj
 0001:000100a0       ?CreateDir@IDDrawSurface@@QAEXPAD@Z 100110a0 f   iddrawsurface.obj
 0001:00010140       ?CreateFileName@IDDrawSurface@@AAEXPADH@Z 10011140 f   iddrawsurface.obj
 0001:00010390       ?DeInterlace@IDDrawSurface@@AAEXXZ 10011390 f   iddrawsurface.obj
 0001:00010450       ?DeleteAttachedSurface@IDDrawSurface@@UAGJKPAUIDirectDrawSurface@@@Z 10011450 f   iddrawsurface.obj
 0001:00010490       ?EnumAttachedSurfaces@IDDrawSurface@@UAGJPAXP6GJPAUIDirectDrawSurface@@PAU_DDSURFACEDESC@@0@Z@Z 10011490 f   iddrawsurface.obj
 0001:000104d0       ?EnumOverlayZOrders@IDDrawSurface@@UAGJKPAXP6GJPAUIDirectDrawSurface@@PAU_DDSURFACEDESC@@0@Z@Z 100114d0 f   iddrawsurface.obj
 0001:00010510       ?Flip@IDDrawSurface@@UAGJPAUIDirectDrawSurface@@K@Z 10011510 f   iddrawsurface.obj
 0001:00010550       ?FrontSurface@IDDrawSurface@@QAEXPAUIDirectDrawSurface@@@Z 10011550 f   iddrawsurface.obj
 0001:00010570       ?GetAttachedSurface@IDDrawSurface@@UAGJPAU_DDSCAPS@@PAPAUIDirectDrawSurface@@@Z 10011570 f   iddrawsurface.obj
 0001:000105d0       ?GetBltStatus@IDDrawSurface@@UAGJK@Z 100115d0 f   iddrawsurface.obj
 0001:00010600       ?GetCaps@IDDrawSurface@@UAGJPAU_DDSCAPS@@@Z 10011600 f   iddrawsurface.obj
 0001:00010630       ?GetClipper@IDDrawSurface@@UAGJPAPAUIDirectDrawClipper@@@Z 10011630 f   iddrawsurface.obj
 0001:00010660       ?GetColorKey@IDDrawSurface@@UAGJKPAU_DDCOLORKEY@@@Z 10011660 f   iddrawsurface.obj
 0001:000106a0       ?GetDC@IDDrawSurface@@UAGJPAPAUHDC__@@@Z 100116a0 f   iddrawsurface.obj
 0001:000106d0       ?GetFlipStatus@IDDrawSurface@@UAGJK@Z 100116d0 f   iddrawsurface.obj
 0001:00010700       ?GetOverlayPosition@IDDrawSurface@@UAGJPAJ0@Z 10011700 f   iddrawsurface.obj
 0001:00010740       ?GetPalette@IDDrawSurface@@UAGJPAPAUIDirectDrawPalette@@@Z 10011740 f   iddrawsurface.obj
 0001:00010770       ?GetPixelFormat@IDDrawSurface@@UAGJPAU_DDPIXELFORMAT@@@Z 10011770 f   iddrawsurface.obj
 0001:000107a0       ?GetSurfaceDesc@IDDrawSurface@@UAGJPAU_DDSURFACEDESC@@@Z 100117a0 f   iddrawsurface.obj
 0001:000107d0       ?Initialize@IDDrawSurface@@UAGJPAUIDirectDraw@@PAU_DDSURFACEDESC@@@Z 100117d0 f   iddrawsurface.obj
 0001:00010810       ?IsLost@IDDrawSurface@@UAGJXZ 10011810 f   iddrawsurface.obj
 0001:00010870       ?Lock@IDDrawSurface@@UAGJPAUtagRECT@@PAU_DDSURFACEDESC@@KPAX@Z 10011870 f   iddrawsurface.obj
 0001:00010970       ?OutptInt@IDDrawSurface@@SGXH@Z 10011970 f   iddrawsurface.obj
 0001:000109a0       ?OutptTxt@IDDrawSurface@@SGXPAD@Z 100119a0 f   iddrawsurface.obj
 0001:000109b0       ?QueryInterface@IDDrawSurface@@UAGJABU_GUID@@PAPAX@Z 100119b0 f   iddrawsurface.obj
 0001:000109f0       ?Release@IDDrawSurface@@UAGKXZ 100119f0 f   iddrawsurface.obj
 0001:00010bf0       ?ReleaseDC@IDDrawSurface@@UAGJPAUHDC__@@@Z 10011bf0 f   iddrawsurface.obj
 0001:00010c20       ?Restore@IDDrawSurface@@UAGJXZ 10011c20 f   iddrawsurface.obj
 0001:00010c80       ?ScreenShot@IDDrawSurface@@QAEXXZ 10011c80 f   iddrawsurface.obj
 0001:00010e80       ?Set@IDDrawSurface@@QAEX_N@Z 10011e80 f   iddrawsurface.obj
 0001:00010ea0       ?SetClipper@IDDrawSurface@@UAGJPAUIDirectDrawClipper@@@Z 10011ea0 f   iddrawsurface.obj
 0001:00010ed0       ?SetColorKey@IDDrawSurface@@UAGJKPAU_DDCOLORKEY@@@Z 10011ed0 f   iddrawsurface.obj
 0001:00010f10       ?SetOverlayPosition@IDDrawSurface@@UAGJJJ@Z 10011f10 f   iddrawsurface.obj
 0001:00010f50       ?SetPalette@IDDrawSurface@@UAGJPAUIDirectDrawPalette@@@Z 10011f50 f   iddrawsurface.obj
 0001:00010f90       ?Unlock@IDDrawSurface@@UAGJPAX@Z 10011f90 f   iddrawsurface.obj
 0001:00011200       ?UpdateOverlay@IDDrawSurface@@UAGJPAUtagRECT@@PAUIDirectDrawSurface@@0KPAU_DDOVERLAYFX@@@Z 10012200 f   iddrawsurface.obj
 0001:00011240       ?UpdateOverlayDisplay@IDDrawSurface@@UAGJK@Z 10012240 f   iddrawsurface.obj
 0001:00011270       ?UpdateOverlayZOrder@IDDrawSurface@@UAGJKPAUIDirectDrawSurface@@@Z 10012270 f   iddrawsurface.obj
 0001:000112a0       ?WinProc@@YGJPAUHWND__@@IIJ@Z 100122a0 f   iddrawsurface.obj
 0001:00011660       ?strstr@@YAPADQADQBD@Z     10012660 f i iddrawsurface.obj
 0001:000116c0       ??0TAGameAreaReDrawer@@QAE@XZ 100126c0 f   GameRedrawer.obj
 0001:000116f0       ??1TAGameAreaReDrawer@@QAE@XZ 100126f0 f   GameRedrawer.obj
 0001:00011740       ?Cls@TAGameAreaReDrawer@@QAEXXZ 10012740 f   GameRedrawer.obj
 0001:000117a0       ?Flip@TAGameAreaReDrawer@@QAEPAEXZ 100127a0 f   GameRedrawer.obj
 0001:000117e0       ?GrayBlitOfBits@TAGameAreaReDrawer@@QAEHPAUtagRECT@@PAEPAUtagPOINT@@0H@Z 100127e0 f   GameRedrawer.obj
 0001:00011b00       ?InitOwnSurface@TAGameAreaReDrawer@@QAEPAEPAUIDirectDraw@@H@Z 10012b00 f   GameRedrawer.obj
 0001:00011c00       ?MixBitsInBlit@TAGameAreaReDrawer@@QAEHPAUtagRECT@@PAEPAUtagPOINT@@0@Z 10012c00 f   GameRedrawer.obj
 0001:00011eb0       ?MixDSufInBlit@TAGameAreaReDrawer@@QAEHPAEPAUtagRECT@@01@Z 10012eb0 f   GameRedrawer.obj
 0001:00011f40       ?ReleaseSurface@TAGameAreaReDrawer@@QAEXXZ 10012f40 f   GameRedrawer.obj
 0001:00011f90       ?TAWGameAreaRect@TAGameAreaReDrawer@@QAEQAUtagRECT@@PAU2@@Z 10012f90 f   GameRedrawer.obj
 0001:00012000       ?backSurface_p@TAGameAreaReDrawer@@QAEQAEXZ 10013000 f   GameRedrawer.obj
 0001:00012020       ?frontSurface_p@TAGameAreaReDrawer@@QAEQAEXZ 10013020 f   GameRedrawer.obj
 0001:00012040       ??0MiniMapPicture@@QAE@HH@Z 10013040 f   MapParse.obj
 0001:00012090       ??0TNTtoMiniMap@@QAE@KK@Z  10013090 f   MapParse.obj
 0001:00012190       ??0TNTtoMiniMap@@QAE@XZ    10013190 f   MapParse.obj
 0001:00012290       ??1MiniMapPicture@@QAE@XZ  10013290 f   MapParse.obj
 0001:000122c0       ??1TNTtoMiniMap@@QAE@XZ    100132c0 f   MapParse.obj
 0001:00012360       ??_GMiniMapPicture@@QAEPAXI@Z 10013360 f i MapParse.obj
 0001:00012390       ?DrawMiniMap@MiniMapPicture@@QAEHPAEPAUtagRECT@@HH1@Z 10013390 f   MapParse.obj
 0001:00012720       ?DrawMiniMap@TNTtoMiniMap@@QAEHPAEHH@Z 10013720 f   MapParse.obj
 0001:00012770       ?DrawRectMapToBuf@TNTtoMiniMap@@AAEPAEPAPAEPAUtagTNTHeaderStruct@@PAUtagRECT@@@Z 10013770 f   MapParse.obj
 0001:000127f0       ?MapFromTNTFileA@TNTtoMiniMap@@QAEXPAD@Z 100137f0 f   MapParse.obj
 0001:000128e0       ?MapFromTNTInMem@TNTtoMiniMap@@QAEXPAX@Z 100138e0 f   MapParse.obj
 0001:00012910       ?MapFromValidTNTHeader@TNTtoMiniMap@@QAEXPAUtagTNTHeaderStruct@@@Z 10013910 f   MapParse.obj
 0001:00012970       ?ParseMyTNTHeader@TNTtoMiniMap@@QAEPAUtagTNTHeaderStruct@@PAU2@@Z 10013970 f   MapParse.obj
 0001:00012a10       ?PictureInfo@MiniMapPicture@@QAEPAEPAPAEPAUtagPOINT@@@Z 10013a10 f   MapParse.obj
 0001:00012a40       ?PictureInfo@TNTtoMiniMap@@QAEPAEPAPAEPAUtagPOINT@@@Z 10013a40 f   MapParse.obj
 0001:00012a60       ?StretchTAMapToMiniMap@MiniMapPicture@@QAEPAEPAEPAUtagRECT@@@Z 10013a60 f   MapParse.obj
 0001:00012c90       ?StretchTATNTDataToMiniMap@MiniMapPicture@@QAEPAEPAUtagTNTHeaderStruct@@@Z 10013c90 f   MapParse.obj
 0001:000130c0       ??0MenuResolution@@QAE@H@Z 100140c0 f   MenuResolution.obj
 0001:00013130       ??0MenuResolution@@QAE@HH@Z 10014130 f   MenuResolution.obj
 0001:000131c0       ??1MenuResolution@@QAE@XZ  100141c0 f   MenuResolution.obj
 0001:00013200       ?InstallHook@MenuResolution@@AAEXXZ 10014200 f   MenuResolution.obj
 0001:00013440       ?UninstallHook@MenuResolution@@AAEXXZ 10014440 f   MenuResolution.obj
 0001:000135a0       ?sub_00491A75@@YGHPAUtagInlineX86StackBuffer@@@Z 100145a0 f   MenuResolution.obj
 0001:00013660       ?sub_00491B01@@YGHPAUtagInlineX86StackBuffer@@@Z 10014660 f   MenuResolution.obj
 0001:00013710       ?sub_0049E91C@@YGHPAUtagInlineX86StackBuffer@@@Z 10014710 f   MenuResolution.obj
 0001:00013780       ?sub_0049E93B@@YGHPAUtagInlineX86StackBuffer@@@Z 10014780 f   MenuResolution.obj
 0001:00013800       ??0ModifyWeaponPacket@@QAE@H@Z 10014800 f   MultiGameWeaponID.obj
 0001:00013840       ??0ModifyWeaponPacket@@QAE@XZ 10014840 f   MultiGameWeaponID.obj
 0001:00013870       ??1ModifyWeaponPacket@@QAE@XZ 10014870 f   MultiGameWeaponID.obj
 0001:00013a00       ??_GModifyHook@@QAEPAXI@Z  10014a00 f i MultiGameWeaponID.obj
 0001:00013a30       ?EnsureDplayx@ModifyWeaponPacket@@AAEXH@Z 10014a30 f   MultiGameWeaponID.obj
 0001:00014050       ?FeaturePacket@ModifyWeaponPacket@@AAEXH@Z 10015050 f   MultiGameWeaponID.obj
 0001:00014200       ?ModifyRoutine@ModifyWeaponPacket@@AAEXH@Z 10015200 f   MultiGameWeaponID.obj
 0001:00014310       ??$?0$$V@?$_Compressed_pair@V?$allocator@UTAShareMemStruct@CDDDTA@@@std@@V?$_Deque_val@U?$_Deque_simple_types@UTAShareMemStruct@CDDDTA@@@std@@@2@$00@std@@QAE@U_Zero_then_variadic_args_t@1@@Z 10015310 f i dddta.obj
 0001:00014330       ??$?0UTAShareMemStruct@CDDDTA@@@?$allocator@PAUTAShareMemStruct@CDDDTA@@@std@@QAE@ABV?$allocator@UTAShareMemStruct@CDDDTA@@@1@@Z 10015330 f i dddta.obj
 0001:00014340       ??$?0UTAShareMemStruct@CDDDTA@@@?$allocator@U_Container_proxy@std@@@std@@QAE@ABV?$allocator@UTAShareMemStruct@CDDDTA@@@1@@Z 10015340 f i dddta.obj
 0001:00014350       ??$_Adl_verify_range@PAPAUTAShareMemStruct@CDDDTA@@PAPAU12@@std@@YGXABQAPAUTAShareMemStruct@CDDDTA@@0@Z 10015350 f i dddta.obj
 0001:00014360       ??$_Alloc_proxy@V?$allocator@U_Container_proxy@std@@@std@@@_Container_base12@std@@QAEX$$QAV?$allocator@U_Container_proxy@std@@@1@@Z 10015360 f i dddta.obj
 0001:000143b0       ??$_Construct_in_place@PAUTAShareMemStruct@CDDDTA@@AAPAU12@@std@@YGXAAPAUTAShareMemStruct@CDDDTA@@0@Z 100153b0 f i dddta.obj
 0001:000143f0       ??$_Construct_in_place@U_Container_proxy@std@@PAU_Container_base12@2@@std@@YGXAAU_Container_proxy@0@$$QAPAU_Container_base12@0@@Z 100153f0 f i dddta.obj
 0001:00014430       ??$_Copy_memmove@PAPAUTAShareMemStruct@CDDDTA@@PAPAU12@@std@@YGPAPAUTAShareMemStruct@CDDDTA@@PAPAU12@00@Z 10015430 f i dddta.obj
 0001:000144a0       ??$_Deallocate_plain@V?$allocator@U_Container_proxy@std@@@std@@@std@@YGXAAV?$allocator@U_Container_proxy@std@@@0@QAU_Container_proxy@0@@Z 100154a0 f i dddta.obj
 0001:000144e0       ??$_Delete_plain_internal@V?$allocator@U_Container_proxy@std@@@std@@@std@@YGXAAV?$allocator@U_Container_proxy@std@@@0@QAU_Container_proxy@0@@Z 100154e0 f i dddta.obj
 0001:00014500       ??$_Destroy_in_place@PAUTAShareMemStruct@CDDDTA@@@std@@YGXAAPAUTAShareMemStruct@CDDDTA@@@Z 10015500 f i dddta.obj
 0001:00014510       ??$_Destroy_range@PAPAUTAShareMemStruct@CDDDTA@@PAPAU12@@std@@YGXPAPAUTAShareMemStruct@CDDDTA@@QAPAU12@@Z 10015510 f i dddta.obj
 0001:00014520       ??$_Emplace_back@AAPAUTAShareMemStruct@CDDDTA@@@?$_Uninitialized_backout@PAPAUTAShareMemStruct@CDDDTA@@@std@@QAEXAAPAUTAShareMemStruct@CDDDTA@@@Z 10015520 f i dddta.obj
 0001:00014560       ??$_Get_size_of_n@$03@std@@YGII@Z 10015560 f i dddta.obj
 0001:00014590       ??$_Get_size_of_n@$07@std@@YGII@Z 10015590 f i dddta.obj
 0001:000145c0       ??$_Get_size_of_n@$0BE@@std@@YGII@Z 100155c0 f i dddta.obj
 0001:000145f0       ??$_Get_unwrapped@ABQAPAUTAShareMemStruct@CDDDTA@@@std@@YG?A_TABQAPAUTAShareMemStruct@CDDDTA@@@Z 100155f0 f i dddta.obj
 0001:00014600       ??$_Get_unwrapped_n@AAPAPAUTAShareMemStruct@CDDDTA@@H@std@@YG?A_TAAPAPAUTAShareMemStruct@CDDDTA@@H@Z 10015600 f i dddta.obj
 0001:00014610       ??$_Idl_distance@PAPAUTAShareMemStruct@CDDDTA@@PAPAU12@@std@@YG?A_PABQAPAUTAShareMemStruct@CDDDTA@@0@Z 10015610 f i dddta.obj
 0001:00014630       ??$_Seek_wrapped@PAPAUTAShareMemStruct@CDDDTA@@PAPAU12@@std@@YGXAAPAPAUTAShareMemStruct@CDDDTA@@$$QAPAPAU12@@Z 10015630 f i dddta.obj
 0001:00014650       ??$_To_address@PAPAUTAShareMemStruct@CDDDTA@@@std@@YG?A_PABQAPAUTAShareMemStruct@CDDDTA@@@Z 10015650 f i dddta.obj
 0001:00014660       ??$_Unfancy@UTAShareMemStruct@CDDDTA@@@std@@YGPAUTAShareMemStruct@CDDDTA@@PAU12@@Z 10015660 f i dddta.obj
 0001:00014670       ??$_Unfancy@U_Container_proxy@std@@@std@@YGPAU_Container_proxy@0@PAU10@@Z 10015670 f i dddta.obj
 0001:00014680       ??$_Uninitialized_copy_unchecked@PAPAUTAShareMemStruct@CDDDTA@@PAPAU12@@std@@YGPAPAUTAShareMemStruct@CDDDTA@@PAPAU12@QAPAU12@0@Z 10015680 f i dddta.obj
 0001:00014710       ??$_Uninitialized_value_construct_n_unchecked1@PAPAUTAShareMemStruct@CDDDTA@@I@std@@YGPAPAUTAShareMemStruct@CDDDTA@@PAPAU12@I@Z 10015710 f i dddta.obj
 0001:00014730       ??$_Voidify_iter@PAPAUTAShareMemStruct@CDDDTA@@@std@@YGPAXPAPAUTAShareMemStruct@CDDDTA@@@Z 10015730 f i dddta.obj
 0001:00014740       ??$_Voidify_iter@PAUTAShareMemStruct@CDDDTA@@@std@@YGPAXPAUTAShareMemStruct@CDDDTA@@@Z 10015740 f i dddta.obj
 0001:00014750       ??$_Voidify_iter@PAU_Container_proxy@std@@@std@@YGPAXPAU_Container_proxy@0@@Z 10015750 f i dddta.obj
 0001:00014760       ??$_Zero_range@PAPAUTAShareMemStruct@CDDDTA@@@std@@YGPAPAUTAShareMemStruct@CDDDTA@@QAPAU12@0@Z 10015760 f i dddta.obj
 0001:000147a0       ??$addressof@PAUTAShareMemStruct@CDDDTA@@@std@@YGPAPAUTAShareMemStruct@CDDDTA@@AAPAU12@@Z 100157a0 f i dddta.obj
 0001:000147b0       ??$addressof@U_Container_proxy@std@@@std@@YGPAU_Container_proxy@0@AAU10@@Z 100157b0 f i dddta.obj
 0001:000147c0       ??$addressof@V?$_Deque_val@U?$_Deque_simple_types@UTAShareMemStruct@CDDDTA@@@std@@@std@@@std@@YGPAV?$_Deque_val@U?$_Deque_simple_types@UTAShareMemStruct@CDDDTA@@@std@@@0@AAV10@@Z 100157c0 f i dddta.obj
 0001:000147d0       ??$construct@UTAShareMemStruct@CDDDTA@@ABU12@@?$_Default_allocator_traits@V?$allocator@UTAShareMemStruct@CDDDTA@@@std@@@std@@SGXAAV?$allocator@UTAShareMemStruct@CDDDTA@@@1@QAUTAShareMemStruct@CDDDTA@@ABU34@@Z 100157d0 f i dddta.obj
 0001:00014820       ??$destroy@UTAShareMemStruct@CDDDTA@@@?$_Default_allocator_traits@V?$allocator@UTAShareMemStruct@CDDDTA@@@std@@@std@@SGXAAV?$allocator@UTAShareMemStruct@CDDDTA@@@1@QAUTAShareMemStruct@CDDDTA@@@Z 10015820 f i dddta.obj
 0001:00014830       ??$emplace_front@ABUTAShareMemStruct@CDDDTA@@@?$deque@UTAShareMemStruct@CDDDTA@@V?$allocator@UTAShareMemStruct@CDDDTA@@@std@@@std@@QAE?A_TABUTAShareMemStruct@CDDDTA@@@Z 10015830 f i dddta.obj
 0001:00014990       ??$exchange@PAU_Container_proxy@std@@$$T@std@@YGPAU_Container_proxy@0@AAPAU10@$$QA$$T@Z 10015990 f i dddta.obj
 0001:000149b0       ??$forward@AAPAUTAShareMemStruct@CDDDTA@@@std@@YGAAPAUTAShareMemStruct@CDDDTA@@AAPAU12@@Z 100159b0 f i dddta.obj
 0001:000149c0       ??$forward@ABUTAShareMemStruct@CDDDTA@@@std@@YGABUTAShareMemStruct@CDDDTA@@ABU12@@Z 100159c0 f i dddta.obj
 0001:000149d0       ??$forward@PAPAUTAShareMemStruct@CDDDTA@@@std@@YG$$QAPAPAUTAShareMemStruct@CDDDTA@@AAPAPAU12@@Z 100159d0 f i dddta.obj
 0001:000149e0       ??$forward@PAU_Container_base12@std@@@std@@YG$$QAPAU_Container_base12@0@AAPAU10@@Z 100159e0 f i dddta.obj
 0001:000149f0       ??$uninitialized_copy@PAPAUTAShareMemStruct@CDDDTA@@PAPAU12@@std@@YGPAPAUTAShareMemStruct@CDDDTA@@QAPAU12@0PAPAU12@@Z 100159f0 f i dddta.obj
 0001:00014a60       ??0?$_Deque_unchecked_const_iterator@V?$_Deque_val@U?$_Deque_simple_types@UTAShareMemStruct@CDDDTA@@@std@@@std@@@std@@QAE@IPBU_Container_base12@1@@Z 10015a60 f i dddta.obj
 0001:00014a90       ??0?$_Deque_unchecked_iterator@V?$_Deque_val@U?$_Deque_simple_types@UTAShareMemStruct@CDDDTA@@@std@@@std@@@std@@QAE@IPBU_Container_base12@1@@Z 10015a90 f i dddta.obj
 0001:00014ab0       ??0?$_Deque_val@U?$_Deque_simple_types@UTAShareMemStruct@CDDDTA@@@std@@@std@@QAE@XZ 10015ab0 f i dddta.obj
 0001:00014af0       ??0?$_Uninitialized_backout@PAPAUTAShareMemStruct@CDDDTA@@@std@@QAE@PAPAUTAShareMemStruct@CDDDTA@@@Z 10015af0 f i dddta.obj
 0001:00014b20       ??0?$allocator@UTAShareMemStruct@CDDDTA@@@std@@QAE@XZ 10015b20 f i dddta.obj
 0001:00014b30       ??0?$deque@UTAShareMemStruct@CDDDTA@@V?$allocator@UTAShareMemStruct@CDDDTA@@@std@@@std@@QAE@XZ 10015b30 f i dddta.obj
 0001:00014b70       ??0CDDDTA@@QAE@XZ          10015b70 f   dddta.obj
 0001:00014c50       ??0_Container_base12@std@@QAE@XZ 10015c50 f i dddta.obj
 0001:00014c70       ??0_Container_proxy@std@@QAE@PAU_Container_base12@1@@Z 10015c70 f i dddta.obj
 0001:00014ca0       ??1?$_Uninitialized_backout@PAPAUTAShareMemStruct@CDDDTA@@@std@@QAE@XZ 10015ca0 f i dddta.obj
 0001:00014cc0       ??1?$deque@UTAShareMemStruct@CDDDTA@@V?$allocator@UTAShareMemStruct@CDDDTA@@@std@@@std@@QAE@XZ 10015cc0 f i dddta.obj
 0001:00014d10       ??1CDDDTA@@QAE@XZ          10015d10 f   dddta.obj
 0001:00014d70       ??A?$deque@UTAShareMemStruct@CDDDTA@@V?$allocator@UTAShareMemStruct@CDDDTA@@@std@@@std@@QAEAAUTAShareMemStruct@CDDDTA@@I@Z 10015d70 f i dddta.obj
 0001:00014db0       ??D?$_Deque_unchecked_const_iterator@V?$_Deque_val@U?$_Deque_simple_types@UTAShareMemStruct@CDDDTA@@@std@@@std@@@std@@QBEABUTAShareMemStruct@CDDDTA@@XZ 10015db0 f i dddta.obj
 0001:00014e00       ??D?$_Deque_unchecked_iterator@V?$_Deque_val@U?$_Deque_simple_types@UTAShareMemStruct@CDDDTA@@@std@@@std@@@std@@QBEAAUTAShareMemStruct@CDDDTA@@XZ 10015e00 f i dddta.obj
 0001:00014e20       ??H?$_Deque_unchecked_iterator@V?$_Deque_val@U?$_Deque_simple_types@UTAShareMemStruct@CDDDTA@@@std@@@std@@@std@@QBE?AV01@H@Z 10015e20 f i dddta.obj
 0001:00014e60       ??Y?$_Deque_unchecked_const_iterator@V?$_Deque_val@U?$_Deque_simple_types@UTAShareMemStruct@CDDDTA@@@std@@@std@@@std@@QAEAAV01@H@Z 10015e60 f i dddta.obj
 0001:00014e80       ??Y?$_Deque_unchecked_iterator@V?$_Deque_val@U?$_Deque_simple_types@UTAShareMemStruct@CDDDTA@@@std@@@std@@@std@@QAEAAV01@H@Z 10015e80 f i dddta.obj
 0001:00014ea0       ?Blit@CDDDTA@@QAEXPAUIDirectDrawSurface@@@Z 10015ea0 f   dddta.obj
 0001:00014ff0       ?ChatStrnCpy@@YAPADPADPBDI@Z 10015ff0 f   dddta.obj
 0001:00015030       ?CheckMessages@CDDDTA@@AAEXXZ 10016030 f   dddta.obj
 0001:00015180       ?CreateSharedTAMem@CDDDTA@@AAEXHHPAD@Z 10016180 f   dddta.obj
 0001:000152a0       ?DeInitDDDTA@CDDDTA@@QAEXXZ 100162a0 f   dddta.obj
 0001:00015340       ?DeleteMem@@YAXPAX@Z       10016340 f   dddta.obj
 0001:00015370       ?FrameUpdate@CDDDTA@@QAEXXZ 10016370 f   dddta.obj
 0001:000154c0       ?InitDDDTA@CDDDTA@@AAEXXZ  100164c0 f   dddta.obj
 0001:00015860       ?Message@CDDDTA@@QAE_NPAUHWND__@@IIJ@Z 10016860 f   dddta.obj
 0001:00015930       ?Moo@CDDDTA@@QAEXXZ        10016930 f   dddta.obj
 0001:000159d0       ?Print@CDDDTA@@AAEXPAUHDC__@@PAUPrimitiveStruct@@@Z 100169d0 f   dddta.obj
 0001:00015b30       ?RestoreAllSharedTAMem@CDDDTA@@AAEXXZ 10016b30 f   dddta.obj
 0001:00015c00       ?SendTextToSpring@CDDDTA@@QAEXPBD@Z 10016c00 f   dddta.obj
 0001:00015cb0       ?SetActiveUnit@CDDDTA@@AAEXPAUBeginUnitsArray_p@@PAUUnitStruct@@@Z 10016cb0 f i dddta.obj
 0001:00015db0       ?WriteExplosion@CDDDTA@@AAEXXZ 10016db0 f   dddta.obj
 0001:000160e0       ?WriteProjectiles@CDDDTA@@AAEXXZ 100170e0 f   dddta.obj
 0001:000162c0       ?WriteSmoke@CDDDTA@@AAEXXZ 100172c0 f   dddta.obj
 0001:00016550       ?WriteSubPart@CDDDTA@@AAEXPAUSubPart@@PAUPrimitiveStruct@@@Z 10017550 f   dddta.obj
 0001:00016640       ?WriteUnits@CDDDTA@@AAEXXZ 10017640 f   dddta.obj
 0001:00016740       ?_Get_data@?$deque@UTAShareMemStruct@CDDDTA@@V?$allocator@UTAShareMemStruct@CDDDTA@@@std@@@std@@AAEAAV?$_Deque_val@U?$_Deque_simple_types@UTAShareMemStruct@CDDDTA@@@std@@@2@XZ 10017740 f i dddta.obj
 0001:00016750       ?_Get_data@?$deque@UTAShareMemStruct@CDDDTA@@V?$allocator@UTAShareMemStruct@CDDDTA@@@std@@@std@@ABEABV?$_Deque_val@U?$_Deque_simple_types@UTAShareMemStruct@CDDDTA@@@std@@@2@XZ 10017750 f i dddta.obj
 0001:00016760       ?_Get_first@?$_Compressed_pair@V?$allocator@UTAShareMemStruct@CDDDTA@@@std@@V?$_Deque_val@U?$_Deque_simple_types@UTAShareMemStruct@CDDDTA@@@std@@@2@$00@std@@QAEAAV?$allocator@UTAShareMemStruct@CDDDTA@@@2@XZ 10017760 f i dddta.obj
 0001:00016770       ?_Get_first@?$_Compressed_pair@V?$allocator@UTAShareMemStruct@CDDDTA@@@std@@V?$_Deque_val@U?$_Deque_simple_types@UTAShareMemStruct@CDDDTA@@@std@@@2@$00@std@@QBEABV?$allocator@UTAShareMemStruct@CDDDTA@@@2@XZ 10017770 f i dddta.obj
 0001:00016780       ?_Getal@?$deque@UTAShareMemStruct@CDDDTA@@V?$allocator@UTAShareMemStruct@CDDDTA@@@std@@@std@@AAEAAV?$allocator@UTAShareMemStruct@CDDDTA@@@2@XZ 10017780 f i dddta.obj
 0001:000167a0       ?_Getal@?$deque@UTAShareMemStruct@CDDDTA@@V?$allocator@UTAShareMemStruct@CDDDTA@@@std@@@std@@ABEABV?$allocator@UTAShareMemStruct@CDDDTA@@@2@XZ 100177a0 f i dddta.obj
 0001:000167c0       ?_Getblock@?$_Deque_val@U?$_Deque_simple_types@UTAShareMemStruct@CDDDTA@@@std@@@std@@QBEII@Z 100177c0 f i dddta.obj
 0001:000167e0       ?_Getblock@?$deque@UTAShareMemStruct@CDDDTA@@V?$allocator@UTAShareMemStruct@CDDDTA@@@std@@@std@@ABEII@Z 100177e0 f i dddta.obj
 0001:00016800       ?_Growmap@?$deque@UTAShareMemStruct@CDDDTA@@V?$allocator@UTAShareMemStruct@CDDDTA@@@std@@@std@@AAEXI@Z 10017800 f i dddta.obj
 0001:00016a30       ?_Map@?$deque@UTAShareMemStruct@CDDDTA@@V?$allocator@UTAShareMemStruct@CDDDTA@@@std@@@std@@AAEAAPAPAUTAShareMemStruct@CDDDTA@@XZ 10017a30 f i dddta.obj
 0001:00016a50       ?_Mapsize@?$deque@UTAShareMemStruct@CDDDTA@@V?$allocator@UTAShareMemStruct@CDDDTA@@@std@@@std@@AAEAAIXZ 10017a50 f i dddta.obj
 0001:00016a70       ?_Myoff@?$deque@UTAShareMemStruct@CDDDTA@@V?$allocator@UTAShareMemStruct@CDDDTA@@@std@@@std@@AAEAAIXZ 10017a70 f i dddta.obj
 0001:00016a90       ?_Mysize@?$deque@UTAShareMemStruct@CDDDTA@@V?$allocator@UTAShareMemStruct@CDDDTA@@@std@@@std@@AAEAAIXZ 10017a90 f i dddta.obj
 0001:00016ab0       ?_Mysize@?$deque@UTAShareMemStruct@CDDDTA@@V?$allocator@UTAShareMemStruct@CDDDTA@@@std@@@std@@ABEABIXZ 10017ab0 f i dddta.obj
 0001:00016ad0       ?_Orphan_all@?$deque@UTAShareMemStruct@CDDDTA@@V?$allocator@UTAShareMemStruct@CDDDTA@@@std@@@std@@AAEXXZ 10017ad0 f i dddta.obj
 0001:00016af0       ?_Orphan_all@_Container_base12@std@@QAEXXZ 10017af0 f i dddta.obj
 0001:00016b00       ?_Release@?$_Uninitialized_backout@PAPAUTAShareMemStruct@CDDDTA@@@std@@QAEPAPAUTAShareMemStruct@CDDDTA@@XZ 10017b00 f i dddta.obj
 0001:00016b20       ?_Tidy@?$deque@UTAShareMemStruct@CDDDTA@@V?$allocator@UTAShareMemStruct@CDDDTA@@@std@@@std@@AAEXXZ 10017b20 f i dddta.obj
 0001:00016c40       ?_Unchecked_begin@?$deque@UTAShareMemStruct@CDDDTA@@V?$allocator@UTAShareMemStruct@CDDDTA@@@std@@@std@@QAE?AV?$_Deque_unchecked_iterator@V?$_Deque_val@U?$_Deque_simple_types@UTAShareMemStruct@CDDDTA@@@std@@@std@@@2@XZ 10017c40 f i dddta.obj
 0001:00016c80       ?_Xlen@?$deque@UTAShareMemStruct@CDDDTA@@V?$allocator@UTAShareMemStruct@CDDDTA@@@std@@@std@@ABEXXZ 10017c80 f i dddta.obj
 0001:00016ca0       ?allocate@?$allocator@PAUTAShareMemStruct@CDDDTA@@@std@@QAEPAPAUTAShareMemStruct@CDDDTA@@I@Z 10017ca0 f i dddta.obj
 0001:00016cc0       ?allocate@?$allocator@UTAShareMemStruct@CDDDTA@@@std@@QAEPAUTAShareMemStruct@CDDDTA@@I@Z 10017cc0 f i dddta.obj
 0001:00016ce0       ?allocate@?$allocator@U_Container_proxy@std@@@std@@QAEPAU_Container_proxy@2@I@Z 10017ce0 f i dddta.obj
 0001:00016d00       ?clear@?$deque@UTAShareMemStruct@CDDDTA@@V?$allocator@UTAShareMemStruct@CDDDTA@@@std@@@std@@QAEXXZ 10017d00 f i dddta.obj
 0001:00016d20       ?deallocate@?$_Default_allocator_traits@V?$allocator@U_Container_proxy@std@@@std@@@std@@SGXAAV?$allocator@U_Container_proxy@std@@@2@QAU_Container_proxy@2@I@Z 10017d20 f i dddta.obj
 0001:00016d40       ?deallocate@?$allocator@PAUTAShareMemStruct@CDDDTA@@@std@@QAEXQAPAUTAShareMemStruct@CDDDTA@@I@Z 10017d40 f i dddta.obj
 0001:00016d60       ?deallocate@?$allocator@UTAShareMemStruct@CDDDTA@@@std@@QAEXQAUTAShareMemStruct@CDDDTA@@I@Z 10017d60 f i dddta.obj
 0001:00016d80       ?empty@?$deque@UTAShareMemStruct@CDDDTA@@V?$allocator@UTAShareMemStruct@CDDDTA@@@std@@@std@@QBE_NXZ 10017d80 f i dddta.obj
 0001:00016db0       ?max_size@?$_Default_allocator_traits@V?$allocator@UTAShareMemStruct@CDDDTA@@@std@@@std@@SGIABV?$allocator@UTAShareMemStruct@CDDDTA@@@2@@Z 10017db0 f i dddta.obj
 0001:00016dc0       ?max_size@?$deque@UTAShareMemStruct@CDDDTA@@V?$allocator@UTAShareMemStruct@CDDDTA@@@std@@@std@@QBEIXZ 10017dc0 f i dddta.obj
 0001:00016e00       ?pop_back@?$deque@UTAShareMemStruct@CDDDTA@@V?$allocator@UTAShareMemStruct@CDDDTA@@@std@@@std@@QAEXXZ 10017e00 f i dddta.obj
 0001:00016ed0       ?push_front@?$deque@UTAShareMemStruct@CDDDTA@@V?$allocator@UTAShareMemStruct@CDDDTA@@@std@@@std@@QAEXABUTAShareMemStruct@CDDDTA@@@Z 10017ed0 f i dddta.obj
 0001:00016ef0       ?size@?$deque@UTAShareMemStruct@CDDDTA@@V?$allocator@UTAShareMemStruct@CDDDTA@@@std@@@std@@QBEIXZ 10017ef0 f i dddta.obj
 0001:00016f10       ??0CBookmarks@@QAE@XZ      10017f10 f   bookmarks.obj
 0001:00016f20       ??1CBookmarks@@QAE@XZ      10017f20 f   bookmarks.obj
 0001:00016f30       ?Blit@CBookmarks@@QAEXPAUIDirectDrawSurface@@@Z 10017f30 f   bookmarks.obj
 0001:00016f40       ?Message@CBookmarks@@QAE_NPAUHWND__@@IIJ@Z 10017f40 f   bookmarks.obj
 0001:00016f50       ??0CChangeQueue@@QAE@XZ    10017f50 f   changequeue.obj
 0001:00016f80       ??1CChangeQueue@@QAE@XZ    10017f80 f   changequeue.obj
 0001:00016f90       ?Blit@CChangeQueue@@QAEXPAUIDirectDrawSurface@@@Z 10017f90 f   changequeue.obj
 0001:00016fa0       ?Message@CChangeQueue@@QAE_NPAUHWND__@@IIJ@Z 10017fa0 f   changequeue.obj
 0001:00017060       ?Write@@YGXPAUHWND__@@@Z   10018060 f   changequeue.obj
 0001:000170f0       ??$sprintf_s@$0GE@@@YAHAAY0GE@DPBDZZ 100180f0 f i cinomce.obj
 0001:00017120       ??0CIncome@@QAE@H@Z        10018120 f   cinomce.obj
 0001:00017320       ??1CIncome@@QAE@XZ         10018320 f   cinomce.obj
 0001:00017330       ?BlitIncome@CIncome@@QAEXPAE@Z 10018330 f   cinomce.obj
 0001:00017400       ?CorrectPos@CIncome@@AAEXXZ 10018400 f   cinomce.obj
 0001:00017490       ?DrawPlayerRect@CIncome@@AAEXHHD@Z 10018490 f   cinomce.obj
 0001:000174f0       ?DrawStorageText@CIncome@@AAEHMHH@Z 100184f0 f   cinomce.obj
 0001:00017600       ?DrawTextA@CIncome@@AAEXPADHHD@Z 10018600 f   cinomce.obj
 0001:00017760       ?FillRect@CIncome@@AAEXD@Z 10018760 f   cinomce.obj
 0001:000177e0       ?GetPlayerColor@CIncome@@AAEEH@Z 100187e0 f   cinomce.obj
 0001:00017810       ?IsShow@CIncome@@QAE_NPAUtagRECT@@@Z 10018810 f   cinomce.obj
 0001:00017860       ?Message@CIncome@@QAE_NPAUHWND__@@IIJ@Z 10018860 f   cinomce.obj
 0001:00017dc0       ?PaintStoragebar@CIncome@@AAEXHHHH@Z 10018dc0 f   cinomce.obj
 0001:00017fb0       ?ReadPos@CIncome@@AAEXXZ   10018fb0 f   cinomce.obj
 0001:00018060       ?Set@CIncome@@QAEXH@Z      10019060 f   cinomce.obj
 0001:00018080       ?ShowAllIncome@CIncome@@AAEHXZ 10019080 f   cinomce.obj
 0001:00018150       ?ShowAllyIncome@CIncome@@AAEHXZ 10019150 f   cinomce.obj
 0001:00018240       ?ShowMyViewIncome@CIncome@@AAEXHH@Z 10019240 f   cinomce.obj
 0001:00018310       ?ShowPlayerIncome@CIncome@@AAEXHHH@Z 10019310 f   cinomce.obj
 0001:000185d0       ?WritePos@CIncome@@AAEXXZ  100195d0 f   cinomce.obj
 0001:00018680       ?inRect@CIncome@@AAE_NHH@Z 10019680 f   cinomce.obj
 0001:00018790       ??0CWarp@@QAE@H@Z          10019790 f   commanderwarp.obj
 0001:00018810       ??1CWarp@@QAE@XZ           10019810 f   commanderwarp.obj
 0001:00018870       ?Blit@CWarp@@QAEXPAUIDirectDrawSurface@@@Z 10019870 f   commanderwarp.obj
 0001:000188e0       ?BlitBtn@CWarp@@AAEXPAE@Z  100198e0 f   commanderwarp.obj
 0001:00018a20       ?Message@CWarp@@QAE_NPAUHWND__@@IIJ@Z 10019a20 f   commanderwarp.obj
 0001:00018be0       ?SetPos@CWarp@@AAEXHH@Z    10019be0 f   commanderwarp.obj
 0001:00018c30       ?WithinButton@CWarp@@AAE_NHH@Z 10019c30 f   commanderwarp.obj
 0001:00018c80       ??0Dialog@@QAE@H@Z         10019c80 f   dialog.obj
 0001:00018f00       ??1Dialog@@QAE@XZ          10019f00 f   dialog.obj
 0001:00018f10       ?BlitCursor@Dialog@@QAEXPAEHH@Z 10019f10 f   dialog.obj
 0001:000190a0       ?BlitDialog@Dialog@@QAEXPAE@Z 1001a0a0 f   dialog.obj
 0001:00019260       ?CorrectPos@Dialog@@AAEXXZ 1001a260 f   dialog.obj
 0001:000192f0       ?DrawBackgroundButton@Dialog@@AAEXXZ 1001a2f0 f   dialog.obj
 0001:00019470       ?DrawDelay@Dialog@@AAEXXZ  1001a470 f   dialog.obj
 0001:00019510       ?DrawFullRings@Dialog@@AAEXXZ 1001a510 f   dialog.obj
 0001:00019580       ?DrawKeyCode@Dialog@@AAEXXZ 1001a580 f   dialog.obj
 0001:00019630       ?DrawMegaMapKey@Dialog@@AAEXXZ 1001a630 f   dialog.obj
 0001:00019730       ?DrawOptimizeDT@Dialog@@AAEXXZ 1001a730 f   dialog.obj
 0001:000197a0       ?DrawShareBox@Dialog@@AAEXXZ 1001a7a0 f   dialog.obj
 0001:00019a10       ?DrawSmallText@Dialog@@QAEXPAEHHPAD@Z 1001aa10 f   dialog.obj
 0001:00019ec0       ?DrawTextA@Dialog@@QAEXPAEHHPAD@Z 1001aec0 f   dialog.obj
 0001:0001a3b0       ?DrawTinyText@Dialog@@AAEXPADHHD@Z 1001b3b0 f   dialog.obj
 0001:0001a4b0       ?DrawVSync@Dialog@@AAEXXZ  1001b4b0 f   dialog.obj
 0001:0001a5c0       ?DrawVisibleButton@Dialog@@AAEXXZ 1001b5c0 f   dialog.obj
 0001:0001a6c0       ?DrawWhiteboardKey@Dialog@@AAEXXZ 1001b6c0 f   dialog.obj
 0001:0001a7d0       ?EnterOption@@YGHPAUtagInlineX86StackBuffer@@@Z 1001b7d0 f   dialog.obj
 0001:0001a7f0       ?FillRect@Dialog@@AAEXHHHHD@Z 1001b7f0 f   dialog.obj
 0001:0001a860       ?HideDialog@Dialog@@QAEXXZ 1001b860 f   dialog.obj
 0001:0001a8a0       ?Inside@Dialog@@AAE_NHHH@Z 1001b8a0 f   dialog.obj
 0001:0001ab10       ?IsShow@Dialog@@QAE_NPAUtagRECT@@@Z 1001bb10 f   dialog.obj
 0001:0001ab70       ?Message@Dialog@@QAE_NPAUHWND__@@IIJ@Z 1001bb70 f   dialog.obj
 0001:0001b9c0       ?PressInOption@@YGHPAUtagInlineX86StackBuffer@@@Z 1001c9c0 f   dialog.obj
 0001:0001b9f0       ?ReadPos@Dialog@@AAEXXZ    1001c9f0 f   dialog.obj
 0001:0001ba80       ?ReadSettings@Dialog@@AAEXXZ 1001ca80 f   dialog.obj
 0001:0001bcf0       ?RenderDialog@Dialog@@AAEXXZ 1001ccf0 f   dialog.obj
 0001:0001bde0       ?RestoreAll@Dialog@@QAEXXZ 1001cde0 f   dialog.obj
 0001:0001bf60       ?RestoreCursor@Dialog@@AAEXXZ 1001cf60 f   dialog.obj
 0001:0001c100       ?SetAll@Dialog@@QAEXXZ     1001d100 f   dialog.obj
 0001:0001c210       ?SetVisibleList@Dialog@@AAEXXZ 1001d210 f   dialog.obj
 0001:0001c220       ?ShowDialog@Dialog@@QAEXXZ 1001d220 f   dialog.obj
 0001:0001c2a0       ?WritePos@Dialog@@AAEXXZ   1001d2a0 f   dialog.obj
 0001:0001c350       ?WriteSettings@Dialog@@AAEXXZ 1001d350 f   dialog.obj
 0001:0001c4f0       ??0CMapRect@@QAE@H@Z       1001d4f0 f   maprect.obj
 0001:0001c9a0       ??1CMapRect@@QAE@XZ        1001d9a0 f   maprect.obj
 0001:0001c9f0       ?Blit@CMapRect@@QAEXPAUIDirectDrawSurface@@@Z 1001d9f0 f   maprect.obj
 0001:0001cc00       ?GetMapMaxX@CMapRect@@AAEHXZ 1001dc00 f   maprect.obj
 0001:0001cc20       ?GetMapMaxY@CMapRect@@AAEHXZ 1001dc20 f   maprect.obj
 0001:0001cc40       ?LockBlit@CMapRect@@QAEXPADH@Z 1001dc40 f   maprect.obj
 0001:0001cf60       ?PaintRect@CMapRect@@AAEXXZ 1001df60 f   maprect.obj
 0001:0001d0e0       ?WorldToMiniX@CMapRect@@QAEHH@Z 1001e0e0 f   maprect.obj
 0001:0001d120       ?WorldToMiniY@CMapRect@@QAEHH@Z 1001e120 f   maprect.obj
 0001:0001d160       ??0CMinimapHandler@@QAE@XZ 1001e160 f   MinimapHandler.obj
 0001:0001d190       ??1CMinimapHandler@@UAE@XZ 1001e190 f   MinimapHandler.obj
 0001:0001d1b0       ??_ECMinimapHandler@@UAEPAXI@Z 1001e1b0 f i MinimapHandler.obj
 0001:0001d1b0       ??_GCMinimapHandler@@UAEPAXI@Z 1001e1b0 f i MinimapHandler.obj
 0001:0001d1e0       ?DeinitMinimap@CMinimapHandler@@QAEXXZ 1001e1e0 f   MinimapHandler.obj
 0001:0001d230       ?FrameUpdate@CMinimapHandler@@QAEXXZ 1001e230 f   MinimapHandler.obj
 0001:0001d2b0       ?InitMinimap@CMinimapHandler@@QAEXPAUSharedMem@@@Z 1001e2b0 f   MinimapHandler.obj
 0001:0001d390       ??0ShareDialogExpand@@QAE@H@Z 1001e390 f   sharedialog.obj
 0001:0001d490       ??1ShareDialogExpand@@QAE@XZ 1001e490 f   sharedialog.obj
 0001:0001d500       ?EnergyPosProc@@YGXPAU_GUIInfo@@H@Z 1001e500 f   sharedialog.obj
 0001:0001d610       ?GameSpeedPosProc@@YGXPAU_GUIInfo@@H@Z 1001e610 f   sharedialog.obj
 0001:0001d670       ?MetalPosProc@@YGXPAU_GUIInfo@@H@Z 1001e670 f   sharedialog.obj
 0001:0001d780       ?ShareDialogInit@@YGHPAUtagInlineX86StackBuffer@@@Z 1001e780 f   sharedialog.obj
 0001:0001dc50       ?ShareDialogProc@@YGHPAUtagInlineX86StackBuffer@@@Z 1001ec50 f   sharedialog.obj
 0001:0001df10       ??0TABugFixing@@QAE@XZ     1001ef10 f   TABugFix.obj
 0001:0001e450       ??1TABugFixing@@QAE@XZ     1001f450 f   TABugFix.obj
 0001:0001e6e0       ?AntiCheat@TABugFixing@@QAEHXZ 1001f6e0 f   TABugFix.obj
 0001:0001e740       ?BadModelHunter@@YGHPAUtagInlineX86StackBuffer@@@Z 1001f740 f   TABugFix.obj
 0001:0001e890       ?CDMusic_MenuProc@@YGHPAUtagInlineX86StackBuffer@@@Z 1001f890 f   TABugFix.obj
 0001:0001e8b0       ?CDMusic_VictoryProc@@YGHPAUtagInlineX86StackBuffer@@@Z 1001f8b0 f   TABugFix.obj
 0001:0001e8c0       ?EnterProc@@YGHPAUtagInlineX86StackBuffer@@@Z 1001f8c0 f   TABugFix.obj
 0001:0001e8e0       ?LeaveProc@@YGHPAUtagInlineX86StackBuffer@@@Z 1001f8e0 f   TABugFix.obj
 0001:0001e900       ?LogToErrorlog@@YGXPAD@Z   1001f900 f   TABugFix.obj
 0001:0001e980       ?Message@TABugFixing@@QAE_NPAUHWND__@@IIJ@Z 1001f980 f   TABugFix.obj
 0001:0001e990       ?UnitDeath_BeforeUpdateUI_Proc@@YGHPAUtagInlineX86StackBuffer@@@Z 1001f990 f   TABugFix.obj
 0001:0001e9c0       ?UnitIDOutRange_Proc@@YGHPAUtagInlineX86StackBuffer@@@Z 1001f9c0 f   TABugFix.obj
 0001:0001ea00       ?UnitVolumeYequZero_Proc@@YGHPAUtagInlineX86StackBuffer@@@Z 1001fa00 f   TABugFix.obj
 0001:0001ea30       ?VectoredHandler@@YGJPAU_EXCEPTION_POINTERS@@@Z 1001fa30 f   TABugFix.obj
 0001:0001ea40       ?resume_EHA@@YGKPAX@Z      1001fa40 f   TABugFix.obj
 0001:0001ea70       ??$?0$$V@?$_Compressed_pair@V?$allocator@PAVRegDword@@@std@@V?$_Vector_val@U?$_Simple_types@PAVRegDword@@@std@@@2@$00@std@@QAE@U_Zero_then_variadic_args_t@1@@Z 1001fa70 f i TAConfig.obj
 0001:0001ea90       ??$?0$$V@?$_Compressed_pair@V?$allocator@PAVRegString@@@std@@V?$_Vector_val@U?$_Simple_types@PAVRegString@@@std@@@2@$00@std@@QAE@U_Zero_then_variadic_args_t@1@@Z 1001fa90 f i TAConfig.obj
 0001:0001eab0       ??$_Construct_in_place@PAVRegDword@@ABQAV1@@std@@YGXAAPAVRegDword@@ABQAV1@@Z 1001fab0 f i TAConfig.obj
 0001:0001eaf0       ??$_Construct_in_place@PAVRegString@@ABQAV1@@std@@YGXAAPAVRegString@@ABQAV1@@Z 1001faf0 f i TAConfig.obj
 0001:0001eb30       ??$_Copy_memmove@PAPAVRegDword@@PAPAV1@@std@@YGPAPAVRegDword@@PAPAV1@00@Z 1001fb30 f i TAConfig.obj
 0001:0001eba0       ??$_Copy_memmove@PAPAVRegString@@PAPAV1@@std@@YGPAPAVRegString@@PAPAV1@00@Z 1001fba0 f i TAConfig.obj
 0001:0001ec10       ??$_Destroy_range@V?$allocator@PAVRegDword@@@std@@@std@@YGXPAPAVRegDword@@QAPAV1@AAV?$allocator@PAVRegDword@@@0@@Z 1001fc10 f i TAConfig.obj
 0001:0001ec20       ??$_Destroy_range@V?$allocator@PAVRegString@@@std@@@std@@YGXPAPAVRegString@@QAPAV1@AAV?$allocator@PAVRegString@@@0@@Z 1001fc20 f i TAConfig.obj
 0001:0001ec30       ??$_Emplace_back@PAVRegDword@@@?$_Uninitialized_backout_al@V?$allocator@PAVRegDword@@@std@@@std@@QAEX$$QAPAVRegDword@@@Z 1001fc30 f i TAConfig.obj
 0001:0001ec70       ??$_Emplace_back@PAVRegString@@@?$_Uninitialized_backout_al@V?$allocator@PAVRegString@@@std@@@std@@QAEX$$QAPAVRegString@@@Z 1001fc70 f i TAConfig.obj
 0001:0001ecb0       ??$_Emplace_back_with_unused_capacity@ABQAVRegDword@@@?$vector@PAVRegDword@@V?$allocator@PAVRegDword@@@std@@@std@@AAEAAPAVRegDword@@ABQAV2@@Z 1001fcb0 f i TAConfig.obj
 0001:0001ed10       ??$_Emplace_back_with_unused_capacity@ABQAVRegString@@@?$vector@PAVRegString@@V?$allocator@PAVRegString@@@std@@@std@@AAEAAPAVRegString@@ABQAV2@@Z 1001fd10 f i TAConfig.obj
 0001:0001ed70       ??$_Emplace_one_at_back@ABQAVRegDword@@@?$vector@PAVRegDword@@V?$allocator@PAVRegDword@@@std@@@std@@AAEAAPAVRegDword@@ABQAV2@@Z 1001fd70 f i TAConfig.obj
 0001:0001edd0       ??$_Emplace_one_at_back@ABQAVRegString@@@?$vector@PAVRegString@@V?$allocator@PAVRegString@@@std@@@std@@AAEAAPAVRegString@@ABQAV2@@Z 1001fdd0 f i TAConfig.obj
 0001:0001ee30       ??$_Emplace_reallocate@ABQAVRegDword@@@?$vector@PAVRegDword@@V?$allocator@PAVRegDword@@@std@@@std@@AAEPAPAVRegDword@@QAPAV2@ABQAV2@@Z 1001fe30 f i TAConfig.obj
 0001:0001eff0       ??$_Emplace_reallocate@ABQAVRegString@@@?$vector@PAVRegString@@V?$allocator@PAVRegString@@@std@@@std@@AAEPAPAVRegString@@QAPAV2@ABQAV2@@Z 1001fff0 f i TAConfig.obj
 0001:0001f1b0       ??$_Get_unwrapped@ABQAPAVRegDword@@@std@@YG?A_TABQAPAVRegDword@@@Z 100201b0 f i TAConfig.obj
 0001:0001f1c0       ??$_Get_unwrapped@ABQAPAVRegString@@@std@@YG?A_TABQAPAVRegString@@@Z 100201c0 f i TAConfig.obj
 0001:0001f1d0       ??$_To_address@PAPAVRegDword@@@std@@YG?A_PABQAPAVRegDword@@@Z 100201d0 f i TAConfig.obj
 0001:0001f1e0       ??$_To_address@PAPAVRegString@@@std@@YG?A_PABQAPAVRegString@@@Z 100201e0 f i TAConfig.obj
 0001:0001f1f0       ??$_Unfancy@PAVRegDword@@@std@@YGPAPAVRegDword@@PAPAV1@@Z 100201f0 f i TAConfig.obj
 0001:0001f200       ??$_Unfancy@PAVRegString@@@std@@YGPAPAVRegString@@PAPAV1@@Z 10020200 f i TAConfig.obj
 0001:0001f210       ??$_Uninitialized_move@PAPAVRegDword@@V?$allocator@PAVRegDword@@@std@@@std@@YGPAPAVRegDword@@QAPAV1@0PAPAV1@AAV?$allocator@PAVRegDword@@@0@@Z 10020210 f i TAConfig.obj
 0001:0001f2e0       ??$_Uninitialized_move@PAPAVRegString@@V?$allocator@PAVRegString@@@std@@@std@@YGPAPAVRegString@@QAPAV1@0PAPAV1@AAV?$allocator@PAVRegString@@@0@@Z 100202e0 f i TAConfig.obj
 0001:0001f3b0       ??$_Voidify_iter@PAPAVRegDword@@@std@@YGPAXPAPAVRegDword@@@Z 100203b0 f i TAConfig.obj
 0001:0001f3c0       ??$_Voidify_iter@PAPAVRegString@@@std@@YGPAXPAPAVRegString@@@Z 100203c0 f i TAConfig.obj
 0001:0001f3d0       ??$addressof@PAVRegDword@@@std@@YGPAPAVRegDword@@AAPAV1@@Z 100203d0 f i TAConfig.obj
 0001:0001f3e0       ??$addressof@PAVRegString@@@std@@YGPAPAVRegString@@AAPAV1@@Z 100203e0 f i TAConfig.obj
 0001:0001f3f0       ??$addressof@V?$_Vector_val@U?$_Simple_types@PAVRegDword@@@std@@@std@@@std@@YGPAV?$_Vector_val@U?$_Simple_types@PAVRegDword@@@std@@@0@AAV10@@Z 100203f0 f i TAConfig.obj
 0001:0001f400       ??$addressof@V?$_Vector_val@U?$_Simple_types@PAVRegString@@@std@@@std@@@std@@YGPAV?$_Vector_val@U?$_Simple_types@PAVRegString@@@std@@@0@AAV10@@Z 10020400 f i TAConfig.obj
 0001:0001f410       ??$construct@PAVRegDword@@ABQAV1@@?$_Default_allocator_traits@V?$allocator@PAVRegDword@@@std@@@std@@SGXAAV?$allocator@PAVRegDword@@@1@QAPAVRegDword@@ABQAV3@@Z 10020410 f i TAConfig.obj
 0001:0001f450       ??$construct@PAVRegDword@@PAV1@@?$_Default_allocator_traits@V?$allocator@PAVRegDword@@@std@@@std@@SGXAAV?$allocator@PAVRegDword@@@1@QAPAVRegDword@@$$QAPAV3@@Z 10020450 f i TAConfig.obj
 0001:0001f490       ??$construct@PAVRegString@@ABQAV1@@?$_Default_allocator_traits@V?$allocator@PAVRegString@@@std@@@std@@SGXAAV?$allocator@PAVRegString@@@1@QAPAVRegString@@ABQAV3@@Z 10020490 f i TAConfig.obj
 0001:0001f4d0       ??$construct@PAVRegString@@PAV1@@?$_Default_allocator_traits@V?$allocator@PAVRegString@@@std@@@std@@SGXAAV?$allocator@PAVRegString@@@1@QAPAVRegString@@$$QAPAV3@@Z 100204d0 f i TAConfig.obj
 0001:0001f510       ??$destroy@PAVRegDword@@@?$_Default_allocator_traits@V?$allocator@PAVRegDword@@@std@@@std@@SGXAAV?$allocator@PAVRegDword@@@1@QAPAVRegDword@@@Z 10020510 f i TAConfig.obj
 0001:0001f520       ??$destroy@PAVRegString@@@?$_Default_allocator_traits@V?$allocator@PAVRegString@@@std@@@std@@SGXAAV?$allocator@PAVRegString@@@1@QAPAVRegString@@@Z 10020520 f i TAConfig.obj
 0001:0001f530       ??$emplace_back@ABQAVRegDword@@@?$vector@PAVRegDword@@V?$allocator@PAVRegDword@@@std@@@std@@QAE?A_TABQAVRegDword@@@Z 10020530 f i TAConfig.obj
 0001:0001f560       ??$emplace_back@ABQAVRegString@@@?$vector@PAVRegString@@V?$allocator@PAVRegString@@@std@@@std@@QAE?A_TABQAVRegString@@@Z 10020560 f i TAConfig.obj
 0001:0001f590       ??$forward@ABQAVRegDword@@@std@@YGABQAVRegDword@@ABQAV1@@Z 10020590 f i TAConfig.obj
 0001:0001f5a0       ??$forward@ABQAVRegString@@@std@@YGABQAVRegString@@ABQAV1@@Z 100205a0 f i TAConfig.obj
 0001:0001f5b0       ??$forward@PAVRegDword@@@std@@YG$$QAPAVRegDword@@AAPAV1@@Z 100205b0 f i TAConfig.obj
 0001:0001f5c0       ??$forward@PAVRegString@@@std@@YG$$QAPAVRegString@@AAPAV1@@Z 100205c0 f i TAConfig.obj
 0001:0001f5d0       ??$move@AAPAVRegDword@@@std@@YG$$QAPAVRegDword@@AAPAV1@@Z 100205d0 f i TAConfig.obj
 0001:0001f5e0       ??$move@AAPAVRegString@@@std@@YG$$QAPAVRegString@@AAPAV1@@Z 100205e0 f i TAConfig.obj
 0001:0001f5f0       ??0?$CTraceCategoryEx@$00$0A@@ATL@@QAE@PBD@Z 100205f0 f i TAConfig.obj
 0001:0001f600       ??0?$CTraceCategoryEx@$01$0A@@ATL@@QAE@PBD@Z 10020600 f i TAConfig.obj
 0001:0001f610       ??0?$CTraceCategoryEx@$03$0A@@ATL@@QAE@PBD@Z 10020610 f i TAConfig.obj
 0001:0001f620       ??0?$CTraceCategoryEx@$07$0A@@ATL@@QAE@PBD@Z 10020620 f i TAConfig.obj
 0001:0001f630       ??0?$CTraceCategoryEx@$0BA@$0A@@ATL@@QAE@PBD@Z 10020630 f i TAConfig.obj
 0001:0001f640       ??0?$CTraceCategoryEx@$0BAA@$0A@@ATL@@QAE@PBD@Z 10020640 f i TAConfig.obj
 0001:0001f650       ??0?$CTraceCategoryEx@$0BAAA@$0A@@ATL@@QAE@PBD@Z 10020650 f i TAConfig.obj
 0001:0001f660       ??0?$CTraceCategoryEx@$0BAAAA@$0A@@ATL@@QAE@PBD@Z 10020660 f i TAConfig.obj
 0001:0001f670       ??0?$CTraceCategoryEx@$0BAAAAA@$0A@@ATL@@QAE@PBD@Z 10020670 f i TAConfig.obj
 0001:0001f680       ??0?$CTraceCategoryEx@$0CA@$0A@@ATL@@QAE@PBD@Z 10020680 f i TAConfig.obj
 0001:0001f690       ??0?$CTraceCategoryEx@$0CAA@$0A@@ATL@@QAE@PBD@Z 10020690 f i TAConfig.obj
 0001:0001f6a0       ??0?$CTraceCategoryEx@$0CAAA@$0A@@ATL@@QAE@PBD@Z 100206a0 f i TAConfig.obj
 0001:0001f6b0       ??0?$CTraceCategoryEx@$0CAAAA@$0A@@ATL@@QAE@PBD@Z 100206b0 f i TAConfig.obj
 0001:0001f6c0       ??0?$CTraceCategoryEx@$0CAAAAA@$0A@@ATL@@QAE@PBD@Z 100206c0 f i TAConfig.obj
 0001:0001f6d0       ??0?$CTraceCategoryEx@$0EA@$0A@@ATL@@QAE@PBD@Z 100206d0 f i TAConfig.obj
 0001:0001f6e0       ??0?$CTraceCategoryEx@$0EAA@$0A@@ATL@@QAE@PBD@Z 100206e0 f i TAConfig.obj
 0001:0001f6f0       ??0?$CTraceCategoryEx@$0EAAA@$0A@@ATL@@QAE@PBD@Z 100206f0 f i TAConfig.obj
 0001:0001f700       ??0?$CTraceCategoryEx@$0EAAAA@$0A@@ATL@@QAE@PBD@Z 10020700 f i TAConfig.obj
 0001:0001f710       ??0?$CTraceCategoryEx@$0EAAAAA@$0A@@ATL@@QAE@PBD@Z 10020710 f i TAConfig.obj
 0001:0001f720       ??0?$CTraceCategoryEx@$0IA@$0A@@ATL@@QAE@PBD@Z 10020720 f i TAConfig.obj
 0001:0001f730       ??0?$CTraceCategoryEx@$0IAA@$0A@@ATL@@QAE@PBD@Z 10020730 f i TAConfig.obj
 0001:0001f740       ??0?$CTraceCategoryEx@$0IAAA@$0A@@ATL@@QAE@PBD@Z 10020740 f i TAConfig.obj
 0001:0001f750       ??0?$CTraceCategoryEx@$0IAAAA@$0A@@ATL@@QAE@PBD@Z 10020750 f i TAConfig.obj
 0001:0001f760       ??0?$_Uninitialized_backout_al@V?$allocator@PAVRegDword@@@std@@@std@@QAE@PAPAVRegDword@@AAV?$allocator@PAVRegDword@@@1@@Z 10020760 f i TAConfig.obj
 0001:0001f790       ??0?$_Uninitialized_backout_al@V?$allocator@PAVRegString@@@std@@@std@@QAE@PAPAVRegString@@AAV?$allocator@PAVRegString@@@1@@Z 10020790 f i TAConfig.obj
 0001:0001f7c0       ??0?$_Vector_const_iterator@V?$_Vector_val@U?$_Simple_types@PAVRegDword@@@std@@@std@@@std@@QAE@PAPAVRegDword@@PBU_Container_base0@1@@Z 100207c0 f i TAConfig.obj
 0001:0001f7f0       ??0?$_Vector_const_iterator@V?$_Vector_val@U?$_Simple_types@PAVRegString@@@std@@@std@@@std@@QAE@PAPAVRegString@@PBU_Container_base0@1@@Z 100207f0 f i TAConfig.obj
 0001:0001f820       ??0?$_Vector_iterator@V?$_Vector_val@U?$_Simple_types@PAVRegDword@@@std@@@std@@@std@@QAE@PAPAVRegDword@@PBU_Container_base0@1@@Z 10020820 f i TAConfig.obj
 0001:0001f840       ??0?$_Vector_iterator@V?$_Vector_val@U?$_Simple_types@PAVRegString@@@std@@@std@@@std@@QAE@PAPAVRegString@@PBU_Container_base0@1@@Z 10020840 f i TAConfig.obj
 0001:0001f860       ??0?$_Vector_val@U?$_Simple_types@PAVRegDword@@@std@@@std@@QAE@XZ 10020860 f i TAConfig.obj
 0001:0001f890       ??0?$_Vector_val@U?$_Simple_types@PAVRegString@@@std@@@std@@QAE@XZ 10020890 f i TAConfig.obj
 0001:0001f8c0       ??0?$allocator@PAVRegDword@@@std@@QAE@XZ 100208c0 f i TAConfig.obj
 0001:0001f8d0       ??0?$allocator@PAVRegString@@@std@@QAE@XZ 100208d0 f i TAConfig.obj
 0001:0001f8e0       ??0?$vector@PAVRegDword@@V?$allocator@PAVRegDword@@@std@@@std@@QAE@XZ 100208e0 f i TAConfig.obj
 0001:0001f910       ??0?$vector@PAVRegString@@V?$allocator@PAVRegString@@@std@@@std@@QAE@XZ 10020910 f i TAConfig.obj
 0001:0001f940       ??0CAtlException@ATL@@QAE@J@Z 10020940 f i TAConfig.obj
 0001:0001f960       ??0RegDword@@QAE@PADHK@Z   10020960 f   TAConfig.obj
 0001:0001f9d0       ??0RegString@@QAE@PADH0H@Z 100209d0 f   TAConfig.obj
 0001:0001fa70       ??0TADRConfig@@QAE@XZ      10020a70 f   TAConfig.obj
 0001:0001fd60       ??1?$_Uninitialized_backout_al@V?$allocator@PAVRegDword@@@std@@@std@@QAE@XZ 10020d60 f i TAConfig.obj
 0001:0001fd90       ??1?$_Uninitialized_backout_al@V?$allocator@PAVRegString@@@std@@@std@@QAE@XZ 10020d90 f i TAConfig.obj
 0001:0001fdc0       ??1?$vector@PAVRegDword@@V?$allocator@PAVRegDword@@@std@@@std@@QAE@XZ 10020dc0 f i TAConfig.obj
 0001:0001fde0       ??1?$vector@PAVRegString@@V?$allocator@PAVRegString@@@std@@@std@@QAE@XZ 10020de0 f i TAConfig.obj
 0001:0001fe00       ??1RegDword@@QAE@XZ        10020e00 f   TAConfig.obj
 0001:0001fe30       ??1RegString@@QAE@XZ       10020e30 f   TAConfig.obj
 0001:0001fe80       ??1TADRConfig@@QAE@XZ      10020e80 f   TAConfig.obj
 0001:0001ff60       ??8?$_Vector_const_iterator@V?$_Vector_val@U?$_Simple_types@PAVRegDword@@@std@@@std@@@std@@QBE_NABV01@@Z 10020f60 f i TAConfig.obj
 0001:0001ffa0       ??8?$_Vector_const_iterator@V?$_Vector_val@U?$_Simple_types@PAVRegString@@@std@@@std@@@std@@QBE_NABV01@@Z 10020fa0 f i TAConfig.obj
 0001:0001ffe0       ??9?$_Vector_const_iterator@V?$_Vector_val@U?$_Simple_types@PAVRegString@@@std@@@std@@@std@@QBE_NABV01@@Z 10020fe0 f i TAConfig.obj
 0001:00020020       ??D?$_Vector_const_iterator@V?$_Vector_val@U?$_Simple_types@PAVRegDword@@@std@@@std@@@std@@QBEABQAVRegDword@@XZ 10021020 f i TAConfig.obj
 0001:00020030       ??D?$_Vector_const_iterator@V?$_Vector_val@U?$_Simple_types@PAVRegString@@@std@@@std@@@std@@QBEABQAVRegString@@XZ 10021030 f i TAConfig.obj
 0001:00020040       ??D?$_Vector_iterator@V?$_Vector_val@U?$_Simple_types@PAVRegDword@@@std@@@std@@@std@@QBEAAPAVRegDword@@XZ 10021040 f i TAConfig.obj
 0001:00020060       ??D?$_Vector_iterator@V?$_Vector_val@U?$_Simple_types@PAVRegString@@@std@@@std@@@std@@QBEAAPAVRegString@@XZ 10021060 f i TAConfig.obj
 0001:00020080       ??E?$_Vector_const_iterator@V?$_Vector_val@U?$_Simple_types@PAVRegDword@@@std@@@std@@@std@@QAEAAV01@XZ 10021080 f i TAConfig.obj
 0001:000200a0       ??E?$_Vector_const_iterator@V?$_Vector_val@U?$_Simple_types@PAVRegString@@@std@@@std@@@std@@QAEAAV01@XZ 100210a0 f i TAConfig.obj
 0001:000200c0       ??E?$_Vector_iterator@V?$_Vector_val@U?$_Simple_types@PAVRegDword@@@std@@@std@@@std@@QAEAAV01@XZ 100210c0 f i TAConfig.obj
 0001:000200e0       ??E?$_Vector_iterator@V?$_Vector_val@U?$_Simple_types@PAVRegString@@@std@@@std@@@std@@QAEAAV01@XZ 100210e0 f i TAConfig.obj
 0001:00020100       ??_GRegDword@@QAEPAXI@Z    10021100 f i TAConfig.obj
 0001:00020130       ??_GRegString@@QAEPAXI@Z   10021130 f i TAConfig.obj
 0001:00020160       ?AtlCrtErrorCheck@ATL@@YGHH@Z 10021160 f i TAConfig.obj
 0001:00020220       ?AtlThrowImpl@ATL@@YGXJ@Z  10021220 f i TAConfig.obj
 0001:00020250       ?EnumIniRegInfo_Begin@TADRConfig@@QAEHPAPAU_EnumRegInfo@@PAPBDPAPBX@Z 10021250 f   TAConfig.obj
 0001:000202e0       ?EnumIniRegInfo_End@TADRConfig@@QAEHPAPAU_EnumRegInfo@@@Z 100212e0 f   TAConfig.obj
 0001:00020340       ?EnumIniRegInfo_Next@TADRConfig@@QAEHPAPAU_EnumRegInfo@@PAPBDPAPBX@Z 10021340 f   TAConfig.obj
 0001:00020460       ?FindRegDword@TADRConfig@@QAEKPADK@Z 10021460 f   TAConfig.obj
 0001:000204f0       ?FindRegStr@TADRConfig@@QAEPBDPADPBD@Z 100214f0 f   TAConfig.obj
 0001:00020580       ?GetIniBool@TADRConfig@@QAEHPBDH@Z 10021580 f   TAConfig.obj
 0001:00020610       ?GetIniCrc@TADRConfig@@QAEIXZ 10021610 f   TAConfig.obj
 0001:000206f0       ?GetIniInt@TADRConfig@@QAEHPBDH@Z 100216f0 f   TAConfig.obj
 0001:00020720       ?GetIniStr@TADRConfig@@QAEHPBDPADK1@Z 10021720 f   TAConfig.obj
 0001:00020780       ?LoadIniRegSetting@TADRConfig@@AAEXPAE@Z 10021780 f   TAConfig.obj
 0001:00020d40       ?Name@RegDword@@QAEPBDXZ   10021d40 f   TAConfig.obj
 0001:00020d50       ?Name@RegString@@QAEPBDXZ  10021d50 f   TAConfig.obj
 0001:00020d60       ?ReadTAReg_Dword@TADRConfig@@QAEJPADPAK@Z 10021d60 f   TAConfig.obj
 0001:00020da0       ?ReadTAReg_Str@TADRConfig@@QAEJPADPBDK@Z 10021da0 f   TAConfig.obj
 0001:00020df0       ?SetIniBool@TADRConfig@@QAEHPBDH@Z 10021df0 f   TAConfig.obj
 0001:00020ea0       ?Str@RegString@@QAEPBDXZ   10021ea0 f   TAConfig.obj
 0001:00020ec0       ?TARegPath_HKEY@TADRConfig@@AAEPAUHKEY__@@XZ 10021ec0 f   TAConfig.obj
 0001:00020f30       ?Value@RegDword@@QAEKXZ    10021f30 f   TAConfig.obj
 0001:00020f50       ?WriteTAReg_Dword@TADRConfig@@QAEJPADK@Z 10021f50 f   TAConfig.obj
 0001:00020f90       ?WriteTAReg_Str@TADRConfig@@QAEJPADPBDK@Z 10021f90 f   TAConfig.obj
 0001:00020fe0       ?_Calculate_growth@?$vector@PAVRegDword@@V?$allocator@PAVRegDword@@@std@@@std@@ABEII@Z 10021fe0 f i TAConfig.obj
 0001:00021040       ?_Calculate_growth@?$vector@PAVRegString@@V?$allocator@PAVRegString@@@std@@@std@@ABEII@Z 10022040 f i TAConfig.obj
 0001:000210a0       ?_Change_array@?$vector@PAVRegDword@@V?$allocator@PAVRegDword@@@std@@@std@@AAEXQAPAVRegDword@@II@Z 100220a0 f i TAConfig.obj
 0001:00021140       ?_Change_array@?$vector@PAVRegString@@V?$allocator@PAVRegString@@@std@@@std@@AAEXQAPAVRegString@@II@Z 10022140 f i TAConfig.obj
 0001:000211e0       ?_Compat@?$_Vector_const_iterator@V?$_Vector_val@U?$_Simple_types@PAVRegDword@@@std@@@std@@@std@@QBEXABV12@@Z 100221e0 f i TAConfig.obj
 0001:000211f0       ?_Compat@?$_Vector_const_iterator@V?$_Vector_val@U?$_Simple_types@PAVRegString@@@std@@@std@@@std@@QBEXABV12@@Z 100221f0 f i TAConfig.obj
 0001:00021200       ?_Get_first@?$_Compressed_pair@V?$allocator@PAVRegDword@@@std@@V?$_Vector_val@U?$_Simple_types@PAVRegDword@@@std@@@2@$00@std@@QAEAAV?$allocator@PAVRegDword@@@2@XZ 10022200 f i TAConfig.obj
 0001:00021210       ?_Get_first@?$_Compressed_pair@V?$allocator@PAVRegDword@@@std@@V?$_Vector_val@U?$_Simple_types@PAVRegDword@@@std@@@2@$00@std@@QBEABV?$allocator@PAVRegDword@@@2@XZ 10022210 f i TAConfig.obj
 0001:00021220       ?_Get_first@?$_Compressed_pair@V?$allocator@PAVRegString@@@std@@V?$_Vector_val@U?$_Simple_types@PAVRegString@@@std@@@2@$00@std@@QAEAAV?$allocator@PAVRegString@@@2@XZ 10022220 f i TAConfig.obj
 0001:00021230       ?_Get_first@?$_Compressed_pair@V?$allocator@PAVRegString@@@std@@V?$_Vector_val@U?$_Simple_types@PAVRegString@@@std@@@2@$00@std@@QBEABV?$allocator@PAVRegString@@@2@XZ 10022230 f i TAConfig.obj
 0001:00021240       ?_Getal@?$vector@PAVRegDword@@V?$allocator@PAVRegDword@@@std@@@std@@AAEAAV?$allocator@PAVRegDword@@@2@XZ 10022240 f i TAConfig.obj
 0001:00021260       ?_Getal@?$vector@PAVRegDword@@V?$allocator@PAVRegDword@@@std@@@std@@ABEABV?$allocator@PAVRegDword@@@2@XZ 10022260 f i TAConfig.obj
 0001:00021280       ?_Getal@?$vector@PAVRegString@@V?$allocator@PAVRegString@@@std@@@std@@AAEAAV?$allocator@PAVRegString@@@2@XZ 10022280 f i TAConfig.obj
 0001:000212a0       ?_Getal@?$vector@PAVRegString@@V?$allocator@PAVRegString@@@std@@@std@@ABEABV?$allocator@PAVRegString@@@2@XZ 100222a0 f i TAConfig.obj
 0001:000212c0       ?_Orphan_range@?$vector@PAVRegDword@@V?$allocator@PAVRegDword@@@std@@@std@@ABEXPAPAVRegDword@@0@Z 100222c0 f i TAConfig.obj
 0001:000212d0       ?_Orphan_range@?$vector@PAVRegString@@V?$allocator@PAVRegString@@@std@@@std@@ABEXPAPAVRegString@@0@Z 100222d0 f i TAConfig.obj
 0001:000212e0       ?_Release@?$_Uninitialized_backout_al@V?$allocator@PAVRegDword@@@std@@@std@@QAEPAPAVRegDword@@XZ 100222e0 f i TAConfig.obj
 0001:00021300       ?_Release@?$_Uninitialized_backout_al@V?$allocator@PAVRegString@@@std@@@std@@QAEPAPAVRegString@@XZ 10022300 f i TAConfig.obj
 0001:00021320       ?_Tidy@?$vector@PAVRegDword@@V?$allocator@PAVRegDword@@@std@@@std@@AAEXXZ 10022320 f i TAConfig.obj
 0001:000213e0       ?_Tidy@?$vector@PAVRegString@@V?$allocator@PAVRegString@@@std@@@std@@AAEXXZ 100223e0 f i TAConfig.obj
 0001:000214a0       ?_Xlength@?$vector@PAVRegDword@@V?$allocator@PAVRegDword@@@std@@@std@@CGXXZ 100224a0 f i TAConfig.obj
 0001:000214b0       ?_Xlength@?$vector@PAVRegString@@V?$allocator@PAVRegString@@@std@@@std@@CGXXZ 100224b0 f i TAConfig.obj
 0001:000214c0       ?allocate@?$allocator@PAVRegDword@@@std@@QAEPAPAVRegDword@@I@Z 100224c0 f i TAConfig.obj
 0001:000214e0       ?allocate@?$allocator@PAVRegString@@@std@@QAEPAPAVRegString@@I@Z 100224e0 f i TAConfig.obj
 0001:00021500       ?back@?$vector@PAVRegDword@@V?$allocator@PAVRegDword@@@std@@@std@@QAEAAPAVRegDword@@XZ 10022500 f i TAConfig.obj
 0001:00021530       ?back@?$vector@PAVRegString@@V?$allocator@PAVRegString@@@std@@@std@@QAEAAPAVRegString@@XZ 10022530 f i TAConfig.obj
 0001:00021560       ?begin@?$vector@PAVRegDword@@V?$allocator@PAVRegDword@@@std@@@std@@QAE?AV?$_Vector_iterator@V?$_Vector_val@U?$_Simple_types@PAVRegDword@@@std@@@std@@@2@XZ 10022560 f i TAConfig.obj
 0001:00021590       ?begin@?$vector@PAVRegString@@V?$allocator@PAVRegString@@@std@@@std@@QAE?AV?$_Vector_iterator@V?$_Vector_val@U?$_Simple_types@PAVRegString@@@std@@@std@@@2@XZ 10022590 f i TAConfig.obj
 0001:000215c0       ?capacity@?$vector@PAVRegDword@@V?$allocator@PAVRegDword@@@std@@@std@@QBEIXZ 100225c0 f i TAConfig.obj
 0001:000215f0       ?capacity@?$vector@PAVRegString@@V?$allocator@PAVRegString@@@std@@@std@@QBEIXZ 100225f0 f i TAConfig.obj
 0001:00021620       ?deallocate@?$allocator@PAVRegDword@@@std@@QAEXQAPAVRegDword@@I@Z 10022620 f i TAConfig.obj
 0001:00021640       ?deallocate@?$allocator@PAVRegString@@@std@@QAEXQAPAVRegString@@I@Z 10022640 f i TAConfig.obj
 0001:00021660       ?empty@?$vector@PAVRegDword@@V?$allocator@PAVRegDword@@@std@@@std@@QBE_NXZ 10022660 f i TAConfig.obj
 0001:000216a0       ?empty@?$vector@PAVRegString@@V?$allocator@PAVRegString@@@std@@@std@@QBE_NXZ 100226a0 f i TAConfig.obj
 0001:000216e0       ?end@?$vector@PAVRegDword@@V?$allocator@PAVRegDword@@@std@@@std@@QAE?AV?$_Vector_iterator@V?$_Vector_val@U?$_Simple_types@PAVRegDword@@@std@@@std@@@2@XZ 100226e0 f i TAConfig.obj
 0001:00021720       ?end@?$vector@PAVRegString@@V?$allocator@PAVRegString@@@std@@@std@@QAE?AV?$_Vector_iterator@V?$_Vector_val@U?$_Simple_types@PAVRegString@@@std@@@std@@@2@XZ 10022720 f i TAConfig.obj
 0001:00021760       ?max_size@?$_Default_allocator_traits@V?$allocator@PAVRegDword@@@std@@@std@@SGIABV?$allocator@PAVRegDword@@@2@@Z 10022760 f i TAConfig.obj
 0001:00021770       ?max_size@?$_Default_allocator_traits@V?$allocator@PAVRegString@@@std@@@std@@SGIABV?$allocator@PAVRegString@@@2@@Z 10022770 f i TAConfig.obj
 0001:00021780       ?max_size@?$vector@PAVRegDword@@V?$allocator@PAVRegDword@@@std@@@std@@QBEIXZ 10022780 f i TAConfig.obj
 0001:000217c0       ?max_size@?$vector@PAVRegString@@V?$allocator@PAVRegString@@@std@@@std@@QBEIXZ 100227c0 f i TAConfig.obj
 0001:00021800       ?pop_back@?$vector@PAVRegDword@@V?$allocator@PAVRegDword@@@std@@@std@@QAEXXZ 10022800 f i TAConfig.obj
 0001:00021890       ?pop_back@?$vector@PAVRegString@@V?$allocator@PAVRegString@@@std@@@std@@QAEXXZ 10022890 f i TAConfig.obj
 0001:00021920       ?push_back@?$vector@PAVRegDword@@V?$allocator@PAVRegDword@@@std@@@std@@QAEXABQAVRegDword@@@Z 10022920 f i TAConfig.obj
 0001:00021940       ?push_back@?$vector@PAVRegString@@V?$allocator@PAVRegString@@@std@@@std@@QAEXABQAVRegString@@@Z 10022940 f i TAConfig.obj
 0001:00021960       ?size@?$vector@PAVRegDword@@V?$allocator@PAVRegDword@@@std@@@std@@QBEIXZ 10022960 f i TAConfig.obj
 0001:00021990       ?size@?$vector@PAVRegString@@V?$allocator@PAVRegString@@@std@@@std@@QBEIXZ 10022990 f i TAConfig.obj
 0001:000219c0       ?strchr@@YAPADQADH@Z       100229c0 f i TAConfig.obj
 0001:000219e0       ?strlwr_s@Checked@ATL@@YAXPADI@Z 100229e0 f i TAConfig.obj
 0001:00021a00       ?strupr_s@Checked@ATL@@YAXPADI@Z 10022a00 f i TAConfig.obj
 0001:00021a20       ??0CTAHook@@QAE@H@Z        10022a20 f   tahook.obj
 0001:00021c60       ??1CTAHook@@QAE@XZ         10022c60 f   tahook.obj
 0001:00021cd0       ?Blit@CTAHook@@QAEXPAUIDirectDrawSurface@@@Z 10022cd0 f   tahook.obj
 0001:00021ce0       ?CalculateLine@CTAHook@@AAEXXZ 10022ce0 f   tahook.obj
 0001:00021f80       ?CalculateRing@CTAHook@@AAEXHHHH@Z 10022f80 f   tahook.obj
 0001:000222d0       ?CalculateRing@CTAHook@@AAEXXZ 100232d0 f   tahook.obj
 0001:000223d0       ?ClickBuilding@CTAHook@@AAEXHH@Z 100233d0 f   tahook.obj
 0001:00022460       ?DisableTABuildRect@CTAHook@@AAEXXZ 10023460 f   tahook.obj
 0001:00022490       ?DrawBuildRect@CTAHook@@AAEXHHHHH@Z 10023490 f   tahook.obj
 0001:00022670       ?EnableTABuildRect@CTAHook@@AAEXXZ 10023670 f   tahook.obj
 0001:000226a0       ?GetFootX@CTAHook@@AAEFXZ  100236a0 f   tahook.obj
 0001:000226d0       ?GetFootY@CTAHook@@AAEFXZ  100236d0 f   tahook.obj
 0001:00022700       ?IsLineBuilding@CTAHook@@QAEHXZ 10023700 f   tahook.obj
 0001:00022740       ?Message@CTAHook@@QAE_NPAUHWND__@@IIJ@Z 10023740 f   tahook.obj
 0001:00022e80       ?OptimizeDTRows@CTAHook@@AAEXXZ 10023e80 f   tahook.obj
 0001:000231f0       ?PaintMinimapRect@CTAHook@@AAEXXZ 100241f0 f   tahook.obj
 0001:00023220       ?Set@CTAHook@@QAEXHPAD_N1H@Z 10024220 f   tahook.obj
 0001:00023270       ?TABlit@CTAHook@@QAEXXZ    10024270 f   tahook.obj
 0001:000232f0       ?UpdateSpacing@CTAHook@@AAEXXZ 100242f0 f   tahook.obj
 0001:00023330       ?VisualizeRow@CTAHook@@AAEXXZ 10024330 f   tahook.obj
 0001:000234a0       ?VisualizeRow_ForME_megamap@CTAHook@@QAEXPAU_OFFSCREEN@@@Z 100244a0 f   tahook.obj
 0001:00023610       ?WriteDTLine@CTAHook@@AAEXXZ 10024610 f   tahook.obj
 0001:000236b0       ?WriteScrollDTLine@CTAHook@@AAEXXZ 100246b0 f   tahook.obj
 0001:000236c0       ?WriteShareMacro@CTAHook@@QAEXXZ 100246c0 f   tahook.obj
 0001:000237d0       ??$?0$$V@?$_Compressed_pair@V?$allocator@PAD@std@@V?$_Vector_val@U?$_Simple_types@PAD@std@@@2@$00@std@@QAE@U_Zero_then_variadic_args_t@1@@Z 100247d0 f i UnicodeSupport.obj
 0001:000237f0       ??$_Construct_in_place@PADPAD@std@@YGXAAPAD$$QAPAD@Z 100247f0 f i UnicodeSupport.obj
 0001:00023830       ??$_Copy_memmove@PAPADPAPAD@std@@YGPAPADPAPAD00@Z 10024830 f i UnicodeSupport.obj
 0001:000238a0       ??$_Destroy_range@V?$allocator@PAD@std@@@std@@YGXPAPADQAPADAAV?$allocator@PAD@0@@Z 100248a0 f i UnicodeSupport.obj
 0001:000238b0       ??$_Emplace_back@PAD@?$_Uninitialized_backout_al@V?$allocator@PAD@std@@@std@@QAEX$$QAPAD@Z 100248b0 f i UnicodeSupport.obj
 0001:000238f0       ??$_Emplace_back_with_unused_capacity@PAD@?$vector@PADV?$allocator@PAD@std@@@std@@AAEAAPAD$$QAPAD@Z 100248f0 f i UnicodeSupport.obj
 0001:00023950       ??$_Emplace_one_at_back@PAD@?$vector@PADV?$allocator@PAD@std@@@std@@AAEAAPAD$$QAPAD@Z 10024950 f i UnicodeSupport.obj
 0001:000239b0       ??$_Emplace_reallocate@PAD@?$vector@PADV?$allocator@PAD@std@@@std@@AAEPAPADQAPAD$$QAPAD@Z 100249b0 f i UnicodeSupport.obj
 0001:00023b70       ??$_Get_unwrapped@ABQAPAD@std@@YG?A_TABQAPAD@Z 10024b70 f i UnicodeSupport.obj
 0001:00023b80       ??$_To_address@PAPAD@std@@YG?A_PABQAPAD@Z 10024b80 f i UnicodeSupport.obj
 0001:00023b90       ??$_Unfancy@PAD@std@@YGPAPADPAPAD@Z 10024b90 f i UnicodeSupport.obj
 0001:00023ba0       ??$_Uninitialized_move@PAPADV?$allocator@PAD@std@@@std@@YGPAPADQAPAD0PAPADAAV?$allocator@PAD@0@@Z 10024ba0 f i UnicodeSupport.obj
 0001:00023c70       ??$_Voidify_iter@PAPAD@std@@YGPAXPAPAD@Z 10024c70 f i UnicodeSupport.obj
 0001:00023c80       ??$addressof@PAD@std@@YGPAPADAAPAD@Z 10024c80 f i UnicodeSupport.obj
 0001:00023c90       ??$addressof@V?$_Vector_val@U?$_Simple_types@PAD@std@@@std@@@std@@YGPAV?$_Vector_val@U?$_Simple_types@PAD@std@@@0@AAV10@@Z 10024c90 f i UnicodeSupport.obj
 0001:00023ca0       ??$construct@PADPAD@?$_Default_allocator_traits@V?$allocator@PAD@std@@@std@@SGXAAV?$allocator@PAD@1@QAPAD$$QAPAD@Z 10024ca0 f i UnicodeSupport.obj
 0001:00023ce0       ??$destroy@PAD@?$_Default_allocator_traits@V?$allocator@PAD@std@@@std@@SGXAAV?$allocator@PAD@1@QAPAD@Z 10024ce0 f i UnicodeSupport.obj
 0001:00023cf0       ??$emplace_back@PAD@?$vector@PADV?$allocator@PAD@std@@@std@@QAE?A_T$$QAPAD@Z 10024cf0 f i UnicodeSupport.obj
 0001:00023d20       ??$forward@PAD@std@@YG$$QAPADAAPAD@Z 10024d20 f i UnicodeSupport.obj
 0001:00023d30       ??$move@AAPAD@std@@YG$$QAPADAAPAD@Z 10024d30 f i UnicodeSupport.obj
 0001:00023d40       ??0?$_Uninitialized_backout_al@V?$allocator@PAD@std@@@std@@QAE@PAPADAAV?$allocator@PAD@1@@Z 10024d40 f i UnicodeSupport.obj
 0001:00023d70       ??0?$_Vector_const_iterator@V?$_Vector_val@U?$_Simple_types@PAD@std@@@std@@@std@@QAE@PAPADPBU_Container_base0@1@@Z 10024d70 f i UnicodeSupport.obj
 0001:00023da0       ??0?$_Vector_iterator@V?$_Vector_val@U?$_Simple_types@PAD@std@@@std@@@std@@QAE@PAPADPBU_Container_base0@1@@Z 10024da0 f i UnicodeSupport.obj
 0001:00023dc0       ??0?$_Vector_val@U?$_Simple_types@PAD@std@@@std@@QAE@XZ 10024dc0 f i UnicodeSupport.obj
 0001:00023df0       ??0?$allocator@PAD@std@@QAE@XZ 10024df0 f i UnicodeSupport.obj
 0001:00023e00       ??0?$vector@PADV?$allocator@PAD@std@@@std@@QAE@XZ 10024e00 f i UnicodeSupport.obj
 0001:00023e30       ??0UnicodeSupport@@QAE@H@Z 10024e30 f   UnicodeSupport.obj
 0001:00024020       ??0UnicodeSupport@@QAE@PBDKKH@Z 10025020 f   UnicodeSupport.obj
 0001:00024630       ??1?$_Uninitialized_backout_al@V?$allocator@PAD@std@@@std@@QAE@XZ 10025630 f i UnicodeSupport.obj
 0001:00024660       ??1?$vector@PADV?$allocator@PAD@std@@@std@@QAE@XZ 10025660 f i UnicodeSupport.obj
 0001:00024680       ??1UnicodeSupport@@QAE@XZ  10025680 f   UnicodeSupport.obj
 0001:000248c0       ??8?$_Vector_const_iterator@V?$_Vector_val@U?$_Simple_types@PAD@std@@@std@@@std@@QBE_NABV01@@Z 100258c0 f i UnicodeSupport.obj
 0001:00024900       ??9?$_Vector_const_iterator@V?$_Vector_val@U?$_Simple_types@PAD@std@@@std@@@std@@QBE_NABV01@@Z 10025900 f i UnicodeSupport.obj
 0001:00024940       ??D?$_Vector_const_iterator@V?$_Vector_val@U?$_Simple_types@PAD@std@@@std@@@std@@QBEABQADXZ 10025940 f i UnicodeSupport.obj
 0001:00024950       ??D?$_Vector_iterator@V?$_Vector_val@U?$_Simple_types@PAD@std@@@std@@@std@@QBEAAPADXZ 10025950 f i UnicodeSupport.obj
 0001:00024970       ??E?$_Vector_const_iterator@V?$_Vector_val@U?$_Simple_types@PAD@std@@@std@@@std@@QAEAAV01@XZ 10025970 f i UnicodeSupport.obj
 0001:00024990       ??E?$_Vector_iterator@V?$_Vector_val@U?$_Simple_types@PAD@std@@@std@@@std@@QAEAAV01@XZ 10025990 f i UnicodeSupport.obj
 0001:000249b0       ?Blt@UnicodeSupport@@QAE_NPAUIDirectDrawSurface@@@Z 100259b0 f   UnicodeSupport.obj
 0001:00024b90       ?Blt_BottomState0_Text@@YGHPAUtagInlineX86StackBuffer@@@Z 10025b90 f   UnicodeSupport.obj
 0001:00024cb0       ?Blt_BottomState1_Text@@YGHPAUtagInlineX86StackBuffer@@@Z 10025cb0 f   UnicodeSupport.obj
 0001:00024dc0       ?CopyToContextScreenMem@@YGXPAU_OFFSCREEN@@PAUtagSpecScreenSurface@@@Z 10025dc0 f   UnicodeSupport.obj
 0001:00024e40       ?CopyToSpecSurfaceMem@@YGXPAUtagSpecScreenSurface@@PAU_OFFSCREEN@@@Z 10025e40 f   UnicodeSupport.obj
 0001:00024ec0       ?CreateSurfaceFromContextScreen@UnicodeSupport@@QAEPAUIDirectDrawSurface@@PAU_OFFSCREEN@@PAUIDirectDraw@@PAPAU2@@Z 10025ec0 f   UnicodeSupport.obj
 0001:00024f70       ?DBSC2rdByte@@YGHPAUtagInlineX86StackBuffer@@@Z 10025f70 f   UnicodeSupport.obj
 0001:00025000       ?DrawALine_Ime@UnicodeSupport@@AAEXPAUHDC__@@PADPAH2@Z 10026000 f   UnicodeSupport.obj
 0001:00025090       ?DrawSeparator@UnicodeSupport@@AAEHPAUHDC__@@HPAH1PAUHBRUSH__@@@Z 10026090 f   UnicodeSupport.obj
 0001:000250e0       ?FreeSpecScreenSurface@UnicodeSupport@@AAEXPAUtagSpecScreenSurface@@@Z 100260e0 f   UnicodeSupport.obj
 0001:000251c0       ?GetSpecScreenSurface@UnicodeSupport@@AAEPAUtagSpecScreenSurface@@PAU_OFFSCREEN@@@Z 100261c0 f   UnicodeSupport.obj
 0001:00025290       ?GetStrExtent@@YGHPAUtagInlineX86StackBuffer@@@Z 10026290 f   UnicodeSupport.obj
 0001:000252f0       ?GetTextExtent_AssignCharLen@@YGHPAUtagInlineX86StackBuffer@@@Z 100262f0 f   UnicodeSupport.obj
 0001:00025350       ?IsIDDrawLost@UnicodeSupport@@AAEHXZ 10026350 f   UnicodeSupport.obj
 0001:00025380       ?Message@UnicodeSupport@@QAE_NPAUHWND__@@IIJ@Z 10026380 f   UnicodeSupport.obj
 0001:000258a0       ?NewSpecScreenSurface@UnicodeSupport@@AAEPAUtagSpecScreenSurface@@PAU_OFFSCREEN@@@Z 100268a0 f   UnicodeSupport.obj
 0001:00025990       ?PopadState@@YGHPAUtagInlineX86StackBuffer@@@Z 10026990 f   UnicodeSupport.obj
 0001:00025a30       ?ReleaseCandidateList@UnicodeSupport@@AAEXXZ 10026a30 f   UnicodeSupport.obj
 0001:00025ab0       ?RestoreLocalSurf@UnicodeSupport@@AAEXH@Z 10026ab0 f   UnicodeSupport.obj
 0001:00025b90       ?SendStr@UnicodeSupport@@AAEXPAD@Z 10026b90 f   UnicodeSupport.obj
 0001:00025be0       ?Set@UnicodeSupport@@QAEXH@Z 10026be0 f   UnicodeSupport.obj
 0001:00025c00       ?SetHDCFont@UnicodeSupport@@AAEXPAUHDC__@@PAUHFONT__@@@Z 10026c00 f   UnicodeSupport.obj
 0001:00025c40       ?USDrawTextInScreen_HookRouter@@YGHPAUtagInlineX86StackBuffer@@@Z 10026c40 f   UnicodeSupport.obj
 0001:00025d60       ?UnicodeDrawTextA@UnicodeSupport@@QAEHPAU_OFFSCREEN@@PADPAUIDirectDraw@@HH@Z 10026d60 f   UnicodeSupport.obj
 0001:00026030       ?UpdateImeFrame@UnicodeSupport@@AAE_NXZ 10027030 f   UnicodeSupport.obj
 0001:00026330       ?UpdateImeInput@UnicodeSupport@@AAE_NXZ 10027330 f   UnicodeSupport.obj
 0001:00026560       ?_Calculate_growth@?$vector@PADV?$allocator@PAD@std@@@std@@ABEII@Z 10027560 f i UnicodeSupport.obj
 0001:000265c0       ?_Change_array@?$vector@PADV?$allocator@PAD@std@@@std@@AAEXQAPADII@Z 100275c0 f i UnicodeSupport.obj
 0001:00026660       ?_Compat@?$_Vector_const_iterator@V?$_Vector_val@U?$_Simple_types@PAD@std@@@std@@@std@@QBEXABV12@@Z 10027660 f i UnicodeSupport.obj
 0001:00026670       ?_Get_first@?$_Compressed_pair@V?$allocator@PAD@std@@V?$_Vector_val@U?$_Simple_types@PAD@std@@@2@$00@std@@QAEAAV?$allocator@PAD@2@XZ 10027670 f i UnicodeSupport.obj
 0001:00026680       ?_Get_first@?$_Compressed_pair@V?$allocator@PAD@std@@V?$_Vector_val@U?$_Simple_types@PAD@std@@@2@$00@std@@QBEABV?$allocator@PAD@2@XZ 10027680 f i UnicodeSupport.obj
 0001:00026690       ?_Getal@?$vector@PADV?$allocator@PAD@std@@@std@@AAEAAV?$allocator@PAD@2@XZ 10027690 f i UnicodeSupport.obj
 0001:000266b0       ?_Getal@?$vector@PADV?$allocator@PAD@std@@@std@@ABEABV?$allocator@PAD@2@XZ 100276b0 f i UnicodeSupport.obj
 0001:000266d0       ?_Orphan_range@?$vector@PADV?$allocator@PAD@std@@@std@@ABEXPAPAD0@Z 100276d0 f i UnicodeSupport.obj
 0001:000266e0       ?_Release@?$_Uninitialized_backout_al@V?$allocator@PAD@std@@@std@@QAEPAPADXZ 100276e0 f i UnicodeSupport.obj
 0001:00026700       ?_Tidy@?$vector@PADV?$allocator@PAD@std@@@std@@AAEXXZ 10027700 f i UnicodeSupport.obj
 0001:000267c0       ?_Xlength@?$vector@PADV?$allocator@PAD@std@@@std@@CGXXZ 100277c0 f i UnicodeSupport.obj
 0001:000267d0       ?allocate@?$allocator@PAD@std@@QAEPAPADI@Z 100277d0 f i UnicodeSupport.obj
 0001:000267f0       ?back@?$vector@PADV?$allocator@PAD@std@@@std@@QAEAAPADXZ 100277f0 f i UnicodeSupport.obj
 0001:00026820       ?begin@?$vector@PADV?$allocator@PAD@std@@@std@@QAE?AV?$_Vector_iterator@V?$_Vector_val@U?$_Simple_types@PAD@std@@@std@@@2@XZ 10027820 f i UnicodeSupport.obj
 0001:00026850       ?capacity@?$vector@PADV?$allocator@PAD@std@@@std@@QBEIXZ 10027850 f i UnicodeSupport.obj
 0001:00026880       ?deallocate@?$allocator@PAD@std@@QAEXQAPADI@Z 10027880 f i UnicodeSupport.obj
 0001:000268a0       ?empty@?$vector@PADV?$allocator@PAD@std@@@std@@QBE_NXZ 100278a0 f i UnicodeSupport.obj
 0001:000268e0       ?end@?$vector@PADV?$allocator@PAD@std@@@std@@QAE?AV?$_Vector_iterator@V?$_Vector_val@U?$_Simple_types@PAD@std@@@std@@@2@XZ 100278e0 f i UnicodeSupport.obj
 0001:00026920       ?freelpImeSurface@UnicodeSupport@@AAEXXZ 10027920 f   UnicodeSupport.obj
 0001:000269a0       ?max_size@?$_Default_allocator_traits@V?$allocator@PAD@std@@@std@@SGIABV?$allocator@PAD@2@@Z 100279a0 f i UnicodeSupport.obj
 0001:000269b0       ?max_size@?$vector@PADV?$allocator@PAD@std@@@std@@QBEIXZ 100279b0 f i UnicodeSupport.obj
 0001:000269f0       ?myDeleteChar@@YGHPAUtagInlineX86StackBuffer@@@Z 100279f0 f   UnicodeSupport.obj
 0001:00026ac0       ?myValidChar@@YGHPAUtagInlineX86StackBuffer@@@Z 10027ac0 f   UnicodeSupport.obj
 0001:00026c10       ?pop_back@?$vector@PADV?$allocator@PAD@std@@@std@@QAEXXZ 10027c10 f i UnicodeSupport.obj
 0001:00026ca0       ?push_back@?$vector@PADV?$allocator@PAD@std@@@std@@QAEX$$QAPAD@Z 10027ca0 f i UnicodeSupport.obj
 0001:00026dd0       ??0IncreaseAISearchMapEntriesLimit@@QAE@K@Z 10027dd0 f   LimitCrack.obj
 0001:00026e70       ??0IncreaseAISearchMapEntriesLimit@@QAE@XZ 10027e70 f   LimitCrack.obj
 0001:00026f00       ??0IncreaseCompositeBuf@@QAE@KK@Z 10027f00 f   LimitCrack.obj
 0001:00026f20       ??0IncreaseCompositeBuf@@QAE@XZ 10027f20 f   LimitCrack.obj
 0001:00026f40       ??0IncreaseSfxLimit@@QAE@K@Z 10027f40 f   LimitCrack.obj
 0001:00026f70       ??0IncreaseSfxLimit@@QAE@XZ 10027f70 f   LimitCrack.obj
 0001:00026f90       ??0IncreaseUnitTypeLimit@@QAE@H@Z 10027f90 f   LimitCrack.obj
 0001:00026fb0       ??0IncreaseUnitTypeLimit@@QAE@XZ 10027fb0 f   LimitCrack.obj
 0001:00026fd0       ??0IncreaseWeaponTypeLimit@@QAE@K@Z 10027fd0 f   LimitCrack.obj
 0001:00026ff0       ??0IncreaseWeaponTypeLimit@@QAE@XZ 10027ff0 f   LimitCrack.obj
 0001:00027010       ??0LimitCrack@@QAE@XZ      10028010 f   LimitCrack.obj
 0001:000271e0       ??0UnitLimit@@QAE@K@Z      100281e0 f   LimitCrack.obj
 0001:00027230       ??0UnitLimit@@QAE@XZ       10028230 f   LimitCrack.obj
 0001:00027270       ??1IncreaseAISearchMapEntriesLimit@@QAE@XZ 10028270 f   LimitCrack.obj
 0001:000272b0       ??1IncreaseCompositeBuf@@QAE@XZ 100282b0 f   LimitCrack.obj
 0001:000272f0       ??1IncreaseSfxLimit@@QAE@XZ 100282f0 f   LimitCrack.obj
 0001:00027380       ??1IncreaseUnitTypeLimit@@QAE@XZ 10028380 f   LimitCrack.obj
 0001:00027590       ??1IncreaseWeaponTypeLimit@@QAE@XZ 10028590 f   LimitCrack.obj
 0001:00027720       ??1LimitCrack@@QAE@XZ      10028720 f   LimitCrack.obj
 0001:00027730       ??1UnitLimit@@QAE@XZ       10028730 f   LimitCrack.obj
 0001:00027820       ?NewLimit@IncreaseWeaponTypeLimit@@AAEXK@Z 10028820 f   LimitCrack.obj
 0001:00027990       ?NewUnitLimit@UnitLimit@@AAEXK@Z 10028990 f   LimitCrack.obj
 0001:00027b20       ?SetNewLimit@IncreaseSfxLimit@@AAEXKK@Z 10028b20 f   LimitCrack.obj
 0001:00027c60       ?Sfx_mallocBufSizeRouter@@YGHPAUtagInlineX86StackBuffer@@@Z 10028c60 f   LimitCrack.obj
 0001:00027c80       ?WeaponType_IdLimit@IncreaseWeaponTypeLimit@@AAEXXZ 10028c80 f   LimitCrack.obj
 0001:00027da0       ?WriteNewLimit@IncreaseCompositeBuf@@AAEXKK@Z 10028da0 f   LimitCrack.obj
 0001:00027e80       ?WriteNewLimit@IncreaseUnitTypeLimit@@AAEXK@Z 10028e80 f   LimitCrack.obj
 0001:000285f0       ?WriteWeaponAryLen@IncreaseWeaponTypeLimit@@AAEKK@Z 100295f0 f   LimitCrack.obj
 0001:000286b0       ?WriteWeaponAryPtr@IncreaseWeaponTypeLimit@@AAEPAXPAPAX@Z 100296b0 f   LimitCrack.obj
 0001:00028810       ??0UnitsMinimap@@QAE@PAVFullScreenMinimap@@HHHHHHHHHHHHHHHHPAH@Z 10029810 f   UnitMinimap.obj
 0001:00028880       ??0UnitsMinimap@@QAE@PAVFullScreenMinimap@@HHHHHHHHHHHHHHPAH@Z 10029880 f   UnitMinimap.obj
 0001:000288f0       ??1UnitsMinimap@@QAE@XZ    100298f0 f   UnitMinimap.obj
 0001:00028940       ??_GUnitIcon@@QAEPAXI@Z    10029940 f i UnitMinimap.obj
 0001:00028970       ?DrawUnit@UnitsMinimap@@AAEXPAEPAUtagPOINT@@PAUUnitStruct@@@Z 10029970 f   UnitMinimap.obj
 0001:00029300       ?FreeUnitPicture@UnitsMinimap@@QAEXXZ 1002a300 f   UnitMinimap.obj
 0001:00029600       ?GetSurface@UnitsMinimap@@QAEPAEXZ 1002a600 f   UnitMinimap.obj
 0001:00029610       ?GetTransparentColor@UnitsMinimap@@QAEHXZ 1002a610 f   UnitMinimap.obj
 0001:00029630       ?Init@UnitsMinimap@@QAEXHHHHHHHHHHHHHHPAH@Z 1002a630 f   UnitMinimap.obj
 0001:00029a20       ?InitHoverPicturePlayerColors@UnitsMinimap@@AAEXHHHHPAPAPAE@Z 1002aa20 f   UnitMinimap.obj
 0001:00029bd0       ?InitPicturePlayerColors@UnitsMinimap@@AAEXHHPAPAPAE@Z 1002abd0 f   UnitMinimap.obj
 0001:00029d70       ?InitSurface@UnitsMinimap@@QAEPAEPAUIDirectDraw@@H@Z 1002ad70 f   UnitMinimap.obj
 0001:00029e50       ?InitUnSelectedPicturePlayerColors@UnitsMinimap@@AAEXHHHHPAPAPAE@Z 1002ae50 f   UnitMinimap.obj
 0001:0002a000       ?LoadUnitPicture@UnitsMinimap@@QAEXXZ 1002b000 f   UnitMinimap.obj
 0001:0002b1d0       ?LockOn@UnitsMinimap@@QAEPAEPAPAEPAUtagPOINT@@@Z 1002c1d0 f   UnitMinimap.obj
 0001:0002b210       ?NowDrawUnits@UnitsMinimap@@QAEXPAEPAUtagPOINT@@@Z 1002c210 f   UnitMinimap.obj
 0001:0002b360       ?NukePicture@UnitsMinimap@@QAEPAEHPAPAEPAUtagPOINT@@@Z 1002c360 f   UnitMinimap.obj
 0001:0002b450       ?ReSet@UnitsMinimap@@QAEXHH@Z 1002c450 f   UnitMinimap.obj
 0001:0002b4a0       ?ReleaseSurface@UnitsMinimap@@QAEXXZ 1002c4a0 f   UnitMinimap.obj
 0001:0002b4d0       ?UnitPicture@UnitsMinimap@@QAEPAEPAUUnitStruct@@HPAPAEPAUtagPOINT@@@Z 1002c4d0 f   UnitMinimap.obj
 0001:0002bd10       ?Unlock@UnitsMinimap@@QAEXPAE@Z 1002cd10 f   UnitMinimap.obj
 0001:0002bd20       ??0CUnitRotate@@QAE@XZ     1002cd20 f   unitrotate.obj
 0001:0002bd40       ??1CUnitRotate@@QAE@XZ     1002cd40 f   unitrotate.obj
 0001:0002bd50       ?Message@CUnitRotate@@QAE_NPAUHWND__@@IIJ@Z 1002cd50 f   unitrotate.obj
 0001:0002bda0       ?Rotate@CUnitRotate@@AAEXXZ 1002cda0 f   unitrotate.obj
 0001:0002bfb0       ?SetMem@CUnitRotate@@AAEXXZ 1002cfb0 f   unitrotate.obj
 0001:0002c010       ??$?0$$V@?$_Compressed_pair@V?$allocator@PAVGraphicElement@@@std@@V?$_Deque_val@U?$_Deque_simple_types@PAVGraphicElement@@@std@@@2@$00@std@@QAE@U_Zero_then_variadic_args_t@1@@Z 1002d010 f i whiteboard.obj
 0001:0002c030       ??$?0$$V@?$_Compressed_pair@V?$allocator@PAVGraphicElement@@@std@@V?$_Vector_val@U?$_Simple_types@PAVGraphicElement@@@std@@@2@$00@std@@QAE@U_Zero_then_variadic_args_t@1@@Z 1002d030 f i whiteboard.obj
 0001:0002c050       ??$?0$$V@?$_Compressed_pair@V?$allocator@UMMHS@AlliesWhiteboard@@@std@@V?$_Deque_val@U?$_Deque_simple_types@UMMHS@AlliesWhiteboard@@@std@@@2@$00@std@@QAE@U_Zero_then_variadic_args_t@1@@Z 1002d050 f i whiteboard.obj
 0001:0002c070       ??$?0PAVGraphicElement@@@?$allocator@PAPAVGraphicElement@@@std@@QAE@ABV?$allocator@PAVGraphicElement@@@1@@Z 1002d070 f i whiteboard.obj
 0001:0002c080       ??$?0PAVGraphicElement@@@?$allocator@U_Container_proxy@std@@@std@@QAE@ABV?$allocator@PAVGraphicElement@@@1@@Z 1002d080 f i whiteboard.obj
 0001:0002c090       ??$?0UMMHS@AlliesWhiteboard@@@?$allocator@PAUMMHS@AlliesWhiteboard@@@std@@QAE@ABV?$allocator@UMMHS@AlliesWhiteboard@@@1@@Z 1002d090 f i whiteboard.obj
 0001:0002c0a0       ??$?0UMMHS@AlliesWhiteboard@@@?$allocator@U_Container_proxy@std@@@std@@QAE@ABV?$allocator@UMMHS@AlliesWhiteboard@@@1@@Z 1002d0a0 f i whiteboard.obj
 0001:0002c0b0       ??$_Adl_verify_range@PAPAPAVGraphicElement@@PAPAPAV1@@std@@YGXABQAPAPAVGraphicElement@@0@Z 1002d0b0 f i whiteboard.obj
 0001:0002c0c0       ??$_Adl_verify_range@PAPAUMMHS@AlliesWhiteboard@@PAPAU12@@std@@YGXABQAPAUMMHS@AlliesWhiteboard@@0@Z 1002d0c0 f i whiteboard.obj
 0001:0002c0d0       ??$_Construct_in_place@PAPAVGraphicElement@@AAPAPAV1@@std@@YGXAAPAPAVGraphicElement@@0@Z 1002d0d0 f i whiteboard.obj
 0001:0002c110       ??$_Construct_in_place@PAUMMHS@AlliesWhiteboard@@AAPAU12@@std@@YGXAAPAUMMHS@AlliesWhiteboard@@0@Z 1002d110 f i whiteboard.obj
 0001:0002c150       ??$_Copy_memmove@PAPAPAVGraphicElement@@PAPAPAV1@@std@@YGPAPAPAVGraphicElement@@PAPAPAV1@00@Z 1002d150 f i whiteboard.obj
 0001:0002c1c0       ??$_Copy_memmove@PAPAUMMHS@AlliesWhiteboard@@PAPAU12@@std@@YGPAPAUMMHS@AlliesWhiteboard@@PAPAU12@00@Z 1002d1c0 f i whiteboard.obj
 0001:0002c230       ??$_Destroy_in_place@PAPAVGraphicElement@@@std@@YGXAAPAPAVGraphicElement@@@Z 1002d230 f i whiteboard.obj
 0001:0002c240       ??$_Destroy_in_place@PAUMMHS@AlliesWhiteboard@@@std@@YGXAAPAUMMHS@AlliesWhiteboard@@@Z 1002d240 f i whiteboard.obj
 0001:0002c250       ??$_Destroy_range@PAPAPAVGraphicElement@@PAPAPAV1@@std@@YGXPAPAPAVGraphicElement@@QAPAPAV1@@Z 1002d250 f i whiteboard.obj
 0001:0002c260       ??$_Destroy_range@PAPAUMMHS@AlliesWhiteboard@@PAPAU12@@std@@YGXPAPAUMMHS@AlliesWhiteboard@@QAPAU12@@Z 1002d260 f i whiteboard.obj
 0001:0002c270       ??$_Destroy_range@V?$allocator@PAVGraphicElement@@@std@@@std@@YGXPAPAVGraphicElement@@QAPAV1@AAV?$allocator@PAVGraphicElement@@@0@@Z 1002d270 f i whiteboard.obj
 0001:0002c280       ??$_Emplace_back@AAPAPAVGraphicElement@@@?$_Uninitialized_backout@PAPAPAVGraphicElement@@@std@@QAEXAAPAPAVGraphicElement@@@Z 1002d280 f i whiteboard.obj
 0001:0002c2c0       ??$_Emplace_back@AAPAUMMHS@AlliesWhiteboard@@@?$_Uninitialized_backout@PAPAUMMHS@AlliesWhiteboard@@@std@@QAEXAAPAUMMHS@AlliesWhiteboard@@@Z 1002d2c0 f i whiteboard.obj
 0001:0002c300       ??$_Emplace_back_internal@PAVGraphicElement@@@?$deque@PAVGraphicElement@@V?$allocator@PAVGraphicElement@@@std@@@std@@AAEX$$QAPAVGraphicElement@@@Z 1002d300 f i whiteboard.obj
 0001:0002c440       ??$_Get_unwrapped@ABQAPAPAVGraphicElement@@@std@@YG?A_TABQAPAPAVGraphicElement@@@Z 1002d440 f i whiteboard.obj
 0001:0002c450       ??$_Get_unwrapped@ABQAPAUMMHS@AlliesWhiteboard@@@std@@YG?A_TABQAPAUMMHS@AlliesWhiteboard@@@Z 1002d450 f i whiteboard.obj
 0001:0002c460       ??$_Get_unwrapped_n@AAPAPAPAVGraphicElement@@H@std@@YG?A_TAAPAPAPAVGraphicElement@@H@Z 1002d460 f i whiteboard.obj
 0001:0002c470       ??$_Get_unwrapped_n@AAPAPAUMMHS@AlliesWhiteboard@@H@std@@YG?A_TAAPAPAUMMHS@AlliesWhiteboard@@H@Z 1002d470 f i whiteboard.obj
 0001:0002c480       ??$_Idl_distance@PAPAPAVGraphicElement@@PAPAPAV1@@std@@YG?A_PABQAPAPAVGraphicElement@@0@Z 1002d480 f i whiteboard.obj
 0001:0002c4a0       ??$_Idl_distance@PAPAUMMHS@AlliesWhiteboard@@PAPAU12@@std@@YG?A_PABQAPAUMMHS@AlliesWhiteboard@@0@Z 1002d4a0 f i whiteboard.obj
 0001:0002c4c0       ??$_Pocma@V?$allocator@PAVGraphicElement@@@std@@@std@@YGXAAV?$allocator@PAVGraphicElement@@@0@0@Z 1002d4c0 f i whiteboard.obj
 0001:0002c4d0       ??$_Prev_iter@V?$_Deque_unchecked_iterator@V?$_Deque_val@U?$_Deque_simple_types@UMMHS@AlliesWhiteboard@@@std@@@std@@@std@@@std@@YG?AV?$_Deque_unchecked_iterator@V?$_Deque_val@U?$_Deque_simple_types@UMMHS@AlliesWhiteboard@@@std@@@std@@@0@V10@@Z 1002d4d0 f i whiteboard.obj
 0001:0002c4f0       ??$_Seek_wrapped@PAPAPAVGraphicElement@@PAPAPAV1@@std@@YGXAAPAPAPAVGraphicElement@@$$QAPAPAPAV1@@Z 1002d4f0 f i whiteboard.obj
 0001:0002c510       ??$_Seek_wrapped@PAPAUMMHS@AlliesWhiteboard@@PAPAU12@@std@@YGXAAPAPAUMMHS@AlliesWhiteboard@@$$QAPAPAU12@@Z 1002d510 f i whiteboard.obj
 0001:0002c530       ??$_To_address@PAPAPAVGraphicElement@@@std@@YG?A_PABQAPAPAVGraphicElement@@@Z 1002d530 f i whiteboard.obj
 0001:0002c540       ??$_To_address@PAPAUMMHS@AlliesWhiteboard@@@std@@YG?A_PABQAPAUMMHS@AlliesWhiteboard@@@Z 1002d540 f i whiteboard.obj
 0001:0002c550       ??$_Unfancy@PAVGraphicElement@@@std@@YGPAPAVGraphicElement@@PAPAV1@@Z 1002d550 f i whiteboard.obj
 0001:0002c560       ??$_Unfancy@UMMHS@AlliesWhiteboard@@@std@@YGPAUMMHS@AlliesWhiteboard@@PAU12@@Z 1002d560 f i whiteboard.obj
 0001:0002c570       ??$_Uninitialized_copy_unchecked@PAPAPAVGraphicElement@@PAPAPAV1@@std@@YGPAPAPAVGraphicElement@@PAPAPAV1@QAPAPAV1@0@Z 1002d570 f i whiteboard.obj
 0001:0002c600       ??$_Uninitialized_copy_unchecked@PAPAUMMHS@AlliesWhiteboard@@PAPAU12@@std@@YGPAPAUMMHS@AlliesWhiteboard@@PAPAU12@QAPAU12@0@Z 1002d600 f i whiteboard.obj
 0001:0002c690       ??$_Uninitialized_value_construct_n_unchecked1@PAPAPAVGraphicElement@@I@std@@YGPAPAPAVGraphicElement@@PAPAPAV1@I@Z 1002d690 f i whiteboard.obj
 0001:0002c6b0       ??$_Uninitialized_value_construct_n_unchecked1@PAPAUMMHS@AlliesWhiteboard@@I@std@@YGPAPAUMMHS@AlliesWhiteboard@@PAPAU12@I@Z 1002d6b0 f i whiteboard.obj
 0001:0002c6d0       ??$_Voidify_iter@PAPAPAVGraphicElement@@@std@@YGPAXPAPAPAVGraphicElement@@@Z 1002d6d0 f i whiteboard.obj
 0001:0002c6e0       ??$_Voidify_iter@PAPAUMMHS@AlliesWhiteboard@@@std@@YGPAXPAPAUMMHS@AlliesWhiteboard@@@Z 1002d6e0 f i whiteboard.obj
 0001:0002c6f0       ??$_Voidify_iter@PAPAVGraphicElement@@@std@@YGPAXPAPAVGraphicElement@@@Z 1002d6f0 f i whiteboard.obj
 0001:0002c700       ??$_Voidify_iter@PAUMMHS@AlliesWhiteboard@@@std@@YGPAXPAUMMHS@AlliesWhiteboard@@@Z 1002d700 f i whiteboard.obj
 0001:0002c710       ??$_Zero_range@PAPAPAVGraphicElement@@@std@@YGPAPAPAVGraphicElement@@QAPAPAV1@0@Z 1002d710 f i whiteboard.obj
 0001:0002c750       ??$_Zero_range@PAPAUMMHS@AlliesWhiteboard@@@std@@YGPAPAUMMHS@AlliesWhiteboard@@QAPAU12@0@Z 1002d750 f i whiteboard.obj
 0001:0002c790       ??$addressof@PAPAVGraphicElement@@@std@@YGPAPAPAVGraphicElement@@AAPAPAV1@@Z 1002d790 f i whiteboard.obj
 0001:0002c7a0       ??$addressof@PAUMMHS@AlliesWhiteboard@@@std@@YGPAPAUMMHS@AlliesWhiteboard@@AAPAU12@@Z 1002d7a0 f i whiteboard.obj
 0001:0002c7b0       ??$addressof@V?$_Deque_val@U?$_Deque_simple_types@PAVGraphicElement@@@std@@@std@@@std@@YGPAV?$_Deque_val@U?$_Deque_simple_types@PAVGraphicElement@@@std@@@0@AAV10@@Z 1002d7b0 f i whiteboard.obj
 0001:0002c7c0       ??$addressof@V?$_Deque_val@U?$_Deque_simple_types@UMMHS@AlliesWhiteboard@@@std@@@std@@@std@@YGPAV?$_Deque_val@U?$_Deque_simple_types@UMMHS@AlliesWhiteboard@@@std@@@0@AAV10@@Z 1002d7c0 f i whiteboard.obj
 0001:0002c7d0       ??$addressof@V?$vector@PAVGraphicElement@@V?$allocator@PAVGraphicElement@@@std@@@std@@@std@@YGPAV?$vector@PAVGraphicElement@@V?$allocator@PAVGraphicElement@@@std@@@0@AAV10@@Z 1002d7d0 f i whiteboard.obj
 0001:0002c7e0       ??$construct@PAVGraphicElement@@PAV1@@?$_Default_allocator_traits@V?$allocator@PAVGraphicElement@@@std@@@std@@SGXAAV?$allocator@PAVGraphicElement@@@1@QAPAVGraphicElement@@$$QAPAV3@@Z 1002d7e0 f i whiteboard.obj
 0001:0002c820       ??$construct@UMMHS@AlliesWhiteboard@@ABU12@@?$_Default_allocator_traits@V?$allocator@UMMHS@AlliesWhiteboard@@@std@@@std@@SGXAAV?$allocator@UMMHS@AlliesWhiteboard@@@1@QAUMMHS@AlliesWhiteboard@@ABU34@@Z 1002d820 f i whiteboard.obj
 0001:0002c860       ??$destroy@PAVGraphicElement@@@?$_Default_allocator_traits@V?$allocator@PAVGraphicElement@@@std@@@std@@SGXAAV?$allocator@PAVGraphicElement@@@1@QAPAVGraphicElement@@@Z 1002d860 f i whiteboard.obj
 0001:0002c870       ??$destroy@UMMHS@AlliesWhiteboard@@@?$_Default_allocator_traits@V?$allocator@UMMHS@AlliesWhiteboard@@@std@@@std@@SGXAAV?$allocator@UMMHS@AlliesWhiteboard@@@1@QAUMMHS@AlliesWhiteboard@@@Z 1002d870 f i whiteboard.obj
 0001:0002c880       ??$emplace_front@ABUMMHS@AlliesWhiteboard@@@?$deque@UMMHS@AlliesWhiteboard@@V?$allocator@UMMHS@AlliesWhiteboard@@@std@@@std@@QAE?A_TABUMMHS@AlliesWhiteboard@@@Z 1002d880 f i whiteboard.obj
 0001:0002c9e0       ??$forward@AAPAPAVGraphicElement@@@std@@YGAAPAPAVGraphicElement@@AAPAPAV1@@Z 1002d9e0 f i whiteboard.obj
 0001:0002c9f0       ??$forward@AAPAUMMHS@AlliesWhiteboard@@@std@@YGAAPAUMMHS@AlliesWhiteboard@@AAPAU12@@Z 1002d9f0 f i whiteboard.obj
 0001:0002ca00       ??$forward@ABUMMHS@AlliesWhiteboard@@@std@@YGABUMMHS@AlliesWhiteboard@@ABU12@@Z 1002da00 f i whiteboard.obj
 0001:0002ca10       ??$forward@PAPAPAVGraphicElement@@@std@@YG$$QAPAPAPAVGraphicElement@@AAPAPAPAV1@@Z 1002da10 f i whiteboard.obj
 0001:0002ca20       ??$forward@PAPAUMMHS@AlliesWhiteboard@@@std@@YG$$QAPAPAUMMHS@AlliesWhiteboard@@AAPAPAU12@@Z 1002da20 f i whiteboard.obj
 0001:0002ca30       ??$forward@PAVGraphicElement@@@std@@YG$$QAPAVGraphicElement@@AAPAV1@@Z 1002da30 f i whiteboard.obj
 0001:0002ca40       ??$move@AAPAVGraphicElement@@@std@@YG$$QAPAVGraphicElement@@AAPAV1@@Z 1002da40 f i whiteboard.obj
 0001:0002ca50       ??$move@AAV?$allocator@PAVGraphicElement@@@std@@@std@@YG$$QAV?$allocator@PAVGraphicElement@@@0@AAV10@@Z 1002da50 f i whiteboard.obj
 0001:0002ca60       ??$uninitialized_copy@PAPAPAVGraphicElement@@PAPAPAV1@@std@@YGPAPAPAVGraphicElement@@QAPAPAV1@0PAPAPAV1@@Z 1002da60 f i whiteboard.obj
 0001:0002cad0       ??$uninitialized_copy@PAPAUMMHS@AlliesWhiteboard@@PAPAU12@@std@@YGPAPAUMMHS@AlliesWhiteboard@@QAPAU12@0PAPAU12@@Z 1002dad0 f i whiteboard.obj
 0001:0002cb40       ??0?$_Deque_unchecked_const_iterator@V?$_Deque_val@U?$_Deque_simple_types@PAVGraphicElement@@@std@@@std@@@std@@QAE@IPBU_Container_base12@1@@Z 1002db40 f i whiteboard.obj
 0001:0002cb70       ??0?$_Deque_unchecked_const_iterator@V?$_Deque_val@U?$_Deque_simple_types@UMMHS@AlliesWhiteboard@@@std@@@std@@@std@@QAE@IPBU_Container_base12@1@@Z 1002db70 f i whiteboard.obj
 0001:0002cba0       ??0?$_Deque_unchecked_iterator@V?$_Deque_val@U?$_Deque_simple_types@PAVGraphicElement@@@std@@@std@@@std@@QAE@IPBU_Container_base12@1@@Z 1002dba0 f i whiteboard.obj
 0001:0002cbc0       ??0?$_Deque_unchecked_iterator@V?$_Deque_val@U?$_Deque_simple_types@UMMHS@AlliesWhiteboard@@@std@@@std@@@std@@QAE@IPBU_Container_base12@1@@Z 1002dbc0 f i whiteboard.obj
 0001:0002cbe0       ??0?$_Deque_val@U?$_Deque_simple_types@PAVGraphicElement@@@std@@@std@@QAE@XZ 1002dbe0 f i whiteboard.obj
 0001:0002cc20       ??0?$_Deque_val@U?$_Deque_simple_types@UMMHS@AlliesWhiteboard@@@std@@@std@@QAE@XZ 1002dc20 f i whiteboard.obj
 0001:0002cc60       ??0?$_Uninitialized_backout@PAPAPAVGraphicElement@@@std@@QAE@PAPAPAVGraphicElement@@@Z 1002dc60 f i whiteboard.obj
 0001:0002cc90       ??0?$_Uninitialized_backout@PAPAUMMHS@AlliesWhiteboard@@@std@@QAE@PAPAUMMHS@AlliesWhiteboard@@@Z 1002dc90 f i whiteboard.obj
 0001:0002ccc0       ??0?$_Vector_val@U?$_Simple_types@PAVGraphicElement@@@std@@@std@@QAE@XZ 1002dcc0 f i whiteboard.obj
 0001:0002ccf0       ??0?$allocator@PAVGraphicElement@@@std@@QAE@XZ 1002dcf0 f i whiteboard.obj
 0001:0002cd00       ??0?$allocator@UMMHS@AlliesWhiteboard@@@std@@QAE@XZ 1002dd00 f i whiteboard.obj
 0001:0002cd10       ??0?$deque@PAVGraphicElement@@V?$allocator@PAVGraphicElement@@@std@@@std@@QAE@XZ 1002dd10 f i whiteboard.obj
 0001:0002cd50       ??0?$deque@UMMHS@AlliesWhiteboard@@V?$allocator@UMMHS@AlliesWhiteboard@@@std@@@std@@QAE@XZ 1002dd50 f i whiteboard.obj
 0001:0002cd90       ??0?$vector@PAVGraphicElement@@V?$allocator@PAVGraphicElement@@@std@@@std@@QAE@XZ 1002dd90 f i whiteboard.obj
 0001:0002cdc0       ??0AlliesWhiteboard@@QAE@H@Z 1002ddc0 f   whiteboard.obj
 0001:0002d2a0       ??0DeleteGraphic@@QAE@HHD@Z 1002e2a0 f i whiteboard.obj
 0001:0002d2d0       ??0GraphicElement@@QAE@HHHD@Z 1002e2d0 f i whiteboard.obj
 0001:0002d310       ??0GraphicLine@@QAE@HHHHD@Z 1002e310 f i whiteboard.obj
 0001:0002d360       ??0GraphicText@@QAE@HHPADD@Z 1002e360 f i whiteboard.obj
 0001:0002d400       ??0GraphicTextEdited@@QAE@HHPADD@Z 1002e400 f i whiteboard.obj
 0001:0002d4a0       ??1?$_Uninitialized_backout@PAPAPAVGraphicElement@@@std@@QAE@XZ 1002e4a0 f i whiteboard.obj
 0001:0002d4c0       ??1?$_Uninitialized_backout@PAPAUMMHS@AlliesWhiteboard@@@std@@QAE@XZ 1002e4c0 f i whiteboard.obj
 0001:0002d4e0       ??1?$deque@PAVGraphicElement@@V?$allocator@PAVGraphicElement@@@std@@@std@@QAE@XZ 1002e4e0 f i whiteboard.obj
 0001:0002d530       ??1?$deque@UMMHS@AlliesWhiteboard@@V?$allocator@UMMHS@AlliesWhiteboard@@@std@@@std@@QAE@XZ 1002e530 f i whiteboard.obj
 0001:0002d580       ??1?$vector@PAVGraphicElement@@V?$allocator@PAVGraphicElement@@@std@@@std@@QAE@XZ 1002e580 f i whiteboard.obj
 0001:0002d5a0       ??1AlliesWhiteboard@@QAE@XZ 1002e5a0 f   whiteboard.obj
 0001:0002d660       ??1DeleteGraphic@@UAE@XZ   1002e660 f i whiteboard.obj
 0001:0002d680       ??1GraphicElement@@UAE@XZ  1002e680 f i whiteboard.obj
 0001:0002d6a0       ??1GraphicLine@@UAE@XZ     1002e6a0 f i whiteboard.obj
 0001:0002d6c0       ??1GraphicText@@UAE@XZ     1002e6c0 f i whiteboard.obj
 0001:0002d700       ??1GraphicTextEdited@@UAE@XZ 1002e700 f i whiteboard.obj
 0001:0002d740       ??4?$vector@PAVGraphicElement@@V?$allocator@PAVGraphicElement@@@std@@@std@@QAEAAV01@$$QAV01@@Z 1002e740 f i whiteboard.obj
 0001:0002d7b0       ??A?$deque@UMMHS@AlliesWhiteboard@@V?$allocator@UMMHS@AlliesWhiteboard@@@std@@@std@@QAEAAUMMHS@AlliesWhiteboard@@I@Z 1002e7b0 f i whiteboard.obj
 0001:0002d7f0       ??A?$vector@PAVGraphicElement@@V?$allocator@PAVGraphicElement@@@std@@@std@@QAEAAPAVGraphicElement@@I@Z 1002e7f0 f i whiteboard.obj
 0001:0002d810       ??D?$_Deque_unchecked_const_iterator@V?$_Deque_val@U?$_Deque_simple_types@PAVGraphicElement@@@std@@@std@@@std@@QBEABQAVGraphicElement@@XZ 1002e810 f i whiteboard.obj
 0001:0002d860       ??D?$_Deque_unchecked_const_iterator@V?$_Deque_val@U?$_Deque_simple_types@UMMHS@AlliesWhiteboard@@@std@@@std@@@std@@QBEABUMMHS@AlliesWhiteboard@@XZ 1002e860 f i whiteboard.obj
 0001:0002d8b0       ??D?$_Deque_unchecked_iterator@V?$_Deque_val@U?$_Deque_simple_types@PAVGraphicElement@@@std@@@std@@@std@@QBEAAPAVGraphicElement@@XZ 1002e8b0 f i whiteboard.obj
 0001:0002d8d0       ??D?$_Deque_unchecked_iterator@V?$_Deque_val@U?$_Deque_simple_types@UMMHS@AlliesWhiteboard@@@std@@@std@@@std@@QBEAAUMMHS@AlliesWhiteboard@@XZ 1002e8d0 f i whiteboard.obj
 0001:0002d8f0       ??F?$_Deque_unchecked_const_iterator@V?$_Deque_val@U?$_Deque_simple_types@UMMHS@AlliesWhiteboard@@@std@@@std@@@std@@QAEAAV01@XZ 1002e8f0 f i whiteboard.obj
 0001:0002d910       ??F?$_Deque_unchecked_iterator@V?$_Deque_val@U?$_Deque_simple_types@UMMHS@AlliesWhiteboard@@@std@@@std@@@std@@QAEAAV01@XZ 1002e910 f i whiteboard.obj
 0001:0002d930       ??H?$_Deque_unchecked_iterator@V?$_Deque_val@U?$_Deque_simple_types@UMMHS@AlliesWhiteboard@@@std@@@std@@@std@@QBE?AV01@H@Z 1002e930 f i whiteboard.obj
 0001:0002d970       ??Y?$_Deque_unchecked_const_iterator@V?$_Deque_val@U?$_Deque_simple_types@UMMHS@AlliesWhiteboard@@@std@@@std@@@std@@QAEAAV01@H@Z 1002e970 f i whiteboard.obj
 0001:0002d990       ??Y?$_Deque_unchecked_iterator@V?$_Deque_val@U?$_Deque_simple_types@UMMHS@AlliesWhiteboard@@@std@@@std@@@std@@QAEAAV01@H@Z 1002e990 f i whiteboard.obj
 0001:0002d9b0       ??_EDeleteGraphic@@UAEPAXI@Z 1002e9b0 f i whiteboard.obj
 0001:0002d9b0       ??_GDeleteGraphic@@UAEPAXI@Z 1002e9b0 f i whiteboard.obj
 0001:0002d9e0       ??_EGraphicElement@@UAEPAXI@Z 1002e9e0 f i whiteboard.obj
 0001:0002d9e0       ??_GGraphicElement@@UAEPAXI@Z 1002e9e0 f i whiteboard.obj
 0001:0002da10       ??_EGraphicLine@@UAEPAXI@Z 1002ea10 f i whiteboard.obj
 0001:0002da10       ??_GGraphicLine@@UAEPAXI@Z 1002ea10 f i whiteboard.obj
 0001:0002da40       ??_EGraphicText@@UAEPAXI@Z 1002ea40 f i whiteboard.obj
 0001:0002da40       ??_GGraphicText@@UAEPAXI@Z 1002ea40 f i whiteboard.obj
 0001:0002da70       ??_EGraphicTextEdited@@UAEPAXI@Z 1002ea70 f i whiteboard.obj
 0001:0002da70       ??_GGraphicTextEdited@@UAEPAXI@Z 1002ea70 f i whiteboard.obj
 0001:0002daa0       ?AddTextMarker@AlliesWhiteboard@@AAEXHHPADD@Z 1002eaa0 f   whiteboard.obj
 0001:0002db50       ?AddTextMarker@AlliesWhiteboard@@AAEXXZ 1002eb50 f   whiteboard.obj
 0001:0002dc90       ?Blit@AlliesWhiteboard@@QAEXPAE@Z 1002ec90 f   whiteboard.obj
 0001:0002dd00       ?Clip_Line@AlliesWhiteboard@@QAEHAAH000@Z 1002ed00 f   whiteboard.obj
 0001:0002e800       ?DeleteMarker@AlliesWhiteboard@@AAEXHH@Z 1002f800 f   whiteboard.obj
 0001:0002e8b0       ?Draw@GraphicElement@@UAEXXZ 1002f8b0 f i whiteboard.obj
 0001:0002e8c0       ?Draw@GraphicLine@@UAEXXZ  1002f8c0 f i whiteboard.obj
 0001:0002e8d0       ?Draw@GraphicText@@UAEXXZ  1002f8d0 f i whiteboard.obj
 0001:0002e8e0       ?DrawFreeLine@AlliesWhiteboard@@QAEXHHHHDPADH@Z 1002f8e0 f   whiteboard.obj
 0001:0002e930       ?DrawLine@AlliesWhiteboard@@QAEXHHHHDPADH@Z 1002f930 f   whiteboard.obj
 0001:0002e9e0       ?DrawMarkers@AlliesWhiteboard@@AAEXPAE@Z 1002f9e0 f   whiteboard.obj
 0001:0002eb30       ?DrawMinimapMarkers@AlliesWhiteboard@@QAEXPADH_N@Z 1002fb30 f   whiteboard.obj
 0001:0002edb0       ?DrawRotateRect@AlliesWhiteboard@@AAEXHHHPADH@Z 1002fdb0 f   whiteboard.obj
 0001:0002f090       ?DrawTextInput@AlliesWhiteboard@@AAEXPAE@Z 10030090 f   whiteboard.obj
 0001:0002f2f0       ?DrawTextMarker@AlliesWhiteboard@@AAEXPAEHHPADD@Z 100302f0 f   whiteboard.obj
 0001:0002f5a0       ?Draw_Line@AlliesWhiteboard@@QAEHHHHHEPAEH@Z 100305a0 f   whiteboard.obj
 0001:0002f6e0       ?EchoMarker@AlliesWhiteboard@@AAEXPAD@Z 100306e0 f   whiteboard.obj
 0001:0002f730       ?EreaseArea@AlliesWhiteboard@@AAEXHH@Z 10030730 f   whiteboard.obj
 0001:0002f810       ?GenerateLookupTables@AlliesWhiteboard@@AAEXXZ 10030810 f   whiteboard.obj
 0001:0002f8a0       ?GetMapX@AlliesWhiteboard@@QAEHXZ 100308a0 f   whiteboard.obj
 0001:0002f8c0       ?GetMapY@AlliesWhiteboard@@QAEHXZ 100308c0 f   whiteboard.obj
 0001:0002f8e0       ?GetMarkers@AlliesWhiteboard@@QAEXPAUMarkerArray@@@Z 100308e0 f   whiteboard.obj
 0001:0002f9d0       ?GetTextElementAt@AlliesWhiteboard@@AAEPAVGraphicElement@@HHH@Z 100309d0 f   whiteboard.obj
 0001:0002fac0       ?InstantScrollTo@AlliesWhiteboard@@QAEXHH@Z 10030ac0 f   whiteboard.obj
 0001:0002fb10       ?Line@AlliesWhiteboard@@QAEXHHHHEPADH@Z 10030b10 f   whiteboard.obj
 0001:0002fbc0       ?LockBlit@AlliesWhiteboard@@QAEXPADH@Z 10030bc0 f   whiteboard.obj
 0001:0002fdb0       ?Message@AlliesWhiteboard@@QAE_NPAUHWND__@@IIJ@Z 10030db0 f   whiteboard.obj
 0001:00030580       ?MouseMove@AlliesWhiteboard@@AAEXHHHH@Z 10031580 f   whiteboard.obj
 0001:000306d0       ?ReceiveMarkers@AlliesWhiteboard@@AAEXXZ 100316d0 f   whiteboard.obj
 0001:00030ab0       ?RestoreAll@AlliesWhiteboard@@AAEXXZ 10031ab0 f   whiteboard.obj
 0001:00030b60       ?ScrollToCenter@AlliesWhiteboard@@QAEXHH@Z 10031b60 f   whiteboard.obj
 0001:00030c00       ?SendMarkers@AlliesWhiteboard@@AAEXXZ 10031c00 f   whiteboard.obj
 0001:00031110       ?Set@AlliesWhiteboard@@QAEXH@Z 10032110 f   whiteboard.obj
 0001:00031130       ?TextInputChar@AlliesWhiteboard@@AAEXD@Z 10032130 f   whiteboard.obj
 0001:000311b0       ?TextInputKeyDown@AlliesWhiteboard@@AAEXH@Z 100321b0 f   whiteboard.obj
 0001:00031370       ?_Get_data@?$deque@PAVGraphicElement@@V?$allocator@PAVGraphicElement@@@std@@@std@@AAEAAV?$_Deque_val@U?$_Deque_simple_types@PAVGraphicElement@@@std@@@2@XZ 10032370 f i whiteboard.obj
 0001:00031380       ?_Get_data@?$deque@PAVGraphicElement@@V?$allocator@PAVGraphicElement@@@std@@@std@@ABEABV?$_Deque_val@U?$_Deque_simple_types@PAVGraphicElement@@@std@@@2@XZ 10032380 f i whiteboard.obj
 0001:00031390       ?_Get_data@?$deque@UMMHS@AlliesWhiteboard@@V?$allocator@UMMHS@AlliesWhiteboard@@@std@@@std@@AAEAAV?$_Deque_val@U?$_Deque_simple_types@UMMHS@AlliesWhiteboard@@@std@@@2@XZ 10032390 f i whiteboard.obj
 0001:000313a0       ?_Get_data@?$deque@UMMHS@AlliesWhiteboard@@V?$allocator@UMMHS@AlliesWhiteboard@@@std@@@std@@ABEABV?$_Deque_val@U?$_Deque_simple_types@UMMHS@AlliesWhiteboard@@@std@@@2@XZ 100323a0 f i whiteboard.obj
 0001:000313b0       ?_Get_first@?$_Compressed_pair@V?$allocator@PAVGraphicElement@@@std@@V?$_Deque_val@U?$_Deque_simple_types@PAVGraphicElement@@@std@@@2@$00@std@@QAEAAV?$allocator@PAVGraphicElement@@@2@XZ 100323b0 f i whiteboard.obj
 0001:000313c0       ?_Get_first@?$_Compressed_pair@V?$allocator@PAVGraphicElement@@@std@@V?$_Deque_val@U?$_Deque_simple_types@PAVGraphicElement@@@std@@@2@$00@std@@QBEABV?$allocator@PAVGraphicElement@@@2@XZ 100323c0 f i whiteboard.obj
 0001:000313d0       ?_Get_first@?$_Compressed_pair@V?$allocator@PAVGraphicElement@@@std@@V?$_Vector_val@U?$_Simple_types@PAVGraphicElement@@@std@@@2@$00@std@@QAEAAV?$allocator@PAVGraphicElement@@@2@XZ 100323d0 f i whiteboard.obj
 0001:000313e0       ?_Get_first@?$_Compressed_pair@V?$allocator@UMMHS@AlliesWhiteboard@@@std@@V?$_Deque_val@U?$_Deque_simple_types@UMMHS@AlliesWhiteboard@@@std@@@2@$00@std@@QAEAAV?$allocator@UMMHS@AlliesWhiteboard@@@2@XZ 100323e0 f i whiteboard.obj
 0001:000313f0       ?_Get_first@?$_Compressed_pair@V?$allocator@UMMHS@AlliesWhiteboard@@@std@@V?$_Deque_val@U?$_Deque_simple_types@UMMHS@AlliesWhiteboard@@@std@@@2@$00@std@@QBEABV?$allocator@UMMHS@AlliesWhiteboard@@@2@XZ 100323f0 f i whiteboard.obj
 0001:00031400       ?_Getal@?$deque@PAVGraphicElement@@V?$allocator@PAVGraphicElement@@@std@@@std@@AAEAAV?$allocator@PAVGraphicElement@@@2@XZ 10032400 f i whiteboard.obj
 0001:00031420       ?_Getal@?$deque@PAVGraphicElement@@V?$allocator@PAVGraphicElement@@@std@@@std@@ABEABV?$allocator@PAVGraphicElement@@@2@XZ 10032420 f i whiteboard.obj
 0001:00031440       ?_Getal@?$deque@UMMHS@AlliesWhiteboard@@V?$allocator@UMMHS@AlliesWhiteboard@@@std@@@std@@AAEAAV?$allocator@UMMHS@AlliesWhiteboard@@@2@XZ 10032440 f i whiteboard.obj
 0001:00031460       ?_Getal@?$deque@UMMHS@AlliesWhiteboard@@V?$allocator@UMMHS@AlliesWhiteboard@@@std@@@std@@ABEABV?$allocator@UMMHS@AlliesWhiteboard@@@2@XZ 10032460 f i whiteboard.obj
 0001:00031480       ?_Getal@?$vector@PAVGraphicElement@@V?$allocator@PAVGraphicElement@@@std@@@std@@AAEAAV?$allocator@PAVGraphicElement@@@2@XZ 10032480 f i whiteboard.obj
 0001:000314a0       ?_Getblock@?$_Deque_val@U?$_Deque_simple_types@PAVGraphicElement@@@std@@@std@@QBEII@Z 100324a0 f i whiteboard.obj
 0001:000314c0       ?_Getblock@?$_Deque_val@U?$_Deque_simple_types@UMMHS@AlliesWhiteboard@@@std@@@std@@QBEII@Z 100324c0 f i whiteboard.obj
 0001:000314e0       ?_Getblock@?$deque@PAVGraphicElement@@V?$allocator@PAVGraphicElement@@@std@@@std@@ABEII@Z 100324e0 f i whiteboard.obj
 0001:00031500       ?_Getblock@?$deque@UMMHS@AlliesWhiteboard@@V?$allocator@UMMHS@AlliesWhiteboard@@@std@@@std@@ABEII@Z 10032500 f i whiteboard.obj
 0001:00031520       ?_Growmap@?$deque@PAVGraphicElement@@V?$allocator@PAVGraphicElement@@@std@@@std@@AAEXI@Z 10032520 f i whiteboard.obj
 0001:00031760       ?_Growmap@?$deque@UMMHS@AlliesWhiteboard@@V?$allocator@UMMHS@AlliesWhiteboard@@@std@@@std@@AAEXI@Z 10032760 f i whiteboard.obj
 0001:00031990       ?_Map@?$deque@PAVGraphicElement@@V?$allocator@PAVGraphicElement@@@std@@@std@@AAEAAPAPAPAVGraphicElement@@XZ 10032990 f i whiteboard.obj
 0001:000319b0       ?_Map@?$deque@UMMHS@AlliesWhiteboard@@V?$allocator@UMMHS@AlliesWhiteboard@@@std@@@std@@AAEAAPAPAUMMHS@AlliesWhiteboard@@XZ 100329b0 f i whiteboard.obj
 0001:000319d0       ?_Mapsize@?$deque@PAVGraphicElement@@V?$allocator@PAVGraphicElement@@@std@@@std@@AAEAAIXZ 100329d0 f i whiteboard.obj
 0001:000319f0       ?_Mapsize@?$deque@UMMHS@AlliesWhiteboard@@V?$allocator@UMMHS@AlliesWhiteboard@@@std@@@std@@AAEAAIXZ 100329f0 f i whiteboard.obj
 0001:00031a10       ?_Myoff@?$deque@PAVGraphicElement@@V?$allocator@PAVGraphicElement@@@std@@@std@@AAEAAIXZ 10032a10 f i whiteboard.obj
 0001:00031a30       ?_Myoff@?$deque@UMMHS@AlliesWhiteboard@@V?$allocator@UMMHS@AlliesWhiteboard@@@std@@@std@@AAEAAIXZ 10032a30 f i whiteboard.obj
 0001:00031a50       ?_Mysize@?$deque@PAVGraphicElement@@V?$allocator@PAVGraphicElement@@@std@@@std@@AAEAAIXZ 10032a50 f i whiteboard.obj
 0001:00031a70       ?_Mysize@?$deque@PAVGraphicElement@@V?$allocator@PAVGraphicElement@@@std@@@std@@ABEABIXZ 10032a70 f i whiteboard.obj
 0001:00031a90       ?_Mysize@?$deque@UMMHS@AlliesWhiteboard@@V?$allocator@UMMHS@AlliesWhiteboard@@@std@@@std@@AAEAAIXZ 10032a90 f i whiteboard.obj
 0001:00031ab0       ?_Mysize@?$deque@UMMHS@AlliesWhiteboard@@V?$allocator@UMMHS@AlliesWhiteboard@@@std@@@std@@ABEABIXZ 10032ab0 f i whiteboard.obj
 0001:00031ad0       ?_Orphan_all@?$deque@PAVGraphicElement@@V?$allocator@PAVGraphicElement@@@std@@@std@@AAEXXZ 10032ad0 f i whiteboard.obj
 0001:00031af0       ?_Orphan_all@?$deque@UMMHS@AlliesWhiteboard@@V?$allocator@UMMHS@AlliesWhiteboard@@@std@@@std@@AAEXXZ 10032af0 f i whiteboard.obj
 0001:00031b10       ?_Release@?$_Uninitialized_backout@PAPAPAVGraphicElement@@@std@@QAEPAPAPAVGraphicElement@@XZ 10032b10 f i whiteboard.obj
 0001:00031b30       ?_Release@?$_Uninitialized_backout@PAPAUMMHS@AlliesWhiteboard@@@std@@QAEPAPAUMMHS@AlliesWhiteboard@@XZ 10032b30 f i whiteboard.obj
 0001:00031b50       ?_Swap_proxy_and_iterators@_Container_base0@std@@QAEXAAU12@@Z 10032b50 f i whiteboard.obj
 0001:00031b60       ?_Take_contents@?$_Vector_val@U?$_Simple_types@PAVGraphicElement@@@std@@@std@@QAEXAAV12@@Z 10032b60 f i whiteboard.obj
 0001:00031bc0       ?_Tidy@?$deque@PAVGraphicElement@@V?$allocator@PAVGraphicElement@@@std@@@std@@AAEXXZ 10032bc0 f i whiteboard.obj
 0001:00031ce0       ?_Tidy@?$deque@UMMHS@AlliesWhiteboard@@V?$allocator@UMMHS@AlliesWhiteboard@@@std@@@std@@AAEXXZ 10032ce0 f i whiteboard.obj
 0001:00031e00       ?_Tidy@?$vector@PAVGraphicElement@@V?$allocator@PAVGraphicElement@@@std@@@std@@AAEXXZ 10032e00 f i whiteboard.obj
 0001:00031ec0       ?_Unchecked_begin@?$deque@PAVGraphicElement@@V?$allocator@PAVGraphicElement@@@std@@@std@@QAE?AV?$_Deque_unchecked_iterator@V?$_Deque_val@U?$_Deque_simple_types@PAVGraphicElement@@@std@@@std@@@2@XZ 10032ec0 f i whiteboard.obj
 0001:00031f00       ?_Unchecked_begin@?$deque@UMMHS@AlliesWhiteboard@@V?$allocator@UMMHS@AlliesWhiteboard@@@std@@@std@@QAE?AV?$_Deque_unchecked_iterator@V?$_Deque_val@U?$_Deque_simple_types@UMMHS@AlliesWhiteboard@@@std@@@std@@@2@XZ 10032f00 f i whiteboard.obj
 0001:00031f40       ?_Unchecked_end@?$deque@UMMHS@AlliesWhiteboard@@V?$allocator@UMMHS@AlliesWhiteboard@@@std@@@std@@QAE?AV?$_Deque_unchecked_iterator@V?$_Deque_val@U?$_Deque_simple_types@UMMHS@AlliesWhiteboard@@@std@@@std@@@2@XZ 10032f40 f i whiteboard.obj
 0001:00031f80       ?_Xlen@?$deque@PAVGraphicElement@@V?$allocator@PAVGraphicElement@@@std@@@std@@ABEXXZ 10032f80 f i whiteboard.obj
 0001:00031fa0       ?_Xlen@?$deque@UMMHS@AlliesWhiteboard@@V?$allocator@UMMHS@AlliesWhiteboard@@@std@@@std@@ABEXXZ 10032fa0 f i whiteboard.obj
 0001:00031fc0       ?allocate@?$allocator@PAPAVGraphicElement@@@std@@QAEPAPAPAVGraphicElement@@I@Z 10032fc0 f i whiteboard.obj
 0001:00031fe0       ?allocate@?$allocator@PAUMMHS@AlliesWhiteboard@@@std@@QAEPAPAUMMHS@AlliesWhiteboard@@I@Z 10032fe0 f i whiteboard.obj
 0001:00032000       ?allocate@?$allocator@PAVGraphicElement@@@std@@QAEPAPAVGraphicElement@@I@Z 10033000 f i whiteboard.obj
 0001:00032020       ?allocate@?$allocator@UMMHS@AlliesWhiteboard@@@std@@QAEPAUMMHS@AlliesWhiteboard@@I@Z 10033020 f i whiteboard.obj
 0001:00032040       ?back@?$deque@UMMHS@AlliesWhiteboard@@V?$allocator@UMMHS@AlliesWhiteboard@@@std@@@std@@QAEAAUMMHS@AlliesWhiteboard@@XZ 10033040 f i whiteboard.obj
 0001:000320a0       ?clear@?$deque@UMMHS@AlliesWhiteboard@@V?$allocator@UMMHS@AlliesWhiteboard@@@std@@@std@@QAEXXZ 100330a0 f i whiteboard.obj
 0001:000320c0       ?deallocate@?$allocator@PAPAVGraphicElement@@@std@@QAEXQAPAPAVGraphicElement@@I@Z 100330c0 f i whiteboard.obj
 0001:000320e0       ?deallocate@?$allocator@PAUMMHS@AlliesWhiteboard@@@std@@QAEXQAPAUMMHS@AlliesWhiteboard@@I@Z 100330e0 f i whiteboard.obj
 0001:00032100       ?deallocate@?$allocator@PAVGraphicElement@@@std@@QAEXQAPAVGraphicElement@@I@Z 10033100 f i whiteboard.obj
 0001:00032120       ?deallocate@?$allocator@UMMHS@AlliesWhiteboard@@@std@@QAEXQAUMMHS@AlliesWhiteboard@@I@Z 10033120 f i whiteboard.obj
 0001:00032140       ?empty@?$deque@PAVGraphicElement@@V?$allocator@PAVGraphicElement@@@std@@@std@@QBE_NXZ 10033140 f i whiteboard.obj
 0001:00032170       ?empty@?$deque@UMMHS@AlliesWhiteboard@@V?$allocator@UMMHS@AlliesWhiteboard@@@std@@@std@@QBE_NXZ 10033170 f i whiteboard.obj
 0001:000321a0       ?front@?$deque@PAVGraphicElement@@V?$allocator@PAVGraphicElement@@@std@@@std@@QAEAAPAVGraphicElement@@XZ 100331a0 f i whiteboard.obj
 0001:000321c0       ?max_size@?$_Default_allocator_traits@V?$allocator@PAVGraphicElement@@@std@@@std@@SGIABV?$allocator@PAVGraphicElement@@@2@@Z 100331c0 f i whiteboard.obj
 0001:000321d0       ?max_size@?$_Default_allocator_traits@V?$allocator@UMMHS@AlliesWhiteboard@@@std@@@std@@SGIABV?$allocator@UMMHS@AlliesWhiteboard@@@2@@Z 100331d0 f i whiteboard.obj
 0001:000321e0       ?max_size@?$deque@PAVGraphicElement@@V?$allocator@PAVGraphicElement@@@std@@@std@@QBEIXZ 100331e0 f i whiteboard.obj
 0001:00032220       ?max_size@?$deque@UMMHS@AlliesWhiteboard@@V?$allocator@UMMHS@AlliesWhiteboard@@@std@@@std@@QBEIXZ 10033220 f i whiteboard.obj
 0001:00032260       ?pop_back@?$deque@PAVGraphicElement@@V?$allocator@PAVGraphicElement@@@std@@@std@@QAEXXZ 10033260 f i whiteboard.obj
 0001:00032330       ?pop_back@?$deque@UMMHS@AlliesWhiteboard@@V?$allocator@UMMHS@AlliesWhiteboard@@@std@@@std@@QAEXXZ 10033330 f i whiteboard.obj
 0001:00032400       ?pop_front@?$deque@PAVGraphicElement@@V?$allocator@PAVGraphicElement@@@std@@@std@@QAEXXZ 10033400 f i whiteboard.obj
 0001:000324d0       ?push_back@?$deque@PAVGraphicElement@@V?$allocator@PAVGraphicElement@@@std@@@std@@QAEX$$QAPAVGraphicElement@@@Z 100334d0 f i whiteboard.obj
 0001:00032500       ?push_front@?$deque@UMMHS@AlliesWhiteboard@@V?$allocator@UMMHS@AlliesWhiteboard@@@std@@@std@@QAEXABUMMHS@AlliesWhiteboard@@@Z 10033500 f i whiteboard.obj
 0001:00032520       ?size@?$deque@PAVGraphicElement@@V?$allocator@PAVGraphicElement@@@std@@@std@@QBEIXZ 10033520 f i whiteboard.obj
 0001:00032540       ?size@?$deque@UMMHS@AlliesWhiteboard@@V?$allocator@UMMHS@AlliesWhiteboard@@@std@@@std@@QBEIXZ 10033540 f i whiteboard.obj
 0001:00032560       ?size@?$vector@PAVGraphicElement@@V?$allocator@PAVGraphicElement@@@std@@@std@@QBEIXZ 10033560 f i whiteboard.obj
 0001:00032590       ??0PCX@@QAE@XZ             10033590 f   PCX.obj
 0001:000325d0       ??1PCX@@QAE@XZ             100335d0 f   PCX.obj
 0001:00032630       ?CopyPalette@PCX@@QAEXPAUtagPALETTEENTRY@@@Z 10033630 f   PCX.obj
 0001:00032690       ?Erase@PCX@@QAEXXZ         10033690 f   PCX.obj
 0001:000326d0       ?Height@PCX@@QAEJXZ        100336d0 f   PCX.obj
 0001:000326f0       ?Load24@PCX@@QAEHPBD@Z     100336f0 f   PCX.obj
 0001:000328e0       ?Load@PCX@@QAEHPBDH@Z      100338e0 f   PCX.obj
 0001:00032c40       ?NewBuffer@PCX@@QAEPAEFF@Z 10033c40 f   PCX.obj
 0001:00032ca0       ?ReadLine24@PCX@@AAEPAEPAEKF@Z 10033ca0 f   PCX.obj
 0001:00032d90       ?Save@PCX@@QAEHPBD@Z       10033d90 f   PCX.obj
 0001:000330b0       ?SetBuffer@PCX@@QAEPAEPAE@Z 100340b0 f   PCX.obj
 0001:000330e0       ?SetPalette@PCX@@QAEXPAUtagPALETTEENTRY@@@Z 100340e0 f   PCX.obj
 0001:00033120       ?Width@PCX@@QAEJXZ         10034120 f   PCX.obj
 0001:00033130       ?WriteLine@PCX@@AAEPAEPAEK@Z 10034130 f   PCX.obj
 0001:000332b0       ?CreateSurfPCXResource@@YGPAUIDirectDrawSurface@@GH@Z 100342b0 f   pcxread.obj
 0001:00033460       ?PCX2BitMap@@YGXPAEPAUpcx_picture_typ@@J@Z 10034460 f   pcxread.obj
 0001:00033650       ?RestoreFromPCX@@YGXGPAUIDirectDrawSurface@@@Z 10034650 f   pcxread.obj
 0001:000337a0       ?RestoreFromPCXFile@@YGXPADPAUIDirectDrawSurface@@@Z 100347a0 f   pcxread.obj
 0001:00033920       ?strrchr@@YAPADQADH@Z      10034920 f i etc.obj
 0001:00033940       _CalcCRC@8                 10034940 f   etc.obj
 0001:000339e0       _GetMinValidLenWithMatchOpcode@8 100349e0 f   etc.obj
 0001:00033a20       _GetOpCodeSize@4           10034a20 f   etc.obj
 0001:00033cc0       _MemWriteWithBackup@16     10034cc0 f   etc.obj
 0001:00033da0       _RegReadData@24            10034da0 f   etc.obj
 0001:00033e30       _RegReadDword@16           10034e30 f   etc.obj
 0001:00033e50       _RegReadStr@20             10034e50 f   etc.obj
 0001:00033e80       _RegWriteData@24           10034e80 f   etc.obj
 0001:00033f10       _RegWriteDword@16          10034f10 f   etc.obj
 0001:00033f30       _RegWriteStr@20            10034f30 f   etc.obj
 0001:00033f60       _X86RedirectOpcodeToNewBase@16 10034f60 f   etc.obj
 0001:00034340       _X86ShallToRedirect@20     10035340 f   etc.obj
 0001:00034620       _clean_remark@8            10035620 f   etc.obj
 0001:00034670       _duplicate_str@4           10035670 f   etc.obj
 0001:000346d0       _getDBCSlen@4              100356d0 f   etc.obj
 0001:00034740       _memfind@24                10035740 f   etc.obj
 0001:000348b0       _trim_crlf_@4              100358b0 f   etc.obj
 0001:000349b0       _vkToStr@12                100359b0 f   etc.obj
 0001:00035a40       ??0SingleHook@@QAE@IKHPAE@Z 10036a40 f   Hook.obj
 0001:00035a80       ??0SingleHook@@QAE@PAEKH0@Z 10036a80 f   Hook.obj
 0001:00035ac0       ??0SingleHook@@QAE@XZ      10036ac0 f   Hook.obj
 0001:00035af0       ??1SingleHook@@QAE@XZ      10036af0 f   Hook.obj
 0001:00035b90       ?AddrToHook@SingleHook@@UAEPAXPAX@Z 10036b90 f   Hook.obj
 0001:00035bb0       ?AddrToHook@SingleHook@@UAEQAXXZ 10036bb0 f   Hook.obj
 0001:00035bd0       ?AddrToRtn@SingleHook@@QAEPAXXZ 10036bd0 f   Hook.obj
 0001:00035bf0       ?Hook@SingleHook@@UAEXXZ   10036bf0 f   Hook.obj
 0001:00035c30       ?InitHookClass@SingleHook@@UAEXPAEKH0@Z 10036c30 f   Hook.obj
 0001:00035db0       ?LenToHook@SingleHook@@UAEKK@Z 10036db0 f   Hook.obj
 0001:00035dd0       ?ThisHookMode@SingleHook@@UAE?BHXZ 10036dd0 f   Hook.obj
 0001:00035df0       ?ThisHookMode@SingleHook@@UAEHH@Z 10036df0 f   Hook.obj
 0001:00035e10       ?UnHook@SingleHook@@UAEXXZ 10036e10 f   Hook.obj
 0001:00035e50       ?X86CurrentThreadStackBufferFixRtnAddr@@YGPAUtagInlineX86StackBuffer@@PAPAU1@@Z 10036e50 f   InlineHook.obj
 0001:00035f00       ?X86CurrentThreadStackBuffer@@YGPAUtagInlineX86StackBuffer@@PAPAU1@@Z 10036f00 f   InlineHook.obj
 0001:00035f90       ??0InlineSingleHook@@QAE@IKHP6GHPAUtagInlineX86StackBuffer@@@Z@Z 10036f90 f   InlineHook.obj
 0001:00036010       ??0InlineSingleHook@@QAE@IKHPAX@Z 10037010 f   InlineHook.obj
 0001:00036090       ??0InlineSingleHook@@QAE@XZ 10037090 f   InlineHook.obj
 0001:00036100       ??1InlineSingleHook@@QAE@XZ 10037100 f   InlineHook.obj
 0001:00036200       ?Hook@InlineSingleHook@@UAEXXZ 10037200 f   InlineHook.obj
 0001:000362e0       ?InitHookClass@InlineSingleHook@@AAEXQAEKHPAX1@Z 100372e0 f   InlineHook.obj
 0001:00036600       ?NewBytesForInlineHook@InlineSingleHook@@QAEPAEPAE@Z 10037600 f   InlineHook.obj
 0001:00036630       ?RedirectedOpcodeInStub@InlineSingleHook@@QAEQAXXZ 10037630 f   InlineHook.obj
 0001:00036650       ?RedirectedOrgOpcodes@InlineSingleHook@@QAEQAEXZ 10037650 f   InlineHook.obj
 0001:00036670       ?RtnAddrOfHook@InlineSingleHook@@QAEQAXXZ 10037670 f   InlineHook.obj
 0001:00036690       ?SetParamOfHook@InlineSingleHook@@QAEPAXPAX@Z 10037690 f   InlineHook.obj
 0001:000366c0       ?X86InlineHookRouter@@YGXXZ 100376c0 f   InlineHook.obj
 0001:00036790       ??0CGraphic@@QAE@XZ        10037790 f   cgraphic.obj
 0001:000367b0       ??1CGraphic@@QAE@XZ        100377b0 f   cgraphic.obj
 0001:000367c0       ?DrawRotateRect@CGraphic@@QAEXPAUIDirectDrawSurface@@HHH@Z 100377c0 f   cgraphic.obj
 0001:00036a00       ?GenerateLookupTables@CGraphic@@AAEXXZ 10037a00 f   cgraphic.obj
 0001:00036a90       ??$?0$$V@?$_Compressed_pair@V?$allocator@U?$_List_node@PAVGraphicElement@@PAX@std@@@std@@V?$_List_val@U?$_List_simple_types@PAVGraphicElement@@@std@@@2@$00@std@@QAE@U_Zero_then_variadic_args_t@1@@Z 10037a90 f i ElementHandler.obj
 0001:00036ab0       ??$?0ABQAVGraphicElement@@@?$_List_node_emplace_op2@V?$allocator@U?$_List_node@PAVGraphicElement@@PAX@std@@@std@@@std@@QAE@AAV?$allocator@U?$_List_node@PAVGraphicElement@@PAX@std@@@1@ABQAVGraphicElement@@@Z 10037ab0 f i ElementHandler.obj
 0001:00036b30       ??$?0V?$allocator@PAVGraphicElement@@@std@@PAPAVGraphicElement@@PAPAV2@PAPAV2@@?$_Compressed_pair@V?$allocator@PAVGraphicElement@@@std@@V?$_Vector_val@U?$_Simple_types@PAVGraphicElement@@@std@@@2@$00@std@@QAE@U_One_then_variadic_args_t@1@$$QAV?$allocator@PAVGraphicElement@@@1@$$QAPAPAVGraphicElement@@22@Z 10037b30 f i ElementHandler.obj
 0001:00036b80       ??$_Construct_in_place@PAU?$_List_node@PAVGraphicElement@@PAX@std@@AAPAU12@@std@@YGXAAPAU?$_List_node@PAVGraphicElement@@PAX@0@0@Z 10037b80 f i ElementHandler.obj
 0001:00036bc0       ??$_Construct_in_place@PAU?$_List_node@PAVGraphicElement@@PAX@std@@ABQAU12@@std@@YGXAAPAU?$_List_node@PAVGraphicElement@@PAX@0@ABQAU10@@Z 10037bc0 f i ElementHandler.obj
 0001:00036c00       ??$_Construct_in_place@PAVGraphicElement@@ABQAV1@@std@@YGXAAPAVGraphicElement@@ABQAV1@@Z 10037c00 f i ElementHandler.obj
 0001:00036c40       ??$_Copy_memmove@PAPAVGraphicElement@@PAPAV1@@std@@YGPAPAVGraphicElement@@PAPAV1@00@Z 10037c40 f i ElementHandler.obj
 0001:00036cb0       ??$_Destroy_in_place@PAU?$_List_node@PAVGraphicElement@@PAX@std@@@std@@YGXAAPAU?$_List_node@PAVGraphicElement@@PAX@0@@Z 10037cb0 f i ElementHandler.obj
 0001:00036cc0       ??$_Emplace@ABQAVGraphicElement@@@?$list@PAVGraphicElement@@V?$allocator@PAVGraphicElement@@@std@@@std@@QAEPAU?$_List_node@PAVGraphicElement@@PAX@1@QAU21@ABQAVGraphicElement@@@Z 10037cc0 f i ElementHandler.obj
 0001:00036d40       ??$_Emplace_back@PAVGraphicElement@@@?$_Uninitialized_backout_al@V?$allocator@PAVGraphicElement@@@std@@@std@@QAEX$$QAPAVGraphicElement@@@Z 10037d40 f i ElementHandler.obj
 0001:00036d80       ??$_Emplace_back_with_unused_capacity@ABQAVGraphicElement@@@?$vector@PAVGraphicElement@@V?$allocator@PAVGraphicElement@@@std@@@std@@AAEAAPAVGraphicElement@@ABQAV2@@Z 10037d80 f i ElementHandler.obj
 0001:00036de0       ??$_Emplace_one_at_back@ABQAVGraphicElement@@@?$vector@PAVGraphicElement@@V?$allocator@PAVGraphicElement@@@std@@@std@@AAEAAPAVGraphicElement@@ABQAV2@@Z 10037de0 f i ElementHandler.obj
 0001:00036e40       ??$_Emplace_reallocate@ABQAVGraphicElement@@@?$vector@PAVGraphicElement@@V?$allocator@PAVGraphicElement@@@std@@@std@@AAEPAPAVGraphicElement@@QAPAV2@ABQAV2@@Z 10037e40 f i ElementHandler.obj
 0001:00037000       ??$_Free_non_head@V?$allocator@U?$_List_node@PAVGraphicElement@@PAX@std@@@std@@@?$_List_node@PAVGraphicElement@@PAX@std@@SGXAAV?$allocator@U?$_List_node@PAVGraphicElement@@PAX@std@@@1@PAU01@@Z 10038000 f i ElementHandler.obj
 0001:00037050       ??$_Freenode0@V?$allocator@U?$_List_node@PAVGraphicElement@@PAX@std@@@std@@@?$_List_node@PAVGraphicElement@@PAX@std@@SGXAAV?$allocator@U?$_List_node@PAVGraphicElement@@PAX@std@@@1@PAU01@@Z 10038050 f i ElementHandler.obj
 0001:000370b0       ??$_Freenode@V?$allocator@U?$_List_node@PAVGraphicElement@@PAX@std@@@std@@@?$_List_node@PAVGraphicElement@@PAX@std@@SGXAAV?$allocator@U?$_List_node@PAVGraphicElement@@PAX@std@@@1@PAU01@@Z 100380b0 f i ElementHandler.obj
 0001:00037100       ??$_Get_unwrapped@ABQAPAVGraphicElement@@@std@@YG?A_TABQAPAVGraphicElement@@@Z 10038100 f i ElementHandler.obj
 0001:00037110       ??$_To_address@PAPAVGraphicElement@@@std@@YG?A_PABQAPAVGraphicElement@@@Z 10038110 f i ElementHandler.obj
 0001:00037120       ??$_Uninitialized_move@PAPAVGraphicElement@@V?$allocator@PAVGraphicElement@@@std@@@std@@YGPAPAVGraphicElement@@QAPAV1@0PAPAV1@AAV?$allocator@PAVGraphicElement@@@0@@Z 10038120 f i ElementHandler.obj
 0001:000371f0       ??$_Voidify_iter@PAPAU?$_List_node@PAVGraphicElement@@PAX@std@@@std@@YGPAXPAPAU?$_List_node@PAVGraphicElement@@PAX@0@@Z 100381f0 f i ElementHandler.obj
 0001:00037200       ??$addressof@$$CBV?$_List_val@U?$_List_simple_types@PAVGraphicElement@@@std@@@std@@@std@@YGPBV?$_List_val@U?$_List_simple_types@PAVGraphicElement@@@std@@@0@ABV10@@Z 10038200 f i ElementHandler.obj
 0001:00037210       ??$addressof@PAU?$_List_node@PAVGraphicElement@@PAX@std@@@std@@YGPAPAU?$_List_node@PAVGraphicElement@@PAX@0@AAPAU10@@Z 10038210 f i ElementHandler.obj
 0001:00037220       ??$addressof@PAVGraphicElement@@@std@@YGPAPAVGraphicElement@@AAPAV1@@Z 10038220 f i ElementHandler.obj
 0001:00037230       ??$addressof@V?$_List_val@U?$_List_simple_types@PAVGraphicElement@@@std@@@std@@@std@@YGPAV?$_List_val@U?$_List_simple_types@PAVGraphicElement@@@std@@@0@AAV10@@Z 10038230 f i ElementHandler.obj
 0001:00037240       ??$construct@PAVGraphicElement@@ABQAV1@@?$_Default_allocator_traits@V?$allocator@PAVGraphicElement@@@std@@@std@@SGXAAV?$allocator@PAVGraphicElement@@@1@QAPAVGraphicElement@@ABQAV3@@Z 10038240 f i ElementHandler.obj
 0001:00037280       ??$construct@PAVGraphicElement@@ABQAV1@@?$_Default_allocator_traits@V?$allocator@U?$_List_node@PAVGraphicElement@@PAX@std@@@std@@@std@@SGXAAV?$allocator@U?$_List_node@PAVGraphicElement@@PAX@std@@@1@QAPAVGraphicElement@@ABQAV3@@Z 10038280 f i ElementHandler.obj
 0001:000372c0       ??$destroy@PAU?$_List_node@PAVGraphicElement@@PAX@std@@@?$_Default_allocator_traits@V?$allocator@U?$_List_node@PAVGraphicElement@@PAX@std@@@std@@@std@@SGXAAV?$allocator@U?$_List_node@PAVGraphicElement@@PAX@std@@@1@QAPAU?$_List_node@PAVGraphicElement@@PAX@1@@Z 100382c0 f i ElementHandler.obj
 0001:000372d0       ??$destroy@PAVGraphicElement@@@?$_Default_allocator_traits@V?$allocator@U?$_List_node@PAVGraphicElement@@PAX@std@@@std@@@std@@SGXAAV?$allocator@U?$_List_node@PAVGraphicElement@@PAX@std@@@1@QAPAVGraphicElement@@@Z 100382d0 f i ElementHandler.obj
 0001:000372e0       ??$emplace_back@ABQAVGraphicElement@@@?$vector@PAVGraphicElement@@V?$allocator@PAVGraphicElement@@@std@@@std@@QAE?A_TABQAVGraphicElement@@@Z 100382e0 f i ElementHandler.obj
 0001:00037310       ??$exchange@PAPAVGraphicElement@@$$T@std@@YGPAPAVGraphicElement@@AAPAPAV1@$$QA$$T@Z 10038310 f i ElementHandler.obj
 0001:00037330       ??$exchange@PAU?$_List_node@PAVGraphicElement@@PAX@std@@PAU12@@std@@YGPAU?$_List_node@PAVGraphicElement@@PAX@0@AAPAU10@$$QAPAU10@@Z 10038330 f i ElementHandler.obj
 0001:00037350       ??$forward@AAPAU?$_List_node@PAVGraphicElement@@PAX@std@@@std@@YGAAPAU?$_List_node@PAVGraphicElement@@PAX@0@AAPAU10@@Z 10038350 f i ElementHandler.obj
 0001:00037360       ??$forward@ABQAU?$_List_node@PAVGraphicElement@@PAX@std@@@std@@YGABQAU?$_List_node@PAVGraphicElement@@PAX@0@ABQAU10@@Z 10038360 f i ElementHandler.obj
 0001:00037370       ??$forward@ABQAVGraphicElement@@@std@@YGABQAVGraphicElement@@ABQAV1@@Z 10038370 f i ElementHandler.obj
 0001:00037380       ??$forward@PAPAVGraphicElement@@@std@@YG$$QAPAPAVGraphicElement@@AAPAPAV1@@Z 10038380 f i ElementHandler.obj
 0001:00037390       ??$forward@V?$allocator@PAVGraphicElement@@@std@@@std@@YG$$QAV?$allocator@PAVGraphicElement@@@0@AAV10@@Z 10038390 f i ElementHandler.obj
 0001:000373a0       ??$remove_if@V<lambda_3a0e3eee6a925c7ad0776f0f5c737a02>@@@?$list@PAVGraphicElement@@V?$allocator@PAVGraphicElement@@@std@@@std@@QAE?A_PV<lambda_3a0e3eee6a925c7ad0776f0f5c737a02>@@@Z 100383a0 f i ElementHandler.obj
 0001:00037450       ??0<lambda_3a0e3eee6a925c7ad0776f0f5c737a02>@@QAE@ABQAVGraphicElement@@@Z 10038450 f i ElementHandler.obj
 0001:00037470       ??0?$_Alloc_construct_ptr@V?$allocator@U?$_List_node@PAVGraphicElement@@PAX@std@@@std@@@std@@QAE@AAV?$allocator@U?$_List_node@PAVGraphicElement@@PAX@std@@@1@@Z 10038470 f i ElementHandler.obj
 0001:000374a0       ??0?$_List_const_iterator@V?$_List_val@U?$_List_simple_types@PAVGraphicElement@@@std@@@std@@@std@@QAE@PAU?$_List_node@PAVGraphicElement@@PAX@1@PBV?$_List_val@U?$_List_simple_types@PAVGraphicElement@@@std@@@1@@Z 100384a0 f i ElementHandler.obj
 0001:000374c0       ??0?$_List_const_iterator@V?$_List_val@U?$_List_simple_types@PAVGraphicElement@@@std@@@std@@@std@@QAE@XZ 100384c0 f i ElementHandler.obj
 0001:000374e0       ??0?$_List_iterator@V?$_List_val@U?$_List_simple_types@PAVGraphicElement@@@std@@@std@@@std@@QAE@PAU?$_List_node@PAVGraphicElement@@PAX@1@PBV?$_List_val@U?$_List_simple_types@PAVGraphicElement@@@std@@@1@@Z 100384e0 f i ElementHandler.obj
 0001:00037500       ??0?$_List_iterator@V?$_List_val@U?$_List_simple_types@PAVGraphicElement@@@std@@@std@@@std@@QAE@XZ 10038500 f i ElementHandler.obj
 0001:00037520       ??0?$_List_unchecked_const_iterator@V?$_List_val@U?$_List_simple_types@PAVGraphicElement@@@std@@@std@@U_Iterator_base0@2@@std@@QAE@PAU?$_List_node@PAVGraphicElement@@PAX@1@PBV?$_List_val@U?$_List_simple_types@PAVGraphicElement@@@std@@@1@@Z 10038520 f i ElementHandler.obj
 0001:00037550       ??0?$_List_unchecked_const_iterator@V?$_List_val@U?$_List_simple_types@PAVGraphicElement@@@std@@@std@@U_Iterator_base0@2@@std@@QAE@XZ 10038550 f i ElementHandler.obj
 0001:00037570       ??0?$_List_val@U?$_List_simple_types@PAVGraphicElement@@@std@@@std@@QAE@XZ 10038570 f i ElementHandler.obj
 0001:000375a0       ??0?$_Uninitialized_backout_al@V?$allocator@PAVGraphicElement@@@std@@@std@@QAE@PAPAVGraphicElement@@AAV?$allocator@PAVGraphicElement@@@1@@Z 100385a0 f i ElementHandler.obj
 0001:000375d0       ??0?$_Vector_val@U?$_Simple_types@PAVGraphicElement@@@std@@@std@@QAE@PAPAVGraphicElement@@00@Z 100385d0 f i ElementHandler.obj
 0001:00037600       ??0?$allocator@U?$_List_node@PAVGraphicElement@@PAX@std@@@std@@QAE@XZ 10038600 f i ElementHandler.obj
 0001:00037610       ??0?$list@PAVGraphicElement@@V?$allocator@PAVGraphicElement@@@std@@@std@@QAE@XZ 10038610 f i ElementHandler.obj
 0001:00037640       ??0?$vector@PAVGraphicElement@@V?$allocator@PAVGraphicElement@@@std@@@std@@QAE@$$QAV01@@Z 10038640 f i ElementHandler.obj
 0001:000376e0       ??0CElementHandler@@QAE@XZ 100386e0 f   ElementHandler.obj
 0001:00037720       ??0_Fake_proxy_ptr_impl@std@@QAE@ABU_Fake_allocator@1@ABU_Container_base0@1@@Z 10038720 f i ElementHandler.obj
 0001:00037730       ??0_List_node_remove_op@?$list@PAVGraphicElement@@V?$allocator@PAVGraphicElement@@@std@@@std@@QAE@AAV12@@Z 10038730 f i ElementHandler.obj
 0001:00037770       ??1?$_Alloc_construct_ptr@V?$allocator@U?$_List_node@PAVGraphicElement@@PAX@std@@@std@@@std@@QAE@XZ 10038770 f i ElementHandler.obj
 0001:000377c0       ??1?$_List_node_emplace_op2@V?$allocator@U?$_List_node@PAVGraphicElement@@PAX@std@@@std@@@std@@QAE@XZ 100387c0 f i ElementHandler.obj
 0001:00037820       ??1?$_Uninitialized_backout_al@V?$allocator@PAVGraphicElement@@@std@@@std@@QAE@XZ 10038820 f i ElementHandler.obj
 0001:00037850       ??1?$list@PAVGraphicElement@@V?$allocator@PAVGraphicElement@@@std@@@std@@QAE@XZ 10038850 f i ElementHandler.obj
 0001:00037870       ??1CElementHandler@@UAE@XZ 10038870 f   ElementHandler.obj
 0001:000379c0       ??1_List_node_remove_op@?$list@PAVGraphicElement@@V?$allocator@PAVGraphicElement@@@std@@@std@@QAE@XZ 100389c0 f i ElementHandler.obj
 0001:00037a80       ??8?$_List_const_iterator@V?$_List_val@U?$_List_simple_types@PAVGraphicElement@@@std@@@std@@@std@@QBE_NABV01@@Z 10038a80 f i ElementHandler.obj
 0001:00037ab0       ??9?$_List_const_iterator@V?$_List_val@U?$_List_simple_types@PAVGraphicElement@@@std@@@std@@@std@@QBE_NABV01@@Z 10038ab0 f i ElementHandler.obj
 0001:00037af0       ??D?$_List_const_iterator@V?$_List_val@U?$_List_simple_types@PAVGraphicElement@@@std@@@std@@@std@@QBEABQAVGraphicElement@@XZ 10038af0 f i ElementHandler.obj
 0001:00037b10       ??D?$_List_iterator@V?$_List_val@U?$_List_simple_types@PAVGraphicElement@@@std@@@std@@@std@@QBEAAPAVGraphicElement@@XZ 10038b10 f i ElementHandler.obj
 0001:00037b30       ??E?$_List_const_iterator@V?$_List_val@U?$_List_simple_types@PAVGraphicElement@@@std@@@std@@@std@@QAEAAV01@XZ 10038b30 f i ElementHandler.obj
 0001:00037b50       ??E?$_List_iterator@V?$_List_val@U?$_List_simple_types@PAVGraphicElement@@@std@@@std@@@std@@QAEAAV01@XZ 10038b50 f i ElementHandler.obj
 0001:00037b70       ??R<lambda_3a0e3eee6a925c7ad0776f0f5c737a02>@@QBE@ABQAVGraphicElement@@@Z 10038b70 f i ElementHandler.obj
 0001:00037ba0       ??_ECElementHandler@@UAEPAXI@Z 10038ba0 f i ElementHandler.obj
 0001:00037ba0       ??_GCElementHandler@@UAEPAXI@Z 10038ba0 f i ElementHandler.obj
 0001:00037be0       ?AddElement@CElementHandler@@QAEXPAVGraphicElement@@@Z 10038be0 f   ElementHandler.obj
 0001:00037c30       ?DeleteBetween@CElementHandler@@QAEXHHHH@Z 10038c30 f   ElementHandler.obj
 0001:00037e30       ?DeleteOn@CElementHandler@@QAEXHH@Z 10038e30 f   ElementHandler.obj
 0001:00037e70       ?GetArea@CElementHandler@@QAE?AV?$vector@PAVGraphicElement@@V?$allocator@PAVGraphicElement@@@std@@@std@@HHHH@Z 10038e70 f   ElementHandler.obj
 0001:000380f0       ?GetClosestElement@CElementHandler@@QAEPAVGraphicElement@@HH@Z 100390f0 f   ElementHandler.obj
 0001:00038100       ?MoveTextElement@CElementHandler@@QAEPAVGraphicElement@@PAV2@HH@Z 10039100 f   ElementHandler.obj
 0001:00038250       ?_Alloc_sentinel_and_proxy@?$list@PAVGraphicElement@@V?$allocator@PAVGraphicElement@@@std@@@std@@AAEXXZ 10039250 f i ElementHandler.obj
 0001:000382c0       ?_Allocate@?$_Alloc_construct_ptr@V?$allocator@U?$_List_node@PAVGraphicElement@@PAX@std@@@std@@@std@@QAEXXZ 100392c0 f i ElementHandler.obj
 0001:000382f0       ?_Calculate_growth@?$vector@PAVGraphicElement@@V?$allocator@PAVGraphicElement@@@std@@@std@@ABEII@Z 100392f0 f i ElementHandler.obj
 0001:00038350       ?_Change_array@?$vector@PAVGraphicElement@@V?$allocator@PAVGraphicElement@@@std@@@std@@AAEXQAPAVGraphicElement@@II@Z 10039350 f i ElementHandler.obj
 0001:000383f0       ?_Get_first@?$_Compressed_pair@V?$allocator@PAVGraphicElement@@@std@@V?$_Vector_val@U?$_Simple_types@PAVGraphicElement@@@std@@@2@$00@std@@QBEABV?$allocator@PAVGraphicElement@@@2@XZ 100393f0 f i ElementHandler.obj
 0001:00038400       ?_Get_first@?$_Compressed_pair@V?$allocator@U?$_List_node@PAVGraphicElement@@PAX@std@@@std@@V?$_List_val@U?$_List_simple_types@PAVGraphicElement@@@std@@@2@$00@std@@QAEAAV?$allocator@U?$_List_node@PAVGraphicElement@@PAX@std@@@2@XZ 10039400 f i ElementHandler.obj
 0001:00038410       ?_Get_first@?$_Compressed_pair@V?$allocator@U?$_List_node@PAVGraphicElement@@PAX@std@@@std@@V?$_List_val@U?$_List_simple_types@PAVGraphicElement@@@std@@@2@$00@std@@QBEABV?$allocator@U?$_List_node@PAVGraphicElement@@PAX@std@@@2@XZ 10039410 f i ElementHandler.obj
 0001:00038420       ?_Getal@?$list@PAVGraphicElement@@V?$allocator@PAVGraphicElement@@@std@@@std@@AAEAAV?$allocator@U?$_List_node@PAVGraphicElement@@PAX@std@@@2@XZ 10039420 f i ElementHandler.obj
 0001:00038440       ?_Getal@?$list@PAVGraphicElement@@V?$allocator@PAVGraphicElement@@@std@@@std@@ABEABV?$allocator@U?$_List_node@PAVGraphicElement@@PAX@std@@@2@XZ 10039440 f i ElementHandler.obj
 0001:00038460       ?_Getal@?$vector@PAVGraphicElement@@V?$allocator@PAVGraphicElement@@@std@@@std@@ABEABV?$allocator@PAVGraphicElement@@@2@XZ 10039460 f i ElementHandler.obj
 0001:00038480       ?_Make_iter@?$list@PAVGraphicElement@@V?$allocator@PAVGraphicElement@@@std@@@std@@QBE?AV?$_List_iterator@V?$_List_val@U?$_List_simple_types@PAVGraphicElement@@@std@@@std@@@2@PAU?$_List_node@PAVGraphicElement@@PAX@2@@Z 10039480 f i ElementHandler.obj
 0001:000384b0       ?_Orphan_ptr2@?$_List_val@U?$_List_simple_types@PAVGraphicElement@@@std@@@std@@QAEXPAU?$_List_node@PAVGraphicElement@@PAX@2@@Z 100394b0 f i ElementHandler.obj
 0001:000384c0       ?_Orphan_range@?$vector@PAVGraphicElement@@V?$allocator@PAVGraphicElement@@@std@@@std@@ABEXPAPAVGraphicElement@@0@Z 100394c0 f i ElementHandler.obj
 0001:000384d0       ?_Release@?$_Uninitialized_backout_al@V?$allocator@PAVGraphicElement@@@std@@@std@@QAEPAPAVGraphicElement@@XZ 100394d0 f i ElementHandler.obj
 0001:000384f0       ?_Release@_Fake_proxy_ptr_impl@std@@QAEXXZ 100394f0 f i ElementHandler.obj
 0001:00038500       ?_Tidy@?$list@PAVGraphicElement@@V?$allocator@PAVGraphicElement@@@std@@@std@@AAEXXZ 10039500 f i ElementHandler.obj
 0001:00038550       ?_Transfer_back@_List_node_remove_op@?$list@PAVGraphicElement@@V?$allocator@PAVGraphicElement@@@std@@@std@@QAEPAU?$_List_node@PAVGraphicElement@@PAX@3@QAU43@@Z 10039550 f i ElementHandler.obj
 0001:000385c0       ?_Transfer_before@?$_List_node_emplace_op2@V?$allocator@U?$_List_node@PAVGraphicElement@@PAX@std@@@std@@@std@@QAEPAU?$_List_node@PAVGraphicElement@@PAX@2@QAU32@@Z 100395c0 f i ElementHandler.obj
 0001:00038630       ?_Unlinknode@?$_List_val@U?$_List_simple_types@PAVGraphicElement@@@std@@@std@@QAEPAU?$_List_node@PAVGraphicElement@@PAX@2@PAU32@@Z 10039630 f i ElementHandler.obj
 0001:00038680       ?_Xlength@?$vector@PAVGraphicElement@@V?$allocator@PAVGraphicElement@@@std@@@std@@CGXXZ 10039680 f i ElementHandler.obj
 0001:00038690       ?allocate@?$allocator@U?$_List_node@PAVGraphicElement@@PAX@std@@@std@@QAEPAU?$_List_node@PAVGraphicElement@@PAX@2@I@Z 10039690 f i ElementHandler.obj
 0001:000386b0       ?back@?$vector@PAVGraphicElement@@V?$allocator@PAVGraphicElement@@@std@@@std@@QAEAAPAVGraphicElement@@XZ 100396b0 f i ElementHandler.obj
 0001:000386e0       ?begin@?$list@PAVGraphicElement@@V?$allocator@PAVGraphicElement@@@std@@@std@@QAE?AV?$_List_iterator@V?$_List_val@U?$_List_simple_types@PAVGraphicElement@@@std@@@std@@@2@XZ 100396e0 f i ElementHandler.obj
 0001:00038710       ?capacity@?$vector@PAVGraphicElement@@V?$allocator@PAVGraphicElement@@@std@@@std@@QBEIXZ 10039710 f i ElementHandler.obj
 0001:00038740       ?deallocate@?$_Default_allocator_traits@V?$allocator@U?$_List_node@PAVGraphicElement@@PAX@std@@@std@@@std@@SGXAAV?$allocator@U?$_List_node@PAVGraphicElement@@PAX@std@@@2@QAU?$_List_node@PAVGraphicElement@@PAX@2@I@Z 10039740 f i ElementHandler.obj
 0001:00038760       ?deallocate@?$allocator@U?$_List_node@PAVGraphicElement@@PAX@std@@@std@@QAEXQAU?$_List_node@PAVGraphicElement@@PAX@2@I@Z 10039760 f i ElementHandler.obj
 0001:00038780       ?empty@?$vector@PAVGraphicElement@@V?$allocator@PAVGraphicElement@@@std@@@std@@QBE_NXZ 10039780 f i ElementHandler.obj
 0001:000387c0       ?end@?$list@PAVGraphicElement@@V?$allocator@PAVGraphicElement@@@std@@@std@@QAE?AV?$_List_iterator@V?$_List_val@U?$_List_simple_types@PAVGraphicElement@@@std@@@std@@@2@XZ 100397c0 f i ElementHandler.obj
 0001:000387f0       ?erase@?$list@PAVGraphicElement@@V?$allocator@PAVGraphicElement@@@std@@@std@@QAE?AV?$_List_iterator@V?$_List_val@U?$_List_simple_types@PAVGraphicElement@@@std@@@std@@@2@V?$_List_const_iterator@V?$_List_val@U?$_List_simple_types@PAVGraphicElement@@@std@@@std@@@2@@Z 100397f0 f i ElementHandler.obj
 0001:00038840       ?max_size@?$_Default_allocator_traits@V?$allocator@U?$_List_node@PAVGraphicElement@@PAX@std@@@std@@@std@@SGIABV?$allocator@U?$_List_node@PAVGraphicElement@@PAX@std@@@2@@Z 10039840 f i ElementHandler.obj
 0001:00038850       ?max_size@?$list@PAVGraphicElement@@V?$allocator@PAVGraphicElement@@@std@@@std@@QBEIXZ 10039850 f i ElementHandler.obj
 0001:00038890       ?max_size@?$vector@PAVGraphicElement@@V?$allocator@PAVGraphicElement@@@std@@@std@@QBEIXZ 10039890 f i ElementHandler.obj
 0001:000388d0       ?pop_back@?$vector@PAVGraphicElement@@V?$allocator@PAVGraphicElement@@@std@@@std@@QAEXXZ 100398d0 f i ElementHandler.obj
 0001:00038960       ?push_back@?$list@PAVGraphicElement@@V?$allocator@PAVGraphicElement@@@std@@@std@@QAEXABQAVGraphicElement@@@Z 10039960 f i ElementHandler.obj
 0001:00038980       ?push_back@?$vector@PAVGraphicElement@@V?$allocator@PAVGraphicElement@@@std@@@std@@QAEXABQAVGraphicElement@@@Z 10039980 f i ElementHandler.obj
 0001:000389a0       ?remove@?$list@PAVGraphicElement@@V?$allocator@PAVGraphicElement@@@std@@@std@@QAE@ABQAVGraphicElement@@@Z 100399a0 f i ElementHandler.obj
 0001:000389c6       _ImmIsIME@4                100399c6 f   imm32:IMM32.dll
 0001:000389cc       _ImmAssociateContext@8     100399cc f   imm32:IMM32.dll
 0001:000389d2       _ImmGetCompositionStringA@16 100399d2 f   imm32:IMM32.dll
 0001:000389d8       _ImmGetCandidateListA@16   100399d8 f   imm32:IMM32.dll
 0001:000389de       _ImmEscapeA@16             100399de f   imm32:IMM32.dll
 0001:000389e4       _ImmNotifyIME@16           100399e4 f   imm32:IMM32.dll
 0001:000389ea       _GetAsyncKeyState@4        100399ea f   user32:USER32.dll
 0001:000389f0       _GetCursorPos@4            100399f0 f   user32:USER32.dll
 0001:000389f6       _SetWindowLongA@12         100399f6 f   user32:USER32.dll
 0001:000389fc       _GetKeyState@4             100399fc f   user32:USER32.dll
 0001:00038a02       _wsprintfA                 10039a02 f   user32:USER32.dll
 0001:00038a08       _GetForegroundWindow@0     10039a08 f   user32:USER32.dll
 0001:00038a0e       _GetClassNameA@12          10039a0e f   user32:USER32.dll
 0001:00038a14       _GetKeyboardLayout@4       10039a14 f   user32:USER32.dll
 0001:00038a1a       _SendMessageA@16           10039a1a f   user32:USER32.dll
 0001:00038a20       _DrawTextExA@24            10039a20 f   user32:USER32.dll
 0001:00038a26       _FillRect@12               10039a26 f   user32:USER32.dll
 0001:00038a2c       _CloseHandle@4             10039a2c f   kernel32:KERNEL32.dll
 0001:00038a32       _ReleaseMutex@4            10039a32 f   kernel32:KERNEL32.dll
 0001:00038a38       _WaitForSingleObject@8     10039a38 f   kernel32:KERNEL32.dll
 0001:00038a3e       _CreateMutexA@12           10039a3e f   kernel32:KERNEL32.dll
 0001:00038a44       _GetTickCount@0            10039a44 f   kernel32:KERNEL32.dll
 0001:00038a4a       _CreateFileA@28            10039a4a f   kernel32:KERNEL32.dll
 0001:00038a50       _ReadFile@20               10039a50 f   kernel32:KERNEL32.dll
 0001:00038a56       _GetLastError@0            10039a56 f   kernel32:KERNEL32.dll
 0001:00038a5c       _GetCurrentProcess@0       10039a5c f   kernel32:KERNEL32.dll
 0001:00038a62       _GetSystemDirectoryA@8     10039a62 f   kernel32:KERNEL32.dll
 0001:00038a68       _WriteProcessMemory@20     10039a68 f   kernel32:KERNEL32.dll
 0001:00038a6e       _MapViewOfFile@20          10039a6e f   kernel32:KERNEL32.dll
 0001:00038a74       _UnmapViewOfFile@4         10039a74 f   kernel32:KERNEL32.dll
 0001:00038a7a       _FreeLibrary@4             10039a7a f   kernel32:KERNEL32.dll
 0001:00038a80       _GetModuleFileNameA@12     10039a80 f   kernel32:KERNEL32.dll
 0001:00038a86       _GetProcAddress@8          10039a86 f   kernel32:KERNEL32.dll
 0001:00038a8c       _LoadLibraryA@4            10039a8c f   kernel32:KERNEL32.dll
 0001:00038a92       _lstrcpyA@8                10039a92 f   kernel32:KERNEL32.dll
 0001:00038a98       _lstrcatA@8                10039a98 f   kernel32:KERNEL32.dll
 0001:00038a9e       _CreateFileMappingA@24     10039a9e f   kernel32:KERNEL32.dll
 0001:00038aa4       _ReleaseSemaphore@12       10039aa4 f   kernel32:KERNEL32.dll
 0001:00038aaa       _CreateSemaphoreA@16       10039aaa f   kernel32:KERNEL32.dll
 0001:00038ab0       _Sleep@4                   10039ab0 f   kernel32:KERNEL32.dll
 0001:00038ab6       _CreateThread@24           10039ab6 f   kernel32:KERNEL32.dll
 0001:00038abc       _VirtualProtect@16         10039abc f   kernel32:KERNEL32.dll
 0001:00038ac2       _CreateDirectoryA@8        10039ac2 f   kernel32:KERNEL32.dll
 0001:00038ac8       _FindClose@4               10039ac8 f   kernel32:KERNEL32.dll
 0001:00038ace       _FindFirstFileA@8          10039ace f   kernel32:KERNEL32.dll
 0001:00038ad4       _GetFileSize@8             10039ad4 f   kernel32:KERNEL32.dll
 0001:00038ada       _GetModuleHandleA@4        10039ada f   kernel32:KERNEL32.dll
 0001:00038ae0       _lstrcmpiA@8               10039ae0 f   kernel32:KERNEL32.dll
 0001:00038ae6       _SetFilePointer@16         10039ae6 f   kernel32:KERNEL32.dll
 0001:00038aec       _WriteFile@20              10039aec f   kernel32:KERNEL32.dll
 0001:00038af2       _AddVectoredExceptionHandler@8 10039af2 f   kernel32:KERNEL32.dll
 0001:00038af8       _RemoveVectoredExceptionHandler@4 10039af8 f   kernel32:KERNEL32.dll
 0001:00038afe       _EnterCriticalSection@4    10039afe f   kernel32:KERNEL32.dll
 0001:00038b04       _LeaveCriticalSection@4    10039b04 f   kernel32:KERNEL32.dll
 0001:00038b0a       _GetTempPathA@8            10039b0a f   kernel32:KERNEL32.dll
 0001:00038b10       _GetTempFileNameA@16       10039b10 f   kernel32:KERNEL32.dll
 0001:00038b16       _GetPrivateProfileIntA@16  10039b16 f   kernel32:KERNEL32.dll
 0001:00038b1c       _GetPrivateProfileStringA@24 10039b1c f   kernel32:KERNEL32.dll
 0001:00038b22       _WritePrivateProfileStringA@16 10039b22 f   kernel32:KERNEL32.dll
 0001:00038b28       _IsDBCSLeadByte@4          10039b28 f   kernel32:KERNEL32.dll
 0001:00038b2e       _GetCurrentDirectoryA@8    10039b2e f   kernel32:KERNEL32.dll
 0001:00038b34       _GetFileAttributesA@4      10039b34 f   kernel32:KERNEL32.dll
 0001:00038b3a       _GetPrivateProfileSectionA@16 10039b3a f   kernel32:KERNEL32.dll
 0001:00038b40       _LoadResource@8            10039b40 f   kernel32:KERNEL32.dll
 0001:00038b46       _LockResource@4            10039b46 f   kernel32:KERNEL32.dll
 0001:00038b4c       _FindResourceA@12          10039b4c f   kernel32:KERNEL32.dll
 0001:00038b52       _IsBadWritePtr@8           10039b52 f   kernel32:KERNEL32.dll
 0001:00038b58       _GetCurrentThreadId@0      10039b58 f   kernel32:KERNEL32.dll
 0001:00038b5e       _CreateDCA@16              10039b5e f   gdi32:GDI32.dll
 0001:00038b64       _CreateDIBitmap@24         10039b64 f   gdi32:GDI32.dll
 0001:00038b6a       _CreatePalette@4           10039b6a f   gdi32:GDI32.dll
 0001:00038b70       _DeleteDC@4                10039b70 f   gdi32:GDI32.dll
 0001:00038b76       _DeleteObject@4            10039b76 f   gdi32:GDI32.dll
 0001:00038b7c       _GetDIBits@28              10039b7c f   gdi32:GDI32.dll
 0001:00038b82       _SelectObject@8            10039b82 f   gdi32:GDI32.dll
 0001:00038b88       _SelectPalette@12          10039b88 f   gdi32:GDI32.dll
 0001:00038b8e       _TextOutA@20               10039b8e f   gdi32:GDI32.dll
 0001:00038b94       _CreateFontA@56            10039b94 f   gdi32:GDI32.dll
 0001:00038b9a       _GetTextExtentPoint32A@16  10039b9a f   gdi32:GDI32.dll
 0001:00038ba0       _SetBkColor@8              10039ba0 f   gdi32:GDI32.dll
 0001:00038ba6       _SetTextColor@8            10039ba6 f   gdi32:GDI32.dll
 0001:00038bac       _RegCloseKey@4             10039bac f   advapi32:ADVAPI32.dll
 0001:00038bb2       _RegCreateKeyExA@36        10039bb2 f   advapi32:ADVAPI32.dll
 0001:00038bb8       _RegQueryValueExA@24       10039bb8 f   advapi32:ADVAPI32.dll
 0001:00038bbe       _RegSetValueExA@24         10039bbe f   advapi32:ADVAPI32.dll
 0001:00038bc4       ??2@YAPAXI@Z               10039bc4 f   LIBCMT:new_scalar.obj
 0001:00038bf4       ??3@YAXPAXI@Z              10039bf4 f   LIBCMT:delete_scalar_size.obj
 0001:00038c02       ??_U@YAPAXI@Z              10039c02 f   LIBCMT:new_array.obj
 0001:00038c0b       ??1type_info@@UAE@XZ       10039c0b f   LIBCMT:std_type_info_static.obj
 0001:00038c12       ??_Etype_info@@UAEPAXI@Z   10039c12 f i LIBCMT:std_type_info_static.obj
 0001:00038c12       ??_Gtype_info@@UAEPAXI@Z   10039c12 f i LIBCMT:std_type_info_static.obj
 0001:00038c35       ??_V@YAXPAX@Z              10039c35 f   LIBCMT:delete_array.obj
 0001:00038c40       __ftoui3                   10039c40 f   LIBCMT:ftol3.obj
 0001:00038c90       __ftoul3                   10039c90 f   LIBCMT:ftol3.obj
 0001:00038d00       __ftoul3_legacy            10039d00 f   LIBCMT:ftol3.obj
 0001:00038d30       __ftol3                    10039d30 f   LIBCMT:ftol3.obj
 0001:00038da0       __dtoui3                   10039da0 f   LIBCMT:ftol3.obj
 0001:00038e20       __dtoul3                   10039e20 f   LIBCMT:ftol3.obj
 0001:00038ed0       __dtoul3_legacy            10039ed0 f   LIBCMT:ftol3.obj
 0001:00038f00       __dtol3                    10039f00 f   LIBCMT:ftol3.obj
 0001:00038fb0       __ultod3                   10039fb0 f   LIBCMT:ftol3.obj
 0001:00039010       __ltod3                    1003a010 f   LIBCMT:ftol3.obj
 0001:00039051       ??3@YAXPAX@Z               1003a051 f   LIBCMT:delete_scalar.obj
 0001:00039060       __ftol2_sse_excpt          1003a060 f   LIBCMT:ftol2.obj
 0001:00039070       __ftol2_sse                1003a070 f   LIBCMT:ftol2.obj
 0001:00039080       __ftoi2                    1003a080 f   LIBCMT:ftol2.obj
 0001:00039100       __ftoui2                   1003a100 f   LIBCMT:ftol2.obj
 0001:000391b0       __ftol2                    1003a1b0 f   LIBCMT:ftol2.obj
 0001:00039260       __ftoul2                   1003a260 f   LIBCMT:ftol2.obj
 0001:00039320       __ftoul2_legacy            1003a320 f   LIBCMT:ftol2.obj
 0001:00039341       ??_L@YGXPAXIHP6EX0@Z1@Z    1003a341 f   LIBCMT:ehvecctr.obj
 0001:00039346       ??_L@YGXPAXIIP6EX0@Z1@Z    1003a346 f   LIBCMT:ehvecctr.obj
 0001:000393ba       ??_M@YGXPAXIHP6EX0@Z@Z     1003a3ba f   LIBCMT:ehvecdtr.obj
 0001:000393bf       ??_M@YGXPAXIIP6EX0@Z@Z     1003a3bf f   LIBCMT:ehvecdtr.obj
 0001:00039473       ?__ArrayUnwind@@YGXPAXIIP6EX0@Z@Z 1003a473 f   LIBCMT:ehvecdtr.obj
 0001:00039843       __CRT_INIT@12              1003a843 f   LIBCMT:dll_dllmain.obj
 0001:0003984c       __DllMainCRTStartup@12     1003a84c f   LIBCMT:dll_dllmain.obj
 0001:0003986f       ??0bad_alloc@std@@QAE@XZ   1003a86f f i LIBCMT:throw_bad_alloc.obj
 0001:00039887       ?__scrt_throw_std_bad_alloc@@YAXXZ 1003a887 f   LIBCMT:throw_bad_alloc.obj
 0001:000398a4       ?__scrt_throw_std_bad_array_new_length@@YAXXZ 1003a8a4 f   LIBCMT:throw_bad_alloc.obj
 0001:000398c1       ___isa_available_init      1003a8c1 f   LIBCMT:cpu_disp.obj
 0001:00039aa0       __SEH_prolog4              1003aaa0 f   LIBCMT:sehprolg4.obj
 0001:00039af0       __SEH_epilog4              1003aaf0 f   LIBCMT:sehprolg4.obj
 0001:00039b04       @_guard_check_icall_nop@4  1003ab04 f i LIBCMT:guard_support.obj
 0001:00039b07       _ReadNoFence               1003ab07 f i LIBCMT:guard_support.obj
 0001:00039b11       _ReadPointerNoFence        1003ab11 f i LIBCMT:guard_support.obj
 0001:00039b1b       ___castguard_check_failure_debugbreak 1003ab1b f i LIBCMT:guard_support.obj
 0001:00039b36       ___castguard_check_failure_fastfail 1003ab36 f i LIBCMT:guard_support.obj
 0001:00039b55       ___castguard_check_failure_nop 1003ab55 f i LIBCMT:guard_support.obj
 0001:00039b58       ___castguard_check_failure_os_handled 1003ab58 f i LIBCMT:guard_support.obj
 0001:00039bb4       ___castguard_slow_path_check_debugbreak 1003abb4 f i LIBCMT:guard_support.obj
 0001:00039be1       ___castguard_slow_path_check_fastfail 1003abe1 f i LIBCMT:guard_support.obj
 0001:00039c12       ___castguard_slow_path_check_nop 1003ac12 f i LIBCMT:guard_support.obj
 0001:00039c15       ___castguard_slow_path_check_os_handled 1003ac15 f i LIBCMT:guard_support.obj
 0001:00039c70       __guard_icall_checks_enforced 1003ac70 f i LIBCMT:guard_support.obj
 0001:00039ccf       ___security_init_cookie    1003accf f   LIBCMT:gs_support.obj
 0001:00039d1a       ?__scrt_initialize_type_info@@YAXXZ 1003ad1a f   LIBCMT:tncleanup.obj
 0001:00039d26       ?__scrt_uninitialize_type_info@@YAXXZ 1003ad26 f   LIBCMT:tncleanup.obj
 0001:00039d32       ___local_stdio_scanf_options 1003ad32 f i LIBCMT:default_local_stdio_options.obj
 0001:00039d38       ___scrt_initialize_default_local_stdio_options 1003ad38 f   LIBCMT:default_local_stdio_options.obj
 0001:00039d55       ?configure_argv@__scrt_narrow_argv_policy@@SAHXZ 1003ad55 f i LIBCMT:utility.obj
 0001:00039da6       ?initialize_environment@__scrt_narrow_environment_policy@@SAHXZ 1003ada6 f i LIBCMT:utility.obj
 0001:00039dde       _NtCurrentTeb              1003adde f i LIBCMT:utility.obj
 0001:00039de5       ___scrt_acquire_startup_lock 1003ade5 f   LIBCMT:utility.obj
 0001:00039e17       ___scrt_dllmain_after_initialize_c 1003ae17 f   LIBCMT:utility.obj
 0001:00039e42       ___scrt_dllmain_before_initialize_c 1003ae42 f   LIBCMT:utility.obj
 0001:00039e50       ___scrt_dllmain_crt_thread_attach 1003ae50 f   LIBCMT:utility.obj
 0001:00039e6f       ___scrt_dllmain_crt_thread_detach 1003ae6f f   LIBCMT:utility.obj
 0001:00039e7c       ___scrt_dllmain_exception_filter 1003ae7c f   LIBCMT:utility.obj
 0001:00039eb0       ___scrt_dllmain_uninitialize_c 1003aeb0 f   LIBCMT:utility.obj
 0001:00039ed3       ___scrt_dllmain_uninitialize_critical 1003aed3 f   LIBCMT:utility.obj
 0001:00039ee0       ___scrt_initialize_crt     1003aee0 f   LIBCMT:utility.obj
 0001:00039f19       ___scrt_initialize_onexit_tables 1003af19 f   LIBCMT:utility.obj
 0001:00039fa0       ___scrt_is_nonwritable_in_current_image 1003afa0 f   LIBCMT:utility.obj
 0001:0003a034       ___scrt_release_startup_lock 1003b034 f   LIBCMT:utility.obj
 0001:0003a051       ___scrt_uninitialize_crt   1003b051 f   LIBCMT:utility.obj
 0001:0003a079       __onexit                   1003b079 f   LIBCMT:utility.obj
 0001:0003a0a6       _at_quick_exit             1003b0a6 f   LIBCMT:utility.obj
 0001:0003a0c9       _atexit                    1003b0c9 f   LIBCMT:utility.obj
 0001:0003a0de       ___scrt_get_dyn_tls_init_callback 1003b0de f   LIBCMT:dyn_tls_init.obj
 0001:0003a0e4       ___scrt_fastfail           1003b0e4 f   LIBCMT:utility_desktop.obj
 0001:0003a1ff       ___scrt_get_show_window_mode 1003b1ff f   LIBCMT:utility_desktop.obj
 0001:0003a230       ___scrt_initialize_mta     1003b230 f   LIBCMT:utility_desktop.obj
 0001:0003a235       ___scrt_initialize_winrt   1003b235 f   LIBCMT:utility_desktop.obj
 0001:0003a238       ___scrt_is_managed_app     1003b238 f   LIBCMT:utility_desktop.obj
 0001:0003a27a       ___scrt_set_unhandled_exception_filter 1003b27a f   LIBCMT:utility_desktop.obj
 0001:0003a286       ___scrt_exe_initialize_mta 1003b286 f   LIBCMT:utility_desktop.obj
 0001:0003a286       ___scrt_stub_for_initialize_mta 1003b286 f   LIBCMT:utility_desktop.obj
 0001:0003a289       ___scrt_unhandled_exception_filter@4 1003b289 f   LIBCMT:utility_desktop.obj
 0001:0003a2df       __crt_debugger_hook        1003b2df f   LIBCMT:utility_desktop.obj
 0001:0003a2e7       __RTC_Initialize           1003b2e7 f   LIBCMT:initsect.obj
 0001:0003a313       __RTC_Terminate            1003b313 f   LIBCMT:initsect.obj
 0001:0003a33f       @__security_check_cookie@4 1003b33f f   LIBCMT:secchk.obj
 0001:0003a34d       __get_startup_argv_mode    1003b34d f   LIBCMT:argv_mode.obj
 0001:0003a351       ___scrt_is_ucrt_dll_in_use 1003b351 f   LIBCMT:ucrt_detection.obj
 0001:0003a35d       ___raise_securityfailure   1003b35d f   LIBCMT:gs_report.obj
 0001:0003a385       ___report_gsfailure        1003b385 f   LIBCMT:gs_report.obj
 0001:0003a47f       ___report_rangecheckfailure 1003b47f f   LIBCMT:gs_report.obj
 0001:0003a48b       ___report_securityfailure  1003b48b f   LIBCMT:gs_report.obj
 0001:0003a55a       ___report_securityfailureEx 1003b55a f   LIBCMT:gs_report.obj
 0001:0003a66f       ??0bad_function_call@std@@QAE@ABV01@@Z 1003b66f f i libcpmt:xthrow.obj
 0001:0003a68a       ??0bad_function_call@std@@QAE@XZ 1003b68a f i libcpmt:xthrow.obj
 0001:0003a69b       ??0exception@std@@QAE@QBD@Z 1003b69b f i libcpmt:xthrow.obj
 0001:0003a6d0       ??0exception@std@@QAE@XZ   1003b6d0 f i libcpmt:xthrow.obj
 0001:0003a6e1       ??0invalid_argument@std@@QAE@ABV01@@Z 1003b6e1 f i libcpmt:xthrow.obj
 0001:0003a6fc       ??0invalid_argument@std@@QAE@PBD@Z 1003b6fc f i libcpmt:xthrow.obj
 0001:0003a71b       ??0length_error@std@@QAE@ABV01@@Z 1003b71b f i libcpmt:xthrow.obj
 0001:0003a736       ??0length_error@std@@QAE@PBD@Z 1003b736 f i libcpmt:xthrow.obj
 0001:0003a755       ??0logic_error@std@@QAE@ABV01@@Z 1003b755 f i libcpmt:xthrow.obj
 0001:0003a770       ??0logic_error@std@@QAE@PBD@Z 1003b770 f i libcpmt:xthrow.obj
 0001:0003a78f       ??0out_of_range@std@@QAE@ABV01@@Z 1003b78f f i libcpmt:xthrow.obj
 0001:0003a7aa       ??0out_of_range@std@@QAE@PBD@Z 1003b7aa f i libcpmt:xthrow.obj
 0001:0003a7c9       ??0overflow_error@std@@QAE@ABV01@@Z 1003b7c9 f i libcpmt:xthrow.obj
 0001:0003a7e4       ??0overflow_error@std@@QAE@PBD@Z 1003b7e4 f i libcpmt:xthrow.obj
 0001:0003a803       ??0regex_error@std@@QAE@ABV01@@Z 1003b803 f i libcpmt:xthrow.obj
 0001:0003a827       ??0regex_error@std@@QAE@W4error_type@regex_constants@1@@Z 1003b827 f i libcpmt:xthrow.obj
 0001:0003a855       ??0runtime_error@std@@QAE@ABV01@@Z 1003b855 f i libcpmt:xthrow.obj
 0001:0003a870       ??0runtime_error@std@@QAE@PBD@Z 1003b870 f i libcpmt:xthrow.obj
 0001:0003a88f       ??1bad_function_call@std@@UAE@XZ 1003b88f f i libcpmt:xthrow.obj
 0001:0003a8a0       ??1invalid_argument@std@@UAE@XZ 1003b8a0 f i libcpmt:xthrow.obj
 0001:0003a8b1       ??1length_error@std@@UAE@XZ 1003b8b1 f i libcpmt:xthrow.obj
 0001:0003a8c2       ??1logic_error@std@@UAE@XZ 1003b8c2 f i libcpmt:xthrow.obj
 0001:0003a8d3       ??1out_of_range@std@@UAE@XZ 1003b8d3 f i libcpmt:xthrow.obj
 0001:0003a8e4       ??1overflow_error@std@@UAE@XZ 1003b8e4 f i libcpmt:xthrow.obj
 0001:0003a8f5       ??1regex_error@std@@UAE@XZ 1003b8f5 f i libcpmt:xthrow.obj
 0001:0003a906       ??1runtime_error@std@@UAE@XZ 1003b906 f i libcpmt:xthrow.obj
 0001:0003a917       ??_Ebad_function_call@std@@UAEPAXI@Z 1003b917 f i libcpmt:xthrow.obj
 0001:0003a917       ??_Gbad_function_call@std@@UAEPAXI@Z 1003b917 f i libcpmt:xthrow.obj
 0001:0003a944       ??_Einvalid_argument@std@@UAEPAXI@Z 1003b944 f i libcpmt:xthrow.obj
 0001:0003a944       ??_Ginvalid_argument@std@@UAEPAXI@Z 1003b944 f i libcpmt:xthrow.obj
 0001:0003a971       ??_Elength_error@std@@UAEPAXI@Z 1003b971 f i libcpmt:xthrow.obj
 0001:0003a971       ??_Glength_error@std@@UAEPAXI@Z 1003b971 f i libcpmt:xthrow.obj
 0001:0003a99e       ??_Elogic_error@std@@UAEPAXI@Z 1003b99e f i libcpmt:xthrow.obj
 0001:0003a99e       ??_Glogic_error@std@@UAEPAXI@Z 1003b99e f i libcpmt:xthrow.obj
 0001:0003a9cb       ??_Eout_of_range@std@@UAEPAXI@Z 1003b9cb f i libcpmt:xthrow.obj
 0001:0003a9cb       ??_Gout_of_range@std@@UAEPAXI@Z 1003b9cb f i libcpmt:xthrow.obj
 0001:0003a9f8       ??_Eoverflow_error@std@@UAEPAXI@Z 1003b9f8 f i libcpmt:xthrow.obj
 0001:0003a9f8       ??_Goverflow_error@std@@UAEPAXI@Z 1003b9f8 f i libcpmt:xthrow.obj
 0001:0003aa25       ??_Eregex_error@std@@UAEPAXI@Z 1003ba25 f i libcpmt:xthrow.obj
 0001:0003aa25       ??_Gregex_error@std@@UAEPAXI@Z 1003ba25 f i libcpmt:xthrow.obj
 0001:0003aa52       ??_Eruntime_error@std@@UAEPAXI@Z 1003ba52 f i libcpmt:xthrow.obj
 0001:0003aa52       ??_Gruntime_error@std@@UAEPAXI@Z 1003ba52 f i libcpmt:xthrow.obj
 0001:0003aa7f       ?_Stringify@regex_error@std@@CAPBDW4error_type@regex_constants@2@@Z 1003ba7f f i libcpmt:xthrow.obj
 0001:0003ab3f       ?_Xbad_alloc@std@@YAXXZ    1003bb3f f   libcpmt:xthrow.obj
 0001:0003ab5c       ?_Xbad_function_call@std@@YAXXZ 1003bb5c f   libcpmt:xthrow.obj
 0001:0003ab79       ?_Xinvalid_argument@std@@YAXPBD@Z 1003bb79 f   libcpmt:xthrow.obj
 0001:0003ab99       ?_Xlength_error@std@@YAXPBD@Z 1003bb99 f   libcpmt:xthrow.obj
 0001:0003abb9       ?_Xout_of_range@std@@YAXPBD@Z 1003bbb9 f   libcpmt:xthrow.obj
 0001:0003abd9       ?_Xoverflow_error@std@@YAXPBD@Z 1003bbd9 f   libcpmt:xthrow.obj
 0001:0003abf9       ?_Xregex_error@std@@YAXW4error_type@regex_constants@1@@Z 1003bbf9 f   libcpmt:xthrow.obj
 0001:0003ac19       ?_Xruntime_error@std@@YAXPBD@Z 1003bc19 f   libcpmt:xthrow.obj
 0001:0003ac39       ?what@bad_function_call@std@@UBEPBDXZ 1003bc39 f i libcpmt:xthrow.obj
 0001:0003ac40       _memcpy                    1003bc40 f   libvcruntime:memcpy.obj
 0001:0003b1c0       _memset                    1003c1c0 f   libvcruntime:memset.obj
 0001:0003b31a       ??$?0AAViterator@TryBlockMap@__FrameHandler3@@AAV012@$0A@@?$pair@Viterator@TryBlockMap@__FrameHandler3@@V123@@std@@QAE@AAViterator@TryBlockMap@__FrameHandler3@@0@Z 1003c31a f i libvcruntime:trnsctrl.obj
 0001:0003b33e       ??$forward@AAViterator@TryBlockMap@__FrameHandler3@@@std@@YAAAViterator@TryBlockMap@__FrameHandler3@@AAV123@@Z 1003c33e f i libvcruntime:trnsctrl.obj
 0001:0003b346       ??0iterator@TryBlockMap@__FrameHandler3@@QAE@AAV12@I@Z 1003c346 f i libvcruntime:trnsctrl.obj
 0001:0003b35a       ?GetRangeOfTrysToCheck@__FrameHandler3@@SA?AU?$pair@Viterator@TryBlockMap@__FrameHandler3@@V123@@std@@AAVTryBlockMap@1@HPAXPBU_s_FuncInfo@@H@Z 1003c35a f   libvcruntime:trnsctrl.obj
 0001:0003b3ca       ?_CallCatchBlock2@@YAPAXPAUEHRegistrationNode@@PBU_s_FuncInfo@@PAXHK@Z 1003c3ca f   libvcruntime:trnsctrl.obj
 0001:0003b427       ?_CallSETranslator@@YAHPAUEHExceptionRecord@@PAUEHRegistrationNode@@PAX2PBU_s_FuncInfo@@H1@Z 1003c427 f   libvcruntime:trnsctrl.obj
 0001:0003b51d       ?_JumpToContinuation@@YGXPAXPAUEHRegistrationNode@@@Z 1003c51d f   libvcruntime:trnsctrl.obj
 0001:0003b54d       ?_UnwindNestedFrames@@YGXPAUEHRegistrationNode@@PAUEHExceptionRecord@@@Z 1003c54d f   libvcruntime:trnsctrl.obj
 0001:0003b5a0       __CatchGuardHandler        1003c5a0 f   libvcruntime:trnsctrl.obj
 0001:0003b5d1       __CreateFrameInfo          1003c5d1 f   libvcruntime:trnsctrl.obj
 0001:0003b5f5       __FindAndUnlinkFrame       1003c5f5 f   libvcruntime:trnsctrl.obj
 0001:0003b63d       __TranslatorGuardHandler   1003c63d f   libvcruntime:trnsctrl.obj
 0001:0003b6da       ___CxxFrameHandler         1003c6da f   libvcruntime:trnsctrl.obj
 0001:0003b710       ___CxxFrameHandler2        1003c710 f   libvcruntime:trnsctrl.obj
 0001:0003b746       ___CxxFrameHandler3        1003c746 f   libvcruntime:trnsctrl.obj
 0001:0003b77c       ___CxxLongjmpUnwind@4      1003c77c f   libvcruntime:trnsctrl.obj
 0001:0003b7b0       _memmove                   1003c7b0 f   libvcruntime:memmove.obj
 0001:0003bd24       ??$?RD@__crt_public_free_policy@@QBEXQBD@Z 1003cd24 f i libvcruntime:std_exception.obj
 0001:0003bd34       ??0?$__crt_unique_heap_ptr@DU__crt_public_free_policy@@@@QAE@QAD@Z 1003cd34 f i libvcruntime:std_exception.obj
 0001:0003bd42       ??1?$__crt_unique_heap_ptr@DU__crt_public_free_policy@@@@QAE@XZ 1003cd42 f i libvcruntime:std_exception.obj
 0001:0003bd52       ??B?$__crt_unique_heap_ptr@DU__crt_public_free_policy@@@@QBE_NXZ 1003cd52 f i libvcruntime:std_exception.obj
 0001:0003bd59       ?detach@?$__crt_unique_heap_ptr@DU__crt_public_free_policy@@@@QAEPADXZ 1003cd59 f i libvcruntime:std_exception.obj
 0001:0003bd5f       ?get@?$__crt_unique_heap_ptr@DU__crt_public_free_policy@@@@QBEPADXZ 1003cd5f f i libvcruntime:std_exception.obj
 0001:0003bd62       ?is_valid@?$__crt_unique_heap_ptr@DU__crt_public_free_policy@@@@QBE_NXZ 1003cd62 f i libvcruntime:std_exception.obj
 0001:0003bd69       ?release@?$__crt_unique_heap_ptr@DU__crt_public_free_policy@@@@QAEXXZ 1003cd69 f i libvcruntime:std_exception.obj
 0001:0003bd79       ___std_exception_copy      1003cd79 f   libvcruntime:std_exception.obj
 0001:0003bddc       ___std_exception_destroy   1003cddc f   libvcruntime:std_exception.obj
 0001:0003bdfb       __CxxThrowException@8      1003cdfb f   libvcruntime:throw.obj
 0001:0003be80       __except_handler3          1003ce80 f   libvcruntime:exsup3.obj
 0001:0003bfa0       __seh_longjmp_unwind@4     1003cfa0 f   libvcruntime:exsup3.obj
 0001:0003bfd0       _strchr                    1003cfd0 f   libvcruntime:strchr.obj
 0001:0003c03e       ___from_strstr_to_strchr   1003d03e     libvcruntime:strchr.obj
 0001:0003c100       _strstr                    1003d100 f   libvcruntime:strstr.obj
 0001:0003c488       _memcmp                    1003d488 f   libvcruntime:memcmp.obj
 0001:0003f0f0       _strrchr                   100400f0 f   libvcruntime:strrchr.obj
 0001:0003f270       __except_handler4          10040270 f   libvcruntime:chandler4.obj
 0001:0003f3ce       ___DestructExceptionObject 100403ce f   libvcruntime:ehhelpers.obj
 0001:0003f46f       ?_CallMemberFunction0@@YGXQAX0@Z 1004046f f i libvcruntime:ehhelpers.obj
 0001:0003f4d4       ?raw_name@type_info@@QBEPBDXZ 100404d4 f i libvcruntime:ehhelpers.obj
 0001:0003f4d8       __IsExceptionObjectToBeDestroyed 100404d8 f   libvcruntime:ehhelpers.obj
 0001:0003f4fe       __SetWinRTOutOfMemoryExceptionCallback 100404fe f   libvcruntime:ehhelpers.obj
 0001:0003f50b       ___AdjustPointer           1004050b f   libvcruntime:ehhelpers.obj
 0001:0003f530       ___FrameUnwindFilter       10040530 f   libvcruntime:ehhelpers.obj
 0001:0003f586       ___GetPlatformExceptionInfo 10040586 f   libvcruntime:ehhelpers.obj
 0001:0003f5d2       ___current_exception       100405d2 f   libvcruntime:ehhelpers.obj
 0001:0003f5db       ___current_exception_context 100405db f   libvcruntime:ehhelpers.obj
 0001:0003f5e4       ___processing_throw        100405e4 f   libvcruntime:ehhelpers.obj
 0001:0003f5ed       ___std_terminate           100405ed f   libvcruntime:ehhelpers.obj
 0001:0003f5f2       __is_exception_typeof      100405f2 f   libvcruntime:ehhelpers.obj
 0001:0003f6a4       ??$?RD@__crt_internal_free_policy@@QBEXQBD@Z 100406a4 f i libvcruntime:std_type_info.obj
 0001:0003f6b4       ??$?RX@__crt_internal_free_policy@@QBEXQBX@Z 100406b4 f i libvcruntime:std_type_info.obj
 0001:0003f6c4       ??$__crt_interlocked_compare_exchange_pointer@$$CBDPAD$$T@@YAPBDPDSBDQAD$$T@Z 100406c4 f i libvcruntime:std_type_info.obj
 0001:0003f6d6       ??$__crt_interlocked_read_pointer@$$CBD@@YAPBDPDSBD@Z 100406d6 f i libvcruntime:std_type_info.obj
 0001:0003f6e1       ??0?$__crt_unique_heap_ptr@DU__crt_internal_free_policy@@@@QAE@QAD@Z 100406e1 f i libvcruntime:std_type_info.obj
 0001:0003f6ef       ??0?$__crt_unique_heap_ptr@XU__crt_internal_free_policy@@@@QAE@QAX@Z 100406ef f i libvcruntime:std_type_info.obj
 0001:0003f6fd       ??1?$__crt_unique_heap_ptr@DU__crt_internal_free_policy@@@@QAE@XZ 100406fd f i libvcruntime:std_type_info.obj
 0001:0003f70d       ??1?$__crt_unique_heap_ptr@XU__crt_internal_free_policy@@@@QAE@XZ 1004070d f i libvcruntime:std_type_info.obj
 0001:0003f71d       ??B?$__crt_unique_heap_ptr@DU__crt_internal_free_policy@@@@QBE_NXZ 1004071d f i libvcruntime:std_type_info.obj
 0001:0003f724       ??B?$__crt_unique_heap_ptr@XU__crt_internal_free_policy@@@@QBE_NXZ 10040724 f i libvcruntime:std_type_info.obj
 0001:0003f757       ?__crt_interlocked_read_32@@YAHPDH@Z 10040757 f i libvcruntime:std_type_info.obj
 0001:0003f762       ?detach@?$__crt_unique_heap_ptr@XU__crt_internal_free_policy@@@@QAEPAXXZ 10040762 f i libvcruntime:std_type_info.obj
 0001:0003f768       ?get@?$__crt_unique_heap_ptr@DU__crt_internal_free_policy@@@@QBEPADXZ 10040768 f i libvcruntime:std_type_info.obj
 0001:0003f76b       ?get@?$__crt_unique_heap_ptr@XU__crt_internal_free_policy@@@@QBEPAXXZ 1004076b f i libvcruntime:std_type_info.obj
 0001:0003f76e       ?is_valid@?$__crt_unique_heap_ptr@DU__crt_internal_free_policy@@@@QBE_NXZ 1004076e f i libvcruntime:std_type_info.obj
 0001:0003f775       ?is_valid@?$__crt_unique_heap_ptr@XU__crt_internal_free_policy@@@@QBE_NXZ 10040775 f i libvcruntime:std_type_info.obj
 0001:0003f77c       ?release@?$__crt_unique_heap_ptr@DU__crt_internal_free_policy@@@@QAEXXZ 1004077c f i libvcruntime:std_type_info.obj
 0001:0003f78c       ?release@?$__crt_unique_heap_ptr@XU__crt_internal_free_policy@@@@QAEXXZ 1004078c f i libvcruntime:std_type_info.obj
 0001:0003f79c       ___std_type_info_compare   1004079c f   libvcruntime:std_type_info.obj
 0001:0003f7d8       ___std_type_info_destroy_list 100407d8 f   libvcruntime:std_type_info.obj
 0001:0003f7fb       ___std_type_info_hash      100407fb f   libvcruntime:std_type_info.obj
 0001:0003f821       ___std_type_info_name      10040821 f   libvcruntime:std_type_info.obj
 0001:0003f8e7       ___vcrt_initialize         100408e7 f   libvcruntime:initialization.obj
 0001:0003f906       ___vcrt_thread_attach      10040906 f   libvcruntime:initialization.obj
 0001:0003f911       ___vcrt_thread_detach      10040911 f   libvcruntime:initialization.obj
 0001:0003f91c       ___vcrt_uninitialize       1004091c f   libvcruntime:initialization.obj
 0001:0003f933       ___vcrt_uninitialize_critical 10040933 f   libvcruntime:initialization.obj
 0001:0003f93e       ??$?RU__vcrt_ptd@@@__crt_internal_free_policy@@QBEXQBU__vcrt_ptd@@@Z 1004093e f i libvcruntime:per_thread_data.obj
 0001:0003f94e       ??0?$__crt_unique_heap_ptr@U__vcrt_ptd@@U__crt_internal_free_policy@@@@QAE@QAU__vcrt_ptd@@@Z 1004094e f i libvcruntime:per_thread_data.obj
 0001:0003f96b       ??1?$__crt_unique_heap_ptr@U__vcrt_ptd@@U__crt_internal_free_policy@@@@QAE@XZ 1004096b f i libvcruntime:per_thread_data.obj
 0001:0003f984       ??B?$__crt_unique_heap_ptr@U__vcrt_ptd@@U__crt_internal_free_policy@@@@QBE_NXZ 10040984 f i libvcruntime:per_thread_data.obj
 0001:0003f98b       ?detach@?$__crt_unique_heap_ptr@U__vcrt_ptd@@U__crt_internal_free_policy@@@@QAEPAU__vcrt_ptd@@XZ 1004098b f i libvcruntime:per_thread_data.obj
 0001:0003f991       ?get@?$__crt_unique_heap_ptr@U__vcrt_ptd@@U__crt_internal_free_policy@@@@QBEPAU__vcrt_ptd@@XZ 10040991 f i libvcruntime:per_thread_data.obj
 0001:0003f994       ?is_valid@?$__crt_unique_heap_ptr@U__vcrt_ptd@@U__crt_internal_free_policy@@@@QBE_NXZ 10040994 f i libvcruntime:per_thread_data.obj
 0001:0003f99b       ?release@?$__crt_unique_heap_ptr@U__vcrt_ptd@@U__crt_internal_free_policy@@@@QAEXXZ 1004099b f i libvcruntime:per_thread_data.obj
 0001:0003f9c5       ___vcrt_freefls@4          100409c5 f   libvcruntime:per_thread_data.obj
 0001:0003f9e1       ___vcrt_freeptd            100409e1 f   libvcruntime:per_thread_data.obj
 0001:0003fa17       ___vcrt_getptd             10040a17 f   libvcruntime:per_thread_data.obj
 0001:0003fa25       ___vcrt_getptd_noexit      10040a25 f   libvcruntime:per_thread_data.obj
 0001:0003fab7       ___vcrt_getptd_noinit      10040ab7 f   libvcruntime:per_thread_data.obj
 0001:0003faee       ___vcrt_initialize_ptd     10040aee f   libvcruntime:per_thread_data.obj
 0001:0003fb21       ___vcrt_uninitialize_ptd   10040b21 f   libvcruntime:per_thread_data.obj
 0001:0004026e       ??$TypeMatchHelper@V__FrameHandler3@@@@YAHPBU_s_HandlerType@@PBU_s_CatchableType@@PBU_s_ThrowInfo@@@Z 1004126e f i libvcruntime:frame.obj
 0001:000402fc       ??$__InternalCxxFrameHandler@V__FrameHandler3@@@@YA?AW4_EXCEPTION_DISPOSITION@@PAUEHExceptionRecord@@PAUEHRegistrationNode@@PAU_CONTEXT@@PAXPBU_s_FuncInfo@@H1E@Z 100412fc f i libvcruntime:frame.obj
 0001:000403fe       ??0HandlerMap@__FrameHandler3@@QAE@PBU_s_TryBlockMapEntry@@II@Z 100413fe f i libvcruntime:frame.obj
 0001:00040415       ??0TryBlockMap@__FrameHandler3@@QAE@PBU_s_FuncInfo@@I@Z 10041415 f i libvcruntime:frame.obj
 0001:00040429       ??0bad_exception@std@@QAE@ABV01@@Z 10041429 f i libvcruntime:frame.obj
 0001:00040444       ??0bad_exception@std@@QAE@XZ 10041444 f i libvcruntime:frame.obj
 0001:0004045c       ??0iterator@HandlerMap@__FrameHandler3@@QAE@AAV12@I@Z 1004145c f i libvcruntime:frame.obj
 0001:00040470       ??1bad_exception@std@@UAE@XZ 10041470 f i libvcruntime:frame.obj
 0001:00040481       ??8iterator@HandlerMap@__FrameHandler3@@QBE_NABV012@@Z 10041481 f i libvcruntime:frame.obj
 0001:00040494       ??8type_info@@QBE_NABV0@@Z 10041494 f i libvcruntime:frame.obj
 0001:000404b3       ??9iterator@HandlerMap@__FrameHandler3@@QBE_NABV012@@Z 100414b3 f i libvcruntime:frame.obj
 0001:000404c6       ??Diterator@HandlerMap@__FrameHandler3@@QAE?BU_s_HandlerType@@XZ 100414c6 f i libvcruntime:frame.obj
 0001:000404e5       ??Diterator@TryBlockMap@__FrameHandler3@@QAE?BU_s_TryBlockMapEntry@@XZ 100414e5 f i libvcruntime:frame.obj
 0001:00040507       ??Eiterator@HandlerMap@__FrameHandler3@@QAEAAV012@XZ 10041507 f i libvcruntime:frame.obj
 0001:0004050d       ??Eiterator@TryBlockMap@__FrameHandler3@@QAEAAV012@XZ 1004150d f i libvcruntime:frame.obj
 0001:00040513       ??Miterator@TryBlockMap@__FrameHandler3@@QBE_NABV012@@Z 10041513 f i libvcruntime:frame.obj
 0001:00040526       ??_Ebad_exception@std@@UAEPAXI@Z 10041526 f i libvcruntime:frame.obj
 0001:00040526       ??_Gbad_exception@std@@UAEPAXI@Z 10041526 f i libvcruntime:frame.obj
 0001:00040553       ?BuildCatchObject@__FrameHandler3@@SAXPAUEHExceptionRecord@@PAXPBU_s_HandlerType@@PBU_s_CatchableType@@@Z 10041553 f   libvcruntime:frame.obj
 0001:00040558       ?BuildCatchObjectHelper@__FrameHandler3@@SAHPAUEHExceptionRecord@@PAXPBU_s_HandlerType@@PBU_s_CatchableType@@@Z 10041558 f   libvcruntime:frame.obj
 0001:000407b9       ?FrameUnwindToEmptyState@__FrameHandler3@@SAXPAUEHRegistrationNode@@PAXPBU_s_FuncInfo@@@Z 100417b9 f   libvcruntime:frame.obj
 0001:000407d1       ?FrameUnwindToState@__FrameHandler3@@SAXPAUEHRegistrationNode@@PAXPBU_s_FuncInfo@@H@Z 100417d1 f   libvcruntime:frame.obj
 0001:000408b9       ?GetMaxState@__FrameHandler3@@SAHPAXPBU_s_FuncInfo@@@Z 100418b9 f i libvcruntime:frame.obj
 0001:00040997       ?TypeMatch@__FrameHandler3@@SAHPBU_s_HandlerType@@PBU_s_CatchableType@@PBU_s_ThrowInfo@@@Z 10041997 f   libvcruntime:frame.obj
 0001:000409a0       ?_CallMemberFunction1@@YGXQAX00@Z 100419a0 f i libvcruntime:frame.obj
 0001:000409b0       ?_CallMemberFunction2@@YGXQAX00H@Z 100419b0 f i libvcruntime:frame.obj
 0001:000409c3       ?begin@HandlerMap@__FrameHandler3@@QAE?AViterator@12@XZ 100419c3 f i libvcruntime:frame.obj
 0001:000409d3       ?end@HandlerMap@__FrameHandler3@@QAE?AViterator@12@XZ 100419d3 f i libvcruntime:frame.obj
 0001:000409e4       ?getESTypes@__FrameHandler3@@SAPBU_s_ESTypeList@@PBU_s_FuncInfo@@@Z 100419e4 f i libvcruntime:frame.obj
 0001:000409ef       ?getLastEntry@HandlerMap@__FrameHandler3@@QAEPBU_s_HandlerType@@XZ 100419ef f i libvcruntime:frame.obj
 0001:000409fd       ?getMagicNum@__FrameHandler3@@SAIPBU_s_FuncInfo@@@Z 100419fd f i libvcruntime:frame.obj
 0001:00040a0c       ?getNumTryBlocks@TryBlockMap@__FrameHandler3@@QAEIXZ 10041a0c f i libvcruntime:frame.obj
 0001:00040a12       ?isEHs@__FrameHandler3@@SA_NPBU_s_FuncInfo@@@Z 10041a12 f i libvcruntime:frame.obj
 0001:00040a1f       ?isNoExcept@__FrameHandler3@@SA_NPBU_s_FuncInfo@@@Z 10041a1f f i libvcruntime:frame.obj
 0001:00040a2f       ___BuildCatchObject        10041a2f f   libvcruntime:frame.obj
 0001:00040a34       ___BuildCatchObjectHelper  10041a34 f   libvcruntime:frame.obj
 0001:00040a3d       ___TypeMatch               10041a3d f   libvcruntime:frame.obj
 0001:00040a46       ___vcrt_EncodePointer      10041a46 f i libvcruntime:frame.obj
 0001:00040a60       __CallSettingFrame@12      10041a60 f   libvcruntime:lowhelpr.obj
 0001:00040a87       __NLG_Return               10041a87     libvcruntime:lowhelpr.obj
 0001:00040ab7       ___except_validate_context_record 10041ab7 f   libvcruntime:jbcxrval.obj
 0001:00040ae7       ___except_validate_jump_buffer 10041ae7 f   libvcruntime:jbcxrval.obj
 0001:00040b14       ___except_validate_jump_buffer_common 10041b14 f i libvcruntime:jbcxrval.obj
 0001:00040b4d       _CallDestructExceptionObject 10041b4d f   libvcruntime:calldtor.obj
 0001:00040b90       __global_unwind2           10041b90 f   libvcruntime:exsup.obj
 0001:00040c10       __local_unwind2            10041c10 f   libvcruntime:exsup.obj
 0001:00040cb0       __abnormal_termination     10041cb0 f   libvcruntime:exsup.obj
 0001:00040ce0       __NLG_Notify1              10041ce0 f   libvcruntime:exsup.obj
 0001:00040cf0       __NLG_Notify               10041cf0 f   libvcruntime:exsup.obj
 0001:00040d07       __NLG_Dispatch             10041d07     libvcruntime:exsup.obj
 0001:00040d07       __NLG_Dispatch2            10041d07     libvcruntime:exsup.obj
 0001:00040d10       __NLG_Call                 10041d10 f   libvcruntime:exsup.obj
 0001:00040d12       __NLG_Return2              10041d12     libvcruntime:exsup.obj
 0001:00040de0       __ValidateEH3RN            10041de0 f   libvcruntime:eh3valid.obj
 0001:00041190       __local_unwind4            10042190 f   libvcruntime:exsup4.obj
 0001:00041280       __seh_longjmp_unwind4@4    10042280 f   libvcruntime:exsup4.obj
 0001:000412b0       @_EH4_CallFilterFunc@8     100422b0 f   libvcruntime:exsup4.obj
 0001:000412d0       @_EH4_TransferToHandler@8  100422d0 f   libvcruntime:exsup4.obj
 0001:000412f0       @_EH4_GlobalUnwind2@8      100422f0 f   libvcruntime:exsup4.obj
 0001:00041310       @_EH4_LocalUnwind@16       10042310 f   libvcruntime:exsup4.obj
 0001:00041327       ??$?0$00@DName@@QAE@PBDU?$StringLifeSelector@$00@@@Z 10042327 f i libvcruntime:undname.obj
 0001:0004135a       ??$?0$00@pcharNode@@QAE@PBDHU?$StringLifeSelector@$00@@@Z 1004235a f i libvcruntime:undname.obj
 0001:00041375       ??$?0$01@DName@@QAE@PBDU?$StringLifeSelector@$01@@@Z 10042375 f i libvcruntime:undname.obj
 0001:000413a8       ??$?0$01@pcharNode@@QAE@PBDHU?$StringLifeSelector@$01@@@Z 100423a8 f i libvcruntime:undname.obj
 0001:000413e8       ??$?0$0A@@DName@@QAE@PBDU?$StringLifeSelector@$0A@@@@Z 100423e8 f i libvcruntime:undname.obj
 0001:0004141b       ??$?0$0A@@pcharNode@@QAE@PBDHU?$StringLifeSelector@$0A@@@@Z 1004241b f i libvcruntime:undname.obj
 0001:0004145b       ??$?0_K$0A@@?$optional@_K@std@@QAE@$$QA_K@Z 1004245b f i libvcruntime:undname.obj
 0001:00041475       ??$?0_K@?$_Optional_construct_base@_K@std@@QAE@Uin_place_t@1@$$QA_K@Z 10042475 f i libvcruntime:undname.obj
 0001:0004148f       ??$?0_K@?$_Optional_destruct_base@_K$00@std@@QAE@Uin_place_t@1@$$QA_K@Z 1004248f f i libvcruntime:undname.obj
 0001:000414a9       ??$append@VDNameNode@@@DName@@AAEXPBVDNameNode@@@Z 100424a9 f i libvcruntime:undname.obj
 0001:000414ea       ??$append@VDNameStatusNode@@@DName@@AAEXPBVDNameStatusNode@@@Z 100424ea f i libvcruntime:undname.obj
 0001:0004152b       ??$append@VcharNode@@@DName@@AAEXPBVcharNode@@@Z 1004252b f i libvcruntime:undname.obj
 0001:0004156c       ??$append@VpDNameNode@@@DName@@AAEXPBVpDNameNode@@@Z 1004256c f i libvcruntime:undname.obj
 0001:000415ad       ??$append@VpcharNode@@@DName@@AAEXPBVpcharNode@@@Z 100425ad f i libvcruntime:undname.obj
 0001:000415ee       ??$doPchar@$00@DName@@AAEXPBDH@Z 100425ee f i libvcruntime:undname.obj
 0001:00041659       ??$doPchar@$01@DName@@AAEXPBDH@Z 10042659 f i libvcruntime:undname.obj
 0001:000416ca       ??$doPchar@$0A@@DName@@AAEXPBDH@Z 100426ca f i libvcruntime:undname.obj
 0001:0004173b       ??$forward@_K@std@@YA$$QA_KAA_K@Z 1004273b f i libvcruntime:undname.obj
 0001:000417ff       ??$size@D$04@std@@YAIAAY04$$CBD@Z 100427ff f i libvcruntime:undname.obj
 0001:00041803       ??0?$_Optional_construct_base@_K@std@@QAE@XZ 10042803 f i libvcruntime:undname.obj
 0001:0004180a       ??0?$_Optional_destruct_base@_K$00@std@@QAE@XZ 1004280a f i libvcruntime:undname.obj
 0001:00041811       ??0?$optional@_K@std@@QAE@XZ 10042811 f i libvcruntime:undname.obj
 0001:00041818       ??0Block@_HeapManager@@QAE@XZ 10042818 f i libvcruntime:undname.obj
 0001:0004181e       ??0DName@@QAE@AAPBDD@Z     1004281e f   libvcruntime:undname.obj
 0001:0004189e       ??0DName@@QAE@ABUStringLiteral@@@Z 1004289e f   libvcruntime:undname.obj
 0001:000418c5       ??0DName@@QAE@ABV0@@Z      100428c5 f i libvcruntime:undname.obj
 0001:000418db       ??0DName@@QAE@D@Z          100428db f   libvcruntime:undname.obj
 0001:000418f7       ??0DName@@QAE@PAV0@@Z      100428f7 f   libvcruntime:undname.obj
 0001:00041940       ??0DName@@QAE@W4DNameStatus@@@Z 10042940 f   libvcruntime:undname.obj
 0001:00041980       ??0DName@@QAE@XZ           10042980 f i libvcruntime:undname.obj
 0001:0004198a       ??0DName@@QAE@_J@Z         1004298a f   libvcruntime:undname.obj
 0001:00041a1d       ??0DName@@QAE@_K@Z         10042a1d f   libvcruntime:undname.obj
 0001:00041a8f       ??0DNameNode@@IAE@XZ       10042a8f f i libvcruntime:undname.obj
 0001:00041a98       ??0Replicator@@QAE@XZ      10042a98 f i libvcruntime:undname.obj
 0001:00041aa7       ??0UnDecorator@@QAE@PBDP6APADJ@ZK@Z 10042aa7 f i libvcruntime:undname.obj
 0001:00041af3       ??0_Nontrivial_dummy_type@std@@QAE@XZ 10042af3 f i libvcruntime:undname.obj
 0001:00041af6       ??0charNode@@QAE@D@Z       10042af6 f i libvcruntime:undname.obj
 0001:00041b0b       ??0pDNameNode@@QAE@PAVDName@@@Z 10042b0b f   libvcruntime:undname.obj
 0001:00041b33       ??0pairNode@@QAE@PBVDNameNode@@0@Z 10042b33 f i libvcruntime:undname.obj
 0001:00041b59       ??2@YAPAXIAAV_HeapManager@@H@Z 10042b59 f   libvcruntime:undname.obj
 0001:00041b78       ??4DName@@QAEAAV0@ABUStringLiteral@@@Z 10042b78 f   libvcruntime:undname.obj
 0001:00041b99       ??4DName@@QAEAAV0@ABV0@@Z  10042b99 f   libvcruntime:undname.obj
 0001:00041baf       ??4DName@@QAEAAV0@D@Z      10042baf f i libvcruntime:undname.obj
 0001:00041bcb       ??4DName@@QAEAAV0@PAV0@@Z  10042bcb f   libvcruntime:undname.obj
 0001:00041c0e       ??4DName@@QAEAAV0@W4DNameStatus@@@Z 10042c0e f   libvcruntime:undname.obj
 0001:00041c40       ??AReplicator@@QBE?AVDName@@H@Z 10042c40 f   libvcruntime:undname.obj
 0001:00041c7c       ??B?$optional@_K@std@@QBE_NXZ 10042c7c f i libvcruntime:undname.obj
 0001:00041c80       ??D?$_Optional_construct_base@_K@std@@QGAEAA_KXZ 10042c80 f i libvcruntime:undname.obj
 0001:00041c83       ??H@YA?AVDName@@ABUStringLiteral@@ABV0@@Z 10042c83 f i libvcruntime:undname.obj
 0001:00041ca5       ??H@YA?AVDName@@DABV0@@Z   10042ca5 f i libvcruntime:undname.obj
 0001:00041cd0       ??H@YA?AVDName@@W4DNameStatus@@ABV0@@Z 10042cd0 f i libvcruntime:undname.obj
 0001:00041cf2       ??HDName@@QBE?AV0@ABUStringLiteral@@@Z 10042cf2 f   libvcruntime:undname.obj
 0001:00041d14       ??HDName@@QBE?AV0@ABV0@@Z  10042d14 f   libvcruntime:undname.obj
 0001:00041d36       ??HDName@@QBE?AV0@D@Z      10042d36 f   libvcruntime:undname.obj
 0001:00041d58       ??HDName@@QBE?AV0@PAV0@@Z  10042d58 f   libvcruntime:undname.obj
 0001:00041d7a       ??HDName@@QBE?AV0@W4DNameStatus@@@Z 10042d7a f   libvcruntime:undname.obj
 0001:00041d9c       ??HStringLiteral@@QBE?AU0@H@Z 10042d9c f i libvcruntime:undname.obj
 0001:00041db6       ??YDName@@QAEAAV0@ABUStringLiteral@@@Z 10042db6 f   libvcruntime:undname.obj
 0001:00041e0e       ??YDName@@QAEAAV0@ABV0@@Z  10042e0e f   libvcruntime:undname.obj
 0001:00041e65       ??YDName@@QAEAAV0@D@Z      10042e65 f   libvcruntime:undname.obj
 0001:00041eba       ??YDName@@QAEAAV0@PAV0@@Z  10042eba f   libvcruntime:undname.obj
 0001:00041f1e       ??YDName@@QAEAAV0@W4DNameStatus@@@Z 10042f1e f   libvcruntime:undname.obj
 0001:00041f5e       ??YReplicator@@QAEAAV0@ABVDName@@@Z 10042f5e f   libvcruntime:undname.obj
 0001:00041f9e       ??_5DName@@QAEAAV0@ABV0@@Z 10042f9e f   libvcruntime:undname.obj
 0001:00041fba       ??__K_l@@YA?AUStringLiteral@@PBDI@Z 10042fba f i libvcruntime:undname.obj
 0001:00041fc5       ?Constructor@_HeapManager@@QAEXP6APAXI@ZP6AXPAX@Z@Z 10042fc5 f i libvcruntime:undname.obj
 0001:00041fe2       ?Destructor@_HeapManager@@QAEXXZ 10042fe2 f i libvcruntime:undname.obj
 0001:00042026       ?UScore@UnDecorator@@SA?AUStringLiteral@@W4Tokens@@@Z 10043026 f   libvcruntime:undname.obj
 0001:0004204d       ?composeDeclaration@UnDecorator@@CA?AVDName@@ABV2@@Z 1004304d f i libvcruntime:undname.obj
 0001:00042d45       ?doAccessSpecifiers@UnDecorator@@SAHXZ 10043d45 f i libvcruntime:undname.obj
 0001:00042d53       ?doAllocationLanguage@UnDecorator@@SAHXZ 10043d53 f i libvcruntime:undname.obj
 0001:00042d61       ?doAllocationModel@UnDecorator@@SAHXZ 10043d61 f i libvcruntime:undname.obj
 0001:00042d6f       ?doEcsu@UnDecorator@@SAHXZ 10043d6f f i libvcruntime:undname.obj
 0001:00042d7d       ?doEllipsis@UnDecorator@@SAHXZ 10043d7d f i libvcruntime:undname.obj
 0001:00042d8b       ?doFunctionReturns@UnDecorator@@SAHXZ 10043d8b f i libvcruntime:undname.obj
 0001:00042d99       ?doMSKeywords@UnDecorator@@SAHXZ 10043d99 f i libvcruntime:undname.obj
 0001:00042da6       ?doMemberTypes@UnDecorator@@SAHXZ 10043da6 f i libvcruntime:undname.obj
 0001:00042db4       ?doNameOnly@UnDecorator@@SAHXZ 10043db4 f i libvcruntime:undname.obj
 0001:00042dbf       ?doNoIdentCharCheck@UnDecorator@@SAHXZ 10043dbf f i libvcruntime:undname.obj
 0001:00042dca       ?doPchar@DName@@AAEXD@Z    10043dca f   libvcruntime:undname.obj
 0001:00042e02       ?doPtr64@UnDecorator@@SAHXZ 10043e02 f i libvcruntime:undname.obj
 0001:00042e10       ?doRestrictionSpec@UnDecorator@@SAHXZ 10043e10 f i libvcruntime:undname.obj
 0001:00042e1e       ?doThisTypes@UnDecorator@@SAHXZ 10043e1e f i libvcruntime:undname.obj
 0001:00042e30       ?doThrowTypes@UnDecorator@@SAHXZ 10043e30 f i libvcruntime:undname.obj
 0001:00042e3e       ?doTypeOnly@UnDecorator@@SAHXZ 10043e3e f i libvcruntime:undname.obj
 0001:00042e49       ?doUnderScore@UnDecorator@@SAHXZ 10043e49 f i libvcruntime:undname.obj
 0001:00042e54       ?getAddressOf@UnDecorator@@CA?AVDName@@XZ 10043e54 f   libvcruntime:undname.obj
 0001:00042ebc       ?getArgumentList@UnDecorator@@CA?AVDName@@XZ 10043ebc f   libvcruntime:undname.obj
 0001:00043026       ?getArgumentTypes@UnDecorator@@CA?AVDName@@XZ 10044026 f   libvcruntime:undname.obj
 0001:0004312e       ?getArrayAccess@UnDecorator@@CA?AVDName@@XZ 1004412e f   libvcruntime:undname.obj
 0001:000431a2       ?getArrayObject@UnDecorator@@CA?AVDName@@XZ 100441a2 f   libvcruntime:undname.obj
 0001:0004322d       ?getArrayType@UnDecorator@@CA?AVDName@@ABV2@@Z 1004422d f i libvcruntime:undname.obj
 0001:000433ca       ?getBasedType@UnDecorator@@CA?AVDName@@XZ 100443ca f   libvcruntime:undname.obj
 0001:00043480       ?getBasicDataType@UnDecorator@@CA?AVDName@@ABV2@@Z 10044480 f   libvcruntime:undname.obj
 0001:000439e8       ?getCHPEName@UnDecorator@@QAEPADPADH@Z 100449e8 f i libvcruntime:undname.obj
 0001:00043ac5       ?getCallIndex@UnDecorator@@CA?AVDName@@XZ 10044ac5 f i libvcruntime:undname.obj
 0001:00043ad9       ?getCallingConvention@UnDecorator@@CA?AVDName@@XZ 10044ad9 f   libvcruntime:undname.obj
 0001:00043bae       ?getDataIndirectType@UnDecorator@@CA?AVDName@@ABV2@W4IndirectionKind@@0H@Z 10044bae f   libvcruntime:undname.obj
 0001:0004434b       ?getDataIndirectType@UnDecorator@@CA?AVDName@@XZ 1004534b f i libvcruntime:undname.obj
 0001:00044379       ?getDataType@UnDecorator@@CA?AVDName@@PAV2@@Z 10045379 f   libvcruntime:undname.obj
 0001:00044450       ?getDecoratedName@UnDecorator@@CA?AVDName@@XZ 10045450 f   libvcruntime:undname.obj
 0001:000446a4       ?getDimension@UnDecorator@@CA?AVDName@@_N@Z 100456a4 f   libvcruntime:undname.obj
 0001:000447b2       ?getDispatchTarget@UnDecorator@@CA?AVDName@@XZ 100457b2 f   libvcruntime:undname.obj
 0001:00044805       ?getDisplacement@UnDecorator@@CA?AVDName@@XZ 10045805 f i libvcruntime:undname.obj
 0001:00044819       ?getECSUDataType@UnDecorator@@CA?AVDName@@XZ 10045819 f   libvcruntime:undname.obj
 0001:000449ab       ?getECSUName@UnDecorator@@CA?AVDName@@XZ 100459ab f i libvcruntime:undname.obj
 0001:000449bc       ?getEnumType@UnDecorator@@CA?AVDName@@XZ 100459bc f i libvcruntime:undname.obj
 0001:00044ad0       ?getExtendedDataIndirectType@UnDecorator@@CA?AVDName@@AAW4IndirectionKind@@AA_NH@Z 10045ad0 f   libvcruntime:undname.obj
 0001:00044c7b       ?getExternalDataType@UnDecorator@@CA?AVDName@@ABV2@@Z 10045c7b f i libvcruntime:undname.obj
 0001:00044ce0       ?getFloatingPoint@UnDecorator@@CA?AVDName@@H@Z 10045ce0 f   libvcruntime:undname.obj
 0001:00044d9e       ?getFunctionIndirectType@UnDecorator@@CA?AVDName@@ABV2@@Z 10045d9e f   libvcruntime:undname.obj
 0001:00045148       ?getGuardNumber@UnDecorator@@CA?AVDName@@XZ 10046148 f i libvcruntime:undname.obj
 0001:0004515c       ?getLastChar@DName@@QBEDXZ 1004615c f i libvcruntime:undname.obj
 0001:0004517c       ?getLastChar@DNameStatusNode@@UBEDXZ 1004617c f i libvcruntime:undname.obj
 0001:00045188       ?getLastChar@charNode@@UBEDXZ 10046188 f i libvcruntime:undname.obj
 0001:0004518c       ?getLastChar@pDNameNode@@UBEDXZ 1004618c f i libvcruntime:undname.obj
 0001:0004519a       ?getLastChar@pairNode@@UBEDXZ 1004619a f i libvcruntime:undname.obj
 0001:000451cf       ?getLastChar@pcharNode@@UBEDXZ 100461cf f i libvcruntime:undname.obj
 0001:000451e1       ?getLexicalFrame@UnDecorator@@CA?AVDName@@XZ 100461e1 f i libvcruntime:undname.obj
 0001:00045212       ?getMemberAccess@UnDecorator@@CA?AVDName@@XZ 10046212 f   libvcruntime:undname.obj
 0001:00045282       ?getMemoryWithBuffer@_HeapManager@@QAEPAXI@Z 10046282 f   libvcruntime:undname.obj
 0001:000452ec       ?getMemoryWithoutBuffer@_HeapManager@@QAEPAXI@Z 100462ec f   libvcruntime:undname.obj
 0001:0004530c       ?getNoexcept@UnDecorator@@CA?AVDName@@XZ 1004630c f   libvcruntime:undname.obj
 0001:00045360       ?getNumberOfDimensions@UnDecorator@@CAHXZ 10046360 f   libvcruntime:undname.obj
 0001:000453c2       ?getOperatorName@UnDecorator@@CA?AVDName@@_NPA_N@Z 100463c2 f i libvcruntime:undname.obj
 0001:00045cd8       ?getPointerToMember@UnDecorator@@CA?AVDName@@XZ 10046cd8 f   libvcruntime:undname.obj
 0001:00045d94       ?getPointerType@UnDecorator@@CA?AVDName@@ABV2@0@Z 10046d94 f i libvcruntime:undname.obj
 0001:00045daf       ?getPointerTypeArray@UnDecorator@@CA?AVDName@@ABV2@0@Z 10046daf f i libvcruntime:undname.obj
 0001:00045dca       ?getPrimaryDataType@UnDecorator@@CA?AVDName@@ABV2@@Z 10046dca f   libvcruntime:undname.obj
 0001:00046018       ?getPtrRefDataType@UnDecorator@@CA?AVDName@@ABV2@H@Z 10047018 f   libvcruntime:undname.obj
 0001:00046185       ?getPtrRefType@UnDecorator@@CA?AVDName@@ABV2@0W4IndirectionKind@@@Z 10047185 f   libvcruntime:undname.obj
 0001:00046296       ?getReferenceType@UnDecorator@@CA?AVDName@@ABV2@0W4IndirectionKind@@@Z 10047296 f i libvcruntime:undname.obj
 0001:000462b2       ?getRestrictionSpec@UnDecorator@@CA?AVDName@@XZ 100472b2 f   libvcruntime:undname.obj
 0001:000463d7       ?getReturnType@UnDecorator@@CA?AVDName@@PAV2@@Z 100473d7 f   libvcruntime:undname.obj
 0001:00046406       ?getScope@UnDecorator@@CA?AVDName@@XZ 10047406 f   libvcruntime:undname.obj
 0001:000467c4       ?getScopedName@UnDecorator@@CA?AVDName@@XZ 100477c4 f   libvcruntime:undname.obj
 0001:000468b7       ?getSignedDimension@UnDecorator@@CA?AVDName@@XZ 100478b7 f   libvcruntime:undname.obj
 0001:00046908       ?getStorageConvention@UnDecorator@@CA?AVDName@@XZ 10047908 f i libvcruntime:undname.obj
 0001:00046919       ?getString@DName@@QBEPADPAD0@Z 10047919 f i libvcruntime:undname.obj
 0001:00046946       ?getString@DName@@QBEPADPADH@Z 10047946 f i libvcruntime:undname.obj
 0001:0004699b       ?getString@DNameStatusNode@@UBEPADPAD0@Z 1004799b f i libvcruntime:undname.obj
 0001:000469e2       ?getString@charNode@@UBEPADPAD0@Z 100479e2 f i libvcruntime:undname.obj
 0001:000469f7       ?getString@pDNameNode@@UBEPADPAD0@Z 100479f7 f i libvcruntime:undname.obj
 0001:00046a0e       ?getString@pairNode@@UBEPADPAD0@Z 10047a0e f i libvcruntime:undname.obj
 0001:00046a54       ?getString@pcharNode@@UBEPADPAD0@Z 10047a54 f i libvcruntime:undname.obj
 0001:00046a6f       ?getStringEncoding@UnDecorator@@CA?AVDName@@W4PrefixKind@@H@Z 10047a6f f   libvcruntime:undname.obj
 0001:00046b0c       ?getStringHelper@@YAPADPADPBD1H@Z 10047b0c f i libvcruntime:undname.obj
 0001:00046b36       ?getStringObject@UnDecorator@@CA?AVDName@@XZ 10047b36 f   libvcruntime:undname.obj
 0001:00046b81       ?getSymbolName@UnDecorator@@CA?AVDName@@XZ 10047b81 f i libvcruntime:undname.obj
 0001:00046bc9       ?getTemplateArgumentList@UnDecorator@@CA?AVDName@@XZ 10047bc9 f   libvcruntime:undname.obj
 0001:00046d79       ?getTemplateName@UnDecorator@@CA?AVDName@@_N@Z 10047d79 f   libvcruntime:undname.obj
 0001:00046ed9       ?getTemplateNonTypeArgument@UnDecorator@@CA?AVDName@@XZ 10047ed9 f   libvcruntime:undname.obj
 0001:000472b1       ?getTemplateTypeArgument@UnDecorator@@CA?AVDName@@XZ 100482b1 f   libvcruntime:undname.obj
 0001:000473c2       ?getThisType@UnDecorator@@CA?AVDName@@XZ 100483c2 f i libvcruntime:undname.obj
 0001:000473f1       ?getThrowTypes@UnDecorator@@CA?AVDName@@XZ 100483f1 f   libvcruntime:undname.obj
 0001:00047414       ?getTypeEncoding@UnDecorator@@CAHXZ 10048414 f i libvcruntime:undname.obj
 0001:0004774c       ?getUndecoratedName@UnDecorator@@QAEPADPADH@Z 1004874c f i libvcruntime:undname.obj
 0001:0004786b       ?getUnionObject@UnDecorator@@CA?AVDName@@XZ 1004886b f   libvcruntime:undname.obj
 0001:00047912       ?getVCallThunkType@UnDecorator@@CA?AVDName@@XZ 10048912 f i libvcruntime:undname.obj
 0001:0004795c       ?getValue@UnDecorator@@CA?AV?$optional@_K@std@@XZ 1004895c f   libvcruntime:undname.obj
 0001:000479e4       ?getValueObject@UnDecorator@@CA?AVDName@@XZ 100489e4 f   libvcruntime:undname.obj
 0001:00047ade       ?getVbTableType@UnDecorator@@CA?AVDName@@ABV2@@Z 10048ade f i libvcruntime:undname.obj
 0001:00047af3       ?getVdispMapType@UnDecorator@@CA?AVDName@@ABV2@@Z 10048af3 f i libvcruntime:undname.obj
 0001:00047b54       ?getVfTableType@UnDecorator@@CA?AVDName@@ABV2@@Z 10048b54 f i libvcruntime:undname.obj
 0001:00047ca8       ?getZName@UnDecorator@@CA?AVDName@@_N0@Z 10048ca8 f   libvcruntime:undname.obj
 0001:00047ec6       ?haveTemplateParameters@UnDecorator@@SAHXZ 10048ec6 f i libvcruntime:undname.obj
 0001:00047ed1       ?isArray@DName@@QBEHXZ     10048ed1 f i libvcruntime:undname.obj
 0001:00047edb       ?isComArray@DName@@QBEHXZ  10048edb f i libvcruntime:undname.obj
 0001:00047ee5       ?isEmpty@DName@@QBEHXZ     10048ee5 f i libvcruntime:undname.obj
 0001:00047eed       ?isFull@Replicator@@QBEHXZ 10048eed f i libvcruntime:undname.obj
 0001:00047ef6       ?isNoTE@DName@@QBEHXZ      10048ef6 f i libvcruntime:undname.obj
 0001:00047f00       ?isPinPtr@DName@@QBEHXZ    10048f00 f i libvcruntime:undname.obj
 0001:00047f0a       ?isPtrRef@DName@@QBEHXZ    10048f0a f i libvcruntime:undname.obj
 0001:00047f14       ?isUDC@DName@@QBEHXZ       10048f14 f i libvcruntime:undname.obj
 0001:00047f25       ?isUDTThunk@DName@@QBEHXZ  10048f25 f i libvcruntime:undname.obj
 0001:00047f36       ?isVCallThunk@DName@@QBEHXZ 10048f36 f i libvcruntime:undname.obj
 0001:00047f40       ?isValid@DName@@QBEHXZ     10048f40 f i libvcruntime:undname.obj
 0001:00047f4a       ?length@DName@@QBEHXZ      10048f4a f i libvcruntime:undname.obj
 0001:00047f69       ?length@DNameStatusNode@@UBEHXZ 10048f69 f i libvcruntime:undname.obj
 0001:00047f6d       ?length@charNode@@UBEHXZ   10048f6d f i libvcruntime:undname.obj
 0001:00047f71       ?length@pDNameNode@@UBEHXZ 10048f71 f i libvcruntime:undname.obj
 0001:00047f7f       ?length@pairNode@@UBEHXZ   10048f7f f i libvcruntime:undname.obj
 0001:00047fc8       ?length@pcharNode@@UBEHXZ  10048fc8 f i libvcruntime:undname.obj
 0001:00047fcc       ?make@DNameStatusNode@@SAPBV1@W4DNameStatus@@@Z 10048fcc f i libvcruntime:undname.obj
 0001:00047fe8       ?parseDecoratedName@UnDecorator@@CA?AVDName@@XZ 10048fe8 f   libvcruntime:undname.obj
 0001:000480e2       ?raw_length@DNameStatusNode@@UBEHXZ 100490e2 f i libvcruntime:undname.obj
 0001:000480e6       ?raw_length@charNode@@UBEHXZ 100490e6 f i libvcruntime:undname.obj
 0001:000480ea       ?raw_length@pDNameNode@@UBEHXZ 100490ea f i libvcruntime:undname.obj
 0001:000480ee       ?raw_length@pairNode@@UBEHXZ 100490ee f i libvcruntime:undname.obj
 0001:000480f2       ?raw_length@pcharNode@@UBEHXZ 100490f2 f i libvcruntime:undname.obj
 0001:000480f6       ?setIsArray@DName@@QAEXXZ  100490f6 f i libvcruntime:undname.obj
 0001:000480fe       ?setIsComArray@DName@@QAEXXZ 100490fe f i libvcruntime:undname.obj
 0001:00048106       ?setIsNoTE@DName@@QAEXXZ   10049106 f i libvcruntime:undname.obj
 0001:0004810e       ?setIsPinPtr@DName@@QAEXXZ 1004910e f i libvcruntime:undname.obj
 0001:00048116       ?setIsUDC@DName@@QAEXXZ    10049116 f i libvcruntime:undname.obj
 0001:00048123       ?setIsVCallThunk@DName@@QAEXXZ 10049123 f i libvcruntime:undname.obj
 0001:0004812b       ?setPtrRef@DName@@QAEAAV1@XZ 1004912b f i libvcruntime:undname.obj
 0001:00048135       ?status@DName@@QBE?AW4DNameStatus@@XZ 10049135 f i libvcruntime:undname.obj
 0001:000481a1       ___unDName                 100491a1 f   libvcruntime:undname.obj
 0001:000481c4       ___unDNameEx               100491c4 f   libvcruntime:undname.obj
 0001:00048263       _snprintf                  10049263 f i libvcruntime:undname.obj
 0001:0004827d       _unDNameGenerateCHPE       1004927d f   libvcruntime:undname.obj
 0001:0004831a       _vsnprintf                 1004931a f i libvcruntime:undname.obj
 0001:0004834a       ___vcrt_initialize_locks   1004934a f   libvcruntime:locks.obj
 0001:00048386       ___vcrt_lock               10049386 f   libvcruntime:locks.obj
 0001:0004839b       ___vcrt_uninitialize_locks 1004939b f   libvcruntime:locks.obj
 0001:000483ca       ___vcrt_unlock             100493ca f   libvcruntime:locks.obj
 0001:000483df       ??$__crt_interlocked_exchange_pointer@UHINSTANCE__@@PAU1@@@YAPAUHINSTANCE__@@PDSAU0@QAU0@@Z 100493df f i libvcruntime:winapi_downlevel.obj
 0001:000483ec       ??$__crt_interlocked_exchange_pointer@UHINSTANCE__@@PAX@@YAPAUHINSTANCE__@@PDSAU0@QAX@Z 100493ec f i libvcruntime:winapi_downlevel.obj
 0001:000483f9       ??$__crt_interlocked_exchange_pointer@XPAX@@YAPAXPDSAXQAX@Z 100493f9 f i libvcruntime:winapi_downlevel.obj
 0001:00048406       ??$__crt_interlocked_read_pointer@UHINSTANCE__@@@@YAPAUHINSTANCE__@@PDSAU0@@Z 10049406 f i libvcruntime:winapi_downlevel.obj
 0001:00048411       ??$__crt_interlocked_read_pointer@X@@YAPAXPDSAX@Z 10049411 f i libvcruntime:winapi_downlevel.obj
 0001:0004869d       ___vcrt_FlsAlloc           1004969d f   libvcruntime:winapi_downlevel.obj
 0001:000486d8       ___vcrt_FlsFree            100496d8 f   libvcruntime:winapi_downlevel.obj
 0001:00048713       ___vcrt_FlsGetValue        10049713 f   libvcruntime:winapi_downlevel.obj
 0001:0004874e       ___vcrt_FlsSetValue        1004974e f   libvcruntime:winapi_downlevel.obj
 0001:0004878c       ___vcrt_InitializeCriticalSectionEx 1004978c f   libvcruntime:winapi_downlevel.obj
 0001:000487e7       __get_unexpected           100497e7 f   libvcruntime:unexpected.obj
 0001:000487f9       _set_unexpected            100497f9 f   libvcruntime:unexpected.obj
 0001:00048817       _unexpected                10049817 f   libvcruntime:unexpected.obj
 0001:00048834       ?GetCurrentState@__FrameHandler3@@SAHPAUEHRegistrationNode@@PAXPBU_s_FuncInfo@@@Z 10049834 f   libvcruntime:ehstate.obj
 0001:00048851       ?SetState@__FrameHandler3@@SAXPAUEHRegistrationNode@@PBU_s_FuncInfo@@H@Z 10049851 f   libvcruntime:ehstate.obj
 0001:0004885f       ??$__crt_interlocked_exchange_pointer@$$A6AXXZP6AXXZ@@YAP6AXXZPDS6AXXZQ6AXXZ@Z 1004985f f i libvcruntime:purevirt.obj
 0001:0004886c       ??$__crt_interlocked_read_pointer@$$A6AXXZ@@YAP6AXXZPDS6AXXZ@Z 1004986c f i libvcruntime:purevirt.obj
 0001:00048877       __get_purecall_handler     10049877 f   libvcruntime:purevirt.obj
 0001:0004887e       __purecall                 1004987e f   libvcruntime:purevirt.obj
 0001:0004889a       __set_purecall_handler     1004989a f   libvcruntime:purevirt.obj
 0001:000488a9       _malloc                    100498a9 f   libucrt:malloc.obj
 0001:000488b4       _labs                      100498b4 f   libucrt:labs.obj
 0001:000488c3       ??$__crt_fast_decode_pointer@P6AXPB_W00II@Z@@YAP6AXPB_W00II@ZQ6AX000II@Z@Z 100498c3 f i libucrt:invalid_parameter.obj
 0001:000488d9       ??$__crt_fast_encode_pointer@P6AXPB_W00II@Z@@YAP6AXPB_W00II@ZQ6AX000II@Z@Z 100498d9 f i libucrt:invalid_parameter.obj
 0001:000488f8       ??$initialize_from_array@$$BY00Q6AXPB_W00II@Z@?$dual_state_global@P6AXPB_W00II@Z@__crt_state_management@@QAAXAAY00Q6AXPB_W00II@Z@Z 100498f8 f i libucrt:invalid_parameter.obj
 0001:00048909       ?__crt_rotate_pointer_value@@YAIIH@Z 10049909 f i libucrt:invalid_parameter.obj
 0001:00048918       ?dangerous_get_state_array@?$dual_state_global@P6AXPB_W00II@Z@__crt_state_management@@QAEPAP6AXPB_W00II@ZXZ 10049918 f i libucrt:invalid_parameter.obj
 0001:0004891b       ?get_current_state_index@__crt_state_management@@YAIXZ 1004991b f i libucrt:invalid_parameter.obj
 0001:0004891e       ?value@?$dual_state_global@P6AXPB_W00II@Z@__crt_state_management@@QAEAAP6AXPB_W00II@ZXZ 1004991e f i libucrt:invalid_parameter.obj
 0001:00048921       ___acrt_call_reportfault   10049921 f   libucrt:invalid_parameter.obj
 0001:00048a5a       ___acrt_initialize_invalid_parameter_handler 10049a5a f   libucrt:invalid_parameter.obj
 0001:00048a69       __get_invalid_parameter_handler 10049a69 f   libucrt:invalid_parameter.obj
 0001:00048a7c       __get_thread_local_invalid_parameter_handler 10049a7c f   libucrt:invalid_parameter.obj
 0001:00048a8d       __invalid_parameter        10049a8d f   libucrt:invalid_parameter.obj
 0001:00048af1       __invalid_parameter_noinfo 10049af1 f   libucrt:invalid_parameter.obj
 0001:00048b01       __invalid_parameter_noinfo_noreturn 10049b01 f   libucrt:invalid_parameter.obj
 0001:00048b1e       __invoke_watson            10049b1e f   libucrt:invalid_parameter.obj
 0001:00048b52       __set_invalid_parameter_handler 10049b52 f   libucrt:invalid_parameter.obj
 0001:00048b82       __set_thread_local_invalid_parameter_handler 10049b82 f   libucrt:invalid_parameter.obj
 0001:00048b9f       _free                      10049b9f f   libucrt:free.obj
 0001:00048bc0       _sqrt                      10049bc0 f   libucrt:sqrt.obj
 0001:00048bce       ??$?0ABV?$stream_output_adapter@D@__crt_stdio_output@@AB_KABQBDABQAU__crt_locale_pointers@@ABQAD@?$format_validation_base@DV?$stream_output_adapter@D@__crt_stdio_output@@@__crt_stdio_output@@IAE@ABV?$stream_output_adapter@D@1@AB_KABQBDABQAU__crt_locale_pointers@@ABQAD@Z 10049bce f i libucrt:output.obj
 0001:00048bf1       ??$?0ABV?$stream_output_adapter@D@__crt_stdio_output@@AB_KABQBDABQAU__crt_locale_pointers@@ABQAD@?$positional_parameter_base@DV?$stream_output_adapter@D@__crt_stdio_output@@@__crt_stdio_output@@IAE@ABV?$stream_output_adapter@D@1@AB_KABQBDABQAU__crt_locale_pointers@@ABQAD@Z 10049bf1 f i libucrt:output.obj
 0001:00048c39       ??$?0ABV?$stream_output_adapter@D@__crt_stdio_output@@AB_KABQBDABQAU__crt_locale_pointers@@ABQAD@?$standard_base@DV?$stream_output_adapter@D@__crt_stdio_output@@@__crt_stdio_output@@IAE@ABV?$stream_output_adapter@D@1@AB_KABQBDABQAU__crt_locale_pointers@@ABQAD@Z 10049c39 f i libucrt:output.obj
 0001:00048c6e       ??$?0ABV?$stream_output_adapter@_W@__crt_stdio_output@@AB_KABQB_WABQAU__crt_locale_pointers@@ABQAD@?$format_validation_base@_WV?$stream_output_adapter@_W@__crt_stdio_output@@@__crt_stdio_output@@IAE@ABV?$stream_output_adapter@_W@1@AB_KABQB_WABQAU__crt_locale_pointers@@ABQAD@Z 10049c6e f i libucrt:output.obj
 0001:00048c91       ??$?0ABV?$stream_output_adapter@_W@__crt_stdio_output@@AB_KABQB_WABQAU__crt_locale_pointers@@ABQAD@?$positional_parameter_base@_WV?$stream_output_adapter@_W@__crt_stdio_output@@@__crt_stdio_output@@IAE@ABV?$stream_output_adapter@_W@1@AB_KABQB_WABQAU__crt_locale_pointers@@ABQAD@Z 10049c91 f i libucrt:output.obj
 0001:00048cd9       ??$?0ABV?$stream_output_adapter@_W@__crt_stdio_output@@AB_KABQB_WABQAU__crt_locale_pointers@@ABQAD@?$standard_base@_WV?$stream_output_adapter@_W@__crt_stdio_output@@@__crt_stdio_output@@IAE@ABV?$stream_output_adapter@_W@1@AB_KABQB_WABQAU__crt_locale_pointers@@ABQAD@Z 10049cd9 f i libucrt:output.obj
 0001:00048d0e       ??$?0ABV?$string_output_adapter@D@__crt_stdio_output@@AB_KABQBDABQAU__crt_locale_pointers@@ABQAD@?$format_validation_base@DV?$string_output_adapter@D@__crt_stdio_output@@@__crt_stdio_output@@IAE@ABV?$string_output_adapter@D@1@AB_KABQBDABQAU__crt_locale_pointers@@ABQAD@Z 10049d0e f i libucrt:output.obj
 0001:00048d31       ??$?0ABV?$string_output_adapter@D@__crt_stdio_output@@AB_KABQBDABQAU__crt_locale_pointers@@ABQAD@?$positional_parameter_base@DV?$string_output_adapter@D@__crt_stdio_output@@@__crt_stdio_output@@IAE@ABV?$string_output_adapter@D@1@AB_KABQBDABQAU__crt_locale_pointers@@ABQAD@Z 10049d31 f i libucrt:output.obj
 0001:00048d79       ??$?0ABV?$string_output_adapter@D@__crt_stdio_output@@AB_KABQBDABQAU__crt_locale_pointers@@ABQAD@?$standard_base@DV?$string_output_adapter@D@__crt_stdio_output@@@__crt_stdio_output@@IAE@ABV?$string_output_adapter@D@1@AB_KABQBDABQAU__crt_locale_pointers@@ABQAD@Z 10049d79 f i libucrt:output.obj
 0001:00048dae       ??$?0ABV?$string_output_adapter@_W@__crt_stdio_output@@AB_KABQB_WABQAU__crt_locale_pointers@@ABQAD@?$format_validation_base@_WV?$string_output_adapter@_W@__crt_stdio_output@@@__crt_stdio_output@@IAE@ABV?$string_output_adapter@_W@1@AB_KABQB_WABQAU__crt_locale_pointers@@ABQAD@Z 10049dae f i libucrt:output.obj
 0001:00048dd1       ??$?0ABV?$string_output_adapter@_W@__crt_stdio_output@@AB_KABQB_WABQAU__crt_locale_pointers@@ABQAD@?$positional_parameter_base@_WV?$string_output_adapter@_W@__crt_stdio_output@@@__crt_stdio_output@@IAE@ABV?$string_output_adapter@_W@1@AB_KABQB_WABQAU__crt_locale_pointers@@ABQAD@Z 10049dd1 f i libucrt:output.obj
 0001:00048e19       ??$?0ABV?$string_output_adapter@_W@__crt_stdio_output@@AB_KABQB_WABQAU__crt_locale_pointers@@ABQAD@?$standard_base@_WV?$string_output_adapter@_W@__crt_stdio_output@@@__crt_stdio_output@@IAE@ABV?$string_output_adapter@_W@1@AB_KABQB_WABQAU__crt_locale_pointers@@ABQAD@Z 10049e19 f i libucrt:output.obj
 0001:00049154       ??$__crt_interlocked_read@J@@YAJPDJ@Z 1004a154 f i libucrt:output.obj
 0001:0004a020       ??$count@D@formatting_buffer@__crt_stdio_output@@QBEIXZ 1004b020 f i libucrt:output.obj
 0001:0004a038       ??$count@_W@formatting_buffer@__crt_stdio_output@@QBEIXZ 1004b038 f i libucrt:output.obj
 0001:0004a051       ??$data@D@formatting_buffer@__crt_stdio_output@@QAEPADXZ 1004b051 f i libucrt:output.obj
 0001:0004a05e       ??$data@_W@formatting_buffer@__crt_stdio_output@@QAEPA_WXZ 1004b05e f i libucrt:output.obj
 0001:0004a06b       ??$ensure_buffer_is_big_enough@D@formatting_buffer@__crt_stdio_output@@QAE_NI@Z 1004b06b f i libucrt:output.obj
 0001:0004a0e8       ??$ensure_buffer_is_big_enough@_W@formatting_buffer@__crt_stdio_output@@QAE_NI@Z 1004b0e8 f i libucrt:output.obj
 0001:0004a166       ??$extract_argument_from_va_list@C_J@?$positional_parameter_base@DV?$stream_output_adapter@D@__crt_stdio_output@@@__crt_stdio_output@@IAE_NAA_J@Z 1004b166 f i libucrt:output.obj
 0001:0004a1df       ??$extract_argument_from_va_list@C_J@?$positional_parameter_base@DV?$string_output_adapter@D@__crt_stdio_output@@@__crt_stdio_output@@IAE_NAA_J@Z 1004b1df f i libucrt:output.obj
 0001:0004a258       ??$extract_argument_from_va_list@C_J@?$positional_parameter_base@_WV?$stream_output_adapter@_W@__crt_stdio_output@@@__crt_stdio_output@@IAE_NAA_J@Z 1004b258 f i libucrt:output.obj
 0001:0004a2d1       ??$extract_argument_from_va_list@C_J@?$positional_parameter_base@_WV?$string_output_adapter@_W@__crt_stdio_output@@@__crt_stdio_output@@IAE_NAA_J@Z 1004b2d1 f i libucrt:output.obj
 0001:0004a34a       ??$extract_argument_from_va_list@C_J@?$standard_base@DV?$stream_output_adapter@D@__crt_stdio_output@@@__crt_stdio_output@@IAE_NAA_J@Z 1004b34a f i libucrt:output.obj
 0001:0004a369       ??$extract_argument_from_va_list@C_J@?$standard_base@DV?$string_output_adapter@D@__crt_stdio_output@@@__crt_stdio_output@@IAE_NAA_J@Z 1004b369 f i libucrt:output.obj
 0001:0004a388       ??$extract_argument_from_va_list@C_J@?$standard_base@_WV?$stream_output_adapter@_W@__crt_stdio_output@@@__crt_stdio_output@@IAE_NAA_J@Z 1004b388 f i libucrt:output.obj
 0001:0004a3a7       ??$extract_argument_from_va_list@C_J@?$standard_base@_WV?$string_output_adapter@_W@__crt_stdio_output@@@__crt_stdio_output@@IAE_NAA_J@Z 1004b3a7 f i libucrt:output.obj
 0001:0004a3c6       ??$extract_argument_from_va_list@E_J@?$positional_parameter_base@DV?$stream_output_adapter@D@__crt_stdio_output@@@__crt_stdio_output@@IAE_NAA_J@Z 1004b3c6 f i libucrt:output.obj
 0001:0004a43f       ??$extract_argument_from_va_list@E_J@?$positional_parameter_base@DV?$string_output_adapter@D@__crt_stdio_output@@@__crt_stdio_output@@IAE_NAA_J@Z 1004b43f f i libucrt:output.obj
 0001:0004a4b8       ??$extract_argument_from_va_list@E_J@?$positional_parameter_base@_WV?$stream_output_adapter@_W@__crt_stdio_output@@@__crt_stdio_output@@IAE_NAA_J@Z 1004b4b8 f i libucrt:output.obj
 0001:0004a531       ??$extract_argument_from_va_list@E_J@?$positional_parameter_base@_WV?$string_output_adapter@_W@__crt_stdio_output@@@__crt_stdio_output@@IAE_NAA_J@Z 1004b531 f i libucrt:output.obj
 0001:0004a5aa       ??$extract_argument_from_va_list@E_J@?$standard_base@DV?$stream_output_adapter@D@__crt_stdio_output@@@__crt_stdio_output@@IAE_NAA_J@Z 1004b5aa f i libucrt:output.obj
 0001:0004a5c9       ??$extract_argument_from_va_list@E_J@?$standard_base@DV?$string_output_adapter@D@__crt_stdio_output@@@__crt_stdio_output@@IAE_NAA_J@Z 1004b5c9 f i libucrt:output.obj
 0001:0004a5e8       ??$extract_argument_from_va_list@E_J@?$standard_base@_WV?$stream_output_adapter@_W@__crt_stdio_output@@@__crt_stdio_output@@IAE_NAA_J@Z 1004b5e8 f i libucrt:output.obj
 0001:0004a607       ??$extract_argument_from_va_list@E_J@?$standard_base@_WV?$string_output_adapter@_W@__crt_stdio_output@@@__crt_stdio_output@@IAE_NAA_J@Z 1004b607 f i libucrt:output.obj
 0001:0004a626       ??$extract_argument_from_va_list@F_J@?$positional_parameter_base@DV?$stream_output_adapter@D@__crt_stdio_output@@@__crt_stdio_output@@IAE_NAA_J@Z 1004b626 f i libucrt:output.obj
 0001:0004a69f       ??$extract_argument_from_va_list@F_J@?$positional_parameter_base@DV?$string_output_adapter@D@__crt_stdio_output@@@__crt_stdio_output@@IAE_NAA_J@Z 1004b69f f i libucrt:output.obj
 0001:0004a718       ??$extract_argument_from_va_list@F_J@?$positional_parameter_base@_WV?$stream_output_adapter@_W@__crt_stdio_output@@@__crt_stdio_output@@IAE_NAA_J@Z 1004b718 f i libucrt:output.obj
 0001:0004a791       ??$extract_argument_from_va_list@F_J@?$positional_parameter_base@_WV?$string_output_adapter@_W@__crt_stdio_output@@@__crt_stdio_output@@IAE_NAA_J@Z 1004b791 f i libucrt:output.obj
 0001:0004a80a       ??$extract_argument_from_va_list@F_J@?$standard_base@DV?$stream_output_adapter@D@__crt_stdio_output@@@__crt_stdio_output@@IAE_NAA_J@Z 1004b80a f i libucrt:output.obj
 0001:0004a829       ??$extract_argument_from_va_list@F_J@?$standard_base@DV?$string_output_adapter@D@__crt_stdio_output@@@__crt_stdio_output@@IAE_NAA_J@Z 1004b829 f i libucrt:output.obj
 0001:0004a848       ??$extract_argument_from_va_list@F_J@?$standard_base@_WV?$stream_output_adapter@_W@__crt_stdio_output@@@__crt_stdio_output@@IAE_NAA_J@Z 1004b848 f i libucrt:output.obj
 0001:0004a867       ??$extract_argument_from_va_list@F_J@?$standard_base@_WV?$string_output_adapter@_W@__crt_stdio_output@@@__crt_stdio_output@@IAE_NAA_J@Z 1004b867 f i libucrt:output.obj
 0001:0004a886       ??$extract_argument_from_va_list@GD@?$positional_parameter_base@DV?$stream_output_adapter@D@__crt_stdio_output@@@__crt_stdio_output@@IAE_NAAD@Z 1004b886 f i libucrt:output.obj
 0001:0004a8fe       ??$extract_argument_from_va_list@GD@?$positional_parameter_base@DV?$string_output_adapter@D@__crt_stdio_output@@@__crt_stdio_output@@IAE_NAAD@Z 1004b8fe f i libucrt:output.obj
 0001:0004a976       ??$extract_argument_from_va_list@GD@?$standard_base@DV?$stream_output_adapter@D@__crt_stdio_output@@@__crt_stdio_output@@IAE_NAAD@Z 1004b976 f i libucrt:output.obj
 0001:0004a990       ??$extract_argument_from_va_list@GD@?$standard_base@DV?$string_output_adapter@D@__crt_stdio_output@@@__crt_stdio_output@@IAE_NAAD@Z 1004b990 f i libucrt:output.obj
 0001:0004a9aa       ??$extract_argument_from_va_list@G_J@?$positional_parameter_base@DV?$stream_output_adapter@D@__crt_stdio_output@@@__crt_stdio_output@@IAE_NAA_J@Z 1004b9aa f i libucrt:output.obj
 0001:0004aa23       ??$extract_argument_from_va_list@G_J@?$positional_parameter_base@DV?$string_output_adapter@D@__crt_stdio_output@@@__crt_stdio_output@@IAE_NAA_J@Z 1004ba23 f i libucrt:output.obj
 0001:0004aa9c       ??$extract_argument_from_va_list@G_J@?$positional_parameter_base@_WV?$stream_output_adapter@_W@__crt_stdio_output@@@__crt_stdio_output@@IAE_NAA_J@Z 1004ba9c f i libucrt:output.obj
 0001:0004ab15       ??$extract_argument_from_va_list@G_J@?$positional_parameter_base@_WV?$string_output_adapter@_W@__crt_stdio_output@@@__crt_stdio_output@@IAE_NAA_J@Z 1004bb15 f i libucrt:output.obj
 0001:0004ab8e       ??$extract_argument_from_va_list@G_J@?$standard_base@DV?$stream_output_adapter@D@__crt_stdio_output@@@__crt_stdio_output@@IAE_NAA_J@Z 1004bb8e f i libucrt:output.obj
 0001:0004abad       ??$extract_argument_from_va_list@G_J@?$standard_base@DV?$string_output_adapter@D@__crt_stdio_output@@@__crt_stdio_output@@IAE_NAA_J@Z 1004bbad f i libucrt:output.obj
 0001:0004abcc       ??$extract_argument_from_va_list@G_J@?$standard_base@_WV?$stream_output_adapter@_W@__crt_stdio_output@@@__crt_stdio_output@@IAE_NAA_J@Z 1004bbcc f i libucrt:output.obj
 0001:0004abeb       ??$extract_argument_from_va_list@G_J@?$standard_base@_WV?$string_output_adapter@_W@__crt_stdio_output@@@__crt_stdio_output@@IAE_NAA_J@Z 1004bbeb f i libucrt:output.obj
 0001:0004ac0a       ??$extract_argument_from_va_list@H_J@?$positional_parameter_base@DV?$stream_output_adapter@D@__crt_stdio_output@@@__crt_stdio_output@@IAE_NAA_J@Z 1004bc0a f i libucrt:output.obj
 0001:0004ac81       ??$extract_argument_from_va_list@H_J@?$positional_parameter_base@DV?$string_output_adapter@D@__crt_stdio_output@@@__crt_stdio_output@@IAE_NAA_J@Z 1004bc81 f i libucrt:output.obj
 0001:0004acf8       ??$extract_argument_from_va_list@H_J@?$positional_parameter_base@_WV?$stream_output_adapter@_W@__crt_stdio_output@@@__crt_stdio_output@@IAE_NAA_J@Z 1004bcf8 f i libucrt:output.obj
 0001:0004ad6f       ??$extract_argument_from_va_list@H_J@?$positional_parameter_base@_WV?$string_output_adapter@_W@__crt_stdio_output@@@__crt_stdio_output@@IAE_NAA_J@Z 1004bd6f f i libucrt:output.obj
 0001:0004ade6       ??$extract_argument_from_va_list@H_J@?$standard_base@DV?$stream_output_adapter@D@__crt_stdio_output@@@__crt_stdio_output@@IAE_NAA_J@Z 1004bde6 f i libucrt:output.obj
 0001:0004ae04       ??$extract_argument_from_va_list@H_J@?$standard_base@DV?$string_output_adapter@D@__crt_stdio_output@@@__crt_stdio_output@@IAE_NAA_J@Z 1004be04 f i libucrt:output.obj
 0001:0004ae22       ??$extract_argument_from_va_list@H_J@?$standard_base@_WV?$stream_output_adapter@_W@__crt_stdio_output@@@__crt_stdio_output@@IAE_NAA_J@Z 1004be22 f i libucrt:output.obj
 0001:0004ae40       ??$extract_argument_from_va_list@H_J@?$standard_base@_WV?$string_output_adapter@_W@__crt_stdio_output@@@__crt_stdio_output@@IAE_NAA_J@Z 1004be40 f i libucrt:output.obj
 0001:0004ae5e       ??$extract_argument_from_va_list@I_J@?$positional_parameter_base@DV?$stream_output_adapter@D@__crt_stdio_output@@@__crt_stdio_output@@IAE_NAA_J@Z 1004be5e f i libucrt:output.obj
 0001:0004aede       ??$extract_argument_from_va_list@I_J@?$positional_parameter_base@DV?$string_output_adapter@D@__crt_stdio_output@@@__crt_stdio_output@@IAE_NAA_J@Z 1004bede f i libucrt:output.obj
 0001:0004af5e       ??$extract_argument_from_va_list@I_J@?$positional_parameter_base@_WV?$stream_output_adapter@_W@__crt_stdio_output@@@__crt_stdio_output@@IAE_NAA_J@Z 1004bf5e f i libucrt:output.obj
 0001:0004afde       ??$extract_argument_from_va_list@I_J@?$positional_parameter_base@_WV?$string_output_adapter@_W@__crt_stdio_output@@@__crt_stdio_output@@IAE_NAA_J@Z 1004bfde f i libucrt:output.obj
 0001:0004b05e       ??$extract_argument_from_va_list@I_J@?$standard_base@DV?$stream_output_adapter@D@__crt_stdio_output@@@__crt_stdio_output@@IAE_NAA_J@Z 1004c05e f i libucrt:output.obj
 0001:0004b07c       ??$extract_argument_from_va_list@I_J@?$standard_base@DV?$string_output_adapter@D@__crt_stdio_output@@@__crt_stdio_output@@IAE_NAA_J@Z 1004c07c f i libucrt:output.obj
 0001:0004b09a       ??$extract_argument_from_va_list@I_J@?$standard_base@_WV?$stream_output_adapter@_W@__crt_stdio_output@@@__crt_stdio_output@@IAE_NAA_J@Z 1004c09a f i libucrt:output.obj
 0001:0004b0b8       ??$extract_argument_from_va_list@I_J@?$standard_base@_WV?$string_output_adapter@_W@__crt_stdio_output@@@__crt_stdio_output@@IAE_NAA_J@Z 1004c0b8 f i libucrt:output.obj
 0001:0004b0d6       ??$extract_argument_from_va_list@PADPAD@?$positional_parameter_base@DV?$stream_output_adapter@D@__crt_stdio_output@@@__crt_stdio_output@@IAE_NAAPAD@Z 1004c0d6 f i libucrt:output.obj
 0001:0004b14e       ??$extract_argument_from_va_list@PADPAD@?$positional_parameter_base@DV?$string_output_adapter@D@__crt_stdio_output@@@__crt_stdio_output@@IAE_NAAPAD@Z 1004c14e f i libucrt:output.obj
 0001:0004b1c6       ??$extract_argument_from_va_list@PADPAD@?$positional_parameter_base@_WV?$stream_output_adapter@_W@__crt_stdio_output@@@__crt_stdio_output@@IAE_NAAPAD@Z 1004c1c6 f i libucrt:output.obj
 0001:0004b23e       ??$extract_argument_from_va_list@PADPAD@?$positional_parameter_base@_WV?$string_output_adapter@_W@__crt_stdio_output@@@__crt_stdio_output@@IAE_NAAPAD@Z 1004c23e f i libucrt:output.obj
 0001:0004b2b6       ??$extract_argument_from_va_list@PADPAD@?$standard_base@DV?$stream_output_adapter@D@__crt_stdio_output@@@__crt_stdio_output@@IAE_NAAPAD@Z 1004c2b6 f i libucrt:output.obj
 0001:0004b2d0       ??$extract_argument_from_va_list@PADPAD@?$standard_base@DV?$string_output_adapter@D@__crt_stdio_output@@@__crt_stdio_output@@IAE_NAAPAD@Z 1004c2d0 f i libucrt:output.obj
 0001:0004b2ea       ??$extract_argument_from_va_list@PADPAD@?$standard_base@_WV?$stream_output_adapter@_W@__crt_stdio_output@@@__crt_stdio_output@@IAE_NAAPAD@Z 1004c2ea f i libucrt:output.obj
 0001:0004b304       ??$extract_argument_from_va_list@PADPAD@?$standard_base@_WV?$string_output_adapter@_W@__crt_stdio_output@@@__crt_stdio_output@@IAE_NAAPAD@Z 1004c304 f i libucrt:output.obj
 0001:0004b31e       ??$extract_argument_from_va_list@PAUansi_string@?1??type_case_Z@?$output_processor@DV?$stream_output_adapter@D@__crt_stdio_output@@V?$format_validation_base@DV?$stream_output_adapter@D@__crt_stdio_output@@@2@@__crt_stdio_output@@AAE_NXZ@PAU1?1??234@AAE_NXZ@@?$standard_base@DV?$stream_output_adapter@D@__crt_stdio_output@@@__crt_stdio_output@@IAE_NAAPAUansi_string@?1??type_case_Z@?$output_processor@DV?$stream_output_adapter@D@__crt_stdio_output@@V?$format_validation_base@DV?$stream_output_adapter@D@__crt_stdio_output@@@2@@1@AAE_NXZ@@Z 1004c31e f i libucrt:output.obj
 0001:0004b338       ??$extract_argument_from_va_list@PAUansi_string@?1??type_case_Z@?$output_processor@DV?$stream_output_adapter@D@__crt_stdio_output@@V?$positional_parameter_base@DV?$stream_output_adapter@D@__crt_stdio_output@@@2@@__crt_stdio_output@@AAE_NXZ@PAU1?1??234@AAE_NXZ@@?$positional_parameter_base@DV?$stream_output_adapter@D@__crt_stdio_output@@@__crt_stdio_output@@IAE_NAAPAUansi_string@?1??type_case_Z@?$output_processor@DV?$stream_output_adapter@D@__crt_stdio_output@@V?$positional_parameter_base@DV?$stream_output_adapter@D@__crt_stdio_output@@@2@@1@AAE_NXZ@@Z 1004c338 f i libucrt:output.obj
 0001:0004b3b0       ??$extract_argument_from_va_list@PAUansi_string@?1??type_case_Z@?$output_processor@DV?$stream_output_adapter@D@__crt_stdio_output@@V?$positional_parameter_base@DV?$stream_output_adapter@D@__crt_stdio_output@@@2@@__crt_stdio_output@@AAE_NXZ@PAU1?1??234@AAE_NXZ@@?$standard_base@DV?$stream_output_adapter@D@__crt_stdio_output@@@__crt_stdio_output@@IAE_NAAPAUansi_string@?1??type_case_Z@?$output_processor@DV?$stream_output_adapter@D@__crt_stdio_output@@V?$positional_parameter_base@DV?$stream_output_adapter@D@__crt_stdio_output@@@2@@1@AAE_NXZ@@Z 1004c3b0 f i libucrt:output.obj
 0001:0004b3ca       ??$extract_argument_from_va_list@PAUansi_string@?1??type_case_Z@?$output_processor@DV?$stream_output_adapter@D@__crt_stdio_output@@V?$standard_base@DV?$stream_output_adapter@D@__crt_stdio_output@@@2@@__crt_stdio_output@@AAE_NXZ@PAU1?1??234@AAE_NXZ@@?$standard_base@DV?$stream_output_adapter@D@__crt_stdio_output@@@__crt_stdio_output@@IAE_NAAPAUansi_string@?1??type_case_Z@?$output_processor@DV?$stream_output_adapter@D@__crt_stdio_output@@V?$standard_base@DV?$stream_output_adapter@D@__crt_stdio_output@@@2@@1@AAE_NXZ@@Z 1004c3ca f i libucrt:output.obj
 0001:0004b3e4       ??$extract_argument_from_va_list@PAUansi_string@?1??type_case_Z@?$output_processor@DV?$string_output_adapter@D@__crt_stdio_output@@V?$format_validation_base@DV?$string_output_adapter@D@__crt_stdio_output@@@2@@__crt_stdio_output@@AAE_NXZ@PAU1?1??234@AAE_NXZ@@?$standard_base@DV?$string_output_adapter@D@__crt_stdio_output@@@__crt_stdio_output@@IAE_NAAPAUansi_string@?1??type_case_Z@?$output_processor@DV?$string_output_adapter@D@__crt_stdio_output@@V?$format_validation_base@DV?$string_output_adapter@D@__crt_stdio_output@@@2@@1@AAE_NXZ@@Z 1004c3e4 f i libucrt:output.obj
 0001:0004b3fe       ??$extract_argument_from_va_list@PAUansi_string@?1??type_case_Z@?$output_processor@DV?$string_output_adapter@D@__crt_stdio_output@@V?$positional_parameter_base@DV?$string_output_adapter@D@__crt_stdio_output@@@2@@__crt_stdio_output@@AAE_NXZ@PAU1?1??234@AAE_NXZ@@?$positional_parameter_base@DV?$string_output_adapter@D@__crt_stdio_output@@@__crt_stdio_output@@IAE_NAAPAUansi_string@?1??type_case_Z@?$output_processor@DV?$string_output_adapter@D@__crt_stdio_output@@V?$positional_parameter_base@DV?$string_output_adapter@D@__crt_stdio_output@@@2@@1@AAE_NXZ@@Z 1004c3fe f i libucrt:output.obj
 0001:0004b476       ??$extract_argument_from_va_list@PAUansi_string@?1??type_case_Z@?$output_processor@DV?$string_output_adapter@D@__crt_stdio_output@@V?$positional_parameter_base@DV?$string_output_adapter@D@__crt_stdio_output@@@2@@__crt_stdio_output@@AAE_NXZ@PAU1?1??234@AAE_NXZ@@?$standard_base@DV?$string_output_adapter@D@__crt_stdio_output@@@__crt_stdio_output@@IAE_NAAPAUansi_string@?1??type_case_Z@?$output_processor@DV?$string_output_adapter@D@__crt_stdio_output@@V?$positional_parameter_base@DV?$string_output_adapter@D@__crt_stdio_output@@@2@@1@AAE_NXZ@@Z 1004c476 f i libucrt:output.obj
 0001:0004b490       ??$extract_argument_from_va_list@PAUansi_string@?1??type_case_Z@?$output_processor@DV?$string_output_adapter@D@__crt_stdio_output@@V?$standard_base@DV?$string_output_adapter@D@__crt_stdio_output@@@2@@__crt_stdio_output@@AAE_NXZ@PAU1?1??234@AAE_NXZ@@?$standard_base@DV?$string_output_adapter@D@__crt_stdio_output@@@__crt_stdio_output@@IAE_NAAPAUansi_string@?1??type_case_Z@?$output_processor@DV?$string_output_adapter@D@__crt_stdio_output@@V?$standard_base@DV?$string_output_adapter@D@__crt_stdio_output@@@2@@1@AAE_NXZ@@Z 1004c490 f i libucrt:output.obj
 0001:0004b4aa       ??$extract_argument_from_va_list@PAUansi_string@?1??type_case_Z@?$output_processor@_WV?$stream_output_adapter@_W@__crt_stdio_output@@V?$format_validation_base@_WV?$stream_output_adapter@_W@__crt_stdio_output@@@2@@__crt_stdio_output@@AAE_NXZ@PAU1?1??234@AAE_NXZ@@?$standard_base@_WV?$stream_output_adapter@_W@__crt_stdio_output@@@__crt_stdio_output@@IAE_NAAPAUansi_string@?1??type_case_Z@?$output_processor@_WV?$stream_output_adapter@_W@__crt_stdio_output@@V?$format_validation_base@_WV?$stream_output_adapter@_W@__crt_stdio_output@@@2@@1@AAE_NXZ@@Z 1004c4aa f i libucrt:output.obj
 0001:0004b4c4       ??$extract_argument_from_va_list@PAUansi_string@?1??type_case_Z@?$output_processor@_WV?$stream_output_adapter@_W@__crt_stdio_output@@V?$positional_parameter_base@_WV?$stream_output_adapter@_W@__crt_stdio_output@@@2@@__crt_stdio_output@@AAE_NXZ@PAU1?1??234@AAE_NXZ@@?$positional_parameter_base@_WV?$stream_output_adapter@_W@__crt_stdio_output@@@__crt_stdio_output@@IAE_NAAPAUansi_string@?1??type_case_Z@?$output_processor@_WV?$stream_output_adapter@_W@__crt_stdio_output@@V?$positional_parameter_base@_WV?$stream_output_adapter@_W@__crt_stdio_output@@@2@@1@AAE_NXZ@@Z 1004c4c4 f i libucrt:output.obj
 0001:0004b53c       ??$extract_argument_from_va_list@PAUansi_string@?1??type_case_Z@?$output_processor@_WV?$stream_output_adapter@_W@__crt_stdio_output@@V?$positional_parameter_base@_WV?$stream_output_adapter@_W@__crt_stdio_output@@@2@@__crt_stdio_output@@AAE_NXZ@PAU1?1??234@AAE_NXZ@@?$standard_base@_WV?$stream_output_adapter@_W@__crt_stdio_output@@@__crt_stdio_output@@IAE_NAAPAUansi_string@?1??type_case_Z@?$output_processor@_WV?$stream_output_adapter@_W@__crt_stdio_output@@V?$positional_parameter_base@_WV?$stream_output_adapter@_W@__crt_stdio_output@@@2@@1@AAE_NXZ@@Z 1004c53c f i libucrt:output.obj
 0001:0004b556       ??$extract_argument_from_va_list@PAUansi_string@?1??type_case_Z@?$output_processor@_WV?$stream_output_adapter@_W@__crt_stdio_output@@V?$standard_base@_WV?$stream_output_adapter@_W@__crt_stdio_output@@@2@@__crt_stdio_output@@AAE_NXZ@PAU1?1??234@AAE_NXZ@@?$standard_base@_WV?$stream_output_adapter@_W@__crt_stdio_output@@@__crt_stdio_output@@IAE_NAAPAUansi_string@?1??type_case_Z@?$output_processor@_WV?$stream_output_adapter@_W@__crt_stdio_output@@V?$standard_base@_WV?$stream_output_adapter@_W@__crt_stdio_output@@@2@@1@AAE_NXZ@@Z 1004c556 f i libucrt:output.obj
 0001:0004b570       ??$extract_argument_from_va_list@PAUansi_string@?1??type_case_Z@?$output_processor@_WV?$string_output_adapter@_W@__crt_stdio_output@@V?$format_validation_base@_WV?$string_output_adapter@_W@__crt_stdio_output@@@2@@__crt_stdio_output@@AAE_NXZ@PAU1?1??234@AAE_NXZ@@?$standard_base@_WV?$string_output_adapter@_W@__crt_stdio_output@@@__crt_stdio_output@@IAE_NAAPAUansi_string@?1??type_case_Z@?$output_processor@_WV?$string_output_adapter@_W@__crt_stdio_output@@V?$format_validation_base@_WV?$string_output_adapter@_W@__crt_stdio_output@@@2@@1@AAE_NXZ@@Z 1004c570 f i libucrt:output.obj
 0001:0004b58a       ??$extract_argument_from_va_list@PAUansi_string@?1??type_case_Z@?$output_processor@_WV?$string_output_adapter@_W@__crt_stdio_output@@V?$positional_parameter_base@_WV?$string_output_adapter@_W@__crt_stdio_output@@@2@@__crt_stdio_output@@AAE_NXZ@PAU1?1??234@AAE_NXZ@@?$positional_parameter_base@_WV?$string_output_adapter@_W@__crt_stdio_output@@@__crt_stdio_output@@IAE_NAAPAUansi_string@?1??type_case_Z@?$output_processor@_WV?$string_output_adapter@_W@__crt_stdio_output@@V?$positional_parameter_base@_WV?$string_output_adapter@_W@__crt_stdio_output@@@2@@1@AAE_NXZ@@Z 1004c58a f i libucrt:output.obj
 0001:0004b602       ??$extract_argument_from_va_list@PAUansi_string@?1??type_case_Z@?$output_processor@_WV?$string_output_adapter@_W@__crt_stdio_output@@V?$positional_parameter_base@_WV?$string_output_adapter@_W@__crt_stdio_output@@@2@@__crt_stdio_output@@AAE_NXZ@PAU1?1??234@AAE_NXZ@@?$standard_base@_WV?$string_output_adapter@_W@__crt_stdio_output@@@__crt_stdio_output@@IAE_NAAPAUansi_string@?1??type_case_Z@?$output_processor@_WV?$string_output_adapter@_W@__crt_stdio_output@@V?$positional_parameter_base@_WV?$string_output_adapter@_W@__crt_stdio_output@@@2@@1@AAE_NXZ@@Z 1004c602 f i libucrt:output.obj
 0001:0004b61c       ??$extract_argument_from_va_list@PAUansi_string@?1??type_case_Z@?$output_processor@_WV?$string_output_adapter@_W@__crt_stdio_output@@V?$standard_base@_WV?$string_output_adapter@_W@__crt_stdio_output@@@2@@__crt_stdio_output@@AAE_NXZ@PAU1?1??234@AAE_NXZ@@?$standard_base@_WV?$string_output_adapter@_W@__crt_stdio_output@@@__crt_stdio_output@@IAE_NAAPAUansi_string@?1??type_case_Z@?$output_processor@_WV?$string_output_adapter@_W@__crt_stdio_output@@V?$standard_base@_WV?$string_output_adapter@_W@__crt_stdio_output@@@2@@1@AAE_NXZ@@Z 1004c61c f i libucrt:output.obj
 0001:0004b636       ??$extract_argument_from_va_list@PAXPAX@?$positional_parameter_base@DV?$stream_output_adapter@D@__crt_stdio_output@@@__crt_stdio_output@@IAE_NAAPAX@Z 1004c636 f i libucrt:output.obj
 0001:0004b6ae       ??$extract_argument_from_va_list@PAXPAX@?$positional_parameter_base@DV?$string_output_adapter@D@__crt_stdio_output@@@__crt_stdio_output@@IAE_NAAPAX@Z 1004c6ae f i libucrt:output.obj
 0001:0004b726       ??$extract_argument_from_va_list@PAXPAX@?$positional_parameter_base@_WV?$stream_output_adapter@_W@__crt_stdio_output@@@__crt_stdio_output@@IAE_NAAPAX@Z 1004c726 f i libucrt:output.obj
 0001:0004b79e       ??$extract_argument_from_va_list@PAXPAX@?$positional_parameter_base@_WV?$string_output_adapter@_W@__crt_stdio_output@@@__crt_stdio_output@@IAE_NAAPAX@Z 1004c79e f i libucrt:output.obj
 0001:0004b816       ??$extract_argument_from_va_list@PAXPAX@?$standard_base@DV?$stream_output_adapter@D@__crt_stdio_output@@@__crt_stdio_output@@IAE_NAAPAX@Z 1004c816 f i libucrt:output.obj
 0001:0004b830       ??$extract_argument_from_va_list@PAXPAX@?$standard_base@DV?$string_output_adapter@D@__crt_stdio_output@@@__crt_stdio_output@@IAE_NAAPAX@Z 1004c830 f i libucrt:output.obj
 0001:0004b84a       ??$extract_argument_from_va_list@PAXPAX@?$standard_base@_WV?$stream_output_adapter@_W@__crt_stdio_output@@@__crt_stdio_output@@IAE_NAAPAX@Z 1004c84a f i libucrt:output.obj
 0001:0004b864       ??$extract_argument_from_va_list@PAXPAX@?$standard_base@_WV?$string_output_adapter@_W@__crt_stdio_output@@@__crt_stdio_output@@IAE_NAAPAX@Z 1004c864 f i libucrt:output.obj
 0001:0004b87e       ??$extract_argument_from_va_list@U_CRT_DOUBLE@@U1@@?$positional_parameter_base@DV?$stream_output_adapter@D@__crt_stdio_output@@@__crt_stdio_output@@IAE_NAAU_CRT_DOUBLE@@@Z 1004c87e f i libucrt:output.obj
 0001:0004b904       ??$extract_argument_from_va_list@U_CRT_DOUBLE@@U1@@?$positional_parameter_base@DV?$string_output_adapter@D@__crt_stdio_output@@@__crt_stdio_output@@IAE_NAAU_CRT_DOUBLE@@@Z 1004c904 f i libucrt:output.obj
 0001:0004b98a       ??$extract_argument_from_va_list@U_CRT_DOUBLE@@U1@@?$positional_parameter_base@_WV?$stream_output_adapter@_W@__crt_stdio_output@@@__crt_stdio_output@@IAE_NAAU_CRT_DOUBLE@@@Z 1004c98a f i libucrt:output.obj
 0001:0004ba10       ??$extract_argument_from_va_list@U_CRT_DOUBLE@@U1@@?$positional_parameter_base@_WV?$string_output_adapter@_W@__crt_stdio_output@@@__crt_stdio_output@@IAE_NAAU_CRT_DOUBLE@@@Z 1004ca10 f i libucrt:output.obj
 0001:0004ba96       ??$extract_argument_from_va_list@U_CRT_DOUBLE@@U1@@?$standard_base@DV?$stream_output_adapter@D@__crt_stdio_output@@@__crt_stdio_output@@IAE_NAAU_CRT_DOUBLE@@@Z 1004ca96 f i libucrt:output.obj
 0001:0004bab6       ??$extract_argument_from_va_list@U_CRT_DOUBLE@@U1@@?$standard_base@DV?$string_output_adapter@D@__crt_stdio_output@@@__crt_stdio_output@@IAE_NAAU_CRT_DOUBLE@@@Z 1004cab6 f i libucrt:output.obj
 0001:0004bad6       ??$extract_argument_from_va_list@U_CRT_DOUBLE@@U1@@?$standard_base@_WV?$stream_output_adapter@_W@__crt_stdio_output@@@__crt_stdio_output@@IAE_NAAU_CRT_DOUBLE@@@Z 1004cad6 f i libucrt:output.obj
 0001:0004baf6       ??$extract_argument_from_va_list@U_CRT_DOUBLE@@U1@@?$standard_base@_WV?$string_output_adapter@_W@__crt_stdio_output@@@__crt_stdio_output@@IAE_NAAU_CRT_DOUBLE@@@Z 1004caf6 f i libucrt:output.obj
 0001:0004bb16       ??$extract_argument_from_va_list@_J_J@?$positional_parameter_base@DV?$stream_output_adapter@D@__crt_stdio_output@@@__crt_stdio_output@@IAE_NAA_J@Z 1004cb16 f i libucrt:output.obj
 0001:0004bb9c       ??$extract_argument_from_va_list@_J_J@?$positional_parameter_base@DV?$string_output_adapter@D@__crt_stdio_output@@@__crt_stdio_output@@IAE_NAA_J@Z 1004cb9c f i libucrt:output.obj
 0001:0004bc22       ??$extract_argument_from_va_list@_J_J@?$positional_parameter_base@_WV?$stream_output_adapter@_W@__crt_stdio_output@@@__crt_stdio_output@@IAE_NAA_J@Z 1004cc22 f i libucrt:output.obj
 0001:0004bca8       ??$extract_argument_from_va_list@_J_J@?$positional_parameter_base@_WV?$string_output_adapter@_W@__crt_stdio_output@@@__crt_stdio_output@@IAE_NAA_J@Z 1004cca8 f i libucrt:output.obj
 0001:0004bd2e       ??$extract_argument_from_va_list@_J_J@?$standard_base@DV?$stream_output_adapter@D@__crt_stdio_output@@@__crt_stdio_output@@IAE_NAA_J@Z 1004cd2e f i libucrt:output.obj
 0001:0004bd4e       ??$extract_argument_from_va_list@_J_J@?$standard_base@DV?$string_output_adapter@D@__crt_stdio_output@@@__crt_stdio_output@@IAE_NAA_J@Z 1004cd4e f i libucrt:output.obj
 0001:0004bd6e       ??$extract_argument_from_va_list@_J_J@?$standard_base@_WV?$stream_output_adapter@_W@__crt_stdio_output@@@__crt_stdio_output@@IAE_NAA_J@Z 1004cd6e f i libucrt:output.obj
 0001:0004bd8e       ??$extract_argument_from_va_list@_J_J@?$standard_base@_WV?$string_output_adapter@_W@__crt_stdio_output@@@__crt_stdio_output@@IAE_NAA_J@Z 1004cd8e f i libucrt:output.obj
 0001:0004bdae       ??$extract_argument_from_va_list@_K_J@?$positional_parameter_base@DV?$stream_output_adapter@D@__crt_stdio_output@@@__crt_stdio_output@@IAE_NAA_J@Z 1004cdae f i libucrt:output.obj
 0001:0004be34       ??$extract_argument_from_va_list@_K_J@?$positional_parameter_base@DV?$string_output_adapter@D@__crt_stdio_output@@@__crt_stdio_output@@IAE_NAA_J@Z 1004ce34 f i libucrt:output.obj
 0001:0004beba       ??$extract_argument_from_va_list@_K_J@?$positional_parameter_base@_WV?$stream_output_adapter@_W@__crt_stdio_output@@@__crt_stdio_output@@IAE_NAA_J@Z 1004ceba f i libucrt:output.obj
 0001:0004bf40       ??$extract_argument_from_va_list@_K_J@?$positional_parameter_base@_WV?$string_output_adapter@_W@__crt_stdio_output@@@__crt_stdio_output@@IAE_NAA_J@Z 1004cf40 f i libucrt:output.obj
 0001:0004bfc6       ??$extract_argument_from_va_list@_K_J@?$standard_base@DV?$stream_output_adapter@D@__crt_stdio_output@@@__crt_stdio_output@@IAE_NAA_J@Z 1004cfc6 f i libucrt:output.obj
 0001:0004bfe6       ??$extract_argument_from_va_list@_K_J@?$standard_base@DV?$string_output_adapter@D@__crt_stdio_output@@@__crt_stdio_output@@IAE_NAA_J@Z 1004cfe6 f i libucrt:output.obj
 0001:0004c006       ??$extract_argument_from_va_list@_K_J@?$standard_base@_WV?$stream_output_adapter@_W@__crt_stdio_output@@@__crt_stdio_output@@IAE_NAA_J@Z 1004d006 f i libucrt:output.obj
 0001:0004c026       ??$extract_argument_from_va_list@_K_J@?$standard_base@_WV?$string_output_adapter@_W@__crt_stdio_output@@@__crt_stdio_output@@IAE_NAA_J@Z 1004d026 f i libucrt:output.obj
 0001:0004c046       ??$extract_argument_from_va_list@_W_W@?$positional_parameter_base@DV?$stream_output_adapter@D@__crt_stdio_output@@@__crt_stdio_output@@IAE_NAA_W@Z 1004d046 f i libucrt:output.obj
 0001:0004c0c2       ??$extract_argument_from_va_list@_W_W@?$positional_parameter_base@DV?$string_output_adapter@D@__crt_stdio_output@@@__crt_stdio_output@@IAE_NAA_W@Z 1004d0c2 f i libucrt:output.obj
 0001:0004c13e       ??$extract_argument_from_va_list@_W_W@?$positional_parameter_base@_WV?$stream_output_adapter@_W@__crt_stdio_output@@@__crt_stdio_output@@IAE_NAA_W@Z 1004d13e f i libucrt:output.obj
 0001:0004c1ba       ??$extract_argument_from_va_list@_W_W@?$positional_parameter_base@_WV?$string_output_adapter@_W@__crt_stdio_output@@@__crt_stdio_output@@IAE_NAA_W@Z 1004d1ba f i libucrt:output.obj
 0001:0004c236       ??$extract_argument_from_va_list@_W_W@?$standard_base@DV?$stream_output_adapter@D@__crt_stdio_output@@@__crt_stdio_output@@IAE_NAA_W@Z 1004d236 f i libucrt:output.obj
 0001:0004c252       ??$extract_argument_from_va_list@_W_W@?$standard_base@DV?$string_output_adapter@D@__crt_stdio_output@@@__crt_stdio_output@@IAE_NAA_W@Z 1004d252 f i libucrt:output.obj
 0001:0004c26e       ??$extract_argument_from_va_list@_W_W@?$standard_base@_WV?$stream_output_adapter@_W@__crt_stdio_output@@@__crt_stdio_output@@IAE_NAA_W@Z 1004d26e f i libucrt:output.obj
 0001:0004c28a       ??$extract_argument_from_va_list@_W_W@?$standard_base@_WV?$string_output_adapter@_W@__crt_stdio_output@@@__crt_stdio_output@@IAE_NAA_W@Z 1004d28a f i libucrt:output.obj
 0001:0004c2a6       ??$get_parameter_type@D@?$positional_parameter_base@DV?$stream_output_adapter@D@__crt_stdio_output@@@__crt_stdio_output@@CA?AW4parameter_type@01@PAD@Z 1004d2a6 f i libucrt:output.obj
 0001:0004c2aa       ??$get_parameter_type@D@?$positional_parameter_base@DV?$string_output_adapter@D@__crt_stdio_output@@@__crt_stdio_output@@CA?AW4parameter_type@01@PAD@Z 1004d2aa f i libucrt:output.obj
 0001:0004c2ae       ??$get_parameter_type@D@?$positional_parameter_base@_WV?$stream_output_adapter@_W@__crt_stdio_output@@@__crt_stdio_output@@CA?AW4parameter_type@01@PAD@Z 1004d2ae f i libucrt:output.obj
 0001:0004c2b2       ??$get_parameter_type@D@?$positional_parameter_base@_WV?$string_output_adapter@_W@__crt_stdio_output@@@__crt_stdio_output@@CA?AW4parameter_type@01@PAD@Z 1004d2b2 f i libucrt:output.obj
 0001:0004c2b6       ??$get_parameter_type@Uansi_string@?1??type_case_Z@?$output_processor@DV?$stream_output_adapter@D@__crt_stdio_output@@V?$positional_parameter_base@DV?$stream_output_adapter@D@__crt_stdio_output@@@2@@__crt_stdio_output@@AAE_NXZ@@?$positional_parameter_base@DV?$stream_output_adapter@D@__crt_stdio_output@@@__crt_stdio_output@@CA?AW4parameter_type@01@PAUansi_string@?1??type_case_Z@?$output_processor@DV?$stream_output_adapter@D@__crt_stdio_output@@V?$positional_parameter_base@DV?$stream_output_adapter@D@__crt_stdio_output@@@2@@1@AAE_NXZ@@Z 1004d2b6 f i libucrt:output.obj
 0001:0004c2ba       ??$get_parameter_type@Uansi_string@?1??type_case_Z@?$output_processor@DV?$string_output_adapter@D@__crt_stdio_output@@V?$positional_parameter_base@DV?$string_output_adapter@D@__crt_stdio_output@@@2@@__crt_stdio_output@@AAE_NXZ@@?$positional_parameter_base@DV?$string_output_adapter@D@__crt_stdio_output@@@__crt_stdio_output@@CA?AW4parameter_type@01@PAUansi_string@?1??type_case_Z@?$output_processor@DV?$string_output_adapter@D@__crt_stdio_output@@V?$positional_parameter_base@DV?$string_output_adapter@D@__crt_stdio_output@@@2@@1@AAE_NXZ@@Z 1004d2ba f i libucrt:output.obj
 0001:0004c2be       ??$get_parameter_type@Uansi_string@?1??type_case_Z@?$output_processor@_WV?$stream_output_adapter@_W@__crt_stdio_output@@V?$positional_parameter_base@_WV?$stream_output_adapter@_W@__crt_stdio_output@@@2@@__crt_stdio_output@@AAE_NXZ@@?$positional_parameter_base@_WV?$stream_output_adapter@_W@__crt_stdio_output@@@__crt_stdio_output@@CA?AW4parameter_type@01@PAUansi_string@?1??type_case_Z@?$output_processor@_WV?$stream_output_adapter@_W@__crt_stdio_output@@V?$positional_parameter_base@_WV?$stream_output_adapter@_W@__crt_stdio_output@@@2@@1@AAE_NXZ@@Z 1004d2be f i libucrt:output.obj
 0001:0004c2c2       ??$get_parameter_type@Uansi_string@?1??type_case_Z@?$output_processor@_WV?$string_output_adapter@_W@__crt_stdio_output@@V?$positional_parameter_base@_WV?$string_output_adapter@_W@__crt_stdio_output@@@2@@__crt_stdio_output@@AAE_NXZ@@?$positional_parameter_base@_WV?$string_output_adapter@_W@__crt_stdio_output@@@__crt_stdio_output@@CA?AW4parameter_type@01@PAUansi_string@?1??type_case_Z@?$output_processor@_WV?$string_output_adapter@_W@__crt_stdio_output@@V?$positional_parameter_base@_WV?$string_output_adapter@_W@__crt_stdio_output@@@2@@1@AAE_NXZ@@Z 1004d2c2 f i libucrt:output.obj
 0001:0004c2c6       ??$get_parameter_type@X@?$positional_parameter_base@DV?$stream_output_adapter@D@__crt_stdio_output@@@__crt_stdio_output@@CA?AW4parameter_type@01@PAX@Z 1004d2c6 f i libucrt:output.obj
 0001:0004c2ca       ??$get_parameter_type@X@?$positional_parameter_base@DV?$string_output_adapter@D@__crt_stdio_output@@@__crt_stdio_output@@CA?AW4parameter_type@01@PAX@Z 1004d2ca f i libucrt:output.obj
 0001:0004c2ce       ??$get_parameter_type@X@?$positional_parameter_base@_WV?$stream_output_adapter@_W@__crt_stdio_output@@@__crt_stdio_output@@CA?AW4parameter_type@01@PAX@Z 1004d2ce f i libucrt:output.obj
 0001:0004c2d2       ??$get_parameter_type@X@?$positional_parameter_base@_WV?$string_output_adapter@_W@__crt_stdio_output@@@__crt_stdio_output@@CA?AW4parameter_type@01@PAX@Z 1004d2d2 f i libucrt:output.obj
 0001:0004c2d6       ??$is_character_specifier@D@?$positional_parameter_base@DV?$stream_output_adapter@D@__crt_stdio_output@@@__crt_stdio_output@@CA_ND@Z 1004d2d6 f i libucrt:output.obj
 0001:0004c2ee       ??$is_character_specifier@D@?$positional_parameter_base@DV?$string_output_adapter@D@__crt_stdio_output@@@__crt_stdio_output@@CA_ND@Z 1004d2ee f i libucrt:output.obj
 0001:0004c306       ??$is_character_specifier@_W@?$positional_parameter_base@_WV?$stream_output_adapter@_W@__crt_stdio_output@@@__crt_stdio_output@@CA_N_W@Z 1004d306 f i libucrt:output.obj
 0001:0004c321       ??$is_character_specifier@_W@?$positional_parameter_base@_WV?$string_output_adapter@_W@__crt_stdio_output@@@__crt_stdio_output@@CA_N_W@Z 1004d321 f i libucrt:output.obj
 0001:0004c33c       ??$is_integral_specifier@D@?$positional_parameter_base@DV?$stream_output_adapter@D@__crt_stdio_output@@@__crt_stdio_output@@CA_ND@Z 1004d33c f i libucrt:output.obj
 0001:0004c368       ??$is_integral_specifier@D@?$positional_parameter_base@DV?$string_output_adapter@D@__crt_stdio_output@@@__crt_stdio_output@@CA_ND@Z 1004d368 f i libucrt:output.obj
 0001:0004c394       ??$is_integral_specifier@_W@?$positional_parameter_base@_WV?$stream_output_adapter@_W@__crt_stdio_output@@@__crt_stdio_output@@CA_N_W@Z 1004d394 f i libucrt:output.obj
 0001:0004c3cf       ??$is_integral_specifier@_W@?$positional_parameter_base@_WV?$string_output_adapter@_W@__crt_stdio_output@@@__crt_stdio_output@@CA_N_W@Z 1004d3cf f i libucrt:output.obj
 0001:0004c40a       ??$is_pointer_specifier@D@?$positional_parameter_base@DV?$stream_output_adapter@D@__crt_stdio_output@@@__crt_stdio_output@@CA_ND@Z 1004d40a f i libucrt:output.obj
 0001:0004c418       ??$is_pointer_specifier@D@?$positional_parameter_base@DV?$string_output_adapter@D@__crt_stdio_output@@@__crt_stdio_output@@CA_ND@Z 1004d418 f i libucrt:output.obj
 0001:0004c426       ??$is_pointer_specifier@_W@?$positional_parameter_base@_WV?$stream_output_adapter@_W@__crt_stdio_output@@@__crt_stdio_output@@CA_N_W@Z 1004d426 f i libucrt:output.obj
 0001:0004c435       ??$is_pointer_specifier@_W@?$positional_parameter_base@_WV?$string_output_adapter@_W@__crt_stdio_output@@@__crt_stdio_output@@CA_N_W@Z 1004d435 f i libucrt:output.obj
 0001:0004c444       ??$is_string_specifier@D@?$positional_parameter_base@DV?$stream_output_adapter@D@__crt_stdio_output@@@__crt_stdio_output@@CA_ND@Z 1004d444 f i libucrt:output.obj
 0001:0004c45c       ??$is_string_specifier@D@?$positional_parameter_base@DV?$string_output_adapter@D@__crt_stdio_output@@@__crt_stdio_output@@CA_ND@Z 1004d45c f i libucrt:output.obj
 0001:0004c474       ??$is_string_specifier@_W@?$positional_parameter_base@_WV?$stream_output_adapter@_W@__crt_stdio_output@@@__crt_stdio_output@@CA_N_W@Z 1004d474 f i libucrt:output.obj
 0001:0004c48f       ??$is_string_specifier@_W@?$positional_parameter_base@_WV?$string_output_adapter@_W@__crt_stdio_output@@@__crt_stdio_output@@CA_N_W@Z 1004d48f f i libucrt:output.obj
 0001:0004c4aa       ??$is_wide_character_specifier@D@__crt_stdio_output@@YA_N_KDW4length_modifier@0@@Z 1004d4aa f i libucrt:output.obj
 0001:0004c4db       ??$is_wide_character_specifier@_W@__crt_stdio_output@@YA_N_K_WW4length_modifier@0@@Z 1004d4db f i libucrt:output.obj
 0001:0004c529       ??$peek_va_arg@C@__crt_stdio_output@@YACPAD@Z 1004d529 f i libucrt:output.obj
 0001:0004c535       ??$peek_va_arg@E@__crt_stdio_output@@YAEPAD@Z 1004d535 f i libucrt:output.obj
 0001:0004c541       ??$peek_va_arg@F@__crt_stdio_output@@YAFPAD@Z 1004d541 f i libucrt:output.obj
 0001:0004c54e       ??$peek_va_arg@G@__crt_stdio_output@@YAGPAD@Z 1004d54e f i libucrt:output.obj
 0001:0004c55b       ??$peek_va_arg@H@__crt_stdio_output@@YAHPAD@Z 1004d55b f i libucrt:output.obj
 0001:0004c567       ??$peek_va_arg@I@__crt_stdio_output@@YAIPAD@Z 1004d567 f i libucrt:output.obj
 0001:0004c573       ??$peek_va_arg@PAD@__crt_stdio_output@@YAPADPAD@Z 1004d573 f i libucrt:output.obj
 0001:0004c57f       ??$peek_va_arg@PAUansi_string@?1??type_case_Z@?$output_processor@DV?$stream_output_adapter@D@__crt_stdio_output@@V?$positional_parameter_base@DV?$stream_output_adapter@D@__crt_stdio_output@@@2@@__crt_stdio_output@@AAE_NXZ@@__crt_stdio_output@@YAPAUansi_string@?1??type_case_Z@?$output_processor@DV?$stream_output_adapter@D@__crt_stdio_output@@V?$positional_parameter_base@DV?$stream_output_adapter@D@__crt_stdio_output@@@2@@0@AAE_NXZ@PAD@Z 1004d57f f i libucrt:output.obj
 0001:0004c58b       ??$peek_va_arg@PAUansi_string@?1??type_case_Z@?$output_processor@DV?$string_output_adapter@D@__crt_stdio_output@@V?$positional_parameter_base@DV?$string_output_adapter@D@__crt_stdio_output@@@2@@__crt_stdio_output@@AAE_NXZ@@__crt_stdio_output@@YAPAUansi_string@?1??type_case_Z@?$output_processor@DV?$string_output_adapter@D@__crt_stdio_output@@V?$positional_parameter_base@DV?$string_output_adapter@D@__crt_stdio_output@@@2@@0@AAE_NXZ@PAD@Z 1004d58b f i libucrt:output.obj
 0001:0004c597       ??$peek_va_arg@PAUansi_string@?1??type_case_Z@?$output_processor@_WV?$stream_output_adapter@_W@__crt_stdio_output@@V?$positional_parameter_base@_WV?$stream_output_adapter@_W@__crt_stdio_output@@@2@@__crt_stdio_output@@AAE_NXZ@@__crt_stdio_output@@YAPAUansi_string@?1??type_case_Z@?$output_processor@_WV?$stream_output_adapter@_W@__crt_stdio_output@@V?$positional_parameter_base@_WV?$stream_output_adapter@_W@__crt_stdio_output@@@2@@0@AAE_NXZ@PAD@Z 1004d597 f i libucrt:output.obj
 0001:0004c5a3       ??$peek_va_arg@PAUansi_string@?1??type_case_Z@?$output_processor@_WV?$string_output_adapter@_W@__crt_stdio_output@@V?$positional_parameter_base@_WV?$string_output_adapter@_W@__crt_stdio_output@@@2@@__crt_stdio_output@@AAE_NXZ@@__crt_stdio_output@@YAPAUansi_string@?1??type_case_Z@?$output_processor@_WV?$string_output_adapter@_W@__crt_stdio_output@@V?$positional_parameter_base@_WV?$string_output_adapter@_W@__crt_stdio_output@@@2@@0@AAE_NXZ@PAD@Z 1004d5a3 f i libucrt:output.obj
 0001:0004c5af       ??$peek_va_arg@PAX@__crt_stdio_output@@YAPAXPAD@Z 1004d5af f i libucrt:output.obj
 0001:0004c5bb       ??$peek_va_arg@U_CRT_DOUBLE@@@__crt_stdio_output@@YA?AU_CRT_DOUBLE@@PAD@Z 1004d5bb f i libucrt:output.obj
 0001:0004c5ca       ??$peek_va_arg@_J@__crt_stdio_output@@YA_JPAD@Z 1004d5ca f i libucrt:output.obj
 0001:0004c5d9       ??$peek_va_arg@_K@__crt_stdio_output@@YA_KPAD@Z 1004d5d9 f i libucrt:output.obj
 0001:0004c5e8       ??$peek_va_arg@_W@__crt_stdio_output@@YA_WPAD@Z 1004d5e8 f i libucrt:output.obj
 0001:0004c5f5       ??$puttc_nolock@ABDPAU_iobuf@@@?$__crt_char_traits@D@@SAHABD$$QAPAU_iobuf@@@Z 1004d5f5 f i libucrt:output.obj
 0001:0004c60f       ??$puttc_nolock@AB_WPAU_iobuf@@@?$__crt_char_traits@_W@@SAGAB_W$$QAPAU_iobuf@@@Z 1004d60f f i libucrt:output.obj
 0001:0004c629       ??$read_va_arg@C@__crt_stdio_output@@YACAAPAD@Z 1004d629 f i libucrt:output.obj
 0001:0004c63b       ??$read_va_arg@E@__crt_stdio_output@@YAEAAPAD@Z 1004d63b f i libucrt:output.obj
 0001:0004c64d       ??$read_va_arg@F@__crt_stdio_output@@YAFAAPAD@Z 1004d64d f i libucrt:output.obj
 0001:0004c660       ??$read_va_arg@G@__crt_stdio_output@@YAGAAPAD@Z 1004d660 f i libucrt:output.obj
 0001:0004c673       ??$read_va_arg@H@__crt_stdio_output@@YAHAAPAD@Z 1004d673 f i libucrt:output.obj
 0001:0004c685       ??$read_va_arg@I@__crt_stdio_output@@YAIAAPAD@Z 1004d685 f i libucrt:output.obj
 0001:0004c697       ??$read_va_arg@PAD@__crt_stdio_output@@YAPADAAPAD@Z 1004d697 f i libucrt:output.obj
 0001:0004c6a9       ??$read_va_arg@PAUansi_string@?1??type_case_Z@?$output_processor@DV?$stream_output_adapter@D@__crt_stdio_output@@V?$format_validation_base@DV?$stream_output_adapter@D@__crt_stdio_output@@@2@@__crt_stdio_output@@AAE_NXZ@@__crt_stdio_output@@YAPAUansi_string@?1??type_case_Z@?$output_processor@DV?$stream_output_adapter@D@__crt_stdio_output@@V?$format_validation_base@DV?$stream_output_adapter@D@__crt_stdio_output@@@2@@0@AAE_NXZ@AAPAD@Z 1004d6a9 f i libucrt:output.obj
 0001:0004c6bb       ??$read_va_arg@PAUansi_string@?1??type_case_Z@?$output_processor@DV?$stream_output_adapter@D@__crt_stdio_output@@V?$positional_parameter_base@DV?$stream_output_adapter@D@__crt_stdio_output@@@2@@__crt_stdio_output@@AAE_NXZ@@__crt_stdio_output@@YAPAUansi_string@?1??type_case_Z@?$output_processor@DV?$stream_output_adapter@D@__crt_stdio_output@@V?$positional_parameter_base@DV?$stream_output_adapter@D@__crt_stdio_output@@@2@@0@AAE_NXZ@AAPAD@Z 1004d6bb f i libucrt:output.obj
 0001:0004c6cd       ??$read_va_arg@PAUansi_string@?1??type_case_Z@?$output_processor@DV?$stream_output_adapter@D@__crt_stdio_output@@V?$standard_base@DV?$stream_output_adapter@D@__crt_stdio_output@@@2@@__crt_stdio_output@@AAE_NXZ@@__crt_stdio_output@@YAPAUansi_string@?1??type_case_Z@?$output_processor@DV?$stream_output_adapter@D@__crt_stdio_output@@V?$standard_base@DV?$stream_output_adapter@D@__crt_stdio_output@@@2@@0@AAE_NXZ@AAPAD@Z 1004d6cd f i libucrt:output.obj
 0001:0004c6df       ??$read_va_arg@PAUansi_string@?1??type_case_Z@?$output_processor@DV?$string_output_adapter@D@__crt_stdio_output@@V?$format_validation_base@DV?$string_output_adapter@D@__crt_stdio_output@@@2@@__crt_stdio_output@@AAE_NXZ@@__crt_stdio_output@@YAPAUansi_string@?1??type_case_Z@?$output_processor@DV?$string_output_adapter@D@__crt_stdio_output@@V?$format_validation_base@DV?$string_output_adapter@D@__crt_stdio_output@@@2@@0@AAE_NXZ@AAPAD@Z 1004d6df f i libucrt:output.obj
 0001:0004c6f1       ??$read_va_arg@PAUansi_string@?1??type_case_Z@?$output_processor@DV?$string_output_adapter@D@__crt_stdio_output@@V?$positional_parameter_base@DV?$string_output_adapter@D@__crt_stdio_output@@@2@@__crt_stdio_output@@AAE_NXZ@@__crt_stdio_output@@YAPAUansi_string@?1??type_case_Z@?$output_processor@DV?$string_output_adapter@D@__crt_stdio_output@@V?$positional_parameter_base@DV?$string_output_adapter@D@__crt_stdio_output@@@2@@0@AAE_NXZ@AAPAD@Z 1004d6f1 f i libucrt:output.obj
 0001:0004c703       ??$read_va_arg@PAUansi_string@?1??type_case_Z@?$output_processor@DV?$string_output_adapter@D@__crt_stdio_output@@V?$standard_base@DV?$string_output_adapter@D@__crt_stdio_output@@@2@@__crt_stdio_output@@AAE_NXZ@@__crt_stdio_output@@YAPAUansi_string@?1??type_case_Z@?$output_processor@DV?$string_output_adapter@D@__crt_stdio_output@@V?$standard_base@DV?$string_output_adapter@D@__crt_stdio_output@@@2@@0@AAE_NXZ@AAPAD@Z 1004d703 f i libucrt:output.obj
 0001:0004c715       ??$read_va_arg@PAUansi_string@?1??type_case_Z@?$output_processor@_WV?$stream_output_adapter@_W@__crt_stdio_output@@V?$format_validation_base@_WV?$stream_output_adapter@_W@__crt_stdio_output@@@2@@__crt_stdio_output@@AAE_NXZ@@__crt_stdio_output@@YAPAUansi_string@?1??type_case_Z@?$output_processor@_WV?$stream_output_adapter@_W@__crt_stdio_output@@V?$format_validation_base@_WV?$stream_output_adapter@_W@__crt_stdio_output@@@2@@0@AAE_NXZ@AAPAD@Z 1004d715 f i libucrt:output.obj
 0001:0004c727       ??$read_va_arg@PAUansi_string@?1??type_case_Z@?$output_processor@_WV?$stream_output_adapter@_W@__crt_stdio_output@@V?$positional_parameter_base@_WV?$stream_output_adapter@_W@__crt_stdio_output@@@2@@__crt_stdio_output@@AAE_NXZ@@__crt_stdio_output@@YAPAUansi_string@?1??type_case_Z@?$output_processor@_WV?$stream_output_adapter@_W@__crt_stdio_output@@V?$positional_parameter_base@_WV?$stream_output_adapter@_W@__crt_stdio_output@@@2@@0@AAE_NXZ@AAPAD@Z 1004d727 f i libucrt:output.obj
 0001:0004c739       ??$read_va_arg@PAUansi_string@?1??type_case_Z@?$output_processor@_WV?$stream_output_adapter@_W@__crt_stdio_output@@V?$standard_base@_WV?$stream_output_adapter@_W@__crt_stdio_output@@@2@@__crt_stdio_output@@AAE_NXZ@@__crt_stdio_output@@YAPAUansi_string@?1??type_case_Z@?$output_processor@_WV?$stream_output_adapter@_W@__crt_stdio_output@@V?$standard_base@_WV?$stream_output_adapter@_W@__crt_stdio_output@@@2@@0@AAE_NXZ@AAPAD@Z 1004d739 f i libucrt:output.obj
 0001:0004c74b       ??$read_va_arg@PAUansi_string@?1??type_case_Z@?$output_processor@_WV?$string_output_adapter@_W@__crt_stdio_output@@V?$format_validation_base@_WV?$string_output_adapter@_W@__crt_stdio_output@@@2@@__crt_stdio_output@@AAE_NXZ@@__crt_stdio_output@@YAPAUansi_string@?1??type_case_Z@?$output_processor@_WV?$string_output_adapter@_W@__crt_stdio_output@@V?$format_validation_base@_WV?$string_output_adapter@_W@__crt_stdio_output@@@2@@0@AAE_NXZ@AAPAD@Z 1004d74b f i libucrt:output.obj
 0001:0004c75d       ??$read_va_arg@PAUansi_string@?1??type_case_Z@?$output_processor@_WV?$string_output_adapter@_W@__crt_stdio_output@@V?$positional_parameter_base@_WV?$string_output_adapter@_W@__crt_stdio_output@@@2@@__crt_stdio_output@@AAE_NXZ@@__crt_stdio_output@@YAPAUansi_string@?1??type_case_Z@?$output_processor@_WV?$string_output_adapter@_W@__crt_stdio_output@@V?$positional_parameter_base@_WV?$string_output_adapter@_W@__crt_stdio_output@@@2@@0@AAE_NXZ@AAPAD@Z 1004d75d f i libucrt:output.obj
 0001:0004c76f       ??$read_va_arg@PAUansi_string@?1??type_case_Z@?$output_processor@_WV?$string_output_adapter@_W@__crt_stdio_output@@V?$standard_base@_WV?$string_output_adapter@_W@__crt_stdio_output@@@2@@__crt_stdio_output@@AAE_NXZ@@__crt_stdio_output@@YAPAUansi_string@?1??type_case_Z@?$output_processor@_WV?$string_output_adapter@_W@__crt_stdio_output@@V?$standard_base@_WV?$string_output_adapter@_W@__crt_stdio_output@@@2@@0@AAE_NXZ@AAPAD@Z 1004d76f f i libucrt:output.obj
 0001:0004c781       ??$read_va_arg@PAX@__crt_stdio_output@@YAPAXAAPAD@Z 1004d781 f i libucrt:output.obj
 0001:0004c793       ??$read_va_arg@U_CRT_DOUBLE@@@__crt_stdio_output@@YA?AU_CRT_DOUBLE@@AAPAD@Z 1004d793 f i libucrt:output.obj
 0001:0004c7a9       ??$read_va_arg@_J@__crt_stdio_output@@YA_JAAPAD@Z 1004d7a9 f i libucrt:output.obj
 0001:0004c7be       ??$read_va_arg@_K@__crt_stdio_output@@YA_KAAPAD@Z 1004d7be f i libucrt:output.obj
 0001:0004c7d3       ??$read_va_arg@_W@__crt_stdio_output@@YA_WAAPAD@Z 1004d7d3 f i libucrt:output.obj
 0001:0004c7e6       ??$scratch_count@D@formatting_buffer@__crt_stdio_output@@QBEIXZ 1004d7e6 f i libucrt:output.obj
 0001:0004c7eb       ??$scratch_data@D@formatting_buffer@__crt_stdio_output@@QAEPADXZ 1004d7eb f i libucrt:output.obj
 0001:0004c809       ??$tcstol@AAPBDPAPADH@?$__crt_char_traits@D@@SAJAAPBD$$QAPAPAD$$QAH@Z 1004d809 f i libucrt:output.obj
 0001:0004c827       ??$tcstol@AAPB_WPAPA_WH@?$__crt_char_traits@_W@@SAJAAPB_W$$QAPAPA_W$$QAH@Z 1004d827 f i libucrt:output.obj
 0001:0004c845       ??$tcstol@PBDPAPADH@?$__crt_char_traits@D@@SAJ$$QAPBD$$QAPAPAD$$QAH@Z 1004d845 f i libucrt:output.obj
 0001:0004c863       ??$tcstol@PB_WPAPA_WH@?$__crt_char_traits@_W@@SAJ$$QAPB_W$$QAPAPA_W$$QAH@Z 1004d863 f i libucrt:output.obj
 0001:0004c881       ??$type_case_integer_parse_into_buffer@I@?$output_processor@DV?$stream_output_adapter@D@__crt_stdio_output@@V?$format_validation_base@DV?$stream_output_adapter@D@__crt_stdio_output@@@2@@__crt_stdio_output@@AAEXII_N@Z 1004d881 f i libucrt:output.obj
 0001:0004c8f4       ??$type_case_integer_parse_into_buffer@I@?$output_processor@DV?$stream_output_adapter@D@__crt_stdio_output@@V?$positional_parameter_base@DV?$stream_output_adapter@D@__crt_stdio_output@@@2@@__crt_stdio_output@@AAEXII_N@Z 1004d8f4 f i libucrt:output.obj
 0001:0004c967       ??$type_case_integer_parse_into_buffer@I@?$output_processor@DV?$stream_output_adapter@D@__crt_stdio_output@@V?$standard_base@DV?$stream_output_adapter@D@__crt_stdio_output@@@2@@__crt_stdio_output@@AAEXII_N@Z 1004d967 f i libucrt:output.obj
 0001:0004c9da       ??$type_case_integer_parse_into_buffer@I@?$output_processor@DV?$string_output_adapter@D@__crt_stdio_output@@V?$format_validation_base@DV?$string_output_adapter@D@__crt_stdio_output@@@2@@__crt_stdio_output@@AAEXII_N@Z 1004d9da f i libucrt:output.obj
 0001:0004ca4d       ??$type_case_integer_parse_into_buffer@I@?$output_processor@DV?$string_output_adapter@D@__crt_stdio_output@@V?$positional_parameter_base@DV?$string_output_adapter@D@__crt_stdio_output@@@2@@__crt_stdio_output@@AAEXII_N@Z 1004da4d f i libucrt:output.obj
 0001:0004cac0       ??$type_case_integer_parse_into_buffer@I@?$output_processor@DV?$string_output_adapter@D@__crt_stdio_output@@V?$standard_base@DV?$string_output_adapter@D@__crt_stdio_output@@@2@@__crt_stdio_output@@AAEXII_N@Z 1004dac0 f i libucrt:output.obj
 0001:0004cb33       ??$type_case_integer_parse_into_buffer@I@?$output_processor@_WV?$stream_output_adapter@_W@__crt_stdio_output@@V?$format_validation_base@_WV?$stream_output_adapter@_W@__crt_stdio_output@@@2@@__crt_stdio_output@@AAEXII_N@Z 1004db33 f i libucrt:output.obj
 0001:0004cbba       ??$type_case_integer_parse_into_buffer@I@?$output_processor@_WV?$stream_output_adapter@_W@__crt_stdio_output@@V?$positional_parameter_base@_WV?$stream_output_adapter@_W@__crt_stdio_output@@@2@@__crt_stdio_output@@AAEXII_N@Z 1004dbba f i libucrt:output.obj
 0001:0004cc41       ??$type_case_integer_parse_into_buffer@I@?$output_processor@_WV?$stream_output_adapter@_W@__crt_stdio_output@@V?$standard_base@_WV?$stream_output_adapter@_W@__crt_stdio_output@@@2@@__crt_stdio_output@@AAEXII_N@Z 1004dc41 f i libucrt:output.obj
 0001:0004ccc8       ??$type_case_integer_parse_into_buffer@I@?$output_processor@_WV?$string_output_adapter@_W@__crt_stdio_output@@V?$format_validation_base@_WV?$string_output_adapter@_W@__crt_stdio_output@@@2@@__crt_stdio_output@@AAEXII_N@Z 1004dcc8 f i libucrt:output.obj
 0001:0004cd4f       ??$type_case_integer_parse_into_buffer@I@?$output_processor@_WV?$string_output_adapter@_W@__crt_stdio_output@@V?$positional_parameter_base@_WV?$string_output_adapter@_W@__crt_stdio_output@@@2@@__crt_stdio_output@@AAEXII_N@Z 1004dd4f f i libucrt:output.obj
 0001:0004cdd6       ??$type_case_integer_parse_into_buffer@I@?$output_processor@_WV?$string_output_adapter@_W@__crt_stdio_output@@V?$standard_base@_WV?$string_output_adapter@_W@__crt_stdio_output@@@2@@__crt_stdio_output@@AAEXII_N@Z 1004ddd6 f i libucrt:output.obj
 0001:0004ce5d       ??$type_case_integer_parse_into_buffer@_K@?$output_processor@DV?$stream_output_adapter@D@__crt_stdio_output@@V?$format_validation_base@DV?$stream_output_adapter@D@__crt_stdio_output@@@2@@__crt_stdio_output@@AAEX_KI_N@Z 1004de5d f i libucrt:output.obj
 0001:0004ceeb       ??$type_case_integer_parse_into_buffer@_K@?$output_processor@DV?$stream_output_adapter@D@__crt_stdio_output@@V?$positional_parameter_base@DV?$stream_output_adapter@D@__crt_stdio_output@@@2@@__crt_stdio_output@@AAEX_KI_N@Z 1004deeb f i libucrt:output.obj
 0001:0004cf79       ??$type_case_integer_parse_into_buffer@_K@?$output_processor@DV?$stream_output_adapter@D@__crt_stdio_output@@V?$standard_base@DV?$stream_output_adapter@D@__crt_stdio_output@@@2@@__crt_stdio_output@@AAEX_KI_N@Z 1004df79 f i libucrt:output.obj
 0001:0004d007       ??$type_case_integer_parse_into_buffer@_K@?$output_processor@DV?$string_output_adapter@D@__crt_stdio_output@@V?$format_validation_base@DV?$string_output_adapter@D@__crt_stdio_output@@@2@@__crt_stdio_output@@AAEX_KI_N@Z 1004e007 f i libucrt:output.obj
 0001:0004d095       ??$type_case_integer_parse_into_buffer@_K@?$output_processor@DV?$string_output_adapter@D@__crt_stdio_output@@V?$positional_parameter_base@DV?$string_output_adapter@D@__crt_stdio_output@@@2@@__crt_stdio_output@@AAEX_KI_N@Z 1004e095 f i libucrt:output.obj
 0001:0004d123       ??$type_case_integer_parse_into_buffer@_K@?$output_processor@DV?$string_output_adapter@D@__crt_stdio_output@@V?$standard_base@DV?$string_output_adapter@D@__crt_stdio_output@@@2@@__crt_stdio_output@@AAEX_KI_N@Z 1004e123 f i libucrt:output.obj
 0001:0004d1b1       ??$type_case_integer_parse_into_buffer@_K@?$output_processor@_WV?$stream_output_adapter@_W@__crt_stdio_output@@V?$format_validation_base@_WV?$stream_output_adapter@_W@__crt_stdio_output@@@2@@__crt_stdio_output@@AAEX_KI_N@Z 1004e1b1 f i libucrt:output.obj
 0001:0004d253       ??$type_case_integer_parse_into_buffer@_K@?$output_processor@_WV?$stream_output_adapter@_W@__crt_stdio_output@@V?$positional_parameter_base@_WV?$stream_output_adapter@_W@__crt_stdio_output@@@2@@__crt_stdio_output@@AAEX_KI_N@Z 1004e253 f i libucrt:output.obj
 0001:0004d2f5       ??$type_case_integer_parse_into_buffer@_K@?$output_processor@_WV?$stream_output_adapter@_W@__crt_stdio_output@@V?$standard_base@_WV?$stream_output_adapter@_W@__crt_stdio_output@@@2@@__crt_stdio_output@@AAEX_KI_N@Z 1004e2f5 f i libucrt:output.obj
 0001:0004d397       ??$type_case_integer_parse_into_buffer@_K@?$output_processor@_WV?$string_output_adapter@_W@__crt_stdio_output@@V?$format_validation_base@_WV?$string_output_adapter@_W@__crt_stdio_output@@@2@@__crt_stdio_output@@AAEX_KI_N@Z 1004e397 f i libucrt:output.obj
 0001:0004d439       ??$type_case_integer_parse_into_buffer@_K@?$output_processor@_WV?$string_output_adapter@_W@__crt_stdio_output@@V?$positional_parameter_base@_WV?$string_output_adapter@_W@__crt_stdio_output@@@2@@__crt_stdio_output@@AAEX_KI_N@Z 1004e439 f i libucrt:output.obj
 0001:0004d4db       ??$type_case_integer_parse_into_buffer@_K@?$output_processor@_WV?$string_output_adapter@_W@__crt_stdio_output@@V?$standard_base@_WV?$string_output_adapter@_W@__crt_stdio_output@@@2@@__crt_stdio_output@@AAEX_KI_N@Z 1004e4db f i libucrt:output.obj
 0001:0004d57d       ??$write_multiple_characters@V?$stream_output_adapter@D@__crt_stdio_output@@D@__crt_stdio_output@@YAXABV?$stream_output_adapter@D@0@DHQAH@Z 1004e57d f i libucrt:output.obj
 0001:0004d5b8       ??$write_multiple_characters@V?$stream_output_adapter@_W@__crt_stdio_output@@D@__crt_stdio_output@@YAXABV?$stream_output_adapter@_W@0@DHQAH@Z 1004e5b8 f i libucrt:output.obj
 0001:0004d5f8       ??$write_multiple_characters@V?$string_output_adapter@D@__crt_stdio_output@@D@__crt_stdio_output@@YAXABV?$string_output_adapter@D@0@DHQAH@Z 1004e5f8 f i libucrt:output.obj
 0001:0004d624       ??$write_multiple_characters@V?$string_output_adapter@_W@__crt_stdio_output@@D@__crt_stdio_output@@YAXABV?$string_output_adapter@_W@0@DHQAH@Z 1004e624 f i libucrt:output.obj
 0001:0004d81d       ??0?$common_data@D@__crt_stdio_output@@IAE@XZ 1004e81d f i libucrt:output.obj
 0001:0004d862       ??0?$common_data@_W@__crt_stdio_output@@IAE@XZ 1004e862 f i libucrt:output.obj
 0001:0004d8ac       ??0?$output_adapter_data@DV?$stream_output_adapter@D@__crt_stdio_output@@@__crt_stdio_output@@IAE@ABV?$stream_output_adapter@D@1@_KQBDQAU__crt_locale_pointers@@QAD@Z 1004e8ac f i libucrt:output.obj
 0001:0004d8e8       ??0?$output_adapter_data@DV?$string_output_adapter@D@__crt_stdio_output@@@__crt_stdio_output@@IAE@ABV?$string_output_adapter@D@1@_KQBDQAU__crt_locale_pointers@@QAD@Z 1004e8e8 f i libucrt:output.obj
 0001:0004d924       ??0?$output_adapter_data@_WV?$stream_output_adapter@_W@__crt_stdio_output@@@__crt_stdio_output@@IAE@ABV?$stream_output_adapter@_W@1@_KQB_WQAU__crt_locale_pointers@@QAD@Z 1004e924 f i libucrt:output.obj
 0001:0004d960       ??0?$output_adapter_data@_WV?$string_output_adapter@_W@__crt_stdio_output@@@__crt_stdio_output@@IAE@ABV?$string_output_adapter@_W@1@_KQB_WQAU__crt_locale_pointers@@QAD@Z 1004e960 f i libucrt:output.obj
 0001:0004d99c       ??0?$output_processor@DV?$stream_output_adapter@D@__crt_stdio_output@@V?$format_validation_base@DV?$stream_output_adapter@D@__crt_stdio_output@@@2@@__crt_stdio_output@@QAE@ABV?$stream_output_adapter@D@1@_KQBDQAU__crt_locale_pointers@@QAD@Z 1004e99c f i libucrt:output.obj
 0001:0004d9c9       ??0?$output_processor@DV?$stream_output_adapter@D@__crt_stdio_output@@V?$positional_parameter_base@DV?$stream_output_adapter@D@__crt_stdio_output@@@2@@__crt_stdio_output@@QAE@ABV?$stream_output_adapter@D@1@_KQBDQAU__crt_locale_pointers@@QAD@Z 1004e9c9 f i libucrt:output.obj
 0001:0004d9f0       ??0?$output_processor@DV?$stream_output_adapter@D@__crt_stdio_output@@V?$standard_base@DV?$stream_output_adapter@D@__crt_stdio_output@@@2@@__crt_stdio_output@@QAE@ABV?$stream_output_adapter@D@1@_KQBDQAU__crt_locale_pointers@@QAD@Z 1004e9f0 f i libucrt:output.obj
 0001:0004da1d       ??0?$output_processor@DV?$string_output_adapter@D@__crt_stdio_output@@V?$format_validation_base@DV?$string_output_adapter@D@__crt_stdio_output@@@2@@__crt_stdio_output@@QAE@ABV?$string_output_adapter@D@1@_KQBDQAU__crt_locale_pointers@@QAD@Z 1004ea1d f i libucrt:output.obj
 0001:0004da4a       ??0?$output_processor@DV?$string_output_adapter@D@__crt_stdio_output@@V?$positional_parameter_base@DV?$string_output_adapter@D@__crt_stdio_output@@@2@@__crt_stdio_output@@QAE@ABV?$string_output_adapter@D@1@_KQBDQAU__crt_locale_pointers@@QAD@Z 1004ea4a f i libucrt:output.obj
 0001:0004da71       ??0?$output_processor@DV?$string_output_adapter@D@__crt_stdio_output@@V?$standard_base@DV?$string_output_adapter@D@__crt_stdio_output@@@2@@__crt_stdio_output@@QAE@ABV?$string_output_adapter@D@1@_KQBDQAU__crt_locale_pointers@@QAD@Z 1004ea71 f i libucrt:output.obj
 0001:0004da9e       ??0?$output_processor@_WV?$stream_output_adapter@_W@__crt_stdio_output@@V?$format_validation_base@_WV?$stream_output_adapter@_W@__crt_stdio_output@@@2@@__crt_stdio_output@@QAE@ABV?$stream_output_adapter@_W@1@_KQB_WQAU__crt_locale_pointers@@QAD@Z 1004ea9e f i libucrt:output.obj
 0001:0004dacb       ??0?$output_processor@_WV?$stream_output_adapter@_W@__crt_stdio_output@@V?$positional_parameter_base@_WV?$stream_output_adapter@_W@__crt_stdio_output@@@2@@__crt_stdio_output@@QAE@ABV?$stream_output_adapter@_W@1@_KQB_WQAU__crt_locale_pointers@@QAD@Z 1004eacb f i libucrt:output.obj
 0001:0004daf2       ??0?$output_processor@_WV?$stream_output_adapter@_W@__crt_stdio_output@@V?$standard_base@_WV?$stream_output_adapter@_W@__crt_stdio_output@@@2@@__crt_stdio_output@@QAE@ABV?$stream_output_adapter@_W@1@_KQB_WQAU__crt_locale_pointers@@QAD@Z 1004eaf2 f i libucrt:output.obj
 0001:0004db1f       ??0?$output_processor@_WV?$string_output_adapter@_W@__crt_stdio_output@@V?$format_validation_base@_WV?$string_output_adapter@_W@__crt_stdio_output@@@2@@__crt_stdio_output@@QAE@ABV?$string_output_adapter@_W@1@_KQB_WQAU__crt_locale_pointers@@QAD@Z 1004eb1f f i libucrt:output.obj
 0001:0004db4c       ??0?$output_processor@_WV?$string_output_adapter@_W@__crt_stdio_output@@V?$positional_parameter_base@_WV?$string_output_adapter@_W@__crt_stdio_output@@@2@@__crt_stdio_output@@QAE@ABV?$string_output_adapter@_W@1@_KQB_WQAU__crt_locale_pointers@@QAD@Z 1004eb4c f i libucrt:output.obj
 0001:0004db73       ??0?$output_processor@_WV?$string_output_adapter@_W@__crt_stdio_output@@V?$standard_base@_WV?$string_output_adapter@_W@__crt_stdio_output@@@2@@__crt_stdio_output@@QAE@ABV?$string_output_adapter@_W@1@_KQB_WQAU__crt_locale_pointers@@QAD@Z 1004eb73 f i libucrt:output.obj
 0001:0004dba0       ??0?$stream_output_adapter@D@__crt_stdio_output@@QAE@QAU_iobuf@@@Z 1004eba0 f i libucrt:output.obj
 0001:0004dbb0       ??0?$stream_output_adapter@_W@__crt_stdio_output@@QAE@QAU_iobuf@@@Z 1004ebb0 f i libucrt:output.obj
 0001:0004dbc0       ??0?$string_output_adapter@D@__crt_stdio_output@@QAE@QAU?$string_output_adapter_context@D@1@@Z 1004ebc0 f i libucrt:output.obj
 0001:0004dbd0       ??0?$string_output_adapter@_W@__crt_stdio_output@@QAE@QAU?$string_output_adapter_context@_W@1@@Z 1004ebd0 f i libucrt:output.obj
 0001:0004dbe0       ??0_LocaleUpdate@@QAE@QAU__crt_locale_pointers@@@Z 1004ebe0 f i libucrt:output.obj
 0001:0004dc63       ??0__acrt_stdio_temporary_buffering_guard@@QAE@QAU_iobuf@@@Z 1004ec63 f i libucrt:output.obj
 0001:0004dc81       ??0__crt_deferred_errno_cache@@QAE@XZ 1004ec81 f i libucrt:output.obj
 0001:0004dc87       ??0__crt_errno_guard@@QAE@QAH@Z 1004ec87 f i libucrt:output.obj
 0001:0004dc9f       ??0__crt_stdio_stream@@QAE@QAU_iobuf@@@Z 1004ec9f f i libucrt:output.obj
 0001:0004dcb0       ??0formatting_buffer@__crt_stdio_output@@QAE@XZ 1004ecb0 f i libucrt:output.obj
 0001:0004dcc7       ??1?$common_data@D@__crt_stdio_output@@QAE@XZ 1004ecc7 f i libucrt:output.obj
 0001:0004dccf       ??1?$common_data@_W@__crt_stdio_output@@QAE@XZ 1004eccf f i libucrt:output.obj
 0001:0004dcd7       ??1?$format_validation_base@DV?$stream_output_adapter@D@__crt_stdio_output@@@__crt_stdio_output@@QAE@XZ 1004ecd7 f i libucrt:output.obj
 0001:0004dcdf       ??1?$format_validation_base@DV?$string_output_adapter@D@__crt_stdio_output@@@__crt_stdio_output@@QAE@XZ 1004ecdf f i libucrt:output.obj
 0001:0004dce7       ??1?$format_validation_base@_WV?$stream_output_adapter@_W@__crt_stdio_output@@@__crt_stdio_output@@QAE@XZ 1004ece7 f i libucrt:output.obj
 0001:0004dcef       ??1?$format_validation_base@_WV?$string_output_adapter@_W@__crt_stdio_output@@@__crt_stdio_output@@QAE@XZ 1004ecef f i libucrt:output.obj
 0001:0004dcf7       ??1?$output_adapter_data@DV?$stream_output_adapter@D@__crt_stdio_output@@@__crt_stdio_output@@QAE@XZ 1004ecf7 f i libucrt:output.obj
 0001:0004dcff       ??1?$output_adapter_data@DV?$string_output_adapter@D@__crt_stdio_output@@@__crt_stdio_output@@QAE@XZ 1004ecff f i libucrt:output.obj
 0001:0004dd07       ??1?$output_adapter_data@_WV?$stream_output_adapter@_W@__crt_stdio_output@@@__crt_stdio_output@@QAE@XZ 1004ed07 f i libucrt:output.obj
 0001:0004dd0f       ??1?$output_adapter_data@_WV?$string_output_adapter@_W@__crt_stdio_output@@@__crt_stdio_output@@QAE@XZ 1004ed0f f i libucrt:output.obj
 0001:0004dd17       ??1?$output_processor@DV?$stream_output_adapter@D@__crt_stdio_output@@V?$format_validation_base@DV?$stream_output_adapter@D@__crt_stdio_output@@@2@@__crt_stdio_output@@QAE@XZ 1004ed17 f i libucrt:output.obj
 0001:0004dd1f       ??1?$output_processor@DV?$stream_output_adapter@D@__crt_stdio_output@@V?$positional_parameter_base@DV?$stream_output_adapter@D@__crt_stdio_output@@@2@@__crt_stdio_output@@QAE@XZ 1004ed1f f i libucrt:output.obj
 0001:0004dd27       ??1?$output_processor@DV?$stream_output_adapter@D@__crt_stdio_output@@V?$standard_base@DV?$stream_output_adapter@D@__crt_stdio_output@@@2@@__crt_stdio_output@@QAE@XZ 1004ed27 f i libucrt:output.obj
 0001:0004dd2f       ??1?$output_processor@DV?$string_output_adapter@D@__crt_stdio_output@@V?$format_validation_base@DV?$string_output_adapter@D@__crt_stdio_output@@@2@@__crt_stdio_output@@QAE@XZ 1004ed2f f i libucrt:output.obj
 0001:0004dd37       ??1?$output_processor@DV?$string_output_adapter@D@__crt_stdio_output@@V?$positional_parameter_base@DV?$string_output_adapter@D@__crt_stdio_output@@@2@@__crt_stdio_output@@QAE@XZ 1004ed37 f i libucrt:output.obj
 0001:0004dd3f       ??1?$output_processor@DV?$string_output_adapter@D@__crt_stdio_output@@V?$standard_base@DV?$string_output_adapter@D@__crt_stdio_output@@@2@@__crt_stdio_output@@QAE@XZ 1004ed3f f i libucrt:output.obj
 0001:0004dd47       ??1?$output_processor@_WV?$stream_output_adapter@_W@__crt_stdio_output@@V?$format_validation_base@_WV?$stream_output_adapter@_W@__crt_stdio_output@@@2@@__crt_stdio_output@@QAE@XZ 1004ed47 f i libucrt:output.obj
 0001:0004dd4f       ??1?$output_processor@_WV?$stream_output_adapter@_W@__crt_stdio_output@@V?$positional_parameter_base@_WV?$stream_output_adapter@_W@__crt_stdio_output@@@2@@__crt_stdio_output@@QAE@XZ 1004ed4f f i libucrt:output.obj
 0001:0004dd57       ??1?$output_processor@_WV?$stream_output_adapter@_W@__crt_stdio_output@@V?$standard_base@_WV?$stream_output_adapter@_W@__crt_stdio_output@@@2@@__crt_stdio_output@@QAE@XZ 1004ed57 f i libucrt:output.obj
 0001:0004dd5f       ??1?$output_processor@_WV?$string_output_adapter@_W@__crt_stdio_output@@V?$format_validation_base@_WV?$string_output_adapter@_W@__crt_stdio_output@@@2@@__crt_stdio_output@@QAE@XZ 1004ed5f f i libucrt:output.obj
 0001:0004dd67       ??1?$output_processor@_WV?$string_output_adapter@_W@__crt_stdio_output@@V?$positional_parameter_base@_WV?$string_output_adapter@_W@__crt_stdio_output@@@2@@__crt_stdio_output@@QAE@XZ 1004ed67 f i libucrt:output.obj
 0001:0004dd6f       ??1?$output_processor@_WV?$string_output_adapter@_W@__crt_stdio_output@@V?$standard_base@_WV?$string_output_adapter@_W@__crt_stdio_output@@@2@@__crt_stdio_output@@QAE@XZ 1004ed6f f i libucrt:output.obj
 0001:0004dd77       ??1?$positional_parameter_base@DV?$stream_output_adapter@D@__crt_stdio_output@@@__crt_stdio_output@@QAE@XZ 1004ed77 f i libucrt:output.obj
 0001:0004dd7f       ??1?$positional_parameter_base@DV?$string_output_adapter@D@__crt_stdio_output@@@__crt_stdio_output@@QAE@XZ 1004ed7f f i libucrt:output.obj
 0001:0004dd87       ??1?$positional_parameter_base@_WV?$stream_output_adapter@_W@__crt_stdio_output@@@__crt_stdio_output@@QAE@XZ 1004ed87 f i libucrt:output.obj
 0001:0004dd8f       ??1?$positional_parameter_base@_WV?$string_output_adapter@_W@__crt_stdio_output@@@__crt_stdio_output@@QAE@XZ 1004ed8f f i libucrt:output.obj
 0001:0004dd97       ??1?$standard_base@DV?$stream_output_adapter@D@__crt_stdio_output@@@__crt_stdio_output@@QAE@XZ 1004ed97 f i libucrt:output.obj
 0001:0004dd9f       ??1?$standard_base@DV?$string_output_adapter@D@__crt_stdio_output@@@__crt_stdio_output@@QAE@XZ 1004ed9f f i libucrt:output.obj
 0001:0004dda7       ??1?$standard_base@_WV?$stream_output_adapter@_W@__crt_stdio_output@@@__crt_stdio_output@@QAE@XZ 1004eda7 f i libucrt:output.obj
 0001:0004ddaf       ??1?$standard_base@_WV?$string_output_adapter@_W@__crt_stdio_output@@@__crt_stdio_output@@QAE@XZ 1004edaf f i libucrt:output.obj
 0001:0004ddb7       ??1_LocaleUpdate@@QAE@XZ   1004edb7 f i libucrt:output.obj
 0001:0004ddc7       ??1__acrt_stdio_temporary_buffering_guard@@QAE@XZ 1004edc7 f i libucrt:output.obj
 0001:0004ddd6       ??1__crt_errno_guard@@QAE@XZ 1004edd6 f i libucrt:output.obj
 0001:0004dde7       ??1formatting_buffer@__crt_stdio_output@@QAE@XZ 1004ede7 f i libucrt:output.obj
 0001:0004de01       ??4?$__crt_unique_heap_ptr@DU__crt_internal_free_policy@@@@QAEAAV0@$$QAV0@@Z 1004ee01 f i libucrt:output.obj
 0001:0004de25       ??A?$spectre_mitigated_lookup_table@Ustate_transition_pair@__crt_stdio_output@@$0IA@@__crt_stdio_output@@QBEABUstate_transition_pair@1@I@Z 1004ee25 f i libucrt:output.obj
 0001:0004de37       ??C__crt_stdio_stream@@QBEPAU__crt_stdio_stream_data@@XZ 1004ee37 f i libucrt:output.obj
 0001:0004e38a       ?GetLocaleT@_LocaleUpdate@@QAEPAU__crt_locale_pointers@@XZ 1004f38a f i libucrt:output.obj
 0001:0004e38e       ?adjust_hexit@?$output_processor@DV?$stream_output_adapter@D@__crt_stdio_output@@V?$format_validation_base@DV?$stream_output_adapter@D@__crt_stdio_output@@@2@@__crt_stdio_output@@CADH_N@Z 1004f38e f i libucrt:output.obj
 0001:0004e3a2       ?adjust_hexit@?$output_processor@DV?$stream_output_adapter@D@__crt_stdio_output@@V?$positional_parameter_base@DV?$stream_output_adapter@D@__crt_stdio_output@@@2@@__crt_stdio_output@@CADH_N@Z 1004f3a2 f i libucrt:output.obj
 0001:0004e3b6       ?adjust_hexit@?$output_processor@DV?$stream_output_adapter@D@__crt_stdio_output@@V?$standard_base@DV?$stream_output_adapter@D@__crt_stdio_output@@@2@@__crt_stdio_output@@CADH_N@Z 1004f3b6 f i libucrt:output.obj
 0001:0004e3ca       ?adjust_hexit@?$output_processor@DV?$string_output_adapter@D@__crt_stdio_output@@V?$format_validation_base@DV?$string_output_adapter@D@__crt_stdio_output@@@2@@__crt_stdio_output@@CADH_N@Z 1004f3ca f i libucrt:output.obj
 0001:0004e3de       ?adjust_hexit@?$output_processor@DV?$string_output_adapter@D@__crt_stdio_output@@V?$positional_parameter_base@DV?$string_output_adapter@D@__crt_stdio_output@@@2@@__crt_stdio_output@@CADH_N@Z 1004f3de f i libucrt:output.obj
 0001:0004e3f2       ?adjust_hexit@?$output_processor@DV?$string_output_adapter@D@__crt_stdio_output@@V?$standard_base@DV?$string_output_adapter@D@__crt_stdio_output@@@2@@__crt_stdio_output@@CADH_N@Z 1004f3f2 f i libucrt:output.obj
 0001:0004e406       ?adjust_hexit@?$output_processor@_WV?$stream_output_adapter@_W@__crt_stdio_output@@V?$format_validation_base@_WV?$stream_output_adapter@_W@__crt_stdio_output@@@2@@__crt_stdio_output@@CADH_N@Z 1004f406 f i libucrt:output.obj
 0001:0004e41a       ?adjust_hexit@?$output_processor@_WV?$stream_output_adapter@_W@__crt_stdio_output@@V?$positional_parameter_base@_WV?$stream_output_adapter@_W@__crt_stdio_output@@@2@@__crt_stdio_output@@CADH_N@Z 1004f41a f i libucrt:output.obj
 0001:0004e42e       ?adjust_hexit@?$output_processor@_WV?$stream_output_adapter@_W@__crt_stdio_output@@V?$standard_base@_WV?$stream_output_adapter@_W@__crt_stdio_output@@@2@@__crt_stdio_output@@CADH_N@Z 1004f42e f i libucrt:output.obj
 0001:0004e442       ?adjust_hexit@?$output_processor@_WV?$string_output_adapter@_W@__crt_stdio_output@@V?$format_validation_base@_WV?$string_output_adapter@_W@__crt_stdio_output@@@2@@__crt_stdio_output@@CADH_N@Z 1004f442 f i libucrt:output.obj
 0001:0004e456       ?adjust_hexit@?$output_processor@_WV?$string_output_adapter@_W@__crt_stdio_output@@V?$positional_parameter_base@_WV?$string_output_adapter@_W@__crt_stdio_output@@@2@@__crt_stdio_output@@CADH_N@Z 1004f456 f i libucrt:output.obj
 0001:0004e46a       ?adjust_hexit@?$output_processor@_WV?$string_output_adapter@_W@__crt_stdio_output@@V?$standard_base@_WV?$string_output_adapter@_W@__crt_stdio_output@@@2@@__crt_stdio_output@@CADH_N@Z 1004f46a f i libucrt:output.obj
 0001:0004e47e       ?advance_to_next_pass@?$positional_parameter_base@DV?$stream_output_adapter@D@__crt_stdio_output@@@__crt_stdio_output@@IAE_NXZ 1004f47e f i libucrt:output.obj
 0001:0004e4ca       ?advance_to_next_pass@?$positional_parameter_base@DV?$string_output_adapter@D@__crt_stdio_output@@@__crt_stdio_output@@IAE_NXZ 1004f4ca f i libucrt:output.obj
 0001:0004e516       ?advance_to_next_pass@?$positional_parameter_base@_WV?$stream_output_adapter@_W@__crt_stdio_output@@@__crt_stdio_output@@IAE_NXZ 1004f516 f i libucrt:output.obj
 0001:0004e562       ?advance_to_next_pass@?$positional_parameter_base@_WV?$string_output_adapter@_W@__crt_stdio_output@@@__crt_stdio_output@@IAE_NXZ 1004f562 f i libucrt:output.obj
 0001:0004e5ae       ?advance_to_next_pass@?$standard_base@DV?$stream_output_adapter@D@__crt_stdio_output@@@__crt_stdio_output@@IAE_NXZ 1004f5ae f i libucrt:output.obj
 0001:0004e5bf       ?advance_to_next_pass@?$standard_base@DV?$string_output_adapter@D@__crt_stdio_output@@@__crt_stdio_output@@IAE_NXZ 1004f5bf f i libucrt:output.obj
 0001:0004e5d0       ?advance_to_next_pass@?$standard_base@_WV?$stream_output_adapter@_W@__crt_stdio_output@@@__crt_stdio_output@@IAE_NXZ 1004f5d0 f i libucrt:output.obj
 0001:0004e5e1       ?advance_to_next_pass@?$standard_base@_WV?$string_output_adapter@_W@__crt_stdio_output@@@__crt_stdio_output@@IAE_NXZ 1004f5e1 f i libucrt:output.obj
 0001:0004e600       ?crop_zeroes@__crt_stdio_output@@YAXPADQAU__crt_locale_pointers@@@Z 1004f600 f i libucrt:output.obj
 0001:0004e681       ?find_next_state@?$output_processor@DV?$stream_output_adapter@D@__crt_stdio_output@@V?$format_validation_base@DV?$stream_output_adapter@D@__crt_stdio_output@@@2@@__crt_stdio_output@@ABE?AW4state@2@DW432@@Z 1004f681 f i libucrt:output.obj
 0001:0004e6b8       ?find_next_state@?$output_processor@DV?$stream_output_adapter@D@__crt_stdio_output@@V?$positional_parameter_base@DV?$stream_output_adapter@D@__crt_stdio_output@@@2@@__crt_stdio_output@@ABE?AW4state@2@DW432@@Z 1004f6b8 f i libucrt:output.obj
 0001:0004e6ef       ?find_next_state@?$output_processor@DV?$stream_output_adapter@D@__crt_stdio_output@@V?$standard_base@DV?$stream_output_adapter@D@__crt_stdio_output@@@2@@__crt_stdio_output@@ABE?AW4state@2@DW432@@Z 1004f6ef f i libucrt:output.obj
 0001:0004e726       ?find_next_state@?$output_processor@DV?$string_output_adapter@D@__crt_stdio_output@@V?$format_validation_base@DV?$string_output_adapter@D@__crt_stdio_output@@@2@@__crt_stdio_output@@ABE?AW4state@2@DW432@@Z 1004f726 f i libucrt:output.obj
 0001:0004e75d       ?find_next_state@?$output_processor@DV?$string_output_adapter@D@__crt_stdio_output@@V?$positional_parameter_base@DV?$string_output_adapter@D@__crt_stdio_output@@@2@@__crt_stdio_output@@ABE?AW4state@2@DW432@@Z 1004f75d f i libucrt:output.obj
 0001:0004e794       ?find_next_state@?$output_processor@DV?$string_output_adapter@D@__crt_stdio_output@@V?$standard_base@DV?$string_output_adapter@D@__crt_stdio_output@@@2@@__crt_stdio_output@@ABE?AW4state@2@DW432@@Z 1004f794 f i libucrt:output.obj
 0001:0004e7cb       ?find_next_state@?$output_processor@_WV?$stream_output_adapter@_W@__crt_stdio_output@@V?$format_validation_base@_WV?$stream_output_adapter@_W@__crt_stdio_output@@@2@@__crt_stdio_output@@ABE?AW4state@2@_WW432@@Z 1004f7cb f i libucrt:output.obj
 0001:0004e801       ?find_next_state@?$output_processor@_WV?$stream_output_adapter@_W@__crt_stdio_output@@V?$positional_parameter_base@_WV?$stream_output_adapter@_W@__crt_stdio_output@@@2@@__crt_stdio_output@@ABE?AW4state@2@_WW432@@Z 1004f801 f i libucrt:output.obj
 0001:0004e837       ?find_next_state@?$output_processor@_WV?$stream_output_adapter@_W@__crt_stdio_output@@V?$standard_base@_WV?$stream_output_adapter@_W@__crt_stdio_output@@@2@@__crt_stdio_output@@ABE?AW4state@2@_WW432@@Z 1004f837 f i libucrt:output.obj
 0001:0004e86d       ?find_next_state@?$output_processor@_WV?$string_output_adapter@_W@__crt_stdio_output@@V?$format_validation_base@_WV?$string_output_adapter@_W@__crt_stdio_output@@@2@@__crt_stdio_output@@ABE?AW4state@2@_WW432@@Z 1004f86d f i libucrt:output.obj
 0001:0004e8a3       ?find_next_state@?$output_processor@_WV?$string_output_adapter@_W@__crt_stdio_output@@V?$positional_parameter_base@_WV?$string_output_adapter@_W@__crt_stdio_output@@@2@@__crt_stdio_output@@ABE?AW4state@2@_WW432@@Z 1004f8a3 f i libucrt:output.obj
 0001:0004e8d9       ?find_next_state@?$output_processor@_WV?$string_output_adapter@_W@__crt_stdio_output@@V?$standard_base@_WV?$string_output_adapter@_W@__crt_stdio_output@@@2@@__crt_stdio_output@@ABE?AW4state@2@_WW432@@Z 1004f8d9 f i libucrt:output.obj
 0001:0004e910       ?force_decimal_point@__crt_stdio_output@@YAXPADQAU__crt_locale_pointers@@@Z 1004f910 f i libucrt:output.obj
 0001:0004e975       ?get@__crt_deferred_errno_cache@@QAEAAHXZ 1004f975 f i libucrt:output.obj
 0001:0004e989       ?get_flags@__crt_stdio_stream@@QBEJXZ 1004f989 f i libucrt:output.obj
 0001:0004e990       ?get_parameter_type@?$positional_parameter_base@DV?$stream_output_adapter@D@__crt_stdio_output@@@__crt_stdio_output@@CA?AW4parameter_type@12@F@Z 1004f990 f i libucrt:output.obj
 0001:0004e994       ?get_parameter_type@?$positional_parameter_base@DV?$stream_output_adapter@D@__crt_stdio_output@@@__crt_stdio_output@@CA?AW4parameter_type@12@G@Z 1004f994 f i libucrt:output.obj
 0001:0004e998       ?get_parameter_type@?$positional_parameter_base@DV?$stream_output_adapter@D@__crt_stdio_output@@@__crt_stdio_output@@CA?AW4parameter_type@12@H@Z 1004f998 f i libucrt:output.obj
 0001:0004e99c       ?get_parameter_type@?$positional_parameter_base@DV?$stream_output_adapter@D@__crt_stdio_output@@@__crt_stdio_output@@CA?AW4parameter_type@12@I@Z 1004f99c f i libucrt:output.obj
 0001:0004e9a0       ?get_parameter_type@?$positional_parameter_base@DV?$stream_output_adapter@D@__crt_stdio_output@@@__crt_stdio_output@@CA?AW4parameter_type@12@U_CRT_DOUBLE@@@Z 1004f9a0 f i libucrt:output.obj
 0001:0004e9a4       ?get_parameter_type@?$positional_parameter_base@DV?$stream_output_adapter@D@__crt_stdio_output@@@__crt_stdio_output@@CA?AW4parameter_type@12@_J@Z 1004f9a4 f i libucrt:output.obj
 0001:0004e9a8       ?get_parameter_type@?$positional_parameter_base@DV?$stream_output_adapter@D@__crt_stdio_output@@@__crt_stdio_output@@CA?AW4parameter_type@12@_K@Z 1004f9a8 f i libucrt:output.obj
 0001:0004e9ac       ?get_parameter_type@?$positional_parameter_base@DV?$stream_output_adapter@D@__crt_stdio_output@@@__crt_stdio_output@@CA?AW4parameter_type@12@_W@Z 1004f9ac f i libucrt:output.obj
 0001:0004e9b0       ?get_parameter_type@?$positional_parameter_base@DV?$string_output_adapter@D@__crt_stdio_output@@@__crt_stdio_output@@CA?AW4parameter_type@12@F@Z 1004f9b0 f i libucrt:output.obj
 0001:0004e9b4       ?get_parameter_type@?$positional_parameter_base@DV?$string_output_adapter@D@__crt_stdio_output@@@__crt_stdio_output@@CA?AW4parameter_type@12@G@Z 1004f9b4 f i libucrt:output.obj
 0001:0004e9b8       ?get_parameter_type@?$positional_parameter_base@DV?$string_output_adapter@D@__crt_stdio_output@@@__crt_stdio_output@@CA?AW4parameter_type@12@H@Z 1004f9b8 f i libucrt:output.obj
 0001:0004e9bc       ?get_parameter_type@?$positional_parameter_base@DV?$string_output_adapter@D@__crt_stdio_output@@@__crt_stdio_output@@CA?AW4parameter_type@12@I@Z 1004f9bc f i libucrt:output.obj
 0001:0004e9c0       ?get_parameter_type@?$positional_parameter_base@DV?$string_output_adapter@D@__crt_stdio_output@@@__crt_stdio_output@@CA?AW4parameter_type@12@U_CRT_DOUBLE@@@Z 1004f9c0 f i libucrt:output.obj
 0001:0004e9c4       ?get_parameter_type@?$positional_parameter_base@DV?$string_output_adapter@D@__crt_stdio_output@@@__crt_stdio_output@@CA?AW4parameter_type@12@_J@Z 1004f9c4 f i libucrt:output.obj
 0001:0004e9c8       ?get_parameter_type@?$positional_parameter_base@DV?$string_output_adapter@D@__crt_stdio_output@@@__crt_stdio_output@@CA?AW4parameter_type@12@_K@Z 1004f9c8 f i libucrt:output.obj
 0001:0004e9cc       ?get_parameter_type@?$positional_parameter_base@DV?$string_output_adapter@D@__crt_stdio_output@@@__crt_stdio_output@@CA?AW4parameter_type@12@_W@Z 1004f9cc f i libucrt:output.obj
 0001:0004e9d0       ?get_parameter_type@?$positional_parameter_base@_WV?$stream_output_adapter@_W@__crt_stdio_output@@@__crt_stdio_output@@CA?AW4parameter_type@12@F@Z 1004f9d0 f i libucrt:output.obj
 0001:0004e9d4       ?get_parameter_type@?$positional_parameter_base@_WV?$stream_output_adapter@_W@__crt_stdio_output@@@__crt_stdio_output@@CA?AW4parameter_type@12@G@Z 1004f9d4 f i libucrt:output.obj
 0001:0004e9d8       ?get_parameter_type@?$positional_parameter_base@_WV?$stream_output_adapter@_W@__crt_stdio_output@@@__crt_stdio_output@@CA?AW4parameter_type@12@H@Z 1004f9d8 f i libucrt:output.obj
 0001:0004e9dc       ?get_parameter_type@?$positional_parameter_base@_WV?$stream_output_adapter@_W@__crt_stdio_output@@@__crt_stdio_output@@CA?AW4parameter_type@12@I@Z 1004f9dc f i libucrt:output.obj
 0001:0004e9e0       ?get_parameter_type@?$positional_parameter_base@_WV?$stream_output_adapter@_W@__crt_stdio_output@@@__crt_stdio_output@@CA?AW4parameter_type@12@U_CRT_DOUBLE@@@Z 1004f9e0 f i libucrt:output.obj
 0001:0004e9e4       ?get_parameter_type@?$positional_parameter_base@_WV?$stream_output_adapter@_W@__crt_stdio_output@@@__crt_stdio_output@@CA?AW4parameter_type@12@_J@Z 1004f9e4 f i libucrt:output.obj
 0001:0004e9e8       ?get_parameter_type@?$positional_parameter_base@_WV?$stream_output_adapter@_W@__crt_stdio_output@@@__crt_stdio_output@@CA?AW4parameter_type@12@_K@Z 1004f9e8 f i libucrt:output.obj
 0001:0004e9ec       ?get_parameter_type@?$positional_parameter_base@_WV?$stream_output_adapter@_W@__crt_stdio_output@@@__crt_stdio_output@@CA?AW4parameter_type@12@_W@Z 1004f9ec f i libucrt:output.obj
 0001:0004e9f0       ?get_parameter_type@?$positional_parameter_base@_WV?$string_output_adapter@_W@__crt_stdio_output@@@__crt_stdio_output@@CA?AW4parameter_type@12@F@Z 1004f9f0 f i libucrt:output.obj
 0001:0004e9f4       ?get_parameter_type@?$positional_parameter_base@_WV?$string_output_adapter@_W@__crt_stdio_output@@@__crt_stdio_output@@CA?AW4parameter_type@12@G@Z 1004f9f4 f i libucrt:output.obj
 0001:0004e9f8       ?get_parameter_type@?$positional_parameter_base@_WV?$string_output_adapter@_W@__crt_stdio_output@@@__crt_stdio_output@@CA?AW4parameter_type@12@H@Z 1004f9f8 f i libucrt:output.obj
 0001:0004e9fc       ?get_parameter_type@?$positional_parameter_base@_WV?$string_output_adapter@_W@__crt_stdio_output@@@__crt_stdio_output@@CA?AW4parameter_type@12@I@Z 1004f9fc f i libucrt:output.obj
 0001:0004ea00       ?get_parameter_type@?$positional_parameter_base@_WV?$string_output_adapter@_W@__crt_stdio_output@@@__crt_stdio_output@@CA?AW4parameter_type@12@U_CRT_DOUBLE@@@Z 1004fa00 f i libucrt:output.obj
 0001:0004ea04       ?get_parameter_type@?$positional_parameter_base@_WV?$string_output_adapter@_W@__crt_stdio_output@@@__crt_stdio_output@@CA?AW4parameter_type@12@_J@Z 1004fa04 f i libucrt:output.obj
 0001:0004ea08       ?get_parameter_type@?$positional_parameter_base@_WV?$string_output_adapter@_W@__crt_stdio_output@@@__crt_stdio_output@@CA?AW4parameter_type@12@_K@Z 1004fa08 f i libucrt:output.obj
 0001:0004ea0c       ?get_parameter_type@?$positional_parameter_base@_WV?$string_output_adapter@_W@__crt_stdio_output@@@__crt_stdio_output@@CA?AW4parameter_type@12@_W@Z 1004fa0c f i libucrt:output.obj
 0001:0004ea10       ?has_flag@?$output_processor@DV?$stream_output_adapter@D@__crt_stdio_output@@V?$format_validation_base@DV?$stream_output_adapter@D@__crt_stdio_output@@@2@@__crt_stdio_output@@ABE_NI@Z 1004fa10 f i libucrt:output.obj
 0001:0004ea22       ?has_flag@?$output_processor@DV?$stream_output_adapter@D@__crt_stdio_output@@V?$positional_parameter_base@DV?$stream_output_adapter@D@__crt_stdio_output@@@2@@__crt_stdio_output@@ABE_NI@Z 1004fa22 f i libucrt:output.obj
 0001:0004ea34       ?has_flag@?$output_processor@DV?$stream_output_adapter@D@__crt_stdio_output@@V?$standard_base@DV?$stream_output_adapter@D@__crt_stdio_output@@@2@@__crt_stdio_output@@ABE_NI@Z 1004fa34 f i libucrt:output.obj
 0001:0004ea46       ?has_flag@?$output_processor@DV?$string_output_adapter@D@__crt_stdio_output@@V?$format_validation_base@DV?$string_output_adapter@D@__crt_stdio_output@@@2@@__crt_stdio_output@@ABE_NI@Z 1004fa46 f i libucrt:output.obj
 0001:0004ea58       ?has_flag@?$output_processor@DV?$string_output_adapter@D@__crt_stdio_output@@V?$positional_parameter_base@DV?$string_output_adapter@D@__crt_stdio_output@@@2@@__crt_stdio_output@@ABE_NI@Z 1004fa58 f i libucrt:output.obj
 0001:0004ea6a       ?has_flag@?$output_processor@DV?$string_output_adapter@D@__crt_stdio_output@@V?$standard_base@DV?$string_output_adapter@D@__crt_stdio_output@@@2@@__crt_stdio_output@@ABE_NI@Z 1004fa6a f i libucrt:output.obj
 0001:0004ea7c       ?has_flag@?$output_processor@_WV?$stream_output_adapter@_W@__crt_stdio_output@@V?$format_validation_base@_WV?$stream_output_adapter@_W@__crt_stdio_output@@@2@@__crt_stdio_output@@ABE_NI@Z 1004fa7c f i libucrt:output.obj
 0001:0004ea8e       ?has_flag@?$output_processor@_WV?$stream_output_adapter@_W@__crt_stdio_output@@V?$positional_parameter_base@_WV?$stream_output_adapter@_W@__crt_stdio_output@@@2@@__crt_stdio_output@@ABE_NI@Z 1004fa8e f i libucrt:output.obj
 0001:0004eaa0       ?has_flag@?$output_processor@_WV?$stream_output_adapter@_W@__crt_stdio_output@@V?$standard_base@_WV?$stream_output_adapter@_W@__crt_stdio_output@@@2@@__crt_stdio_output@@ABE_NI@Z 1004faa0 f i libucrt:output.obj
 0001:0004eab2       ?has_flag@?$output_processor@_WV?$string_output_adapter@_W@__crt_stdio_output@@V?$format_validation_base@_WV?$string_output_adapter@_W@__crt_stdio_output@@@2@@__crt_stdio_output@@ABE_NI@Z 1004fab2 f i libucrt:output.obj
 0001:0004eac4       ?has_flag@?$output_processor@_WV?$string_output_adapter@_W@__crt_stdio_output@@V?$positional_parameter_base@_WV?$string_output_adapter@_W@__crt_stdio_output@@@2@@__crt_stdio_output@@ABE_NI@Z 1004fac4 f i libucrt:output.obj
 0001:0004ead6       ?has_flag@?$output_processor@_WV?$string_output_adapter@_W@__crt_stdio_output@@V?$standard_base@_WV?$string_output_adapter@_W@__crt_stdio_output@@@2@@__crt_stdio_output@@ABE_NI@Z 1004fad6 f i libucrt:output.obj
 0001:0004eae8       ?is_positional_parameter_reappearance_consistent@?$positional_parameter_base@DV?$stream_output_adapter@D@__crt_stdio_output@@@__crt_stdio_output@@AAE_NABUparameter_data@12@W4parameter_type@12@DW4length_modifier@2@@Z 1004fae8 f i libucrt:output.obj
 0001:0004ec02       ?is_positional_parameter_reappearance_consistent@?$positional_parameter_base@DV?$string_output_adapter@D@__crt_stdio_output@@@__crt_stdio_output@@AAE_NABUparameter_data@12@W4parameter_type@12@DW4length_modifier@2@@Z 1004fc02 f i libucrt:output.obj
 0001:0004ed1c       ?is_positional_parameter_reappearance_consistent@?$positional_parameter_base@_WV?$stream_output_adapter@_W@__crt_stdio_output@@@__crt_stdio_output@@AAE_NABUparameter_data@12@W4parameter_type@12@_WW4length_modifier@2@@Z 1004fd1c f i libucrt:output.obj
 0001:0004ee37       ?is_positional_parameter_reappearance_consistent@?$positional_parameter_base@_WV?$string_output_adapter@_W@__crt_stdio_output@@@__crt_stdio_output@@AAE_NABUparameter_data@12@W4parameter_type@12@_WW4length_modifier@2@@Z 1004fe37 f i libucrt:output.obj
 0001:0004ef52       ?is_string_backed@__crt_stdio_stream@@QBE_NXZ 1004ff52 f i libucrt:output.obj
 0001:0004ef5e       ?narrow_null_string@?$output_processor@DV?$stream_output_adapter@D@__crt_stdio_output@@V?$format_validation_base@DV?$stream_output_adapter@D@__crt_stdio_output@@@2@@__crt_stdio_output@@CAPADXZ 1004ff5e f i libucrt:output.obj
 0001:0004ef64       ?narrow_null_string@?$output_processor@DV?$stream_output_adapter@D@__crt_stdio_output@@V?$positional_parameter_base@DV?$stream_output_adapter@D@__crt_stdio_output@@@2@@__crt_stdio_output@@CAPADXZ 1004ff64 f i libucrt:output.obj
 0001:0004ef6a       ?narrow_null_string@?$output_processor@DV?$stream_output_adapter@D@__crt_stdio_output@@V?$standard_base@DV?$stream_output_adapter@D@__crt_stdio_output@@@2@@__crt_stdio_output@@CAPADXZ 1004ff6a f i libucrt:output.obj
 0001:0004ef70       ?narrow_null_string@?$output_processor@DV?$string_output_adapter@D@__crt_stdio_output@@V?$format_validation_base@DV?$string_output_adapter@D@__crt_stdio_output@@@2@@__crt_stdio_output@@CAPADXZ 1004ff70 f i libucrt:output.obj
 0001:0004ef76       ?narrow_null_string@?$output_processor@DV?$string_output_adapter@D@__crt_stdio_output@@V?$positional_parameter_base@DV?$string_output_adapter@D@__crt_stdio_output@@@2@@__crt_stdio_output@@CAPADXZ 1004ff76 f i libucrt:output.obj
 0001:0004ef7c       ?narrow_null_string@?$output_processor@DV?$string_output_adapter@D@__crt_stdio_output@@V?$standard_base@DV?$string_output_adapter@D@__crt_stdio_output@@@2@@__crt_stdio_output@@CAPADXZ 1004ff7c f i libucrt:output.obj
 0001:0004ef82       ?narrow_null_string@?$output_processor@_WV?$stream_output_adapter@_W@__crt_stdio_output@@V?$format_validation_base@_WV?$stream_output_adapter@_W@__crt_stdio_output@@@2@@__crt_stdio_output@@CAPADXZ 1004ff82 f i libucrt:output.obj
 0001:0004ef88       ?narrow_null_string@?$output_processor@_WV?$stream_output_adapter@_W@__crt_stdio_output@@V?$positional_parameter_base@_WV?$stream_output_adapter@_W@__crt_stdio_output@@@2@@__crt_stdio_output@@CAPADXZ 1004ff88 f i libucrt:output.obj
 0001:0004ef8e       ?narrow_null_string@?$output_processor@_WV?$stream_output_adapter@_W@__crt_stdio_output@@V?$standard_base@_WV?$stream_output_adapter@_W@__crt_stdio_output@@@2@@__crt_stdio_output@@CAPADXZ 1004ff8e f i libucrt:output.obj
 0001:0004ef94       ?narrow_null_string@?$output_processor@_WV?$string_output_adapter@_W@__crt_stdio_output@@V?$format_validation_base@_WV?$string_output_adapter@_W@__crt_stdio_output@@@2@@__crt_stdio_output@@CAPADXZ 1004ff94 f i libucrt:output.obj
 0001:0004ef9a       ?narrow_null_string@?$output_processor@_WV?$string_output_adapter@_W@__crt_stdio_output@@V?$positional_parameter_base@_WV?$string_output_adapter@_W@__crt_stdio_output@@@2@@__crt_stdio_output@@CAPADXZ 1004ff9a f i libucrt:output.obj
 0001:0004efa0       ?narrow_null_string@?$output_processor@_WV?$string_output_adapter@_W@__crt_stdio_output@@V?$standard_base@_WV?$string_output_adapter@_W@__crt_stdio_output@@@2@@__crt_stdio_output@@CAPADXZ 1004ffa0 f i libucrt:output.obj
 0001:0004efa6       ?parse_int_from_format_string@?$output_processor@DV?$stream_output_adapter@D@__crt_stdio_output@@V?$format_validation_base@DV?$stream_output_adapter@D@__crt_stdio_output@@@2@@__crt_stdio_output@@AAE_NQAH@Z 1004ffa6 f i libucrt:output.obj
 0001:0004f01a       ?parse_int_from_format_string@?$output_processor@DV?$stream_output_adapter@D@__crt_stdio_output@@V?$positional_parameter_base@DV?$stream_output_adapter@D@__crt_stdio_output@@@2@@__crt_stdio_output@@AAE_NQAH@Z 1005001a f i libucrt:output.obj
 0001:0004f08e       ?parse_int_from_format_string@?$output_processor@DV?$stream_output_adapter@D@__crt_stdio_output@@V?$standard_base@DV?$stream_output_adapter@D@__crt_stdio_output@@@2@@__crt_stdio_output@@AAE_NQAH@Z 1005008e f i libucrt:output.obj
 0001:0004f102       ?parse_int_from_format_string@?$output_processor@DV?$string_output_adapter@D@__crt_stdio_output@@V?$format_validation_base@DV?$string_output_adapter@D@__crt_stdio_output@@@2@@__crt_stdio_output@@AAE_NQAH@Z 10050102 f i libucrt:output.obj
 0001:0004f176       ?parse_int_from_format_string@?$output_processor@DV?$string_output_adapter@D@__crt_stdio_output@@V?$positional_parameter_base@DV?$string_output_adapter@D@__crt_stdio_output@@@2@@__crt_stdio_output@@AAE_NQAH@Z 10050176 f i libucrt:output.obj
 0001:0004f1ea       ?parse_int_from_format_string@?$output_processor@DV?$string_output_adapter@D@__crt_stdio_output@@V?$standard_base@DV?$string_output_adapter@D@__crt_stdio_output@@@2@@__crt_stdio_output@@AAE_NQAH@Z 100501ea f i libucrt:output.obj
 0001:0004f25e       ?parse_int_from_format_string@?$output_processor@_WV?$stream_output_adapter@_W@__crt_stdio_output@@V?$format_validation_base@_WV?$stream_output_adapter@_W@__crt_stdio_output@@@2@@__crt_stdio_output@@AAE_NQAH@Z 1005025e f i libucrt:output.obj
 0001:0004f2d4       ?parse_int_from_format_string@?$output_processor@_WV?$stream_output_adapter@_W@__crt_stdio_output@@V?$positional_parameter_base@_WV?$stream_output_adapter@_W@__crt_stdio_output@@@2@@__crt_stdio_output@@AAE_NQAH@Z 100502d4 f i libucrt:output.obj
 0001:0004f34a       ?parse_int_from_format_string@?$output_processor@_WV?$stream_output_adapter@_W@__crt_stdio_output@@V?$standard_base@_WV?$stream_output_adapter@_W@__crt_stdio_output@@@2@@__crt_stdio_output@@AAE_NQAH@Z 1005034a f i libucrt:output.obj
 0001:0004f3c0       ?parse_int_from_format_string@?$output_processor@_WV?$string_output_adapter@_W@__crt_stdio_output@@V?$format_validation_base@_WV?$string_output_adapter@_W@__crt_stdio_output@@@2@@__crt_stdio_output@@AAE_NQAH@Z 100503c0 f i libucrt:output.obj
 0001:0004f436       ?parse_int_from_format_string@?$output_processor@_WV?$string_output_adapter@_W@__crt_stdio_output@@V?$positional_parameter_base@_WV?$string_output_adapter@_W@__crt_stdio_output@@@2@@__crt_stdio_output@@AAE_NQAH@Z 10050436 f i libucrt:output.obj
 0001:0004f4ac       ?parse_int_from_format_string@?$output_processor@_WV?$string_output_adapter@_W@__crt_stdio_output@@V?$standard_base@_WV?$string_output_adapter@_W@__crt_stdio_output@@@2@@__crt_stdio_output@@AAE_NQAH@Z 100504ac f i libucrt:output.obj
 0001:0004f522       ?process@?$output_processor@DV?$stream_output_adapter@D@__crt_stdio_output@@V?$format_validation_base@DV?$stream_output_adapter@D@__crt_stdio_output@@@2@@__crt_stdio_output@@QAEHXZ 10050522 f i libucrt:output.obj
 0001:0004f646       ?process@?$output_processor@DV?$stream_output_adapter@D@__crt_stdio_output@@V?$positional_parameter_base@DV?$stream_output_adapter@D@__crt_stdio_output@@@2@@__crt_stdio_output@@QAEHXZ 10050646 f i libucrt:output.obj
 0001:0004f776       ?process@?$output_processor@DV?$stream_output_adapter@D@__crt_stdio_output@@V?$standard_base@DV?$stream_output_adapter@D@__crt_stdio_output@@@2@@__crt_stdio_output@@QAEHXZ 10050776 f i libucrt:output.obj
 0001:0004f88a       ?process@?$output_processor@DV?$string_output_adapter@D@__crt_stdio_output@@V?$format_validation_base@DV?$string_output_adapter@D@__crt_stdio_output@@@2@@__crt_stdio_output@@QAEHXZ 1005088a f i libucrt:output.obj
 0001:0004f9ae       ?process@?$output_processor@DV?$string_output_adapter@D@__crt_stdio_output@@V?$positional_parameter_base@DV?$string_output_adapter@D@__crt_stdio_output@@@2@@__crt_stdio_output@@QAEHXZ 100509ae f i libucrt:output.obj
 0001:0004fade       ?process@?$output_processor@DV?$string_output_adapter@D@__crt_stdio_output@@V?$standard_base@DV?$string_output_adapter@D@__crt_stdio_output@@@2@@__crt_stdio_output@@QAEHXZ 10050ade f i libucrt:output.obj
 0001:0004fbf2       ?process@?$output_processor@_WV?$stream_output_adapter@_W@__crt_stdio_output@@V?$format_validation_base@_WV?$stream_output_adapter@_W@__crt_stdio_output@@@2@@__crt_stdio_output@@QAEHXZ 10050bf2 f i libucrt:output.obj
 0001:0004fd1a       ?process@?$output_processor@_WV?$stream_output_adapter@_W@__crt_stdio_output@@V?$positional_parameter_base@_WV?$stream_output_adapter@_W@__crt_stdio_output@@@2@@__crt_stdio_output@@QAEHXZ 10050d1a f i libucrt:output.obj
 0001:0004fe4e       ?process@?$output_processor@_WV?$stream_output_adapter@_W@__crt_stdio_output@@V?$standard_base@_WV?$stream_output_adapter@_W@__crt_stdio_output@@@2@@__crt_stdio_output@@QAEHXZ 10050e4e f i libucrt:output.obj
 0001:0004ff6a       ?process@?$output_processor@_WV?$string_output_adapter@_W@__crt_stdio_output@@V?$format_validation_base@_WV?$string_output_adapter@_W@__crt_stdio_output@@@2@@__crt_stdio_output@@QAEHXZ 10050f6a f i libucrt:output.obj
 0001:00050092       ?process@?$output_processor@_WV?$string_output_adapter@_W@__crt_stdio_output@@V?$positional_parameter_base@_WV?$string_output_adapter@_W@__crt_stdio_output@@@2@@__crt_stdio_output@@QAEHXZ 10051092 f i libucrt:output.obj
 0001:000501c6       ?process@?$output_processor@_WV?$string_output_adapter@_W@__crt_stdio_output@@V?$standard_base@_WV?$string_output_adapter@_W@__crt_stdio_output@@@2@@__crt_stdio_output@@QAEHXZ 100511c6 f i libucrt:output.obj
 0001:000502e2       ?public_stream@__crt_stdio_stream@@QBEPAU_iobuf@@XZ 100512e2 f i libucrt:output.obj
 0001:000502e5       ?set_flag@?$output_processor@DV?$stream_output_adapter@D@__crt_stdio_output@@V?$format_validation_base@DV?$stream_output_adapter@D@__crt_stdio_output@@@2@@__crt_stdio_output@@AAEXI@Z 100512e5 f i libucrt:output.obj
 0001:000502f4       ?set_flag@?$output_processor@DV?$stream_output_adapter@D@__crt_stdio_output@@V?$positional_parameter_base@DV?$stream_output_adapter@D@__crt_stdio_output@@@2@@__crt_stdio_output@@AAEXI@Z 100512f4 f i libucrt:output.obj
 0001:00050303       ?set_flag@?$output_processor@DV?$stream_output_adapter@D@__crt_stdio_output@@V?$standard_base@DV?$stream_output_adapter@D@__crt_stdio_output@@@2@@__crt_stdio_output@@AAEXI@Z 10051303 f i libucrt:output.obj
 0001:00050312       ?set_flag@?$output_processor@DV?$string_output_adapter@D@__crt_stdio_output@@V?$format_validation_base@DV?$string_output_adapter@D@__crt_stdio_output@@@2@@__crt_stdio_output@@AAEXI@Z 10051312 f i libucrt:output.obj
 0001:00050321       ?set_flag@?$output_processor@DV?$string_output_adapter@D@__crt_stdio_output@@V?$positional_parameter_base@DV?$string_output_adapter@D@__crt_stdio_output@@@2@@__crt_stdio_output@@AAEXI@Z 10051321 f i libucrt:output.obj
 0001:00050330       ?set_flag@?$output_processor@DV?$string_output_adapter@D@__crt_stdio_output@@V?$standard_base@DV?$string_output_adapter@D@__crt_stdio_output@@@2@@__crt_stdio_output@@AAEXI@Z 10051330 f i libucrt:output.obj
 0001:0005033f       ?set_flag@?$output_processor@_WV?$stream_output_adapter@_W@__crt_stdio_output@@V?$format_validation_base@_WV?$stream_output_adapter@_W@__crt_stdio_output@@@2@@__crt_stdio_output@@AAEXI@Z 1005133f f i libucrt:output.obj
 0001:0005034e       ?set_flag@?$output_processor@_WV?$stream_output_adapter@_W@__crt_stdio_output@@V?$positional_parameter_base@_WV?$stream_output_adapter@_W@__crt_stdio_output@@@2@@__crt_stdio_output@@AAEXI@Z 1005134e f i libucrt:output.obj
 0001:0005035d       ?set_flag@?$output_processor@_WV?$stream_output_adapter@_W@__crt_stdio_output@@V?$standard_base@_WV?$stream_output_adapter@_W@__crt_stdio_output@@@2@@__crt_stdio_output@@AAEXI@Z 1005135d f i libucrt:output.obj
 0001:0005036c       ?set_flag@?$output_processor@_WV?$string_output_adapter@_W@__crt_stdio_output@@V?$format_validation_base@_WV?$string_output_adapter@_W@__crt_stdio_output@@@2@@__crt_stdio_output@@AAEXI@Z 1005136c f i libucrt:output.obj
 0001:0005037b       ?set_flag@?$output_processor@_WV?$string_output_adapter@_W@__crt_stdio_output@@V?$positional_parameter_base@_WV?$string_output_adapter@_W@__crt_stdio_output@@@2@@__crt_stdio_output@@AAEXI@Z 1005137b f i libucrt:output.obj
 0001:0005038a       ?set_flag@?$output_processor@_WV?$string_output_adapter@_W@__crt_stdio_output@@V?$standard_base@_WV?$string_output_adapter@_W@__crt_stdio_output@@@2@@__crt_stdio_output@@AAEXI@Z 1005138a f i libucrt:output.obj
 0001:00050399       ?should_format@?$positional_parameter_base@DV?$stream_output_adapter@D@__crt_stdio_output@@@__crt_stdio_output@@IAE_NXZ 10051399 f i libucrt:output.obj
 0001:000503af       ?should_format@?$positional_parameter_base@DV?$string_output_adapter@D@__crt_stdio_output@@@__crt_stdio_output@@IAE_NXZ 100513af f i libucrt:output.obj
 0001:000503c5       ?should_format@?$positional_parameter_base@_WV?$stream_output_adapter@_W@__crt_stdio_output@@@__crt_stdio_output@@IAE_NXZ 100513c5 f i libucrt:output.obj
 0001:000503db       ?should_format@?$positional_parameter_base@_WV?$string_output_adapter@_W@__crt_stdio_output@@@__crt_stdio_output@@IAE_NXZ 100513db f i libucrt:output.obj
 0001:000503f1       ?should_format@?$standard_base@DV?$stream_output_adapter@D@__crt_stdio_output@@@__crt_stdio_output@@IAE_NXZ 100513f1 f i libucrt:output.obj
 0001:000503f4       ?should_format@?$standard_base@DV?$string_output_adapter@D@__crt_stdio_output@@@__crt_stdio_output@@IAE_NXZ 100513f4 f i libucrt:output.obj
 0001:000503f7       ?should_format@?$standard_base@_WV?$stream_output_adapter@_W@__crt_stdio_output@@@__crt_stdio_output@@IAE_NXZ 100513f7 f i libucrt:output.obj
 0001:000503fa       ?should_format@?$standard_base@_WV?$string_output_adapter@_W@__crt_stdio_output@@@__crt_stdio_output@@IAE_NXZ 100513fa f i libucrt:output.obj
 0001:000503fd       ?should_skip_normal_state_processing@?$positional_parameter_base@DV?$stream_output_adapter@D@__crt_stdio_output@@@__crt_stdio_output@@IAE_NXZ 100513fd f i libucrt:output.obj
 0001:00050425       ?should_skip_normal_state_processing@?$positional_parameter_base@DV?$string_output_adapter@D@__crt_stdio_output@@@__crt_stdio_output@@IAE_NXZ 10051425 f i libucrt:output.obj
 0001:0005044d       ?should_skip_normal_state_processing@?$positional_parameter_base@_WV?$stream_output_adapter@_W@__crt_stdio_output@@@__crt_stdio_output@@IAE_NXZ 1005144d f i libucrt:output.obj
 0001:00050475       ?should_skip_normal_state_processing@?$positional_parameter_base@_WV?$string_output_adapter@_W@__crt_stdio_output@@@__crt_stdio_output@@IAE_NXZ 10051475 f i libucrt:output.obj
 0001:0005049d       ?should_skip_normal_state_processing@?$standard_base@DV?$stream_output_adapter@D@__crt_stdio_output@@@__crt_stdio_output@@IAE_NXZ 1005149d f i libucrt:output.obj
 0001:000504a0       ?should_skip_normal_state_processing@?$standard_base@DV?$string_output_adapter@D@__crt_stdio_output@@@__crt_stdio_output@@IAE_NXZ 100514a0 f i libucrt:output.obj
 0001:000504a3       ?should_skip_normal_state_processing@?$standard_base@_WV?$stream_output_adapter@_W@__crt_stdio_output@@@__crt_stdio_output@@IAE_NXZ 100514a3 f i libucrt:output.obj
 0001:000504a6       ?should_skip_normal_state_processing@?$standard_base@_WV?$string_output_adapter@_W@__crt_stdio_output@@@__crt_stdio_output@@IAE_NXZ 100514a6 f i libucrt:output.obj
 0001:000504a9       ?should_skip_type_state_output@?$positional_parameter_base@DV?$stream_output_adapter@D@__crt_stdio_output@@@__crt_stdio_output@@IBE_NXZ 100514a9 f i libucrt:output.obj
 0001:000504c0       ?should_skip_type_state_output@?$positional_parameter_base@DV?$string_output_adapter@D@__crt_stdio_output@@@__crt_stdio_output@@IBE_NXZ 100514c0 f i libucrt:output.obj
 0001:000504d7       ?should_skip_type_state_output@?$positional_parameter_base@_WV?$stream_output_adapter@_W@__crt_stdio_output@@@__crt_stdio_output@@IBE_NXZ 100514d7 f i libucrt:output.obj
 0001:000504ee       ?should_skip_type_state_output@?$positional_parameter_base@_WV?$string_output_adapter@_W@__crt_stdio_output@@@__crt_stdio_output@@IBE_NXZ 100514ee f i libucrt:output.obj
 0001:00050505       ?should_skip_type_state_output@?$standard_base@DV?$stream_output_adapter@D@__crt_stdio_output@@@__crt_stdio_output@@IBE_NXZ 10051505 f i libucrt:output.obj
 0001:00050508       ?should_skip_type_state_output@?$standard_base@DV?$string_output_adapter@D@__crt_stdio_output@@@__crt_stdio_output@@IBE_NXZ 10051508 f i libucrt:output.obj
 0001:0005050b       ?should_skip_type_state_output@?$standard_base@_WV?$stream_output_adapter@_W@__crt_stdio_output@@@__crt_stdio_output@@IBE_NXZ 1005150b f i libucrt:output.obj
 0001:0005050e       ?should_skip_type_state_output@?$standard_base@_WV?$string_output_adapter@_W@__crt_stdio_output@@@__crt_stdio_output@@IBE_NXZ 1005150e f i libucrt:output.obj
 0001:00050511       ?state_case_dot@?$output_processor@DV?$stream_output_adapter@D@__crt_stdio_output@@V?$format_validation_base@DV?$stream_output_adapter@D@__crt_stdio_output@@@2@@__crt_stdio_output@@AAE_NXZ 10051511 f i libucrt:output.obj
 0001:00050518       ?state_case_dot@?$output_processor@DV?$stream_output_adapter@D@__crt_stdio_output@@V?$positional_parameter_base@DV?$stream_output_adapter@D@__crt_stdio_output@@@2@@__crt_stdio_output@@AAE_NXZ 10051518 f i libucrt:output.obj
 0001:0005051f       ?state_case_dot@?$output_processor@DV?$stream_output_adapter@D@__crt_stdio_output@@V?$standard_base@DV?$stream_output_adapter@D@__crt_stdio_output@@@2@@__crt_stdio_output@@AAE_NXZ 1005151f f i libucrt:output.obj
 0001:00050526       ?state_case_dot@?$output_processor@DV?$string_output_adapter@D@__crt_stdio_output@@V?$format_validation_base@DV?$string_output_adapter@D@__crt_stdio_output@@@2@@__crt_stdio_output@@AAE_NXZ 10051526 f i libucrt:output.obj
 0001:0005052d       ?state_case_dot@?$output_processor@DV?$string_output_adapter@D@__crt_stdio_output@@V?$positional_parameter_base@DV?$string_output_adapter@D@__crt_stdio_output@@@2@@__crt_stdio_output@@AAE_NXZ 1005152d f i libucrt:output.obj
 0001:00050534       ?state_case_dot@?$output_processor@DV?$string_output_adapter@D@__crt_stdio_output@@V?$standard_base@DV?$string_output_adapter@D@__crt_stdio_output@@@2@@__crt_stdio_output@@AAE_NXZ 10051534 f i libucrt:output.obj
 0001:0005053b       ?state_case_dot@?$output_processor@_WV?$stream_output_adapter@_W@__crt_stdio_output@@V?$format_validation_base@_WV?$stream_output_adapter@_W@__crt_stdio_output@@@2@@__crt_stdio_output@@AAE_NXZ 1005153b f i libucrt:output.obj
 0001:00050542       ?state_case_dot@?$output_processor@_WV?$stream_output_adapter@_W@__crt_stdio_output@@V?$positional_parameter_base@_WV?$stream_output_adapter@_W@__crt_stdio_output@@@2@@__crt_stdio_output@@AAE_NXZ 10051542 f i libucrt:output.obj
 0001:00050549       ?state_case_dot@?$output_processor@_WV?$stream_output_adapter@_W@__crt_stdio_output@@V?$standard_base@_WV?$stream_output_adapter@_W@__crt_stdio_output@@@2@@__crt_stdio_output@@AAE_NXZ 10051549 f i libucrt:output.obj
 0001:00050550       ?state_case_dot@?$output_processor@_WV?$string_output_adapter@_W@__crt_stdio_output@@V?$format_validation_base@_WV?$string_output_adapter@_W@__crt_stdio_output@@@2@@__crt_stdio_output@@AAE_NXZ 10051550 f i libucrt:output.obj
 0001:00050557       ?state_case_dot@?$output_processor@_WV?$string_output_adapter@_W@__crt_stdio_output@@V?$positional_parameter_base@_WV?$string_output_adapter@_W@__crt_stdio_output@@@2@@__crt_stdio_output@@AAE_NXZ 10051557 f i libucrt:output.obj
 0001:0005055e       ?state_case_dot@?$output_processor@_WV?$string_output_adapter@_W@__crt_stdio_output@@V?$standard_base@_WV?$string_output_adapter@_W@__crt_stdio_output@@@2@@__crt_stdio_output@@AAE_NXZ 1005155e f i libucrt:output.obj
 0001:00050565       ?state_case_flag@?$output_processor@DV?$stream_output_adapter@D@__crt_stdio_output@@V?$format_validation_base@DV?$stream_output_adapter@D@__crt_stdio_output@@@2@@__crt_stdio_output@@AAE_NXZ 10051565 f i libucrt:output.obj
 0001:000505a2       ?state_case_flag@?$output_processor@DV?$stream_output_adapter@D@__crt_stdio_output@@V?$positional_parameter_base@DV?$stream_output_adapter@D@__crt_stdio_output@@@2@@__crt_stdio_output@@AAE_NXZ 100515a2 f i libucrt:output.obj
 0001:000505df       ?state_case_flag@?$output_processor@DV?$stream_output_adapter@D@__crt_stdio_output@@V?$standard_base@DV?$stream_output_adapter@D@__crt_stdio_output@@@2@@__crt_stdio_output@@AAE_NXZ 100515df f i libucrt:output.obj
 0001:0005061c       ?state_case_flag@?$output_processor@DV?$string_output_adapter@D@__crt_stdio_output@@V?$format_validation_base@DV?$string_output_adapter@D@__crt_stdio_output@@@2@@__crt_stdio_output@@AAE_NXZ 1005161c f i libucrt:output.obj
 0001:00050659       ?state_case_flag@?$output_processor@DV?$string_output_adapter@D@__crt_stdio_output@@V?$positional_parameter_base@DV?$string_output_adapter@D@__crt_stdio_output@@@2@@__crt_stdio_output@@AAE_NXZ 10051659 f i libucrt:output.obj
 0001:00050696       ?state_case_flag@?$output_processor@DV?$string_output_adapter@D@__crt_stdio_output@@V?$standard_base@DV?$string_output_adapter@D@__crt_stdio_output@@@2@@__crt_stdio_output@@AAE_NXZ 10051696 f i libucrt:output.obj
 0001:000506d3       ?state_case_flag@?$output_processor@_WV?$stream_output_adapter@_W@__crt_stdio_output@@V?$format_validation_base@_WV?$stream_output_adapter@_W@__crt_stdio_output@@@2@@__crt_stdio_output@@AAE_NXZ 100516d3 f i libucrt:output.obj
 0001:00050710       ?state_case_flag@?$output_processor@_WV?$stream_output_adapter@_W@__crt_stdio_output@@V?$positional_parameter_base@_WV?$stream_output_adapter@_W@__crt_stdio_output@@@2@@__crt_stdio_output@@AAE_NXZ 10051710 f i libucrt:output.obj
 0001:0005074d       ?state_case_flag@?$output_processor@_WV?$stream_output_adapter@_W@__crt_stdio_output@@V?$standard_base@_WV?$stream_output_adapter@_W@__crt_stdio_output@@@2@@__crt_stdio_output@@AAE_NXZ 1005174d f i libucrt:output.obj
 0001:0005078a       ?state_case_flag@?$output_processor@_WV?$string_output_adapter@_W@__crt_stdio_output@@V?$format_validation_base@_WV?$string_output_adapter@_W@__crt_stdio_output@@@2@@__crt_stdio_output@@AAE_NXZ 1005178a f i libucrt:output.obj
 0001:000507c7       ?state_case_flag@?$output_processor@_WV?$string_output_adapter@_W@__crt_stdio_output@@V?$positional_parameter_base@_WV?$string_output_adapter@_W@__crt_stdio_output@@@2@@__crt_stdio_output@@AAE_NXZ 100517c7 f i libucrt:output.obj
 0001:00050804       ?state_case_flag@?$output_processor@_WV?$string_output_adapter@_W@__crt_stdio_output@@V?$standard_base@_WV?$string_output_adapter@_W@__crt_stdio_output@@@2@@__crt_stdio_output@@AAE_NXZ 10051804 f i libucrt:output.obj
 0001:00050841       ?state_case_normal@?$output_processor@DV?$stream_output_adapter@D@__crt_stdio_output@@V?$format_validation_base@DV?$stream_output_adapter@D@__crt_stdio_output@@@2@@__crt_stdio_output@@AAE_NXZ 10051841 f i libucrt:output.obj
 0001:00050860       ?state_case_normal@?$output_processor@DV?$stream_output_adapter@D@__crt_stdio_output@@V?$positional_parameter_base@DV?$stream_output_adapter@D@__crt_stdio_output@@@2@@__crt_stdio_output@@AAE_NXZ 10051860 f i libucrt:output.obj
 0001:00050891       ?state_case_normal@?$output_processor@DV?$stream_output_adapter@D@__crt_stdio_output@@V?$standard_base@DV?$stream_output_adapter@D@__crt_stdio_output@@@2@@__crt_stdio_output@@AAE_NXZ 10051891 f i libucrt:output.obj
 0001:000508b0       ?state_case_normal@?$output_processor@DV?$string_output_adapter@D@__crt_stdio_output@@V?$format_validation_base@DV?$string_output_adapter@D@__crt_stdio_output@@@2@@__crt_stdio_output@@AAE_NXZ 100518b0 f i libucrt:output.obj
 0001:000508cf       ?state_case_normal@?$output_processor@DV?$string_output_adapter@D@__crt_stdio_output@@V?$positional_parameter_base@DV?$string_output_adapter@D@__crt_stdio_output@@@2@@__crt_stdio_output@@AAE_NXZ 100518cf f i libucrt:output.obj
 0001:00050900       ?state_case_normal@?$output_processor@DV?$string_output_adapter@D@__crt_stdio_output@@V?$standard_base@DV?$string_output_adapter@D@__crt_stdio_output@@@2@@__crt_stdio_output@@AAE_NXZ 10051900 f i libucrt:output.obj
 0001:0005091f       ?state_case_normal@?$output_processor@_WV?$stream_output_adapter@_W@__crt_stdio_output@@V?$format_validation_base@_WV?$stream_output_adapter@_W@__crt_stdio_output@@@2@@__crt_stdio_output@@AAE_NXZ 1005191f f i libucrt:output.obj
 0001:0005093e       ?state_case_normal@?$output_processor@_WV?$stream_output_adapter@_W@__crt_stdio_output@@V?$positional_parameter_base@_WV?$stream_output_adapter@_W@__crt_stdio_output@@@2@@__crt_stdio_output@@AAE_NXZ 1005193e f i libucrt:output.obj
 0001:0005096f       ?state_case_normal@?$output_processor@_WV?$stream_output_adapter@_W@__crt_stdio_output@@V?$standard_base@_WV?$stream_output_adapter@_W@__crt_stdio_output@@@2@@__crt_stdio_output@@AAE_NXZ 1005196f f i libucrt:output.obj
 0001:0005098e       ?state_case_normal@?$output_processor@_WV?$string_output_adapter@_W@__crt_stdio_output@@V?$format_validation_base@_WV?$string_output_adapter@_W@__crt_stdio_output@@@2@@__crt_stdio_output@@AAE_NXZ 1005198e f i libucrt:output.obj
 0001:000509ad       ?state_case_normal@?$output_processor@_WV?$string_output_adapter@_W@__crt_stdio_output@@V?$positional_parameter_base@_WV?$string_output_adapter@_W@__crt_stdio_output@@@2@@__crt_stdio_output@@AAE_NXZ 100519ad f i libucrt:output.obj
 0001:000509de       ?state_case_normal@?$output_processor@_WV?$string_output_adapter@_W@__crt_stdio_output@@V?$standard_base@_WV?$string_output_adapter@_W@__crt_stdio_output@@@2@@__crt_stdio_output@@AAE_NXZ 100519de f i libucrt:output.obj
 0001:000509fd       ?state_case_normal_common@?$output_processor@DV?$stream_output_adapter@D@__crt_stdio_output@@V?$format_validation_base@DV?$stream_output_adapter@D@__crt_stdio_output@@@2@@__crt_stdio_output@@AAE_NXZ 100519fd f i libucrt:output.obj
 0001:00050a37       ?state_case_normal_common@?$output_processor@DV?$stream_output_adapter@D@__crt_stdio_output@@V?$positional_parameter_base@DV?$stream_output_adapter@D@__crt_stdio_output@@@2@@__crt_stdio_output@@AAE_NXZ 10051a37 f i libucrt:output.obj
 0001:00050a71       ?state_case_normal_common@?$output_processor@DV?$stream_output_adapter@D@__crt_stdio_output@@V?$standard_base@DV?$stream_output_adapter@D@__crt_stdio_output@@@2@@__crt_stdio_output@@AAE_NXZ 10051a71 f i libucrt:output.obj
 0001:00050aab       ?state_case_normal_common@?$output_processor@DV?$string_output_adapter@D@__crt_stdio_output@@V?$format_validation_base@DV?$string_output_adapter@D@__crt_stdio_output@@@2@@__crt_stdio_output@@AAE_NXZ 10051aab f i libucrt:output.obj
 0001:00050ad5       ?state_case_normal_common@?$output_processor@DV?$string_output_adapter@D@__crt_stdio_output@@V?$positional_parameter_base@DV?$string_output_adapter@D@__crt_stdio_output@@@2@@__crt_stdio_output@@AAE_NXZ 10051ad5 f i libucrt:output.obj
 0001:00050aff       ?state_case_normal_common@?$output_processor@DV?$string_output_adapter@D@__crt_stdio_output@@V?$standard_base@DV?$string_output_adapter@D@__crt_stdio_output@@@2@@__crt_stdio_output@@AAE_NXZ 10051aff f i libucrt:output.obj
 0001:00050b29       ?state_case_normal_common@?$output_processor@_WV?$stream_output_adapter@_W@__crt_stdio_output@@V?$format_validation_base@_WV?$stream_output_adapter@_W@__crt_stdio_output@@@2@@__crt_stdio_output@@AAE_NXZ 10051b29 f i libucrt:output.obj
 0001:00050b53       ?state_case_normal_common@?$output_processor@_WV?$stream_output_adapter@_W@__crt_stdio_output@@V?$positional_parameter_base@_WV?$stream_output_adapter@_W@__crt_stdio_output@@@2@@__crt_stdio_output@@AAE_NXZ 10051b53 f i libucrt:output.obj
 0001:00050b7d       ?state_case_normal_common@?$output_processor@_WV?$stream_output_adapter@_W@__crt_stdio_output@@V?$standard_base@_WV?$stream_output_adapter@_W@__crt_stdio_output@@@2@@__crt_stdio_output@@AAE_NXZ 10051b7d f i libucrt:output.obj
 0001:00050ba7       ?state_case_normal_common@?$output_processor@_WV?$string_output_adapter@_W@__crt_stdio_output@@V?$format_validation_base@_WV?$string_output_adapter@_W@__crt_stdio_output@@@2@@__crt_stdio_output@@AAE_NXZ 10051ba7 f i libucrt:output.obj
 0001:00050bc2       ?state_case_normal_common@?$output_processor@_WV?$string_output_adapter@_W@__crt_stdio_output@@V?$positional_parameter_base@_WV?$string_output_adapter@_W@__crt_stdio_output@@@2@@__crt_stdio_output@@AAE_NXZ 10051bc2 f i libucrt:output.obj
 0001:00050bdd       ?state_case_normal_common@?$output_processor@_WV?$string_output_adapter@_W@__crt_stdio_output@@V?$standard_base@_WV?$string_output_adapter@_W@__crt_stdio_output@@@2@@__crt_stdio_output@@AAE_NXZ 10051bdd f i libucrt:output.obj
 0001:00050bf8       ?state_case_normal_tchar@?$output_processor@DV?$stream_output_adapter@D@__crt_stdio_output@@V?$format_validation_base@DV?$stream_output_adapter@D@__crt_stdio_output@@@2@@__crt_stdio_output@@AAE_ND@Z 10051bf8 f i libucrt:output.obj
 0001:00050c65       ?state_case_normal_tchar@?$output_processor@DV?$stream_output_adapter@D@__crt_stdio_output@@V?$positional_parameter_base@DV?$stream_output_adapter@D@__crt_stdio_output@@@2@@__crt_stdio_output@@AAE_ND@Z 10051c65 f i libucrt:output.obj
 0001:00050cd2       ?state_case_normal_tchar@?$output_processor@DV?$stream_output_adapter@D@__crt_stdio_output@@V?$standard_base@DV?$stream_output_adapter@D@__crt_stdio_output@@@2@@__crt_stdio_output@@AAE_ND@Z 10051cd2 f i libucrt:output.obj
 0001:00050d3f       ?state_case_normal_tchar@?$output_processor@DV?$string_output_adapter@D@__crt_stdio_output@@V?$format_validation_base@DV?$string_output_adapter@D@__crt_stdio_output@@@2@@__crt_stdio_output@@AAE_ND@Z 10051d3f f i libucrt:output.obj
 0001:00050da3       ?state_case_normal_tchar@?$output_processor@DV?$string_output_adapter@D@__crt_stdio_output@@V?$positional_parameter_base@DV?$string_output_adapter@D@__crt_stdio_output@@@2@@__crt_stdio_output@@AAE_ND@Z 10051da3 f i libucrt:output.obj
 0001:00050e07       ?state_case_normal_tchar@?$output_processor@DV?$string_output_adapter@D@__crt_stdio_output@@V?$standard_base@DV?$string_output_adapter@D@__crt_stdio_output@@@2@@__crt_stdio_output@@AAE_ND@Z 10051e07 f i libucrt:output.obj
 0001:00050e6b       ?state_case_normal_tchar@?$output_processor@_WV?$stream_output_adapter@_W@__crt_stdio_output@@V?$format_validation_base@_WV?$stream_output_adapter@_W@__crt_stdio_output@@@2@@__crt_stdio_output@@AAE_N_W@Z 10051e6b f i libucrt:output.obj
 0001:00050e74       ?state_case_normal_tchar@?$output_processor@_WV?$stream_output_adapter@_W@__crt_stdio_output@@V?$positional_parameter_base@_WV?$stream_output_adapter@_W@__crt_stdio_output@@@2@@__crt_stdio_output@@AAE_N_W@Z 10051e74 f i libucrt:output.obj
 0001:00050e7d       ?state_case_normal_tchar@?$output_processor@_WV?$stream_output_adapter@_W@__crt_stdio_output@@V?$standard_base@_WV?$stream_output_adapter@_W@__crt_stdio_output@@@2@@__crt_stdio_output@@AAE_N_W@Z 10051e7d f i libucrt:output.obj
 0001:00050e86       ?state_case_normal_tchar@?$output_processor@_WV?$string_output_adapter@_W@__crt_stdio_output@@V?$format_validation_base@_WV?$string_output_adapter@_W@__crt_stdio_output@@@2@@__crt_stdio_output@@AAE_N_W@Z 10051e86 f i libucrt:output.obj
 0001:00050e8f       ?state_case_normal_tchar@?$output_processor@_WV?$string_output_adapter@_W@__crt_stdio_output@@V?$positional_parameter_base@_WV?$string_output_adapter@_W@__crt_stdio_output@@@2@@__crt_stdio_output@@AAE_N_W@Z 10051e8f f i libucrt:output.obj
 0001:00050e98       ?state_case_normal_tchar@?$output_processor@_WV?$string_output_adapter@_W@__crt_stdio_output@@V?$standard_base@_WV?$string_output_adapter@_W@__crt_stdio_output@@@2@@__crt_stdio_output@@AAE_N_W@Z 10051e98 f i libucrt:output.obj
 0001:00050ea1       ?state_case_percent@?$output_processor@DV?$stream_output_adapter@D@__crt_stdio_output@@V?$format_validation_base@DV?$stream_output_adapter@D@__crt_stdio_output@@@2@@__crt_stdio_output@@AAE_NXZ 10051ea1 f i libucrt:output.obj
 0001:00050eb9       ?state_case_percent@?$output_processor@DV?$stream_output_adapter@D@__crt_stdio_output@@V?$positional_parameter_base@DV?$stream_output_adapter@D@__crt_stdio_output@@@2@@__crt_stdio_output@@AAE_NXZ 10051eb9 f i libucrt:output.obj
 0001:00050ed1       ?state_case_percent@?$output_processor@DV?$stream_output_adapter@D@__crt_stdio_output@@V?$standard_base@DV?$stream_output_adapter@D@__crt_stdio_output@@@2@@__crt_stdio_output@@AAE_NXZ 10051ed1 f i libucrt:output.obj
 0001:00050ee9       ?state_case_percent@?$output_processor@DV?$string_output_adapter@D@__crt_stdio_output@@V?$format_validation_base@DV?$string_output_adapter@D@__crt_stdio_output@@@2@@__crt_stdio_output@@AAE_NXZ 10051ee9 f i libucrt:output.obj
 0001:00050f01       ?state_case_percent@?$output_processor@DV?$string_output_adapter@D@__crt_stdio_output@@V?$positional_parameter_base@DV?$string_output_adapter@D@__crt_stdio_output@@@2@@__crt_stdio_output@@AAE_NXZ 10051f01 f i libucrt:output.obj
 0001:00050f19       ?state_case_percent@?$output_processor@DV?$string_output_adapter@D@__crt_stdio_output@@V?$standard_base@DV?$string_output_adapter@D@__crt_stdio_output@@@2@@__crt_stdio_output@@AAE_NXZ 10051f19 f i libucrt:output.obj
 0001:00050f31       ?state_case_percent@?$output_processor@_WV?$stream_output_adapter@_W@__crt_stdio_output@@V?$format_validation_base@_WV?$stream_output_adapter@_W@__crt_stdio_output@@@2@@__crt_stdio_output@@AAE_NXZ 10051f31 f i libucrt:output.obj
 0001:00050f49       ?state_case_percent@?$output_processor@_WV?$stream_output_adapter@_W@__crt_stdio_output@@V?$positional_parameter_base@_WV?$stream_output_adapter@_W@__crt_stdio_output@@@2@@__crt_stdio_output@@AAE_NXZ 10051f49 f i libucrt:output.obj
 0001:00050f61       ?state_case_percent@?$output_processor@_WV?$stream_output_adapter@_W@__crt_stdio_output@@V?$standard_base@_WV?$stream_output_adapter@_W@__crt_stdio_output@@@2@@__crt_stdio_output@@AAE_NXZ 10051f61 f i libucrt:output.obj
 0001:00050f79       ?state_case_percent@?$output_processor@_WV?$string_output_adapter@_W@__crt_stdio_output@@V?$format_validation_base@_WV?$string_output_adapter@_W@__crt_stdio_output@@@2@@__crt_stdio_output@@AAE_NXZ 10051f79 f i libucrt:output.obj
 0001:00050f91       ?state_case_percent@?$output_processor@_WV?$string_output_adapter@_W@__crt_stdio_output@@V?$positional_parameter_base@_WV?$string_output_adapter@_W@__crt_stdio_output@@@2@@__crt_stdio_output@@AAE_NXZ 10051f91 f i libucrt:output.obj
 0001:00050fa9       ?state_case_percent@?$output_processor@_WV?$string_output_adapter@_W@__crt_stdio_output@@V?$standard_base@_WV?$string_output_adapter@_W@__crt_stdio_output@@@2@@__crt_stdio_output@@AAE_NXZ 10051fa9 f i libucrt:output.obj
 0001:00050fc1       ?state_case_precision@?$output_processor@DV?$stream_output_adapter@D@__crt_stdio_output@@V?$format_validation_base@DV?$stream_output_adapter@D@__crt_stdio_output@@@2@@__crt_stdio_output@@AAE_NXZ 10051fc1 f i libucrt:output.obj
 0001:00050fe7       ?state_case_precision@?$output_processor@DV?$stream_output_adapter@D@__crt_stdio_output@@V?$positional_parameter_base@DV?$stream_output_adapter@D@__crt_stdio_output@@@2@@__crt_stdio_output@@AAE_NXZ 10051fe7 f i libucrt:output.obj
 0001:00051021       ?state_case_precision@?$output_processor@DV?$stream_output_adapter@D@__crt_stdio_output@@V?$standard_base@DV?$stream_output_adapter@D@__crt_stdio_output@@@2@@__crt_stdio_output@@AAE_NXZ 10052021 f i libucrt:output.obj
 0001:00051047       ?state_case_precision@?$output_processor@DV?$string_output_adapter@D@__crt_stdio_output@@V?$format_validation_base@DV?$string_output_adapter@D@__crt_stdio_output@@@2@@__crt_stdio_output@@AAE_NXZ 10052047 f i libucrt:output.obj
 0001:0005106d       ?state_case_precision@?$output_processor@DV?$string_output_adapter@D@__crt_stdio_output@@V?$positional_parameter_base@DV?$string_output_adapter@D@__crt_stdio_output@@@2@@__crt_stdio_output@@AAE_NXZ 1005206d f i libucrt:output.obj
 0001:000510a7       ?state_case_precision@?$output_processor@DV?$string_output_adapter@D@__crt_stdio_output@@V?$standard_base@DV?$string_output_adapter@D@__crt_stdio_output@@@2@@__crt_stdio_output@@AAE_NXZ 100520a7 f i libucrt:output.obj
 0001:000510cd       ?state_case_precision@?$output_processor@_WV?$stream_output_adapter@_W@__crt_stdio_output@@V?$format_validation_base@_WV?$stream_output_adapter@_W@__crt_stdio_output@@@2@@__crt_stdio_output@@AAE_NXZ 100520cd f i libucrt:output.obj
 0001:000510f4       ?state_case_precision@?$output_processor@_WV?$stream_output_adapter@_W@__crt_stdio_output@@V?$positional_parameter_base@_WV?$stream_output_adapter@_W@__crt_stdio_output@@@2@@__crt_stdio_output@@AAE_NXZ 100520f4 f i libucrt:output.obj
 0001:0005112f       ?state_case_precision@?$output_processor@_WV?$stream_output_adapter@_W@__crt_stdio_output@@V?$standard_base@_WV?$stream_output_adapter@_W@__crt_stdio_output@@@2@@__crt_stdio_output@@AAE_NXZ 1005212f f i libucrt:output.obj
 0001:00051156       ?state_case_precision@?$output_processor@_WV?$string_output_adapter@_W@__crt_stdio_output@@V?$format_validation_base@_WV?$string_output_adapter@_W@__crt_stdio_output@@@2@@__crt_stdio_output@@AAE_NXZ 10052156 f i libucrt:output.obj
 0001:0005117d       ?state_case_precision@?$output_processor@_WV?$string_output_adapter@_W@__crt_stdio_output@@V?$positional_parameter_base@_WV?$string_output_adapter@_W@__crt_stdio_output@@@2@@__crt_stdio_output@@AAE_NXZ 1005217d f i libucrt:output.obj
 0001:000511b8       ?state_case_precision@?$output_processor@_WV?$string_output_adapter@_W@__crt_stdio_output@@V?$standard_base@_WV?$string_output_adapter@_W@__crt_stdio_output@@@2@@__crt_stdio_output@@AAE_NXZ 100521b8 f i libucrt:output.obj
 0001:000511df       ?state_case_size@?$output_processor@DV?$stream_output_adapter@D@__crt_stdio_output@@V?$format_validation_base@DV?$stream_output_adapter@D@__crt_stdio_output@@@2@@__crt_stdio_output@@AAE_NXZ 100521df f i libucrt:output.obj
 0001:0005132d       ?state_case_size@?$output_processor@DV?$stream_output_adapter@D@__crt_stdio_output@@V?$positional_parameter_base@DV?$stream_output_adapter@D@__crt_stdio_output@@@2@@__crt_stdio_output@@AAE_NXZ 1005232d f i libucrt:output.obj
 0001:0005147b       ?state_case_size@?$output_processor@DV?$stream_output_adapter@D@__crt_stdio_output@@V?$standard_base@DV?$stream_output_adapter@D@__crt_stdio_output@@@2@@__crt_stdio_output@@AAE_NXZ 1005247b f i libucrt:output.obj
 0001:000515c9       ?state_case_size@?$output_processor@DV?$string_output_adapter@D@__crt_stdio_output@@V?$format_validation_base@DV?$string_output_adapter@D@__crt_stdio_output@@@2@@__crt_stdio_output@@AAE_NXZ 100525c9 f i libucrt:output.obj
 0001:00051717       ?state_case_size@?$output_processor@DV?$string_output_adapter@D@__crt_stdio_output@@V?$positional_parameter_base@DV?$string_output_adapter@D@__crt_stdio_output@@@2@@__crt_stdio_output@@AAE_NXZ 10052717 f i libucrt:output.obj
 0001:00051865       ?state_case_size@?$output_processor@DV?$string_output_adapter@D@__crt_stdio_output@@V?$standard_base@DV?$string_output_adapter@D@__crt_stdio_output@@@2@@__crt_stdio_output@@AAE_NXZ 10052865 f i libucrt:output.obj
 0001:000519b3       ?state_case_size@?$output_processor@_WV?$stream_output_adapter@_W@__crt_stdio_output@@V?$format_validation_base@_WV?$stream_output_adapter@_W@__crt_stdio_output@@@2@@__crt_stdio_output@@AAE_NXZ 100529b3 f i libucrt:output.obj
 0001:00051b2b       ?state_case_size@?$output_processor@_WV?$stream_output_adapter@_W@__crt_stdio_output@@V?$positional_parameter_base@_WV?$stream_output_adapter@_W@__crt_stdio_output@@@2@@__crt_stdio_output@@AAE_NXZ 10052b2b f i libucrt:output.obj
 0001:00051ca3       ?state_case_size@?$output_processor@_WV?$stream_output_adapter@_W@__crt_stdio_output@@V?$standard_base@_WV?$stream_output_adapter@_W@__crt_stdio_output@@@2@@__crt_stdio_output@@AAE_NXZ 10052ca3 f i libucrt:output.obj
 0001:00051e1b       ?state_case_size@?$output_processor@_WV?$string_output_adapter@_W@__crt_stdio_output@@V?$format_validation_base@_WV?$string_output_adapter@_W@__crt_stdio_output@@@2@@__crt_stdio_output@@AAE_NXZ 10052e1b f i libucrt:output.obj
 0001:00051f93       ?state_case_size@?$output_processor@_WV?$string_output_adapter@_W@__crt_stdio_output@@V?$positional_parameter_base@_WV?$string_output_adapter@_W@__crt_stdio_output@@@2@@__crt_stdio_output@@AAE_NXZ 10052f93 f i libucrt:output.obj
 0001:0005210b       ?state_case_size@?$output_processor@_WV?$string_output_adapter@_W@__crt_stdio_output@@V?$standard_base@_WV?$string_output_adapter@_W@__crt_stdio_output@@@2@@__crt_stdio_output@@AAE_NXZ 1005310b f i libucrt:output.obj
 0001:00052283       ?state_case_type@?$output_processor@DV?$stream_output_adapter@D@__crt_stdio_output@@V?$format_validation_base@DV?$stream_output_adapter@D@__crt_stdio_output@@@2@@__crt_stdio_output@@AAE_NXZ 10053283 f i libucrt:output.obj
 0001:000524b5       ?state_case_type@?$output_processor@DV?$stream_output_adapter@D@__crt_stdio_output@@V?$positional_parameter_base@DV?$stream_output_adapter@D@__crt_stdio_output@@@2@@__crt_stdio_output@@AAE_NXZ 100534b5 f i libucrt:output.obj
 0001:000526f6       ?state_case_type@?$output_processor@DV?$stream_output_adapter@D@__crt_stdio_output@@V?$standard_base@DV?$stream_output_adapter@D@__crt_stdio_output@@@2@@__crt_stdio_output@@AAE_NXZ 100536f6 f i libucrt:output.obj
 0001:00052928       ?state_case_type@?$output_processor@DV?$string_output_adapter@D@__crt_stdio_output@@V?$format_validation_base@DV?$string_output_adapter@D@__crt_stdio_output@@@2@@__crt_stdio_output@@AAE_NXZ 10053928 f i libucrt:output.obj
 0001:00052b5a       ?state_case_type@?$output_processor@DV?$string_output_adapter@D@__crt_stdio_output@@V?$positional_parameter_base@DV?$string_output_adapter@D@__crt_stdio_output@@@2@@__crt_stdio_output@@AAE_NXZ 10053b5a f i libucrt:output.obj
 0001:00052d9b       ?state_case_type@?$output_processor@DV?$string_output_adapter@D@__crt_stdio_output@@V?$standard_base@DV?$string_output_adapter@D@__crt_stdio_output@@@2@@__crt_stdio_output@@AAE_NXZ 10053d9b f i libucrt:output.obj
 0001:00052fcd       ?state_case_type@?$output_processor@_WV?$stream_output_adapter@_W@__crt_stdio_output@@V?$format_validation_base@_WV?$stream_output_adapter@_W@__crt_stdio_output@@@2@@__crt_stdio_output@@AAE_NXZ 10053fcd f i libucrt:output.obj
 0001:0005322a       ?state_case_type@?$output_processor@_WV?$stream_output_adapter@_W@__crt_stdio_output@@V?$positional_parameter_base@_WV?$stream_output_adapter@_W@__crt_stdio_output@@@2@@__crt_stdio_output@@AAE_NXZ 1005422a f i libucrt:output.obj
 0001:00053496       ?state_case_type@?$output_processor@_WV?$stream_output_adapter@_W@__crt_stdio_output@@V?$standard_base@_WV?$stream_output_adapter@_W@__crt_stdio_output@@@2@@__crt_stdio_output@@AAE_NXZ 10054496 f i libucrt:output.obj
 0001:000536f3       ?state_case_type@?$output_processor@_WV?$string_output_adapter@_W@__crt_stdio_output@@V?$format_validation_base@_WV?$string_output_adapter@_W@__crt_stdio_output@@@2@@__crt_stdio_output@@AAE_NXZ 100546f3 f i libucrt:output.obj
 0001:00053950       ?state_case_type@?$output_processor@_WV?$string_output_adapter@_W@__crt_stdio_output@@V?$positional_parameter_base@_WV?$string_output_adapter@_W@__crt_stdio_output@@@2@@__crt_stdio_output@@AAE_NXZ 10054950 f i libucrt:output.obj
 0001:00053bbc       ?state_case_type@?$output_processor@_WV?$string_output_adapter@_W@__crt_stdio_output@@V?$standard_base@_WV?$string_output_adapter@_W@__crt_stdio_output@@@2@@__crt_stdio_output@@AAE_NXZ 10054bbc f i libucrt:output.obj
 0001:00053e19       ?state_case_width@?$output_processor@DV?$stream_output_adapter@D@__crt_stdio_output@@V?$format_validation_base@DV?$stream_output_adapter@D@__crt_stdio_output@@@2@@__crt_stdio_output@@AAE_NXZ 10054e19 f i libucrt:output.obj
 0001:00053e44       ?state_case_width@?$output_processor@DV?$stream_output_adapter@D@__crt_stdio_output@@V?$positional_parameter_base@DV?$stream_output_adapter@D@__crt_stdio_output@@@2@@__crt_stdio_output@@AAE_NXZ 10054e44 f i libucrt:output.obj
 0001:00053e84       ?state_case_width@?$output_processor@DV?$stream_output_adapter@D@__crt_stdio_output@@V?$standard_base@DV?$stream_output_adapter@D@__crt_stdio_output@@@2@@__crt_stdio_output@@AAE_NXZ 10054e84 f i libucrt:output.obj
 0001:00053eaf       ?state_case_width@?$output_processor@DV?$string_output_adapter@D@__crt_stdio_output@@V?$format_validation_base@DV?$string_output_adapter@D@__crt_stdio_output@@@2@@__crt_stdio_output@@AAE_NXZ 10054eaf f i libucrt:output.obj
 0001:00053eda       ?state_case_width@?$output_processor@DV?$string_output_adapter@D@__crt_stdio_output@@V?$positional_parameter_base@DV?$string_output_adapter@D@__crt_stdio_output@@@2@@__crt_stdio_output@@AAE_NXZ 10054eda f i libucrt:output.obj
 0001:00053f1a       ?state_case_width@?$output_processor@DV?$string_output_adapter@D@__crt_stdio_output@@V?$standard_base@DV?$string_output_adapter@D@__crt_stdio_output@@@2@@__crt_stdio_output@@AAE_NXZ 10054f1a f i libucrt:output.obj
 0001:00053f45       ?state_case_width@?$output_processor@_WV?$stream_output_adapter@_W@__crt_stdio_output@@V?$format_validation_base@_WV?$stream_output_adapter@_W@__crt_stdio_output@@@2@@__crt_stdio_output@@AAE_NXZ 10054f45 f i libucrt:output.obj
 0001:00053f71       ?state_case_width@?$output_processor@_WV?$stream_output_adapter@_W@__crt_stdio_output@@V?$positional_parameter_base@_WV?$stream_output_adapter@_W@__crt_stdio_output@@@2@@__crt_stdio_output@@AAE_NXZ 10054f71 f i libucrt:output.obj
 0001:00053fb2       ?state_case_width@?$output_processor@_WV?$stream_output_adapter@_W@__crt_stdio_output@@V?$standard_base@_WV?$stream_output_adapter@_W@__crt_stdio_output@@@2@@__crt_stdio_output@@AAE_NXZ 10054fb2 f i libucrt:output.obj
 0001:00053fde       ?state_case_width@?$output_processor@_WV?$string_output_adapter@_W@__crt_stdio_output@@V?$format_validation_base@_WV?$string_output_adapter@_W@__crt_stdio_output@@@2@@__crt_stdio_output@@AAE_NXZ 10054fde f i libucrt:output.obj
 0001:0005400a       ?state_case_width@?$output_processor@_WV?$string_output_adapter@_W@__crt_stdio_output@@V?$positional_parameter_base@_WV?$string_output_adapter@_W@__crt_stdio_output@@@2@@__crt_stdio_output@@AAE_NXZ 1005500a f i libucrt:output.obj
 0001:0005404b       ?state_case_width@?$output_processor@_WV?$string_output_adapter@_W@__crt_stdio_output@@V?$standard_base@_WV?$string_output_adapter@_W@__crt_stdio_output@@@2@@__crt_stdio_output@@AAE_NXZ 1005504b f i libucrt:output.obj
 0001:00054077       ?state_count@?$format_validation_base@DV?$stream_output_adapter@D@__crt_stdio_output@@@__crt_stdio_output@@KAIXZ 10055077 f i libucrt:output.obj
 0001:0005407b       ?state_count@?$format_validation_base@DV?$string_output_adapter@D@__crt_stdio_output@@@__crt_stdio_output@@KAIXZ 1005507b f i libucrt:output.obj
 0001:0005407f       ?state_count@?$format_validation_base@_WV?$stream_output_adapter@_W@__crt_stdio_output@@@__crt_stdio_output@@KAIXZ 1005507f f i libucrt:output.obj
 0001:00054083       ?state_count@?$format_validation_base@_WV?$string_output_adapter@_W@__crt_stdio_output@@@__crt_stdio_output@@KAIXZ 10055083 f i libucrt:output.obj
 0001:00054087       ?state_count@?$standard_base@DV?$stream_output_adapter@D@__crt_stdio_output@@@__crt_stdio_output@@KAIXZ 10055087 f i libucrt:output.obj
 0001:0005408b       ?state_count@?$standard_base@DV?$string_output_adapter@D@__crt_stdio_output@@@__crt_stdio_output@@KAIXZ 1005508b f i libucrt:output.obj
 0001:0005408f       ?state_count@?$standard_base@_WV?$stream_output_adapter@_W@__crt_stdio_output@@@__crt_stdio_output@@KAIXZ 1005508f f i libucrt:output.obj
 0001:00054093       ?state_count@?$standard_base@_WV?$string_output_adapter@_W@__crt_stdio_output@@@__crt_stdio_output@@KAIXZ 10055093 f i libucrt:output.obj
 0001:00054097       ?state_transition_table@?$format_validation_base@DV?$stream_output_adapter@D@__crt_stdio_output@@@__crt_stdio_output@@KAABV?$spectre_mitigated_lookup_table@Ustate_transition_pair@__crt_stdio_output@@$0IA@@2@XZ 10055097 f i libucrt:output.obj
 0001:0005409d       ?state_transition_table@?$format_validation_base@DV?$string_output_adapter@D@__crt_stdio_output@@@__crt_stdio_output@@KAABV?$spectre_mitigated_lookup_table@Ustate_transition_pair@__crt_stdio_output@@$0IA@@2@XZ 1005509d f i libucrt:output.obj
 0001:000540a3       ?state_transition_table@?$format_validation_base@_WV?$stream_output_adapter@_W@__crt_stdio_output@@@__crt_stdio_output@@KAABV?$spectre_mitigated_lookup_table@Ustate_transition_pair@__crt_stdio_output@@$0IA@@2@XZ 100550a3 f i libucrt:output.obj
 0001:000540a9       ?state_transition_table@?$format_validation_base@_WV?$string_output_adapter@_W@__crt_stdio_output@@@__crt_stdio_output@@KAABV?$spectre_mitigated_lookup_table@Ustate_transition_pair@__crt_stdio_output@@$0IA@@2@XZ 100550a9 f i libucrt:output.obj
 0001:000540af       ?state_transition_table@?$standard_base@DV?$stream_output_adapter@D@__crt_stdio_output@@@__crt_stdio_output@@KAABV?$spectre_mitigated_lookup_table@Ustate_transition_pair@__crt_stdio_output@@$0IA@@2@XZ 100550af f i libucrt:output.obj
 0001:000540b5       ?state_transition_table@?$standard_base@DV?$string_output_adapter@D@__crt_stdio_output@@@__crt_stdio_output@@KAABV?$spectre_mitigated_lookup_table@Ustate_transition_pair@__crt_stdio_output@@$0IA@@2@XZ 100550b5 f i libucrt:output.obj
 0001:000540bb       ?state_transition_table@?$standard_base@_WV?$stream_output_adapter@_W@__crt_stdio_output@@@__crt_stdio_output@@KAABV?$spectre_mitigated_lookup_table@Ustate_transition_pair@__crt_stdio_output@@$0IA@@2@XZ 100550bb f i libucrt:output.obj
 0001:000540c1       ?state_transition_table@?$standard_base@_WV?$string_output_adapter@_W@__crt_stdio_output@@@__crt_stdio_output@@KAABV?$spectre_mitigated_lookup_table@Ustate_transition_pair@__crt_stdio_output@@$0IA@@2@XZ 100550c1 f i libucrt:output.obj
 0001:000540c7       ?tchar_string@?$common_data@D@__crt_stdio_output@@IAEAAPADD@Z 100550c7 f i libucrt:output.obj
 0001:000540cd       ?tchar_string@?$common_data@D@__crt_stdio_output@@IAEAAPADXZ 100550cd f i libucrt:output.obj
 0001:000540d1       ?tchar_string@?$common_data@_W@__crt_stdio_output@@IAEAAPA_WXZ 100550d1 f i libucrt:output.obj
 0001:000540d5       ?tchar_string@?$common_data@_W@__crt_stdio_output@@IAEAAPA_W_W@Z 100550d5 f i libucrt:output.obj
 0001:000540e0       ?to_integer_size@__crt_stdio_output@@YAIW4length_modifier@1@@Z 100550e0 f i libucrt:output.obj
 0001:0005413c       ?type_case_X@?$output_processor@DV?$stream_output_adapter@D@__crt_stdio_output@@V?$format_validation_base@DV?$stream_output_adapter@D@__crt_stdio_output@@@2@@__crt_stdio_output@@AAE_NXZ 1005513c f i libucrt:output.obj
 0001:00054146       ?type_case_X@?$output_processor@DV?$stream_output_adapter@D@__crt_stdio_output@@V?$positional_parameter_base@DV?$stream_output_adapter@D@__crt_stdio_output@@@2@@__crt_stdio_output@@AAE_NXZ 10055146 f i libucrt:output.obj
 0001:00054150       ?type_case_X@?$output_processor@DV?$stream_output_adapter@D@__crt_stdio_output@@V?$standard_base@DV?$stream_output_adapter@D@__crt_stdio_output@@@2@@__crt_stdio_output@@AAE_NXZ 10055150 f i libucrt:output.obj
 0001:0005415a       ?type_case_X@?$output_processor@DV?$string_output_adapter@D@__crt_stdio_output@@V?$format_validation_base@DV?$string_output_adapter@D@__crt_stdio_output@@@2@@__crt_stdio_output@@AAE_NXZ 1005515a f i libucrt:output.obj
 0001:00054164       ?type_case_X@?$output_processor@DV?$string_output_adapter@D@__crt_stdio_output@@V?$positional_parameter_base@DV?$string_output_adapter@D@__crt_stdio_output@@@2@@__crt_stdio_output@@AAE_NXZ 10055164 f i libucrt:output.obj
 0001:0005416e       ?type_case_X@?$output_processor@DV?$string_output_adapter@D@__crt_stdio_output@@V?$standard_base@DV?$string_output_adapter@D@__crt_stdio_output@@@2@@__crt_stdio_output@@AAE_NXZ 1005516e f i libucrt:output.obj
 0001:00054178       ?type_case_X@?$output_processor@_WV?$stream_output_adapter@_W@__crt_stdio_output@@V?$format_validation_base@_WV?$stream_output_adapter@_W@__crt_stdio_output@@@2@@__crt_stdio_output@@AAE_NXZ 10055178 f i libucrt:output.obj
 0001:00054182       ?type_case_X@?$output_processor@_WV?$stream_output_adapter@_W@__crt_stdio_output@@V?$positional_parameter_base@_WV?$stream_output_adapter@_W@__crt_stdio_output@@@2@@__crt_stdio_output@@AAE_NXZ 10055182 f i libucrt:output.obj
 0001:0005418c       ?type_case_X@?$output_processor@_WV?$stream_output_adapter@_W@__crt_stdio_output@@V?$standard_base@_WV?$stream_output_adapter@_W@__crt_stdio_output@@@2@@__crt_stdio_output@@AAE_NXZ 1005518c f i libucrt:output.obj
 0001:00054196       ?type_case_X@?$output_processor@_WV?$string_output_adapter@_W@__crt_stdio_output@@V?$format_validation_base@_WV?$string_output_adapter@_W@__crt_stdio_output@@@2@@__crt_stdio_output@@AAE_NXZ 10055196 f i libucrt:output.obj
 0001:000541a0       ?type_case_X@?$output_processor@_WV?$string_output_adapter@_W@__crt_stdio_output@@V?$positional_parameter_base@_WV?$string_output_adapter@_W@__crt_stdio_output@@@2@@__crt_stdio_output@@AAE_NXZ 100551a0 f i libucrt:output.obj
 0001:000541aa       ?type_case_X@?$output_processor@_WV?$string_output_adapter@_W@__crt_stdio_output@@V?$standard_base@_WV?$string_output_adapter@_W@__crt_stdio_output@@@2@@__crt_stdio_output@@AAE_NXZ 100551aa f i libucrt:output.obj
 0001:000541b4       ?type_case_Z@?$output_processor@DV?$stream_output_adapter@D@__crt_stdio_output@@V?$format_validation_base@DV?$stream_output_adapter@D@__crt_stdio_output@@@2@@__crt_stdio_output@@AAE_NXZ 100551b4 f i libucrt:output.obj
 0001:0005420e       ?type_case_Z@?$output_processor@DV?$stream_output_adapter@D@__crt_stdio_output@@V?$positional_parameter_base@DV?$stream_output_adapter@D@__crt_stdio_output@@@2@@__crt_stdio_output@@AAE_NXZ 1005520e f i libucrt:output.obj
 0001:00054282       ?type_case_Z@?$output_processor@DV?$stream_output_adapter@D@__crt_stdio_output@@V?$standard_base@DV?$stream_output_adapter@D@__crt_stdio_output@@@2@@__crt_stdio_output@@AAE_NXZ 10055282 f i libucrt:output.obj
 0001:000542dc       ?type_case_Z@?$output_processor@DV?$string_output_adapter@D@__crt_stdio_output@@V?$format_validation_base@DV?$string_output_adapter@D@__crt_stdio_output@@@2@@__crt_stdio_output@@AAE_NXZ 100552dc f i libucrt:output.obj
 0001:00054336       ?type_case_Z@?$output_processor@DV?$string_output_adapter@D@__crt_stdio_output@@V?$positional_parameter_base@DV?$string_output_adapter@D@__crt_stdio_output@@@2@@__crt_stdio_output@@AAE_NXZ 10055336 f i libucrt:output.obj
 0001:000543aa       ?type_case_Z@?$output_processor@DV?$string_output_adapter@D@__crt_stdio_output@@V?$standard_base@DV?$string_output_adapter@D@__crt_stdio_output@@@2@@__crt_stdio_output@@AAE_NXZ 100553aa f i libucrt:output.obj
 0001:00054404       ?type_case_Z@?$output_processor@_WV?$stream_output_adapter@_W@__crt_stdio_output@@V?$format_validation_base@_WV?$stream_output_adapter@_W@__crt_stdio_output@@@2@@__crt_stdio_output@@AAE_NXZ 10055404 f i libucrt:output.obj
 0001:0005445e       ?type_case_Z@?$output_processor@_WV?$stream_output_adapter@_W@__crt_stdio_output@@V?$positional_parameter_base@_WV?$stream_output_adapter@_W@__crt_stdio_output@@@2@@__crt_stdio_output@@AAE_NXZ 1005545e f i libucrt:output.obj
 0001:000544d2       ?type_case_Z@?$output_processor@_WV?$stream_output_adapter@_W@__crt_stdio_output@@V?$standard_base@_WV?$stream_output_adapter@_W@__crt_stdio_output@@@2@@__crt_stdio_output@@AAE_NXZ 100554d2 f i libucrt:output.obj
 0001:0005452c       ?type_case_Z@?$output_processor@_WV?$string_output_adapter@_W@__crt_stdio_output@@V?$format_validation_base@_WV?$string_output_adapter@_W@__crt_stdio_output@@@2@@__crt_stdio_output@@AAE_NXZ 1005552c f i libucrt:output.obj
 0001:00054586       ?type_case_Z@?$output_processor@_WV?$string_output_adapter@_W@__crt_stdio_output@@V?$positional_parameter_base@_WV?$string_output_adapter@_W@__crt_stdio_output@@@2@@__crt_stdio_output@@AAE_NXZ 10055586 f i libucrt:output.obj
 0001:000545fa       ?type_case_Z@?$output_processor@_WV?$string_output_adapter@_W@__crt_stdio_output@@V?$standard_base@_WV?$string_output_adapter@_W@__crt_stdio_output@@@2@@__crt_stdio_output@@AAE_NXZ 100555fa f i libucrt:output.obj
 0001:00054654       ?type_case_a@?$output_processor@DV?$stream_output_adapter@D@__crt_stdio_output@@V?$format_validation_base@DV?$stream_output_adapter@D@__crt_stdio_output@@@2@@__crt_stdio_output@@AAE_NXZ 10055654 f i libucrt:output.obj
 0001:000547a5       ?type_case_a@?$output_processor@DV?$stream_output_adapter@D@__crt_stdio_output@@V?$positional_parameter_base@DV?$stream_output_adapter@D@__crt_stdio_output@@@2@@__crt_stdio_output@@AAE_NXZ 100557a5 f i libucrt:output.obj
 0001:00054922       ?type_case_a@?$output_processor@DV?$stream_output_adapter@D@__crt_stdio_output@@V?$standard_base@DV?$stream_output_adapter@D@__crt_stdio_output@@@2@@__crt_stdio_output@@AAE_NXZ 10055922 f i libucrt:output.obj
 0001:00054a73       ?type_case_a@?$output_processor@DV?$string_output_adapter@D@__crt_stdio_output@@V?$format_validation_base@DV?$string_output_adapter@D@__crt_stdio_output@@@2@@__crt_stdio_output@@AAE_NXZ 10055a73 f i libucrt:output.obj
 0001:00054bc4       ?type_case_a@?$output_processor@DV?$string_output_adapter@D@__crt_stdio_output@@V?$positional_parameter_base@DV?$string_output_adapter@D@__crt_stdio_output@@@2@@__crt_stdio_output@@AAE_NXZ 10055bc4 f i libucrt:output.obj
 0001:00054d41       ?type_case_a@?$output_processor@DV?$string_output_adapter@D@__crt_stdio_output@@V?$standard_base@DV?$string_output_adapter@D@__crt_stdio_output@@@2@@__crt_stdio_output@@AAE_NXZ 10055d41 f i libucrt:output.obj
 0001:00054e92       ?type_case_a@?$output_processor@_WV?$stream_output_adapter@_W@__crt_stdio_output@@V?$format_validation_base@_WV?$stream_output_adapter@_W@__crt_stdio_output@@@2@@__crt_stdio_output@@AAE_NXZ 10055e92 f i libucrt:output.obj
 0001:00054ff9       ?type_case_a@?$output_processor@_WV?$stream_output_adapter@_W@__crt_stdio_output@@V?$positional_parameter_base@_WV?$stream_output_adapter@_W@__crt_stdio_output@@@2@@__crt_stdio_output@@AAE_NXZ 10055ff9 f i libucrt:output.obj
 0001:0005518c       ?type_case_a@?$output_processor@_WV?$stream_output_adapter@_W@__crt_stdio_output@@V?$standard_base@_WV?$stream_output_adapter@_W@__crt_stdio_output@@@2@@__crt_stdio_output@@AAE_NXZ 1005618c f i libucrt:output.obj
 0001:000552f3       ?type_case_a@?$output_processor@_WV?$string_output_adapter@_W@__crt_stdio_output@@V?$format_validation_base@_WV?$string_output_adapter@_W@__crt_stdio_output@@@2@@__crt_stdio_output@@AAE_NXZ 100562f3 f i libucrt:output.obj
 0001:0005545a       ?type_case_a@?$output_processor@_WV?$string_output_adapter@_W@__crt_stdio_output@@V?$positional_parameter_base@_WV?$string_output_adapter@_W@__crt_stdio_output@@@2@@__crt_stdio_output@@AAE_NXZ 1005645a f i libucrt:output.obj
 0001:000555ed       ?type_case_a@?$output_processor@_WV?$string_output_adapter@_W@__crt_stdio_output@@V?$standard_base@_WV?$string_output_adapter@_W@__crt_stdio_output@@@2@@__crt_stdio_output@@AAE_NXZ 100565ed f i libucrt:output.obj
 0001:00055754       ?type_case_c@?$output_processor@DV?$stream_output_adapter@D@__crt_stdio_output@@V?$format_validation_base@DV?$stream_output_adapter@D@__crt_stdio_output@@@2@@__crt_stdio_output@@AAE_NXZ 10056754 f i libucrt:output.obj
 0001:0005575c       ?type_case_c@?$output_processor@DV?$stream_output_adapter@D@__crt_stdio_output@@V?$positional_parameter_base@DV?$stream_output_adapter@D@__crt_stdio_output@@@2@@__crt_stdio_output@@AAE_NXZ 1005675c f i libucrt:output.obj
 0001:00055764       ?type_case_c@?$output_processor@DV?$stream_output_adapter@D@__crt_stdio_output@@V?$standard_base@DV?$stream_output_adapter@D@__crt_stdio_output@@@2@@__crt_stdio_output@@AAE_NXZ 10056764 f i libucrt:output.obj
 0001:0005576c       ?type_case_c@?$output_processor@DV?$string_output_adapter@D@__crt_stdio_output@@V?$format_validation_base@DV?$string_output_adapter@D@__crt_stdio_output@@@2@@__crt_stdio_output@@AAE_NXZ 1005676c f i libucrt:output.obj
 0001:00055774       ?type_case_c@?$output_processor@DV?$string_output_adapter@D@__crt_stdio_output@@V?$positional_parameter_base@DV?$string_output_adapter@D@__crt_stdio_output@@@2@@__crt_stdio_output@@AAE_NXZ 10056774 f i libucrt:output.obj
 0001:0005577c       ?type_case_c@?$output_processor@DV?$string_output_adapter@D@__crt_stdio_output@@V?$standard_base@DV?$string_output_adapter@D@__crt_stdio_output@@@2@@__crt_stdio_output@@AAE_NXZ 1005677c f i libucrt:output.obj
 0001:00055784       ?type_case_c@?$output_processor@_WV?$stream_output_adapter@_W@__crt_stdio_output@@V?$format_validation_base@_WV?$stream_output_adapter@_W@__crt_stdio_output@@@2@@__crt_stdio_output@@AAE_NXZ 10056784 f i libucrt:output.obj
 0001:0005578c       ?type_case_c@?$output_processor@_WV?$stream_output_adapter@_W@__crt_stdio_output@@V?$positional_parameter_base@_WV?$stream_output_adapter@_W@__crt_stdio_output@@@2@@__crt_stdio_output@@AAE_NXZ 1005678c f i libucrt:output.obj
 0001:00055794       ?type_case_c@?$output_processor@_WV?$stream_output_adapter@_W@__crt_stdio_output@@V?$standard_base@_WV?$stream_output_adapter@_W@__crt_stdio_output@@@2@@__crt_stdio_output@@AAE_NXZ 10056794 f i libucrt:output.obj
 0001:0005579c       ?type_case_c@?$output_processor@_WV?$string_output_adapter@_W@__crt_stdio_output@@V?$format_validation_base@_WV?$string_output_adapter@_W@__crt_stdio_output@@@2@@__crt_stdio_output@@AAE_NXZ 1005679c f i libucrt:output.obj
 0001:000557a4       ?type_case_c@?$output_processor@_WV?$string_output_adapter@_W@__crt_stdio_output@@V?$positional_parameter_base@_WV?$string_output_adapter@_W@__crt_stdio_output@@@2@@__crt_stdio_output@@AAE_NXZ 100567a4 f i libucrt:output.obj
 0001:000557ac       ?type_case_c@?$output_processor@_WV?$string_output_adapter@_W@__crt_stdio_output@@V?$standard_base@_WV?$string_output_adapter@_W@__crt_stdio_output@@@2@@__crt_stdio_output@@AAE_NXZ 100567ac f i libucrt:output.obj
 0001:000557b4       ?type_case_c_tchar@?$output_processor@DV?$stream_output_adapter@D@__crt_stdio_output@@V?$format_validation_base@DV?$stream_output_adapter@D@__crt_stdio_output@@@2@@__crt_stdio_output@@AAE_ND@Z 100567b4 f i libucrt:output.obj
 0001:00055847       ?type_case_c_tchar@?$output_processor@DV?$stream_output_adapter@D@__crt_stdio_output@@V?$positional_parameter_base@DV?$stream_output_adapter@D@__crt_stdio_output@@@2@@__crt_stdio_output@@AAE_ND@Z 10056847 f i libucrt:output.obj
 0001:00055908       ?type_case_c_tchar@?$output_processor@DV?$stream_output_adapter@D@__crt_stdio_output@@V?$standard_base@DV?$stream_output_adapter@D@__crt_stdio_output@@@2@@__crt_stdio_output@@AAE_ND@Z 10056908 f i libucrt:output.obj
 0001:0005599b       ?type_case_c_tchar@?$output_processor@DV?$string_output_adapter@D@__crt_stdio_output@@V?$format_validation_base@DV?$string_output_adapter@D@__crt_stdio_output@@@2@@__crt_stdio_output@@AAE_ND@Z 1005699b f i libucrt:output.obj
 0001:00055a2e       ?type_case_c_tchar@?$output_processor@DV?$string_output_adapter@D@__crt_stdio_output@@V?$positional_parameter_base@DV?$string_output_adapter@D@__crt_stdio_output@@@2@@__crt_stdio_output@@AAE_ND@Z 10056a2e f i libucrt:output.obj
 0001:00055aef       ?type_case_c_tchar@?$output_processor@DV?$string_output_adapter@D@__crt_stdio_output@@V?$standard_base@DV?$string_output_adapter@D@__crt_stdio_output@@@2@@__crt_stdio_output@@AAE_ND@Z 10056aef f i libucrt:output.obj
 0001:00055b82       ?type_case_c_tchar@?$output_processor@_WV?$stream_output_adapter@_W@__crt_stdio_output@@V?$format_validation_base@_WV?$stream_output_adapter@_W@__crt_stdio_output@@@2@@__crt_stdio_output@@AAE_N_W@Z 10056b82 f i libucrt:output.obj
 0001:00055c18       ?type_case_c_tchar@?$output_processor@_WV?$stream_output_adapter@_W@__crt_stdio_output@@V?$positional_parameter_base@_WV?$stream_output_adapter@_W@__crt_stdio_output@@@2@@__crt_stdio_output@@AAE_N_W@Z 10056c18 f i libucrt:output.obj
 0001:00055cc5       ?type_case_c_tchar@?$output_processor@_WV?$stream_output_adapter@_W@__crt_stdio_output@@V?$standard_base@_WV?$stream_output_adapter@_W@__crt_stdio_output@@@2@@__crt_stdio_output@@AAE_N_W@Z 10056cc5 f i libucrt:output.obj
 0001:00055d5b       ?type_case_c_tchar@?$output_processor@_WV?$string_output_adapter@_W@__crt_stdio_output@@V?$format_validation_base@_WV?$string_output_adapter@_W@__crt_stdio_output@@@2@@__crt_stdio_output@@AAE_N_W@Z 10056d5b f i libucrt:output.obj
 0001:00055df1       ?type_case_c_tchar@?$output_processor@_WV?$string_output_adapter@_W@__crt_stdio_output@@V?$positional_parameter_base@_WV?$string_output_adapter@_W@__crt_stdio_output@@@2@@__crt_stdio_output@@AAE_N_W@Z 10056df1 f i libucrt:output.obj
 0001:00055e9e       ?type_case_c_tchar@?$output_processor@_WV?$string_output_adapter@_W@__crt_stdio_output@@V?$standard_base@_WV?$string_output_adapter@_W@__crt_stdio_output@@@2@@__crt_stdio_output@@AAE_N_W@Z 10056e9e f i libucrt:output.obj
 0001:00055f34       ?type_case_d@?$output_processor@DV?$stream_output_adapter@D@__crt_stdio_output@@V?$format_validation_base@DV?$stream_output_adapter@D@__crt_stdio_output@@@2@@__crt_stdio_output@@AAE_NXZ 10056f34 f i libucrt:output.obj
 0001:00055f42       ?type_case_d@?$output_processor@DV?$stream_output_adapter@D@__crt_stdio_output@@V?$positional_parameter_base@DV?$stream_output_adapter@D@__crt_stdio_output@@@2@@__crt_stdio_output@@AAE_NXZ 10056f42 f i libucrt:output.obj
 0001:00055f50       ?type_case_d@?$output_processor@DV?$stream_output_adapter@D@__crt_stdio_output@@V?$standard_base@DV?$stream_output_adapter@D@__crt_stdio_output@@@2@@__crt_stdio_output@@AAE_NXZ 10056f50 f i libucrt:output.obj
 0001:00055f5e       ?type_case_d@?$output_processor@DV?$string_output_adapter@D@__crt_stdio_output@@V?$format_validation_base@DV?$string_output_adapter@D@__crt_stdio_output@@@2@@__crt_stdio_output@@AAE_NXZ 10056f5e f i libucrt:output.obj
 0001:00055f6c       ?type_case_d@?$output_processor@DV?$string_output_adapter@D@__crt_stdio_output@@V?$positional_parameter_base@DV?$string_output_adapter@D@__crt_stdio_output@@@2@@__crt_stdio_output@@AAE_NXZ 10056f6c f i libucrt:output.obj
 0001:00055f7a       ?type_case_d@?$output_processor@DV?$string_output_adapter@D@__crt_stdio_output@@V?$standard_base@DV?$string_output_adapter@D@__crt_stdio_output@@@2@@__crt_stdio_output@@AAE_NXZ 10056f7a f i libucrt:output.obj
 0001:00055f88       ?type_case_d@?$output_processor@_WV?$stream_output_adapter@_W@__crt_stdio_output@@V?$format_validation_base@_WV?$stream_output_adapter@_W@__crt_stdio_output@@@2@@__crt_stdio_output@@AAE_NXZ 10056f88 f i libucrt:output.obj
 0001:00055f96       ?type_case_d@?$output_processor@_WV?$stream_output_adapter@_W@__crt_stdio_output@@V?$positional_parameter_base@_WV?$stream_output_adapter@_W@__crt_stdio_output@@@2@@__crt_stdio_output@@AAE_NXZ 10056f96 f i libucrt:output.obj
 0001:00055fa4       ?type_case_d@?$output_processor@_WV?$stream_output_adapter@_W@__crt_stdio_output@@V?$standard_base@_WV?$stream_output_adapter@_W@__crt_stdio_output@@@2@@__crt_stdio_output@@AAE_NXZ 10056fa4 f i libucrt:output.obj
 0001:00055fb2       ?type_case_d@?$output_processor@_WV?$string_output_adapter@_W@__crt_stdio_output@@V?$format_validation_base@_WV?$string_output_adapter@_W@__crt_stdio_output@@@2@@__crt_stdio_output@@AAE_NXZ 10056fb2 f i libucrt:output.obj
 0001:00055fc0       ?type_case_d@?$output_processor@_WV?$string_output_adapter@_W@__crt_stdio_output@@V?$positional_parameter_base@_WV?$string_output_adapter@_W@__crt_stdio_output@@@2@@__crt_stdio_output@@AAE_NXZ 10056fc0 f i libucrt:output.obj
 0001:00055fce       ?type_case_d@?$output_processor@_WV?$string_output_adapter@_W@__crt_stdio_output@@V?$standard_base@_WV?$string_output_adapter@_W@__crt_stdio_output@@@2@@__crt_stdio_output@@AAE_NXZ 10056fce f i libucrt:output.obj
 0001:00055fdc       ?type_case_integer@?$output_processor@DV?$stream_output_adapter@D@__crt_stdio_output@@V?$format_validation_base@DV?$stream_output_adapter@D@__crt_stdio_output@@@2@@__crt_stdio_output@@AAE_NI_N@Z 10056fdc f i libucrt:output.obj
 0001:0005612d       ?type_case_integer@?$output_processor@DV?$stream_output_adapter@D@__crt_stdio_output@@V?$positional_parameter_base@DV?$stream_output_adapter@D@__crt_stdio_output@@@2@@__crt_stdio_output@@AAE_NI_N@Z 1005712d f i libucrt:output.obj
 0001:000562ae       ?type_case_integer@?$output_processor@DV?$stream_output_adapter@D@__crt_stdio_output@@V?$standard_base@DV?$stream_output_adapter@D@__crt_stdio_output@@@2@@__crt_stdio_output@@AAE_NI_N@Z 100572ae f i libucrt:output.obj
 0001:000563ff       ?type_case_integer@?$output_processor@DV?$string_output_adapter@D@__crt_stdio_output@@V?$format_validation_base@DV?$string_output_adapter@D@__crt_stdio_output@@@2@@__crt_stdio_output@@AAE_NI_N@Z 100573ff f i libucrt:output.obj
 0001:00056550       ?type_case_integer@?$output_processor@DV?$string_output_adapter@D@__crt_stdio_output@@V?$positional_parameter_base@DV?$string_output_adapter@D@__crt_stdio_output@@@2@@__crt_stdio_output@@AAE_NI_N@Z 10057550 f i libucrt:output.obj
 0001:000566d1       ?type_case_integer@?$output_processor@DV?$string_output_adapter@D@__crt_stdio_output@@V?$standard_base@DV?$string_output_adapter@D@__crt_stdio_output@@@2@@__crt_stdio_output@@AAE_NI_N@Z 100576d1 f i libucrt:output.obj
 0001:00056822       ?type_case_integer@?$output_processor@_WV?$stream_output_adapter@_W@__crt_stdio_output@@V?$format_validation_base@_WV?$stream_output_adapter@_W@__crt_stdio_output@@@2@@__crt_stdio_output@@AAE_NI_N@Z 10057822 f i libucrt:output.obj
 0001:00056977       ?type_case_integer@?$output_processor@_WV?$stream_output_adapter@_W@__crt_stdio_output@@V?$positional_parameter_base@_WV?$stream_output_adapter@_W@__crt_stdio_output@@@2@@__crt_stdio_output@@AAE_NI_N@Z 10057977 f i libucrt:output.obj
 0001:00056afc       ?type_case_integer@?$output_processor@_WV?$stream_output_adapter@_W@__crt_stdio_output@@V?$standard_base@_WV?$stream_output_adapter@_W@__crt_stdio_output@@@2@@__crt_stdio_output@@AAE_NI_N@Z 10057afc f i libucrt:output.obj
 0001:00056c51       ?type_case_integer@?$output_processor@_WV?$string_output_adapter@_W@__crt_stdio_output@@V?$format_validation_base@_WV?$string_output_adapter@_W@__crt_stdio_output@@@2@@__crt_stdio_output@@AAE_NI_N@Z 10057c51 f i libucrt:output.obj
 0001:00056da6       ?type_case_integer@?$output_processor@_WV?$string_output_adapter@_W@__crt_stdio_output@@V?$positional_parameter_base@_WV?$string_output_adapter@_W@__crt_stdio_output@@@2@@__crt_stdio_output@@AAE_NI_N@Z 10057da6 f i libucrt:output.obj
 0001:00056f2b       ?type_case_integer@?$output_processor@_WV?$string_output_adapter@_W@__crt_stdio_output@@V?$standard_base@_WV?$string_output_adapter@_W@__crt_stdio_output@@@2@@__crt_stdio_output@@AAE_NI_N@Z 10057f2b f i libucrt:output.obj
 0001:00057080       ?type_case_n@?$output_processor@DV?$stream_output_adapter@D@__crt_stdio_output@@V?$format_validation_base@DV?$stream_output_adapter@D@__crt_stdio_output@@@2@@__crt_stdio_output@@AAE_NXZ 10058080 f i libucrt:output.obj
 0001:000570f4       ?type_case_n@?$output_processor@DV?$stream_output_adapter@D@__crt_stdio_output@@V?$positional_parameter_base@DV?$stream_output_adapter@D@__crt_stdio_output@@@2@@__crt_stdio_output@@AAE_NXZ 100580f4 f i libucrt:output.obj
 0001:0005718b       ?type_case_n@?$output_processor@DV?$stream_output_adapter@D@__crt_stdio_output@@V?$standard_base@DV?$stream_output_adapter@D@__crt_stdio_output@@@2@@__crt_stdio_output@@AAE_NXZ 1005818b f i libucrt:output.obj
 0001:000571ff       ?type_case_n@?$output_processor@DV?$string_output_adapter@D@__crt_stdio_output@@V?$format_validation_base@DV?$string_output_adapter@D@__crt_stdio_output@@@2@@__crt_stdio_output@@AAE_NXZ 100581ff f i libucrt:output.obj
 0001:00057273       ?type_case_n@?$output_processor@DV?$string_output_adapter@D@__crt_stdio_output@@V?$positional_parameter_base@DV?$string_output_adapter@D@__crt_stdio_output@@@2@@__crt_stdio_output@@AAE_NXZ 10058273 f i libucrt:output.obj
 0001:0005730a       ?type_case_n@?$output_processor@DV?$string_output_adapter@D@__crt_stdio_output@@V?$standard_base@DV?$string_output_adapter@D@__crt_stdio_output@@@2@@__crt_stdio_output@@AAE_NXZ 1005830a f i libucrt:output.obj
 0001:0005737e       ?type_case_n@?$output_processor@_WV?$stream_output_adapter@_W@__crt_stdio_output@@V?$format_validation_base@_WV?$stream_output_adapter@_W@__crt_stdio_output@@@2@@__crt_stdio_output@@AAE_NXZ 1005837e f i libucrt:output.obj
 0001:000573f2       ?type_case_n@?$output_processor@_WV?$stream_output_adapter@_W@__crt_stdio_output@@V?$positional_parameter_base@_WV?$stream_output_adapter@_W@__crt_stdio_output@@@2@@__crt_stdio_output@@AAE_NXZ 100583f2 f i libucrt:output.obj
 0001:00057489       ?type_case_n@?$output_processor@_WV?$stream_output_adapter@_W@__crt_stdio_output@@V?$standard_base@_WV?$stream_output_adapter@_W@__crt_stdio_output@@@2@@__crt_stdio_output@@AAE_NXZ 10058489 f i libucrt:output.obj
 0001:000574fd       ?type_case_n@?$output_processor@_WV?$string_output_adapter@_W@__crt_stdio_output@@V?$format_validation_base@_WV?$string_output_adapter@_W@__crt_stdio_output@@@2@@__crt_stdio_output@@AAE_NXZ 100584fd f i libucrt:output.obj
 0001:00057571       ?type_case_n@?$output_processor@_WV?$string_output_adapter@_W@__crt_stdio_output@@V?$positional_parameter_base@_WV?$string_output_adapter@_W@__crt_stdio_output@@@2@@__crt_stdio_output@@AAE_NXZ 10058571 f i libucrt:output.obj
 0001:00057608       ?type_case_n@?$output_processor@_WV?$string_output_adapter@_W@__crt_stdio_output@@V?$standard_base@_WV?$string_output_adapter@_W@__crt_stdio_output@@@2@@__crt_stdio_output@@AAE_NXZ 10058608 f i libucrt:output.obj
 0001:0005767c       ?type_case_o@?$output_processor@DV?$stream_output_adapter@D@__crt_stdio_output@@V?$format_validation_base@DV?$stream_output_adapter@D@__crt_stdio_output@@@2@@__crt_stdio_output@@AAE_NXZ 1005867c f i libucrt:output.obj
 0001:0005769b       ?type_case_o@?$output_processor@DV?$stream_output_adapter@D@__crt_stdio_output@@V?$positional_parameter_base@DV?$stream_output_adapter@D@__crt_stdio_output@@@2@@__crt_stdio_output@@AAE_NXZ 1005869b f i libucrt:output.obj
 0001:000576ba       ?type_case_o@?$output_processor@DV?$stream_output_adapter@D@__crt_stdio_output@@V?$standard_base@DV?$stream_output_adapter@D@__crt_stdio_output@@@2@@__crt_stdio_output@@AAE_NXZ 100586ba f i libucrt:output.obj
 0001:000576d9       ?type_case_o@?$output_processor@DV?$string_output_adapter@D@__crt_stdio_output@@V?$format_validation_base@DV?$string_output_adapter@D@__crt_stdio_output@@@2@@__crt_stdio_output@@AAE_NXZ 100586d9 f i libucrt:output.obj
 0001:000576f8       ?type_case_o@?$output_processor@DV?$string_output_adapter@D@__crt_stdio_output@@V?$positional_parameter_base@DV?$string_output_adapter@D@__crt_stdio_output@@@2@@__crt_stdio_output@@AAE_NXZ 100586f8 f i libucrt:output.obj
 0001:00057717       ?type_case_o@?$output_processor@DV?$string_output_adapter@D@__crt_stdio_output@@V?$standard_base@DV?$string_output_adapter@D@__crt_stdio_output@@@2@@__crt_stdio_output@@AAE_NXZ 10058717 f i libucrt:output.obj
 0001:00057736       ?type_case_o@?$output_processor@_WV?$stream_output_adapter@_W@__crt_stdio_output@@V?$format_validation_base@_WV?$stream_output_adapter@_W@__crt_stdio_output@@@2@@__crt_stdio_output@@AAE_NXZ 10058736 f i libucrt:output.obj
 0001:00057755       ?type_case_o@?$output_processor@_WV?$stream_output_adapter@_W@__crt_stdio_output@@V?$positional_parameter_base@_WV?$stream_output_adapter@_W@__crt_stdio_output@@@2@@__crt_stdio_output@@AAE_NXZ 10058755 f i libucrt:output.obj
 0001:00057774       ?type_case_o@?$output_processor@_WV?$stream_output_adapter@_W@__crt_stdio_output@@V?$standard_base@_WV?$stream_output_adapter@_W@__crt_stdio_output@@@2@@__crt_stdio_output@@AAE_NXZ 10058774 f i libucrt:output.obj
 0001:00057793       ?type_case_o@?$output_processor@_WV?$string_output_adapter@_W@__crt_stdio_output@@V?$format_validation_base@_WV?$string_output_adapter@_W@__crt_stdio_output@@@2@@__crt_stdio_output@@AAE_NXZ 10058793 f i libucrt:output.obj
 0001:000577b2       ?type_case_o@?$output_processor@_WV?$string_output_adapter@_W@__crt_stdio_output@@V?$positional_parameter_base@_WV?$string_output_adapter@_W@__crt_stdio_output@@@2@@__crt_stdio_output@@AAE_NXZ 100587b2 f i libucrt:output.obj
 0001:000577d1       ?type_case_o@?$output_processor@_WV?$string_output_adapter@_W@__crt_stdio_output@@V?$standard_base@_WV?$string_output_adapter@_W@__crt_stdio_output@@@2@@__crt_stdio_output@@AAE_NXZ 100587d1 f i libucrt:output.obj
 0001:000577f0       ?type_case_p@?$output_processor@DV?$stream_output_adapter@D@__crt_stdio_output@@V?$format_validation_base@DV?$stream_output_adapter@D@__crt_stdio_output@@@2@@__crt_stdio_output@@AAE_NXZ 100587f0 f i libucrt:output.obj
 0001:00057808       ?type_case_p@?$output_processor@DV?$stream_output_adapter@D@__crt_stdio_output@@V?$positional_parameter_base@DV?$stream_output_adapter@D@__crt_stdio_output@@@2@@__crt_stdio_output@@AAE_NXZ 10058808 f i libucrt:output.obj
 0001:00057820       ?type_case_p@?$output_processor@DV?$stream_output_adapter@D@__crt_stdio_output@@V?$standard_base@DV?$stream_output_adapter@D@__crt_stdio_output@@@2@@__crt_stdio_output@@AAE_NXZ 10058820 f i libucrt:output.obj
 0001:00057838       ?type_case_p@?$output_processor@DV?$string_output_adapter@D@__crt_stdio_output@@V?$format_validation_base@DV?$string_output_adapter@D@__crt_stdio_output@@@2@@__crt_stdio_output@@AAE_NXZ 10058838 f i libucrt:output.obj
 0001:00057850       ?type_case_p@?$output_processor@DV?$string_output_adapter@D@__crt_stdio_output@@V?$positional_parameter_base@DV?$string_output_adapter@D@__crt_stdio_output@@@2@@__crt_stdio_output@@AAE_NXZ 10058850 f i libucrt:output.obj
 0001:00057868       ?type_case_p@?$output_processor@DV?$string_output_adapter@D@__crt_stdio_output@@V?$standard_base@DV?$string_output_adapter@D@__crt_stdio_output@@@2@@__crt_stdio_output@@AAE_NXZ 10058868 f i libucrt:output.obj
 0001:00057880       ?type_case_p@?$output_processor@_WV?$stream_output_adapter@_W@__crt_stdio_output@@V?$format_validation_base@_WV?$stream_output_adapter@_W@__crt_stdio_output@@@2@@__crt_stdio_output@@AAE_NXZ 10058880 f i libucrt:output.obj
 0001:00057898       ?type_case_p@?$output_processor@_WV?$stream_output_adapter@_W@__crt_stdio_output@@V?$positional_parameter_base@_WV?$stream_output_adapter@_W@__crt_stdio_output@@@2@@__crt_stdio_output@@AAE_NXZ 10058898 f i libucrt:output.obj
 0001:000578b0       ?type_case_p@?$output_processor@_WV?$stream_output_adapter@_W@__crt_stdio_output@@V?$standard_base@_WV?$stream_output_adapter@_W@__crt_stdio_output@@@2@@__crt_stdio_output@@AAE_NXZ 100588b0 f i libucrt:output.obj
 0001:000578c8       ?type_case_p@?$output_processor@_WV?$string_output_adapter@_W@__crt_stdio_output@@V?$format_validation_base@_WV?$string_output_adapter@_W@__crt_stdio_output@@@2@@__crt_stdio_output@@AAE_NXZ 100588c8 f i libucrt:output.obj
 0001:000578e0       ?type_case_p@?$output_processor@_WV?$string_output_adapter@_W@__crt_stdio_output@@V?$positional_parameter_base@_WV?$string_output_adapter@_W@__crt_stdio_output@@@2@@__crt_stdio_output@@AAE_NXZ 100588e0 f i libucrt:output.obj
 0001:000578f8       ?type_case_p@?$output_processor@_WV?$string_output_adapter@_W@__crt_stdio_output@@V?$standard_base@_WV?$string_output_adapter@_W@__crt_stdio_output@@@2@@__crt_stdio_output@@AAE_NXZ 100588f8 f i libucrt:output.obj
 0001:00057910       ?type_case_s@?$output_processor@DV?$stream_output_adapter@D@__crt_stdio_output@@V?$format_validation_base@DV?$stream_output_adapter@D@__crt_stdio_output@@@2@@__crt_stdio_output@@AAE_NXZ 10058910 f i libucrt:output.obj
 0001:00057981       ?type_case_s@?$output_processor@DV?$stream_output_adapter@D@__crt_stdio_output@@V?$positional_parameter_base@DV?$stream_output_adapter@D@__crt_stdio_output@@@2@@__crt_stdio_output@@AAE_NXZ 10058981 f i libucrt:output.obj
 0001:000579ff       ?type_case_s@?$output_processor@DV?$stream_output_adapter@D@__crt_stdio_output@@V?$standard_base@DV?$stream_output_adapter@D@__crt_stdio_output@@@2@@__crt_stdio_output@@AAE_NXZ 100589ff f i libucrt:output.obj
 0001:00057a70       ?type_case_s@?$output_processor@DV?$string_output_adapter@D@__crt_stdio_output@@V?$format_validation_base@DV?$string_output_adapter@D@__crt_stdio_output@@@2@@__crt_stdio_output@@AAE_NXZ 10058a70 f i libucrt:output.obj
 0001:00057ae1       ?type_case_s@?$output_processor@DV?$string_output_adapter@D@__crt_stdio_output@@V?$positional_parameter_base@DV?$string_output_adapter@D@__crt_stdio_output@@@2@@__crt_stdio_output@@AAE_NXZ 10058ae1 f i libucrt:output.obj
 0001:00057b5f       ?type_case_s@?$output_processor@DV?$string_output_adapter@D@__crt_stdio_output@@V?$standard_base@DV?$string_output_adapter@D@__crt_stdio_output@@@2@@__crt_stdio_output@@AAE_NXZ 10058b5f f i libucrt:output.obj
 0001:00057bd0       ?type_case_s@?$output_processor@_WV?$stream_output_adapter@_W@__crt_stdio_output@@V?$format_validation_base@_WV?$stream_output_adapter@_W@__crt_stdio_output@@@2@@__crt_stdio_output@@AAE_NXZ 10058bd0 f i libucrt:output.obj
 0001:00057c43       ?type_case_s@?$output_processor@_WV?$stream_output_adapter@_W@__crt_stdio_output@@V?$positional_parameter_base@_WV?$stream_output_adapter@_W@__crt_stdio_output@@@2@@__crt_stdio_output@@AAE_NXZ 10058c43 f i libucrt:output.obj
 0001:00057cc3       ?type_case_s@?$output_processor@_WV?$stream_output_adapter@_W@__crt_stdio_output@@V?$standard_base@_WV?$stream_output_adapter@_W@__crt_stdio_output@@@2@@__crt_stdio_output@@AAE_NXZ 10058cc3 f i libucrt:output.obj
 0001:00057d36       ?type_case_s@?$output_processor@_WV?$string_output_adapter@_W@__crt_stdio_output@@V?$format_validation_base@_WV?$string_output_adapter@_W@__crt_stdio_output@@@2@@__crt_stdio_output@@AAE_NXZ 10058d36 f i libucrt:output.obj
 0001:00057da9       ?type_case_s@?$output_processor@_WV?$string_output_adapter@_W@__crt_stdio_output@@V?$positional_parameter_base@_WV?$string_output_adapter@_W@__crt_stdio_output@@@2@@__crt_stdio_output@@AAE_NXZ 10058da9 f i libucrt:output.obj
 0001:00057e29       ?type_case_s@?$output_processor@_WV?$string_output_adapter@_W@__crt_stdio_output@@V?$standard_base@_WV?$string_output_adapter@_W@__crt_stdio_output@@@2@@__crt_stdio_output@@AAE_NXZ 10058e29 f i libucrt:output.obj
 0001:00057e9c       ?type_case_s_compute_narrow_string_length@?$output_processor@DV?$stream_output_adapter@D@__crt_stdio_output@@V?$format_validation_base@DV?$stream_output_adapter@D@__crt_stdio_output@@@2@@__crt_stdio_output@@ABEHHD@Z 10058e9c f i libucrt:output.obj
 0001:00057eb2       ?type_case_s_compute_narrow_string_length@?$output_processor@DV?$stream_output_adapter@D@__crt_stdio_output@@V?$positional_parameter_base@DV?$stream_output_adapter@D@__crt_stdio_output@@@2@@__crt_stdio_output@@ABEHHD@Z 10058eb2 f i libucrt:output.obj
 0001:00057ec8       ?type_case_s_compute_narrow_string_length@?$output_processor@DV?$stream_output_adapter@D@__crt_stdio_output@@V?$standard_base@DV?$stream_output_adapter@D@__crt_stdio_output@@@2@@__crt_stdio_output@@ABEHHD@Z 10058ec8 f i libucrt:output.obj
 0001:00057ede       ?type_case_s_compute_narrow_string_length@?$output_processor@DV?$string_output_adapter@D@__crt_stdio_output@@V?$format_validation_base@DV?$string_output_adapter@D@__crt_stdio_output@@@2@@__crt_stdio_output@@ABEHHD@Z 10058ede f i libucrt:output.obj
 0001:00057ef4       ?type_case_s_compute_narrow_string_length@?$output_processor@DV?$string_output_adapter@D@__crt_stdio_output@@V?$positional_parameter_base@DV?$string_output_adapter@D@__crt_stdio_output@@@2@@__crt_stdio_output@@ABEHHD@Z 10058ef4 f i libucrt:output.obj
 0001:00057f0a       ?type_case_s_compute_narrow_string_length@?$output_processor@DV?$string_output_adapter@D@__crt_stdio_output@@V?$standard_base@DV?$string_output_adapter@D@__crt_stdio_output@@@2@@__crt_stdio_output@@ABEHHD@Z 10058f0a f i libucrt:output.obj
 0001:00057f20       ?type_case_s_compute_narrow_string_length@?$output_processor@_WV?$stream_output_adapter@_W@__crt_stdio_output@@V?$format_validation_base@_WV?$stream_output_adapter@_W@__crt_stdio_output@@@2@@__crt_stdio_output@@ABEHH_W@Z 10058f20 f i libucrt:output.obj
 0001:00057f67       ?type_case_s_compute_narrow_string_length@?$output_processor@_WV?$stream_output_adapter@_W@__crt_stdio_output@@V?$positional_parameter_base@_WV?$stream_output_adapter@_W@__crt_stdio_output@@@2@@__crt_stdio_output@@ABEHH_W@Z 10058f67 f i libucrt:output.obj
 0001:00057fae       ?type_case_s_compute_narrow_string_length@?$output_processor@_WV?$stream_output_adapter@_W@__crt_stdio_output@@V?$standard_base@_WV?$stream_output_adapter@_W@__crt_stdio_output@@@2@@__crt_stdio_output@@ABEHH_W@Z 10058fae f i libucrt:output.obj
 0001:00057ff5       ?type_case_s_compute_narrow_string_length@?$output_processor@_WV?$string_output_adapter@_W@__crt_stdio_output@@V?$format_validation_base@_WV?$string_output_adapter@_W@__crt_stdio_output@@@2@@__crt_stdio_output@@ABEHH_W@Z 10058ff5 f i libucrt:output.obj
 0001:0005803c       ?type_case_s_compute_narrow_string_length@?$output_processor@_WV?$string_output_adapter@_W@__crt_stdio_output@@V?$positional_parameter_base@_WV?$string_output_adapter@_W@__crt_stdio_output@@@2@@__crt_stdio_output@@ABEHH_W@Z 1005903c f i libucrt:output.obj
 0001:00058083       ?type_case_s_compute_narrow_string_length@?$output_processor@_WV?$string_output_adapter@_W@__crt_stdio_output@@V?$standard_base@_WV?$string_output_adapter@_W@__crt_stdio_output@@@2@@__crt_stdio_output@@ABEHH_W@Z 10059083 f i libucrt:output.obj
 0001:000580ca       ?type_case_u@?$output_processor@DV?$stream_output_adapter@D@__crt_stdio_output@@V?$format_validation_base@DV?$stream_output_adapter@D@__crt_stdio_output@@@2@@__crt_stdio_output@@AAE_NXZ 100590ca f i libucrt:output.obj
 0001:000580d4       ?type_case_u@?$output_processor@DV?$stream_output_adapter@D@__crt_stdio_output@@V?$positional_parameter_base@DV?$stream_output_adapter@D@__crt_stdio_output@@@2@@__crt_stdio_output@@AAE_NXZ 100590d4 f i libucrt:output.obj
 0001:000580de       ?type_case_u@?$output_processor@DV?$stream_output_adapter@D@__crt_stdio_output@@V?$standard_base@DV?$stream_output_adapter@D@__crt_stdio_output@@@2@@__crt_stdio_output@@AAE_NXZ 100590de f i libucrt:output.obj
 0001:000580e8       ?type_case_u@?$output_processor@DV?$string_output_adapter@D@__crt_stdio_output@@V?$format_validation_base@DV?$string_output_adapter@D@__crt_stdio_output@@@2@@__crt_stdio_output@@AAE_NXZ 100590e8 f i libucrt:output.obj
 0001:000580f2       ?type_case_u@?$output_processor@DV?$string_output_adapter@D@__crt_stdio_output@@V?$positional_parameter_base@DV?$string_output_adapter@D@__crt_stdio_output@@@2@@__crt_stdio_output@@AAE_NXZ 100590f2 f i libucrt:output.obj
 0001:000580fc       ?type_case_u@?$output_processor@DV?$string_output_adapter@D@__crt_stdio_output@@V?$standard_base@DV?$string_output_adapter@D@__crt_stdio_output@@@2@@__crt_stdio_output@@AAE_NXZ 100590fc f i libucrt:output.obj
 0001:00058106       ?type_case_u@?$output_processor@_WV?$stream_output_adapter@_W@__crt_stdio_output@@V?$format_validation_base@_WV?$stream_output_adapter@_W@__crt_stdio_output@@@2@@__crt_stdio_output@@AAE_NXZ 10059106 f i libucrt:output.obj
 0001:00058110       ?type_case_u@?$output_processor@_WV?$stream_output_adapter@_W@__crt_stdio_output@@V?$positional_parameter_base@_WV?$stream_output_adapter@_W@__crt_stdio_output@@@2@@__crt_stdio_output@@AAE_NXZ 10059110 f i libucrt:output.obj
 0001:0005811a       ?type_case_u@?$output_processor@_WV?$stream_output_adapter@_W@__crt_stdio_output@@V?$standard_base@_WV?$stream_output_adapter@_W@__crt_stdio_output@@@2@@__crt_stdio_output@@AAE_NXZ 1005911a f i libucrt:output.obj
 0001:00058124       ?type_case_u@?$output_processor@_WV?$string_output_adapter@_W@__crt_stdio_output@@V?$format_validation_base@_WV?$string_output_adapter@_W@__crt_stdio_output@@@2@@__crt_stdio_output@@AAE_NXZ 10059124 f i libucrt:output.obj
 0001:0005812e       ?type_case_u@?$output_processor@_WV?$string_output_adapter@_W@__crt_stdio_output@@V?$positional_parameter_base@_WV?$string_output_adapter@_W@__crt_stdio_output@@@2@@__crt_stdio_output@@AAE_NXZ 1005912e f i libucrt:output.obj
 0001:00058138       ?type_case_u@?$output_processor@_WV?$string_output_adapter@_W@__crt_stdio_output@@V?$standard_base@_WV?$string_output_adapter@_W@__crt_stdio_output@@@2@@__crt_stdio_output@@AAE_NXZ 10059138 f i libucrt:output.obj
 0001:00058142       ?type_case_x@?$output_processor@DV?$stream_output_adapter@D@__crt_stdio_output@@V?$format_validation_base@DV?$stream_output_adapter@D@__crt_stdio_output@@@2@@__crt_stdio_output@@AAE_NXZ 10059142 f i libucrt:output.obj
 0001:0005814c       ?type_case_x@?$output_processor@DV?$stream_output_adapter@D@__crt_stdio_output@@V?$positional_parameter_base@DV?$stream_output_adapter@D@__crt_stdio_output@@@2@@__crt_stdio_output@@AAE_NXZ 1005914c f i libucrt:output.obj
 0001:00058156       ?type_case_x@?$output_processor@DV?$stream_output_adapter@D@__crt_stdio_output@@V?$standard_base@DV?$stream_output_adapter@D@__crt_stdio_output@@@2@@__crt_stdio_output@@AAE_NXZ 10059156 f i libucrt:output.obj
 0001:00058160       ?type_case_x@?$output_processor@DV?$string_output_adapter@D@__crt_stdio_output@@V?$format_validation_base@DV?$string_output_adapter@D@__crt_stdio_output@@@2@@__crt_stdio_output@@AAE_NXZ 10059160 f i libucrt:output.obj
 0001:0005816a       ?type_case_x@?$output_processor@DV?$string_output_adapter@D@__crt_stdio_output@@V?$positional_parameter_base@DV?$string_output_adapter@D@__crt_stdio_output@@@2@@__crt_stdio_output@@AAE_NXZ 1005916a f i libucrt:output.obj
 0001:00058174       ?type_case_x@?$output_processor@DV?$string_output_adapter@D@__crt_stdio_output@@V?$standard_base@DV?$string_output_adapter@D@__crt_stdio_output@@@2@@__crt_stdio_output@@AAE_NXZ 10059174 f i libucrt:output.obj
 0001:0005817e       ?type_case_x@?$output_processor@_WV?$stream_output_adapter@_W@__crt_stdio_output@@V?$format_validation_base@_WV?$stream_output_adapter@_W@__crt_stdio_output@@@2@@__crt_stdio_output@@AAE_NXZ 1005917e f i libucrt:output.obj
 0001:00058188       ?type_case_x@?$output_processor@_WV?$stream_output_adapter@_W@__crt_stdio_output@@V?$positional_parameter_base@_WV?$stream_output_adapter@_W@__crt_stdio_output@@@2@@__crt_stdio_output@@AAE_NXZ 10059188 f i libucrt:output.obj
 0001:00058192       ?type_case_x@?$output_processor@_WV?$stream_output_adapter@_W@__crt_stdio_output@@V?$standard_base@_WV?$stream_output_adapter@_W@__crt_stdio_output@@@2@@__crt_stdio_output@@AAE_NXZ 10059192 f i libucrt:output.obj
 0001:0005819c       ?type_case_x@?$output_processor@_WV?$string_output_adapter@_W@__crt_stdio_output@@V?$format_validation_base@_WV?$string_output_adapter@_W@__crt_stdio_output@@@2@@__crt_stdio_output@@AAE_NXZ 1005919c f i libucrt:output.obj
 0001:000581a6       ?type_case_x@?$output_processor@_WV?$string_output_adapter@_W@__crt_stdio_output@@V?$positional_parameter_base@_WV?$string_output_adapter@_W@__crt_stdio_output@@@2@@__crt_stdio_output@@AAE_NXZ 100591a6 f i libucrt:output.obj
 0001:000581b0       ?type_case_x@?$output_processor@_WV?$string_output_adapter@_W@__crt_stdio_output@@V?$standard_base@_WV?$string_output_adapter@_W@__crt_stdio_output@@@2@@__crt_stdio_output@@AAE_NXZ 100591b0 f i libucrt:output.obj
 0001:000581ba       ?unset_flag@?$output_processor@DV?$stream_output_adapter@D@__crt_stdio_output@@V?$format_validation_base@DV?$stream_output_adapter@D@__crt_stdio_output@@@2@@__crt_stdio_output@@AAEXI@Z 100591ba f i libucrt:output.obj
 0001:000581cb       ?unset_flag@?$output_processor@DV?$stream_output_adapter@D@__crt_stdio_output@@V?$positional_parameter_base@DV?$stream_output_adapter@D@__crt_stdio_output@@@2@@__crt_stdio_output@@AAEXI@Z 100591cb f i libucrt:output.obj
 0001:000581dc       ?unset_flag@?$output_processor@DV?$stream_output_adapter@D@__crt_stdio_output@@V?$standard_base@DV?$stream_output_adapter@D@__crt_stdio_output@@@2@@__crt_stdio_output@@AAEXI@Z 100591dc f i libucrt:output.obj
 0001:000581ed       ?unset_flag@?$output_processor@DV?$string_output_adapter@D@__crt_stdio_output@@V?$format_validation_base@DV?$string_output_adapter@D@__crt_stdio_output@@@2@@__crt_stdio_output@@AAEXI@Z 100591ed f i libucrt:output.obj
 0001:000581fe       ?unset_flag@?$output_processor@DV?$string_output_adapter@D@__crt_stdio_output@@V?$positional_parameter_base@DV?$string_output_adapter@D@__crt_stdio_output@@@2@@__crt_stdio_output@@AAEXI@Z 100591fe f i libucrt:output.obj
 0001:0005820f       ?unset_flag@?$output_processor@DV?$string_output_adapter@D@__crt_stdio_output@@V?$standard_base@DV?$string_output_adapter@D@__crt_stdio_output@@@2@@__crt_stdio_output@@AAEXI@Z 1005920f f i libucrt:output.obj
 0001:00058220       ?unset_flag@?$output_processor@_WV?$stream_output_adapter@_W@__crt_stdio_output@@V?$format_validation_base@_WV?$stream_output_adapter@_W@__crt_stdio_output@@@2@@__crt_stdio_output@@AAEXI@Z 10059220 f i libucrt:output.obj
 0001:00058231       ?unset_flag@?$output_processor@_WV?$stream_output_adapter@_W@__crt_stdio_output@@V?$positional_parameter_base@_WV?$stream_output_adapter@_W@__crt_stdio_output@@@2@@__crt_stdio_output@@AAEXI@Z 10059231 f i libucrt:output.obj
 0001:00058242       ?unset_flag@?$output_processor@_WV?$stream_output_adapter@_W@__crt_stdio_output@@V?$standard_base@_WV?$stream_output_adapter@_W@__crt_stdio_output@@@2@@__crt_stdio_output@@AAEXI@Z 10059242 f i libucrt:output.obj
 0001:00058253       ?unset_flag@?$output_processor@_WV?$string_output_adapter@_W@__crt_stdio_output@@V?$format_validation_base@_WV?$string_output_adapter@_W@__crt_stdio_output@@@2@@__crt_stdio_output@@AAEXI@Z 10059253 f i libucrt:output.obj
 0001:00058264       ?unset_flag@?$output_processor@_WV?$string_output_adapter@_W@__crt_stdio_output@@V?$positional_parameter_base@_WV?$string_output_adapter@_W@__crt_stdio_output@@@2@@__crt_stdio_output@@AAEXI@Z 10059264 f i libucrt:output.obj
 0001:00058275       ?unset_flag@?$output_processor@_WV?$string_output_adapter@_W@__crt_stdio_output@@V?$standard_base@_WV?$string_output_adapter@_W@__crt_stdio_output@@@2@@__crt_stdio_output@@AAEXI@Z 10059275 f i libucrt:output.obj
 0001:00058286       ?update_field_width@?$positional_parameter_base@DV?$stream_output_adapter@D@__crt_stdio_output@@@__crt_stdio_output@@IAE_NXZ 10059286 f i libucrt:output.obj
 0001:0005833a       ?update_field_width@?$positional_parameter_base@DV?$string_output_adapter@D@__crt_stdio_output@@@__crt_stdio_output@@IAE_NXZ 1005933a f i libucrt:output.obj
 0001:000583ee       ?update_field_width@?$positional_parameter_base@_WV?$stream_output_adapter@_W@__crt_stdio_output@@@__crt_stdio_output@@IAE_NXZ 100593ee f i libucrt:output.obj
 0001:000584a3       ?update_field_width@?$positional_parameter_base@_WV?$string_output_adapter@_W@__crt_stdio_output@@@__crt_stdio_output@@IAE_NXZ 100594a3 f i libucrt:output.obj
 0001:00058558       ?update_field_width@?$standard_base@DV?$stream_output_adapter@D@__crt_stdio_output@@@__crt_stdio_output@@IAE_NXZ 10059558 f i libucrt:output.obj
 0001:00058568       ?update_field_width@?$standard_base@DV?$string_output_adapter@D@__crt_stdio_output@@@__crt_stdio_output@@IAE_NXZ 10059568 f i libucrt:output.obj
 0001:00058578       ?update_field_width@?$standard_base@_WV?$stream_output_adapter@_W@__crt_stdio_output@@@__crt_stdio_output@@IAE_NXZ 10059578 f i libucrt:output.obj
 0001:00058588       ?update_field_width@?$standard_base@_WV?$string_output_adapter@_W@__crt_stdio_output@@@__crt_stdio_output@@IAE_NXZ 10059588 f i libucrt:output.obj
 0001:00058598       ?update_precision@?$positional_parameter_base@DV?$stream_output_adapter@D@__crt_stdio_output@@@__crt_stdio_output@@IAE_NXZ 10059598 f i libucrt:output.obj
 0001:0005864c       ?update_precision@?$positional_parameter_base@DV?$string_output_adapter@D@__crt_stdio_output@@@__crt_stdio_output@@IAE_NXZ 1005964c f i libucrt:output.obj
 0001:00058700       ?update_precision@?$positional_parameter_base@_WV?$stream_output_adapter@_W@__crt_stdio_output@@@__crt_stdio_output@@IAE_NXZ 10059700 f i libucrt:output.obj
 0001:000587b5       ?update_precision@?$positional_parameter_base@_WV?$string_output_adapter@_W@__crt_stdio_output@@@__crt_stdio_output@@IAE_NXZ 100597b5 f i libucrt:output.obj
 0001:0005886a       ?update_precision@?$standard_base@DV?$stream_output_adapter@D@__crt_stdio_output@@@__crt_stdio_output@@IAE_NXZ 1005986a f i libucrt:output.obj
 0001:0005887a       ?update_precision@?$standard_base@DV?$string_output_adapter@D@__crt_stdio_output@@@__crt_stdio_output@@IAE_NXZ 1005987a f i libucrt:output.obj
 0001:0005888a       ?update_precision@?$standard_base@_WV?$stream_output_adapter@_W@__crt_stdio_output@@@__crt_stdio_output@@IAE_NXZ 1005988a f i libucrt:output.obj
 0001:0005889a       ?update_precision@?$standard_base@_WV?$string_output_adapter@_W@__crt_stdio_output@@@__crt_stdio_output@@IAE_NXZ 1005989a f i libucrt:output.obj
 0001:000588aa       ?valid@__crt_stdio_stream@@QBE_NXZ 100598aa f i libucrt:output.obj
 0001:000588b1       ?validate@?$stream_output_adapter@D@__crt_stdio_output@@QBE_NXZ 100598b1 f i libucrt:output.obj
 0001:000588d2       ?validate@?$stream_output_adapter@_W@__crt_stdio_output@@QBE_NXZ 100598d2 f i libucrt:output.obj
 0001:000588ed       ?validate@?$string_output_adapter@D@__crt_stdio_output@@QBE_NXZ 100598ed f i libucrt:output.obj
 0001:00058908       ?validate@?$string_output_adapter@_W@__crt_stdio_output@@QBE_NXZ 10059908 f i libucrt:output.obj
 0001:00058923       ?validate_and_store_parameter_data@?$positional_parameter_base@DV?$stream_output_adapter@D@__crt_stdio_output@@@__crt_stdio_output@@AAE_NAAUparameter_data@12@W4parameter_type@12@DW4length_modifier@2@@Z 10059923 f i libucrt:output.obj
 0001:0005896e       ?validate_and_store_parameter_data@?$positional_parameter_base@DV?$string_output_adapter@D@__crt_stdio_output@@@__crt_stdio_output@@AAE_NAAUparameter_data@12@W4parameter_type@12@DW4length_modifier@2@@Z 1005996e f i libucrt:output.obj
 0001:000589b9       ?validate_and_store_parameter_data@?$positional_parameter_base@_WV?$stream_output_adapter@_W@__crt_stdio_output@@@__crt_stdio_output@@AAE_NAAUparameter_data@12@W4parameter_type@12@_WW4length_modifier@2@@Z 100599b9 f i libucrt:output.obj
 0001:00058a06       ?validate_and_store_parameter_data@?$positional_parameter_base@_WV?$string_output_adapter@_W@__crt_stdio_output@@@__crt_stdio_output@@AAE_NAAUparameter_data@12@W4parameter_type@12@_WW4length_modifier@2@@Z 10059a06 f i libucrt:output.obj
 0001:00058a53       ?validate_and_update_state_at_beginning_of_format_character@?$positional_parameter_base@DV?$stream_output_adapter@D@__crt_stdio_output@@@__crt_stdio_output@@IAE_NXZ 10059a53 f i libucrt:output.obj
 0001:00058b4b       ?validate_and_update_state_at_beginning_of_format_character@?$positional_parameter_base@DV?$string_output_adapter@D@__crt_stdio_output@@@__crt_stdio_output@@IAE_NXZ 10059b4b f i libucrt:output.obj
 0001:00058c43       ?validate_and_update_state_at_beginning_of_format_character@?$positional_parameter_base@_WV?$stream_output_adapter@_W@__crt_stdio_output@@@__crt_stdio_output@@IAE_NXZ 10059c43 f i libucrt:output.obj
 0001:00058d44       ?validate_and_update_state_at_beginning_of_format_character@?$positional_parameter_base@_WV?$string_output_adapter@_W@__crt_stdio_output@@@__crt_stdio_output@@IAE_NXZ 10059d44 f i libucrt:output.obj
 0001:00058e45       ?validate_and_update_state_at_beginning_of_format_character@?$standard_base@DV?$stream_output_adapter@D@__crt_stdio_output@@@__crt_stdio_output@@IAE_NXZ 10059e45 f i libucrt:output.obj
 0001:00058e48       ?validate_and_update_state_at_beginning_of_format_character@?$standard_base@DV?$string_output_adapter@D@__crt_stdio_output@@@__crt_stdio_output@@IAE_NXZ 10059e48 f i libucrt:output.obj
 0001:00058e4b       ?validate_and_update_state_at_beginning_of_format_character@?$standard_base@_WV?$stream_output_adapter@_W@__crt_stdio_output@@@__crt_stdio_output@@IAE_NXZ 10059e4b f i libucrt:output.obj
 0001:00058e4e       ?validate_and_update_state_at_beginning_of_format_character@?$standard_base@_WV?$string_output_adapter@_W@__crt_stdio_output@@@__crt_stdio_output@@IAE_NXZ 10059e4e f i libucrt:output.obj
 0001:00058e51       ?validate_and_update_state_at_end_of_format_string@?$format_validation_base@DV?$stream_output_adapter@D@__crt_stdio_output@@@__crt_stdio_output@@IBE_NXZ 10059e51 f i libucrt:output.obj
 0001:00058e73       ?validate_and_update_state_at_end_of_format_string@?$format_validation_base@DV?$string_output_adapter@D@__crt_stdio_output@@@__crt_stdio_output@@IBE_NXZ 10059e73 f i libucrt:output.obj
 0001:00058e95       ?validate_and_update_state_at_end_of_format_string@?$format_validation_base@_WV?$stream_output_adapter@_W@__crt_stdio_output@@@__crt_stdio_output@@IBE_NXZ 10059e95 f i libucrt:output.obj
 0001:00058eb7       ?validate_and_update_state_at_end_of_format_string@?$format_validation_base@_WV?$string_output_adapter@_W@__crt_stdio_output@@@__crt_stdio_output@@IBE_NXZ 10059eb7 f i libucrt:output.obj
 0001:00058ed9       ?validate_and_update_state_at_end_of_format_string@?$positional_parameter_base@DV?$stream_output_adapter@D@__crt_stdio_output@@@__crt_stdio_output@@IAE_NXZ 10059ed9 f i libucrt:output.obj
 0001:00058f69       ?validate_and_update_state_at_end_of_format_string@?$positional_parameter_base@DV?$string_output_adapter@D@__crt_stdio_output@@@__crt_stdio_output@@IAE_NXZ 10059f69 f i libucrt:output.obj
 0001:00058ff9       ?validate_and_update_state_at_end_of_format_string@?$positional_parameter_base@_WV?$stream_output_adapter@_W@__crt_stdio_output@@@__crt_stdio_output@@IAE_NXZ 10059ff9 f i libucrt:output.obj
 0001:00059089       ?validate_and_update_state_at_end_of_format_string@?$positional_parameter_base@_WV?$string_output_adapter@_W@__crt_stdio_output@@@__crt_stdio_output@@IAE_NXZ 1005a089 f i libucrt:output.obj
 0001:00059119       ?validate_and_update_state_at_end_of_format_string@?$standard_base@DV?$stream_output_adapter@D@__crt_stdio_output@@@__crt_stdio_output@@IBE_NXZ 1005a119 f i libucrt:output.obj
 0001:0005911c       ?validate_and_update_state_at_end_of_format_string@?$standard_base@DV?$string_output_adapter@D@__crt_stdio_output@@@__crt_stdio_output@@IBE_NXZ 1005a11c f i libucrt:output.obj
 0001:0005911f       ?validate_and_update_state_at_end_of_format_string@?$standard_base@_WV?$stream_output_adapter@_W@__crt_stdio_output@@@__crt_stdio_output@@IBE_NXZ 1005a11f f i libucrt:output.obj
 0001:00059122       ?validate_and_update_state_at_end_of_format_string@?$standard_base@_WV?$string_output_adapter@_W@__crt_stdio_output@@@__crt_stdio_output@@IBE_NXZ 1005a122 f i libucrt:output.obj
 0001:00059125       ?validate_state_for_type_case_a@?$positional_parameter_base@DV?$stream_output_adapter@D@__crt_stdio_output@@@__crt_stdio_output@@IAE_NXZ 1005a125 f i libucrt:output.obj
 0001:00059174       ?validate_state_for_type_case_a@?$positional_parameter_base@DV?$string_output_adapter@D@__crt_stdio_output@@@__crt_stdio_output@@IAE_NXZ 1005a174 f i libucrt:output.obj
 0001:000591c3       ?validate_state_for_type_case_a@?$positional_parameter_base@_WV?$stream_output_adapter@_W@__crt_stdio_output@@@__crt_stdio_output@@IAE_NXZ 1005a1c3 f i libucrt:output.obj
 0001:00059212       ?validate_state_for_type_case_a@?$positional_parameter_base@_WV?$string_output_adapter@_W@__crt_stdio_output@@@__crt_stdio_output@@IAE_NXZ 1005a212 f i libucrt:output.obj
 0001:00059261       ?validate_state_for_type_case_a@?$standard_base@DV?$stream_output_adapter@D@__crt_stdio_output@@@__crt_stdio_output@@IBE_NXZ 1005a261 f i libucrt:output.obj
 0001:00059264       ?validate_state_for_type_case_a@?$standard_base@DV?$string_output_adapter@D@__crt_stdio_output@@@__crt_stdio_output@@IBE_NXZ 1005a264 f i libucrt:output.obj
 0001:00059267       ?validate_state_for_type_case_a@?$standard_base@_WV?$stream_output_adapter@_W@__crt_stdio_output@@@__crt_stdio_output@@IBE_NXZ 1005a267 f i libucrt:output.obj
 0001:0005926a       ?validate_state_for_type_case_a@?$standard_base@_WV?$string_output_adapter@_W@__crt_stdio_output@@@__crt_stdio_output@@IBE_NXZ 1005a26a f i libucrt:output.obj
 0001:0005926d       ?validate_stream_is_ansi_if_required@?$__acrt_stdio_char_traits@D@@SA_NQAU_iobuf@@@Z 1005a26d f i libucrt:output.obj
 0001:000592f4       ?validate_stream_is_ansi_if_required@?$__acrt_stdio_char_traits@_W@@SA_NQAU_iobuf@@@Z 1005a2f4 f i libucrt:output.obj
 0001:000592f7       ?wide_null_string@?$output_processor@DV?$stream_output_adapter@D@__crt_stdio_output@@V?$format_validation_base@DV?$stream_output_adapter@D@__crt_stdio_output@@@2@@__crt_stdio_output@@CAPA_WXZ 1005a2f7 f i libucrt:output.obj
 0001:000592fd       ?wide_null_string@?$output_processor@DV?$stream_output_adapter@D@__crt_stdio_output@@V?$positional_parameter_base@DV?$stream_output_adapter@D@__crt_stdio_output@@@2@@__crt_stdio_output@@CAPA_WXZ 1005a2fd f i libucrt:output.obj
 0001:00059303       ?wide_null_string@?$output_processor@DV?$stream_output_adapter@D@__crt_stdio_output@@V?$standard_base@DV?$stream_output_adapter@D@__crt_stdio_output@@@2@@__crt_stdio_output@@CAPA_WXZ 1005a303 f i libucrt:output.obj
 0001:00059309       ?wide_null_string@?$output_processor@DV?$string_output_adapter@D@__crt_stdio_output@@V?$format_validation_base@DV?$string_output_adapter@D@__crt_stdio_output@@@2@@__crt_stdio_output@@CAPA_WXZ 1005a309 f i libucrt:output.obj
 0001:0005930f       ?wide_null_string@?$output_processor@DV?$string_output_adapter@D@__crt_stdio_output@@V?$positional_parameter_base@DV?$string_output_adapter@D@__crt_stdio_output@@@2@@__crt_stdio_output@@CAPA_WXZ 1005a30f f i libucrt:output.obj
 0001:00059315       ?wide_null_string@?$output_processor@DV?$string_output_adapter@D@__crt_stdio_output@@V?$standard_base@DV?$string_output_adapter@D@__crt_stdio_output@@@2@@__crt_stdio_output@@CAPA_WXZ 1005a315 f i libucrt:output.obj
 0001:0005931b       ?wide_null_string@?$output_processor@_WV?$stream_output_adapter@_W@__crt_stdio_output@@V?$format_validation_base@_WV?$stream_output_adapter@_W@__crt_stdio_output@@@2@@__crt_stdio_output@@CAPA_WXZ 1005a31b f i libucrt:output.obj
 0001:00059321       ?wide_null_string@?$output_processor@_WV?$stream_output_adapter@_W@__crt_stdio_output@@V?$positional_parameter_base@_WV?$stream_output_adapter@_W@__crt_stdio_output@@@2@@__crt_stdio_output@@CAPA_WXZ 1005a321 f i libucrt:output.obj
 0001:00059327       ?wide_null_string@?$output_processor@_WV?$stream_output_adapter@_W@__crt_stdio_output@@V?$standard_base@_WV?$stream_output_adapter@_W@__crt_stdio_output@@@2@@__crt_stdio_output@@CAPA_WXZ 1005a327 f i libucrt:output.obj
 0001:0005932d       ?wide_null_string@?$output_processor@_WV?$string_output_adapter@_W@__crt_stdio_output@@V?$format_validation_base@_WV?$string_output_adapter@_W@__crt_stdio_output@@@2@@__crt_stdio_output@@CAPA_WXZ 1005a32d f i libucrt:output.obj
 0001:00059333       ?wide_null_string@?$output_processor@_WV?$string_output_adapter@_W@__crt_stdio_output@@V?$positional_parameter_base@_WV?$string_output_adapter@_W@__crt_stdio_output@@@2@@__crt_stdio_output@@CAPA_WXZ 1005a333 f i libucrt:output.obj
 0001:00059339       ?wide_null_string@?$output_processor@_WV?$string_output_adapter@_W@__crt_stdio_output@@V?$standard_base@_WV?$string_output_adapter@_W@__crt_stdio_output@@@2@@__crt_stdio_output@@CAPA_WXZ 1005a339 f i libucrt:output.obj
 0001:0005933f       ?write_character@?$output_adapter_common@DV?$stream_output_adapter@D@__crt_stdio_output@@@__crt_stdio_output@@QBEXDQAH@Z 1005a33f f i libucrt:output.obj
 0001:0005935e       ?write_character@?$output_adapter_common@_WV?$stream_output_adapter@_W@__crt_stdio_output@@@__crt_stdio_output@@QBEX_WQAH@Z 1005a35e f i libucrt:output.obj
 0001:0005937d       ?write_character@?$string_output_adapter@D@__crt_stdio_output@@QBE_NDQAH@Z 1005a37d f i libucrt:output.obj
 0001:000593bf       ?write_character@?$string_output_adapter@_W@__crt_stdio_output@@QBE_N_WQAH@Z 1005a3bf f i libucrt:output.obj
 0001:00059404       ?write_character_without_count_update@?$stream_output_adapter@D@__crt_stdio_output@@QBE_ND@Z 1005a404 f i libucrt:output.obj
 0001:0005943a       ?write_character_without_count_update@?$stream_output_adapter@_W@__crt_stdio_output@@QBE_N_W@Z 1005a43a f i libucrt:output.obj
 0001:00059473       ?write_stored_string_tchar@?$output_processor@DV?$stream_output_adapter@D@__crt_stdio_output@@V?$format_validation_base@DV?$stream_output_adapter@D@__crt_stdio_output@@@2@@__crt_stdio_output@@AAE_ND@Z 1005a473 f i libucrt:output.obj
 0001:00059518       ?write_stored_string_tchar@?$output_processor@DV?$stream_output_adapter@D@__crt_stdio_output@@V?$positional_parameter_base@DV?$stream_output_adapter@D@__crt_stdio_output@@@2@@__crt_stdio_output@@AAE_ND@Z 1005a518 f i libucrt:output.obj
 0001:000595bd       ?write_stored_string_tchar@?$output_processor@DV?$stream_output_adapter@D@__crt_stdio_output@@V?$standard_base@DV?$stream_output_adapter@D@__crt_stdio_output@@@2@@__crt_stdio_output@@AAE_ND@Z 1005a5bd f i libucrt:output.obj
 0001:00059662       ?write_stored_string_tchar@?$output_processor@DV?$string_output_adapter@D@__crt_stdio_output@@V?$format_validation_base@DV?$string_output_adapter@D@__crt_stdio_output@@@2@@__crt_stdio_output@@AAE_ND@Z 1005a662 f i libucrt:output.obj
 0001:00059707       ?write_stored_string_tchar@?$output_processor@DV?$string_output_adapter@D@__crt_stdio_output@@V?$positional_parameter_base@DV?$string_output_adapter@D@__crt_stdio_output@@@2@@__crt_stdio_output@@AAE_ND@Z 1005a707 f i libucrt:output.obj
 0001:000597ac       ?write_stored_string_tchar@?$output_processor@DV?$string_output_adapter@D@__crt_stdio_output@@V?$standard_base@DV?$string_output_adapter@D@__crt_stdio_output@@@2@@__crt_stdio_output@@AAE_ND@Z 1005a7ac f i libucrt:output.obj
 0001:00059851       ?write_stored_string_tchar@?$output_processor@_WV?$stream_output_adapter@_W@__crt_stdio_output@@V?$format_validation_base@_WV?$stream_output_adapter@_W@__crt_stdio_output@@@2@@__crt_stdio_output@@AAE_N_W@Z 1005a851 f i libucrt:output.obj
 0001:000598de       ?write_stored_string_tchar@?$output_processor@_WV?$stream_output_adapter@_W@__crt_stdio_output@@V?$positional_parameter_base@_WV?$stream_output_adapter@_W@__crt_stdio_output@@@2@@__crt_stdio_output@@AAE_N_W@Z 1005a8de f i libucrt:output.obj
 0001:0005996b       ?write_stored_string_tchar@?$output_processor@_WV?$stream_output_adapter@_W@__crt_stdio_output@@V?$standard_base@_WV?$stream_output_adapter@_W@__crt_stdio_output@@@2@@__crt_stdio_output@@AAE_N_W@Z 1005a96b f i libucrt:output.obj
 0001:000599f8       ?write_stored_string_tchar@?$output_processor@_WV?$string_output_adapter@_W@__crt_stdio_output@@V?$format_validation_base@_WV?$string_output_adapter@_W@__crt_stdio_output@@@2@@__crt_stdio_output@@AAE_N_W@Z 1005a9f8 f i libucrt:output.obj
 0001:00059a85       ?write_stored_string_tchar@?$output_processor@_WV?$string_output_adapter@_W@__crt_stdio_output@@V?$positional_parameter_base@_WV?$string_output_adapter@_W@__crt_stdio_output@@@2@@__crt_stdio_output@@AAE_N_W@Z 1005aa85 f i libucrt:output.obj
 0001:00059b12       ?write_stored_string_tchar@?$output_processor@_WV?$string_output_adapter@_W@__crt_stdio_output@@V?$standard_base@_WV?$string_output_adapter@_W@__crt_stdio_output@@@2@@__crt_stdio_output@@AAE_N_W@Z 1005ab12 f i libucrt:output.obj
 0001:00059b9f       ?write_string@?$stream_output_adapter@D@__crt_stdio_output@@QBEXQBDHQAHAAV__crt_deferred_errno_cache@@@Z 1005ab9f f i libucrt:output.obj
 0001:00059bcb       ?write_string@?$stream_output_adapter@_W@__crt_stdio_output@@QBEXQB_WHQAHAAV__crt_deferred_errno_cache@@@Z 1005abcb f i libucrt:output.obj
 0001:00059bf7       ?write_string@?$string_output_adapter@D@__crt_stdio_output@@QBEXQBDHQAHAAV__crt_deferred_errno_cache@@@Z 1005abf7 f i libucrt:output.obj
 0001:00059c5e       ?write_string@?$string_output_adapter@_W@__crt_stdio_output@@QBEXQB_WHQAHAAV__crt_deferred_errno_cache@@@Z 1005ac5e f i libucrt:output.obj
 0001:00059ccf       ?write_string_impl@?$output_adapter_common@DV?$stream_output_adapter@D@__crt_stdio_output@@@__crt_stdio_output@@IBEXQBDHQAHAAV__crt_deferred_errno_cache@@@Z 1005accf f i libucrt:output.obj
 0001:00059d6d       ?write_string_impl@?$output_adapter_common@_WV?$stream_output_adapter@_W@__crt_stdio_output@@@__crt_stdio_output@@IBEXQB_WHQAHAAV__crt_deferred_errno_cache@@@Z 1005ad6d f i libucrt:output.obj
 0001:00059e0e       ___acrt_disable_global_locale_sync 1005ae0e f i libucrt:output.obj
 0001:00059e21       ___acrt_enable_global_locale_sync 1005ae21 f i libucrt:output.obj
 0001:00059e36       ___acrt_isleadbyte_l_noupdate 1005ae36 f i libucrt:output.obj
 0001:00059e54       ___acrt_locale_changed     1005ae54 f i libucrt:output.obj
 0001:00059e5f       ___acrt_locale_get_ctype_array_value 1005ae5f f i libucrt:output.obj
 0001:00059e81       ___stdio_common_vfprintf   1005ae81 f   libucrt:output.obj
 0001:00059f04       ___stdio_common_vfprintf_p 1005af04 f   libucrt:output.obj
 0001:00059f87       ___stdio_common_vfprintf_s 1005af87 f   libucrt:output.obj
 0001:0005a00a       ___stdio_common_vfwprintf  1005b00a f   libucrt:output.obj
 0001:0005a08d       ___stdio_common_vfwprintf_p 1005b08d f   libucrt:output.obj
 0001:0005a110       ___stdio_common_vfwprintf_s 1005b110 f   libucrt:output.obj
 0001:0005a193       ___stdio_common_vsnprintf_s 1005b193 f   libucrt:output.obj
 0001:0005a1ba       ___stdio_common_vsnwprintf_s 1005b1ba f   libucrt:output.obj
 0001:0005a1e1       ___stdio_common_vsprintf   1005b1e1 f   libucrt:output.obj
 0001:0005a205       ___stdio_common_vsprintf_p 1005b205 f   libucrt:output.obj
 0001:0005a229       ___stdio_common_vsprintf_s 1005b229 f   libucrt:output.obj
 0001:0005a24d       ___stdio_common_vswprintf  1005b24d f   libucrt:output.obj
 0001:0005a271       ___stdio_common_vswprintf_p 1005b271 f   libucrt:output.obj
 0001:0005a295       ___stdio_common_vswprintf_s 1005b295 f   libucrt:output.obj
 0001:0005a2b9       __ctype_fast_check_internal 1005b2b9 f i libucrt:output.obj
 0001:0005a2d3       __isdigit_fast_internal    1005b2d3 f i libucrt:output.obj
 0001:0005a2ed       __tolower_fast_internal    1005b2ed f i libucrt:output.obj
 0001:0005a360       _strcpy_s                  1005b360 f   libucrt:strcpy_s.obj
 0001:0005a3c0       _strcmp                    1005b3c0 f   libucrt:strcmp.obj
 0001:0005a450       _strlen                    1005b450 f   libucrt:strlen.obj
 0001:0005a4db       ??0?$__crt_scoped_stack_ptr@D@@QAE@U?$__crt_scoped_stack_ptr_tag@D@@@Z 1005b4db f i libucrt:strlwr.obj
 0001:0005a4eb       ??0?$__crt_scoped_stack_ptr_tag@D@@QAE@QAD@Z 1005b4eb f i libucrt:strlwr.obj
 0001:0005a4fb       ??1?$__crt_scoped_stack_ptr@D@@QAE@XZ 1005b4fb f i libucrt:strlwr.obj
 0001:0005a504       ??B?$__crt_scoped_stack_ptr@D@@QBE_NXZ 1005b504 f i libucrt:strlwr.obj
 0001:0005a677       ?get@?$__crt_scoped_stack_ptr@D@@QBEPADXZ 1005b677 f i libucrt:strlwr.obj
 0001:0005a67a       __MallocaComputeSize       1005b67a f i libucrt:strlwr.obj
 0001:0005a68d       __MarkAllocaS              1005b68d f i libucrt:strlwr.obj
 0001:0005a6a3       __freea_crt                1005b6a3 f i libucrt:strlwr.obj
 0001:0005a6c3       __strlwr                   1005b6c3 f   libucrt:strlwr.obj
 0001:0005a71f       __strlwr_l                 1005b71f f   libucrt:strlwr.obj
 0001:0005a739       __strlwr_s                 1005b739 f   libucrt:strlwr.obj
 0001:0005a750       __strlwr_s_l               1005b750 f   libucrt:strlwr.obj
 0001:0005ac7b       ??$gmtime_s@ABQAUtm@@ABQBJ@?$__crt_integer_traits@J@@SAHABQAUtm@@ABQBJ@Z 1005bc7b f i libucrt:localtime.obj
 0001:0005ac93       ??$gmtime_s@ABQAUtm@@ABQB_J@?$__crt_integer_traits@_J@@SAHABQAUtm@@ABQB_J@Z 1005bc93 f i libucrt:localtime.obj
 0001:0005acab       ??$gmtime_s@ABQAUtm@@PAJ@?$__crt_integer_traits@J@@SAHABQAUtm@@$$QAPAJ@Z 1005bcab f i libucrt:localtime.obj
 0001:0005acc3       ??$gmtime_s@ABQAUtm@@PA_J@?$__crt_integer_traits@_J@@SAHABQAUtm@@$$QAPA_J@Z 1005bcc3 f i libucrt:localtime.obj
 0001:0005acdb       ??$localtime_s@ABQAUtm@@ABQBJ@?$__crt_integer_traits@J@@SAHABQAUtm@@ABQBJ@Z 1005bcdb f i libucrt:localtime.obj
 0001:0005acf4       ??$localtime_s@ABQAUtm@@ABQB_J@?$__crt_integer_traits@_J@@SAHABQAUtm@@ABQB_J@Z 1005bcf4 f i libucrt:localtime.obj
 0001:0005ad0d       __invoke_watson_if_error   1005bd0d f i libucrt:localtime.obj
 0001:0005ad2f       __localtime32              1005bd2f f   libucrt:localtime.obj
 0001:0005ad56       __localtime32_s            1005bd56 f   libucrt:localtime.obj
 0001:0005ad61       __localtime64              1005bd61 f   libucrt:localtime.obj
 0001:0005ad88       __localtime64_s            1005bd88 f   libucrt:localtime.obj
 0001:0005ad93       ??$?R_W@__crt_internal_free_policy@@QBEXQB_W@Z 1005bd93 f i libucrt:strftime.obj
 0001:0005af1e       ??$__acrt_mbs_to_wcs_cp@U__crt_win32_buffer_internal_dynamic_resizing@@@@YAHQBDAAV?$__crt_win32_buffer@_WU__crt_win32_buffer_internal_dynamic_resizing@@@@I@Z 1005bf1e f i libucrt:strftime.obj
 0001:0005af3b       ??$__acrt_wcs_to_mbs_cp@U__crt_win32_buffer_no_resizing@@@@YAHQB_WAAV?$__crt_win32_buffer@DU__crt_win32_buffer_no_resizing@@@@I@Z 1005bf3b f i libucrt:strftime.obj
 0001:0005af58       ??0?$__crt_unique_heap_ptr@_WU__crt_internal_free_policy@@@@QAE@QA_W@Z 1005bf58 f i libucrt:strftime.obj
 0001:0005af68       ??0?$__crt_win32_buffer@DU__crt_win32_buffer_no_resizing@@@@QAE@QADI@Z 1005bf68 f i libucrt:strftime.obj
 0001:0005af8c       ??0?$__crt_win32_buffer@_WU__crt_win32_buffer_internal_dynamic_resizing@@@@QAE@XZ 1005bf8c f i libucrt:strftime.obj
 0001:0005afa2       ??1?$__crt_unique_heap_ptr@_WU__crt_internal_free_policy@@@@QAE@XZ 1005bfa2 f i libucrt:strftime.obj
 0001:0005afb4       ??1?$__crt_win32_buffer@DU__crt_win32_buffer_no_resizing@@@@QAE@XZ 1005bfb4 f i libucrt:strftime.obj
 0001:0005afbf       ??1?$__crt_win32_buffer@_WU__crt_win32_buffer_internal_dynamic_resizing@@@@QAE@XZ 1005bfbf f i libucrt:strftime.obj
 0001:0005b009       ?_deallocate@?$__crt_win32_buffer@DU__crt_win32_buffer_no_resizing@@@@AAEXXZ 1005c009 f i libucrt:strftime.obj
 0001:0005b014       ?_deallocate@?$__crt_win32_buffer@_WU__crt_win32_buffer_internal_dynamic_resizing@@@@AAEXXZ 1005c014 f i libucrt:strftime.obj
 0001:0005b02e       ?allocate@?$__crt_win32_buffer@DU__crt_win32_buffer_no_resizing@@@@QAEHI@Z 1005c02e f i libucrt:strftime.obj
 0001:0005b055       ?allocate@?$__crt_win32_buffer@_WU__crt_win32_buffer_internal_dynamic_resizing@@@@QAEHI@Z 1005c055 f i libucrt:strftime.obj
 0001:0005b094       ?allocate@__crt_win32_buffer_internal_dynamic_resizing@@SAHQAPAXIABV__crt_win32_buffer_empty_debug_info@@@Z 1005c094 f i libucrt:strftime.obj
 0001:0005b0b3       ?allocate@__crt_win32_buffer_no_resizing@@SAHQAPAXIABV__crt_win32_buffer_empty_debug_info@@@Z 1005c0b3 f i libucrt:strftime.obj
 0001:0005b0c0       ?capacity@?$__crt_win32_buffer@DU__crt_win32_buffer_no_resizing@@@@QBEIXZ 1005c0c0 f i libucrt:strftime.obj
 0001:0005b0c4       ?capacity@?$__crt_win32_buffer@_WU__crt_win32_buffer_internal_dynamic_resizing@@@@QBEIXZ 1005c0c4 f i libucrt:strftime.obj
 0001:0005b0c8       ?data@?$__crt_win32_buffer@DU__crt_win32_buffer_no_resizing@@@@QAEPADXZ 1005c0c8 f i libucrt:strftime.obj
 0001:0005b0cc       ?data@?$__crt_win32_buffer@_WU__crt_win32_buffer_internal_dynamic_resizing@@@@QAEPA_WXZ 1005c0cc f i libucrt:strftime.obj
 0001:0005b0d0       ?deallocate@__crt_win32_buffer_internal_dynamic_resizing@@SAXQAXABV__crt_win32_buffer_empty_debug_info@@@Z 1005c0d0 f i libucrt:strftime.obj
 0001:0005b0e0       ?deallocate@__crt_win32_buffer_no_resizing@@SAXQAXABV__crt_win32_buffer_empty_debug_info@@@Z 1005c0e0 f i libucrt:strftime.obj
 0001:0005b0e3       ?debug_info@?$__crt_win32_buffer@DU__crt_win32_buffer_no_resizing@@@@QBEABV__crt_win32_buffer_empty_debug_info@@XZ 1005c0e3 f i libucrt:strftime.obj
 0001:0005b0e6       ?debug_info@?$__crt_win32_buffer@_WU__crt_win32_buffer_internal_dynamic_resizing@@@@QBEABV__crt_win32_buffer_empty_debug_info@@XZ 1005c0e6 f i libucrt:strftime.obj
 0001:0005b0e9       ?detach@?$__crt_unique_heap_ptr@DU__crt_internal_free_policy@@@@QAEPADXZ 1005c0e9 f i libucrt:strftime.obj
 0001:0005b0ef       ?get@?$__crt_unique_heap_ptr@_WU__crt_internal_free_policy@@@@QBEPA_WXZ 1005c0ef f i libucrt:strftime.obj
 0001:0005b0f2       ?release@?$__crt_unique_heap_ptr@_WU__crt_internal_free_policy@@@@QAEXXZ 1005c0f2 f i libucrt:strftime.obj
 0001:0005b104       ?set_to_nullptr@?$__crt_win32_buffer@DU__crt_win32_buffer_no_resizing@@@@QAEXXZ 1005c104 f i libucrt:strftime.obj
 0001:0005b118       ?set_to_nullptr@?$__crt_win32_buffer@_WU__crt_win32_buffer_internal_dynamic_resizing@@@@QAEXXZ 1005c118 f i libucrt:strftime.obj
 0001:0005b12f       ?size@?$__crt_win32_buffer@DU__crt_win32_buffer_no_resizing@@@@QAEXI@Z 1005c12f f i libucrt:strftime.obj
 0001:0005b13e       ?size@?$__crt_win32_buffer@DU__crt_win32_buffer_no_resizing@@@@QBEIXZ 1005c13e f i libucrt:strftime.obj
 0001:0005b142       ?size@?$__crt_win32_buffer@_WU__crt_win32_buffer_internal_dynamic_resizing@@@@QAEXI@Z 1005c142 f i libucrt:strftime.obj
 0001:0005b151       __Getdays                  1005c151 f   libucrt:strftime.obj
 0001:0005b15a       __Getdays_l                1005c15a f   libucrt:strftime.obj
 0001:0005b260       __Getmonths                1005c260 f   libucrt:strftime.obj
 0001:0005b269       __Getmonths_l              1005c269 f   libucrt:strftime.obj
 0001:0005b37d       __Gettnames                1005c37d f   libucrt:strftime.obj
 0001:0005b382       __Strftime                 1005c382 f   libucrt:strftime.obj
 0001:0005b3a2       __Strftime_l               1005c3a2 f   libucrt:strftime.obj
 0001:0005b49f       __strftime_l               1005c49f f   libucrt:strftime.obj
 0001:0005b4bf       _strftime                  1005c4bf f   libucrt:strftime.obj
 0001:0005b7cd       __time32                   1005c7cd f   libucrt:time.obj
 0001:0005b826       __time64                   1005c826 f   libucrt:time.obj
 0001:0005b884       __timespec32_get           1005c884 f   libucrt:time.obj
 0001:0005b88f       __timespec64_get           1005c88f f   libucrt:time.obj
 0001:0005b89a       ___acrt_errno_from_os_error 1005c89a f   libucrt:errno.obj
 0001:0005b8dd       ___acrt_errno_map_os_error 1005c8dd f   libucrt:errno.obj
 0001:0005b900       ___doserrno                1005c900 f   libucrt:errno.obj
 0001:0005b913       __errno                    1005c913 f   libucrt:errno.obj
 0001:0005b926       __get_doserrno             1005c926 f   libucrt:errno.obj
 0001:0005b94b       __get_errno                1005c94b f   libucrt:errno.obj
 0001:0005b970       __set_doserrno             1005c970 f   libucrt:errno.obj
 0001:0005b991       __set_errno                1005c991 f   libucrt:errno.obj
 0001:0005b9b2       ??$is_overflow_condition@K@__crt_strtox@@YA_NIK@Z 1005c9b2 f i libucrt:atox.obj
 0001:0005b9e3       ??$is_overflow_condition@_K@__crt_strtox@@YA_NI_K@Z 1005c9e3 f i libucrt:atox.obj
 0001:0005ba24       ??$make_c_string_character_source@D$$T@__crt_strtox@@YA?AV?$c_string_character_source@D@0@QBD$$T@Z 1005ca24 f i libucrt:atox.obj
 0001:0005ba3f       ??$make_c_string_character_source@_W$$T@__crt_strtox@@YA?AV?$c_string_character_source@_W@0@QB_W$$T@Z 1005ca3f f i libucrt:atox.obj
 0001:0005ba5a       ??$parse_integer@KV?$c_string_character_source@D@__crt_strtox@@@__crt_strtox@@YAKQAU__crt_locale_pointers@@V?$c_string_character_source@D@0@H_N@Z 1005ca5a f i libucrt:atox.obj
 0001:0005bc7d       ??$parse_integer@KV?$c_string_character_source@_W@__crt_strtox@@@__crt_strtox@@YAKQAU__crt_locale_pointers@@V?$c_string_character_source@_W@0@H_N@Z 1005cc7d f i libucrt:atox.obj
 0001:0005c285       ??$parse_integer@_KV?$c_string_character_source@D@__crt_strtox@@@__crt_strtox@@YA_KQAU__crt_locale_pointers@@V?$c_string_character_source@D@0@H_N@Z 1005d285 f i libucrt:atox.obj
 0001:0005c52b       ??$parse_integer@_KV?$c_string_character_source@_W@__crt_strtox@@@__crt_strtox@@YA_KQAU__crt_locale_pointers@@V?$c_string_character_source@_W@0@H_N@Z 1005d52b f i libucrt:atox.obj
 0001:0005cbfc       ??$parse_integer_from_string@JD$$T@__crt_strtox@@YAJQBD$$THQAU__crt_locale_pointers@@@Z 1005dbfc f i libucrt:atox.obj
 0001:0005cc27       ??$parse_integer_from_string@J_W$$T@__crt_strtox@@YAJQB_W$$THQAU__crt_locale_pointers@@@Z 1005dc27 f i libucrt:atox.obj
 0001:0005cc52       ??$parse_integer_from_string@_JD$$T@__crt_strtox@@YA_JQBD$$THQAU__crt_locale_pointers@@@Z 1005dc52 f i libucrt:atox.obj
 0001:0005cc7d       ??$parse_integer_from_string@_J_W$$T@__crt_strtox@@YA_JQB_W$$THQAU__crt_locale_pointers@@@Z 1005dc7d f i libucrt:atox.obj
 0001:0005cca8       ??0?$c_string_character_source@D@__crt_strtox@@QAE@QBDQAPBD@Z 1005dca8 f i libucrt:atox.obj
 0001:0005ccc4       ??0?$c_string_character_source@_W@__crt_strtox@@QAE@QB_WQAPB_W@Z 1005dcc4 f i libucrt:atox.obj
 0001:0005cce0       ??1?$c_string_character_source@D@__crt_strtox@@QAE@XZ 1005dce0 f i libucrt:atox.obj
 0001:0005ccec       ??1?$c_string_character_source@_W@__crt_strtox@@QAE@XZ 1005dcec f i libucrt:atox.obj
 0001:0005ccf8       ?get@?$c_string_character_source@D@__crt_strtox@@QAEDXZ 1005dcf8 f i libucrt:atox.obj
 0001:0005cd00       ?get@?$c_string_character_source@_W@__crt_strtox@@QAE_WXZ 1005dd00 f i libucrt:atox.obj
 0001:0005cd0b       ?is_space@__crt_strtox@@YA_NDQAU__crt_locale_pointers@@@Z 1005dd0b f i libucrt:atox.obj
 0001:0005cd29       ?is_space@__crt_strtox@@YA_N_WPAU__crt_locale_pointers@@@Z 1005dd29 f i libucrt:atox.obj
 0001:0005cd41       ?maximum_signed_value@__crt_strtox@@YAJK@Z 1005dd41 f i libucrt:atox.obj
 0001:0005cd47       ?maximum_signed_value@__crt_strtox@@YA_J_K@Z 1005dd47 f i libucrt:atox.obj
 0001:0005cd50       ?minimum_signed_value@__crt_strtox@@YAJK@Z 1005dd50 f i libucrt:atox.obj
 0001:0005cd56       ?minimum_signed_value@__crt_strtox@@YA_J_K@Z 1005dd56 f i libucrt:atox.obj
 0001:0005cd5e       ?parse_digit@__crt_strtox@@YAID@Z 1005dd5e f i libucrt:atox.obj
 0001:0005cd98       ?parse_digit@__crt_strtox@@YAI_W@Z 1005dd98 f i libucrt:atox.obj
 0001:0005cf77       ?restore_state@?$c_string_character_source@D@__crt_strtox@@QAE_NQBD@Z 1005df77 f i libucrt:atox.obj
 0001:0005cf87       ?restore_state@?$c_string_character_source@_W@__crt_strtox@@QAE_NQB_W@Z 1005df87 f i libucrt:atox.obj
 0001:0005cf97       ?save_state@?$c_string_character_source@D@__crt_strtox@@QBEPBDXZ 1005df97 f i libucrt:atox.obj
 0001:0005cf9a       ?save_state@?$c_string_character_source@_W@__crt_strtox@@QBEPB_WXZ 1005df9a f i libucrt:atox.obj
 0001:0005cf9d       ?unget@?$c_string_character_source@D@__crt_strtox@@QAEXD@Z 1005df9d f i libucrt:atox.obj
 0001:0005cfc6       ?unget@?$c_string_character_source@_W@__crt_strtox@@QAEX_W@Z 1005dfc6 f i libucrt:atox.obj
 0001:0005cff4       ?validate@?$c_string_character_source@D@__crt_strtox@@QBE_NXZ 1005dff4 f i libucrt:atox.obj
 0001:0005d00f       ?validate@?$c_string_character_source@_W@__crt_strtox@@QBE_NXZ 1005e00f f i libucrt:atox.obj
 0001:0005d02a       ?wide_character_to_digit@__crt_strtox@@YAH_W@Z 1005e02a f i libucrt:atox.obj
 0001:0005d1cb       ___acrt_get_locale_data_prefix 1005e1cb f i libucrt:atox.obj
 0001:0005d1d7       ___ascii_iswalpha          1005e1d7 f i libucrt:atox.obj
 0001:0005d1fa       ___ascii_toupper           1005e1fa f i libucrt:atox.obj
 0001:0005d211       ___ascii_towupper          1005e211 f i libucrt:atox.obj
 0001:0005d228       __atoi64                   1005e228 f   libucrt:atox.obj
 0001:0005d24b       __atoi64_l                 1005e24b f   libucrt:atox.obj
 0001:0005d26f       __atoi_l                   1005e26f f   libucrt:atox.obj
 0001:0005d293       __atol_l                   1005e293 f   libucrt:atox.obj
 0001:0005d2b7       __atoll_l                  1005e2b7 f   libucrt:atox.obj
 0001:0005d2db       __chvalidchk_l             1005e2db f i libucrt:atox.obj
 0001:0005d303       __ischartype_l             1005e303 f i libucrt:atox.obj
 0001:0005d357       __wtoi                     1005e357 f   libucrt:atox.obj
 0001:0005d37a       __wtoi64                   1005e37a f   libucrt:atox.obj
 0001:0005d39d       __wtoi64_l                 1005e39d f   libucrt:atox.obj
 0001:0005d3c1       __wtoi_l                   1005e3c1 f   libucrt:atox.obj
 0001:0005d3e5       __wtol                     1005e3e5 f   libucrt:atox.obj
 0001:0005d408       __wtol_l                   1005e408 f   libucrt:atox.obj
 0001:0005d42c       __wtoll                    1005e42c f   libucrt:atox.obj
 0001:0005d44f       __wtoll_l                  1005e44f f   libucrt:atox.obj
 0001:0005d473       _atoi                      1005e473 f   libucrt:atox.obj
 0001:0005d496       _atol                      1005e496 f   libucrt:atox.obj
 0001:0005d4b9       _atoll                     1005e4b9 f   libucrt:atox.obj
 0001:0005d545       _strcat_s                  1005e545 f   libucrt:strcat_s.obj
 0001:0005d5b0       _strncmp                   1005e5b0 f   libucrt:strncmp.obj
 0001:0005d794       __strupr                   1005e794 f   libucrt:strupr.obj
 0001:0005d7f0       __strupr_l                 1005e7f0 f   libucrt:strupr.obj
 0001:0005d80a       __strupr_s                 1005e80a f   libucrt:strupr.obj
 0001:0005d821       __strupr_s_l               1005e821 f   libucrt:strupr.obj
 0001:0005d858       ??$make_c_string_character_source@DPAPAD@__crt_strtox@@YA?AV?$c_string_character_source@D@0@QBDQAPAD@Z 1005e858 f i libucrt:strtox.obj
 0001:0005d873       ??$make_c_string_character_source@_WPAPA_W@__crt_strtox@@YA?AV?$c_string_character_source@_W@0@QB_WQAPA_W@Z 1005e873 f i libucrt:strtox.obj
 0001:0005d88e       ??$parse_integer_from_string@JDPAPAD@__crt_strtox@@YAJQBDQAPADHQAU__crt_locale_pointers@@@Z 1005e88e f i libucrt:strtox.obj
 0001:0005d8b9       ??$parse_integer_from_string@J_WPAPA_W@__crt_strtox@@YAJQB_WQAPA_WHQAU__crt_locale_pointers@@@Z 1005e8b9 f i libucrt:strtox.obj
 0001:0005d8e4       ??$parse_integer_from_string@KDPAPAD@__crt_strtox@@YAKQBDQAPADHQAU__crt_locale_pointers@@@Z 1005e8e4 f i libucrt:strtox.obj
 0001:0005d90f       ??$parse_integer_from_string@K_WPAPA_W@__crt_strtox@@YAKQB_WQAPA_WHQAU__crt_locale_pointers@@@Z 1005e90f f i libucrt:strtox.obj
 0001:0005d93a       ??$parse_integer_from_string@_JDPAPAD@__crt_strtox@@YA_JQBDQAPADHQAU__crt_locale_pointers@@@Z 1005e93a f i libucrt:strtox.obj
 0001:0005d965       ??$parse_integer_from_string@_J_WPAPA_W@__crt_strtox@@YA_JQB_WQAPA_WHQAU__crt_locale_pointers@@@Z 1005e965 f i libucrt:strtox.obj
 0001:0005d990       ??$parse_integer_from_string@_KDPAPAD@__crt_strtox@@YA_KQBDQAPADHQAU__crt_locale_pointers@@@Z 1005e990 f i libucrt:strtox.obj
 0001:0005d9bb       ??$parse_integer_from_string@_K_WPAPA_W@__crt_strtox@@YA_KQB_WQAPA_WHQAU__crt_locale_pointers@@@Z 1005e9bb f i libucrt:strtox.obj
 0001:0005d9e6       __strtoi64                 1005e9e6 f   libucrt:strtox.obj
 0001:0005da10       __strtoi64_l               1005ea10 f   libucrt:strtox.obj
 0001:0005da3b       __strtoimax_l              1005ea3b f   libucrt:strtox.obj
 0001:0005da66       __strtol_l                 1005ea66 f   libucrt:strtox.obj
 0001:0005da91       __strtoll_l                1005ea91 f   libucrt:strtox.obj
 0001:0005dabc       __strtoui64                1005eabc f   libucrt:strtox.obj
 0001:0005dae6       __strtoui64_l              1005eae6 f   libucrt:strtox.obj
 0001:0005db11       __strtoul_l                1005eb11 f   libucrt:strtox.obj
 0001:0005db3c       __strtoull_l               1005eb3c f   libucrt:strtox.obj
 0001:0005db67       __strtoumax_l              1005eb67 f   libucrt:strtox.obj
 0001:0005db92       __wcstoi64                 1005eb92 f   libucrt:strtox.obj
 0001:0005dbbc       __wcstoi64_l               1005ebbc f   libucrt:strtox.obj
 0001:0005dbe7       __wcstoimax_l              1005ebe7 f   libucrt:strtox.obj
 0001:0005dc12       __wcstol_l                 1005ec12 f   libucrt:strtox.obj
 0001:0005dc3d       __wcstoll_l                1005ec3d f   libucrt:strtox.obj
 0001:0005dc68       __wcstoui64                1005ec68 f   libucrt:strtox.obj
 0001:0005dc92       __wcstoui64_l              1005ec92 f   libucrt:strtox.obj
 0001:0005dcbd       __wcstoul_l                1005ecbd f   libucrt:strtox.obj
 0001:0005dce8       __wcstoull_l               1005ece8 f   libucrt:strtox.obj
 0001:0005dd13       __wcstoumax_l              1005ed13 f   libucrt:strtox.obj
 0001:0005dd3e       _strtoimax                 1005ed3e f   libucrt:strtox.obj
 0001:0005dd68       _strtol                    1005ed68 f   libucrt:strtox.obj
 0001:0005dd92       _strtoll                   1005ed92 f   libucrt:strtox.obj
 0001:0005ddbc       _strtoul                   1005edbc f   libucrt:strtox.obj
 0001:0005dde6       _strtoull                  1005ede6 f   libucrt:strtox.obj
 0001:0005de10       _strtoumax                 1005ee10 f   libucrt:strtox.obj
 0001:0005de3a       _wcstoimax                 1005ee3a f   libucrt:strtox.obj
 0001:0005de64       _wcstol                    1005ee64 f   libucrt:strtox.obj
 0001:0005de8e       _wcstoll                   1005ee8e f   libucrt:strtox.obj
 0001:0005deb8       _wcstoul                   1005eeb8 f   libucrt:strtox.obj
 0001:0005dee2       _wcstoull                  1005eee2 f   libucrt:strtox.obj
 0001:0005df0c       _wcstoumax                 1005ef0c f   libucrt:strtox.obj
 0001:0005e94b       ??$tcsncpy_s@AAPADIAAPBDABI@?$__crt_char_traits@D@@SAHAAPAD$$QAIAAPBDABI@Z 1005f94b f i libucrt:splitpath.obj
 0001:0005e96e       ??$tcsncpy_s@AAPADIAAPBDH@?$__crt_char_traits@D@@SAHAAPAD$$QAIAAPBD$$QAH@Z 1005f96e f i libucrt:splitpath.obj
 0001:0005e991       ??$tcsncpy_s@AAPA_WIAAPB_WABI@?$__crt_char_traits@_W@@SAHAAPA_W$$QAIAAPB_WABI@Z 1005f991 f i libucrt:splitpath.obj
 0001:0005e9b4       ??$tcsncpy_s@AAPA_WIAAPB_WH@?$__crt_char_traits@_W@@SAHAAPA_W$$QAIAAPB_W$$QAH@Z 1005f9b4 f i libucrt:splitpath.obj
 0001:0005ea71       __splitpath                1005fa71 f   libucrt:splitpath.obj
 0001:0005eada       __splitpath_s              1005fada f   libucrt:splitpath.obj
 0001:0005eb31       __wsplitpath               1005fb31 f   libucrt:splitpath.obj
 0001:0005eb9a       __wsplitpath_s             1005fb9a f   libucrt:splitpath.obj
 0001:0005f3ec       ??1?$__crt_simd_cleanup_guard@$00@@QAE@XZ 100603ec f i libucrt:strnlen.obj
 0001:0005f3f0       ??1?$__crt_simd_cleanup_guard@$0A@@@QAE@XZ 100603f0 f i libucrt:strnlen.obj
 0001:0005f3f3       ?compare_equals@?$__crt_simd_traits@$00E@@SA?AT__m256i@@T2@0@Z 100603f3 f i libucrt:strnlen.obj
 0001:0005f3f8       ?compare_equals@?$__crt_simd_traits@$00G@@SA?AT__m256i@@T2@0@Z 100603f8 f i libucrt:strnlen.obj
 0001:0005f3fd       ?compare_equals@?$__crt_simd_traits@$0A@E@@SA?AT__m128i@@T2@0@Z 100603fd f i libucrt:strnlen.obj
 0001:0005f402       ?compare_equals@?$__crt_simd_traits@$0A@G@@SA?AT__m128i@@T2@0@Z 10060402 f i libucrt:strnlen.obj
 0001:0005f407       ?compute_byte_mask@?$__crt_simd_pack_traits@$00@@SAHT__m256i@@@Z 10060407 f i libucrt:strnlen.obj
 0001:0005f40c       ?compute_byte_mask@?$__crt_simd_pack_traits@$0A@@@SAHT__m128i@@@Z 1006040c f i libucrt:strnlen.obj
 0001:0005f411       ?get_zero_pack@?$__crt_simd_pack_traits@$00@@SA?AT__m256i@@XZ 10060411 f i libucrt:strnlen.obj
 0001:0005f416       ?get_zero_pack@?$__crt_simd_pack_traits@$0A@@@SA?AT__m128i@@XZ 10060416 f i libucrt:strnlen.obj
 0001:0005f41a       _strnlen                   1006041a f   libucrt:strnlen.obj
 0001:0005f53c       _wcslen                    1006053c f   libucrt:strnlen.obj
 0001:0005f664       _wcsnlen                   10060664 f   libucrt:strnlen.obj
 0001:0005f814       __abs64                    10060814 f   libucrt:abs.obj
 0001:0005f82e       _abs                       1006082e f   libucrt:abs.obj
 0001:0005f840       _cos                       10060840 f   libucrt:cos.obj
 0001:0005f890       _sin                       10060890 f   libucrt:sin.obj
 0001:0005f8d3       ??$?B$$A6AHI@Z@__crt_fast_encoded_nullptr_t@@QBEP6AHI@ZXZ 100608d3 f i libucrt:new_handler.obj
 0001:0005f8d9       ??$__crt_fast_decode_pointer@P6AHI@Z@@YAP6AHI@ZQ6AHI@Z@Z 100608d9 f i libucrt:new_handler.obj
 0001:0005f8ef       ??$__crt_fast_encode_pointer@P6AHI@Z@@YAP6AHI@ZQ6AHI@Z@Z 100608ef f i libucrt:new_handler.obj
 0001:0005f90e       ?__crt_fast_encode_pointer@@YA?AU__crt_fast_encoded_nullptr_t@@$$T@Z 1006090e f i libucrt:new_handler.obj
 0001:0005f919       ?_set_new_handler@@YAP6AHI@ZH@Z 10060919 f   libucrt:new_handler.obj
 0001:0005f926       ?initialize@?$dual_state_global@P6AHI@Z@__crt_state_management@@QAEXQ6AHI@Z@Z 10060926 f i libucrt:new_handler.obj
 0001:0005f94c       ?value@?$dual_state_global@P6AHI@Z@__crt_state_management@@QAEAAP6AHI@ZXZ 1006094c f i libucrt:new_handler.obj
 0001:0005f94f       ___acrt_initialize_new_handler 1006094f f   libucrt:new_handler.obj
 0001:0005f95e       __callnewh                 1006095e f   libucrt:new_handler.obj
 0001:0005f98b       __query_new_handler        1006098b f   libucrt:new_handler.obj
 0001:0005f9e7       __set_new_handler          100609e7 f   libucrt:new_handler.obj
 0001:0005fa51       ___ascii_stricmp           10060a51 f   libucrt:stricmp.obj
 0001:0005fa8a       ___ascii_tolower           10060a8a f i libucrt:stricmp.obj
 0001:0005faa1       __strcmpi                  10060aa1 f   libucrt:stricmp.obj
 0001:0005faa1       __stricmp                  10060aa1 f   libucrt:stricmp.obj
 0001:0005faea       __stricmp_l                10060aea f   libucrt:stricmp.obj
 0001:0005fb78       __errcode                  10060b78 f   libucrt:fpexcept.obj
 0001:0005fbac       __except1                  10060bac f   libucrt:fpexcept.obj
 0001:0005fc7a       __except2                  10060c7a f   libucrt:fpexcept.obj
 0001:0005fd82       __handle_exc               10060d82 f   libucrt:fpexcept.obj
 0001:0005ff6d       __handle_qnan2             10060f6d f   libucrt:fpexcept.obj
 0001:0005ff7a       __raise_exc                10060f7a f   libucrt:fpexcept.obj
 0001:0005ff9d       __raise_exc_ex             10060f9d f   libucrt:fpexcept.obj
 0001:00060293       __raise_excf               10061293 f   libucrt:fpexcept.obj
 0001:000602b6       __set_errno_from_matherr   100612b6 f   libucrt:fpexcept.obj
 0001:000602e5       __umatherr                 100612e5 f   libucrt:fpexcept.obj
 0001:0006039b       __get_terminate            1006139b f   libucrt:terminate.obj
 0001:000603ad       _set_terminate             100613ad f   libucrt:terminate.obj
 0001:000603cd       _terminate                 100613cd f   libucrt:terminate.obj
 0001:00060409       __initterm                 10061409 f   libucrt:initterm.obj
 0001:0006044e       __initterm_e               1006144e f   libucrt:initterm.obj
 0001:000604a0       __seh_filter_dll           100614a0 f   libucrt:exception_filter.obj
 0001:000604c0       __seh_filter_exe           100614c0 f   libucrt:exception_filter.obj
 0001:00060618       ??$?B$$A6GXPAXK0@Z@__crt_fast_encoded_nullptr_t@@QBEP6GXPAXK0@ZXZ 10061618 f i libucrt:exit.obj
 0001:00060691       ??$__crt_fast_decode_pointer@P6GXPAXK0@Z@@YAP6GXPAXK0@ZQ6GX0K0@Z@Z 10061691 f i libucrt:exit.obj
 0001:000606a7       ??$__crt_fast_encode_pointer@P6GXPAXK0@Z@@YAP6GXPAXK0@ZQ6GX0K0@Z@Z 100616a7 f i libucrt:exit.obj
 0001:000606c6       ??$__crt_get_proc_address@P6GXI@Z@@YAP6GXI@ZQAUHINSTANCE__@@QBD@Z 100616c6 f i libucrt:exit.obj
 0001:00060719       ??0?$__crt_unique_handle_t@U__crt_hmodule_traits@@@@QAE@QAUHINSTANCE__@@@Z 10061719 f i libucrt:exit.obj
 0001:00060729       ??1?$__crt_unique_handle_t@U__crt_hmodule_traits@@@@QAE@XZ 10061729 f i libucrt:exit.obj
 0001:0006082c       ?__acrt_select_exit_lock@@YA?AW4__acrt_lock_id@@XZ 1006182c f i libucrt:exit.obj
 0001:00060843       ?close@?$__crt_unique_handle_t@U__crt_hmodule_traits@@@@QAEXXZ 10061843 f i libucrt:exit.obj
 0001:0006085a       ?close@__crt_hmodule_traits@@SA_NPAUHINSTANCE__@@@Z 1006185a f i libucrt:exit.obj
 0001:00060915       ?get@?$__crt_unique_handle_t@U__crt_hmodule_traits@@@@QBEPAUHINSTANCE__@@XZ 10061915 f i libucrt:exit.obj
 0001:00060918       ?get_address_of@?$__crt_unique_handle_t@U__crt_hmodule_traits@@@@QAEPAPAUHINSTANCE__@@XZ 10061918 f i libucrt:exit.obj
 0001:0006091b       ?get_invalid_value@__crt_hmodule_traits@@SAPAUHINSTANCE__@@XZ 1006191b f i libucrt:exit.obj
 0001:000609d6       __Exit                     100619d6 f   libucrt:exit.obj
 0001:000609ec       ___acrt_initialize_thread_local_exit_callback 100619ec f   libucrt:exit.obj
 0001:000609fb       __c_exit                   100619fb f   libucrt:exit.obj
 0001:00060a0a       __cexit                    10061a0a f   libucrt:exit.obj
 0001:00060a19       __exit                     10061a19 f   libucrt:exit.obj
 0001:00060a2f       __is_c_termination_complete 10061a2f f   libucrt:exit.obj
 0001:00060a36       __register_thread_local_exe_atexit_callback 10061a36 f   libucrt:exit.obj
 0001:00060a5c       _exit                      10061a5c f   libucrt:exit.obj
 0001:00060a72       _quick_exit                10061a72 f   libucrt:exit.obj
 0001:00060a88       ??$?RE@__crt_internal_free_policy@@QBEXQBE@Z 10061a88 f i libucrt:argv_parsing.obj
 0001:00060a9a       ??$?RPAD@__crt_internal_free_policy@@QBEXQBQAD@Z 10061a9a f i libucrt:argv_parsing.obj
 0001:00060aac       ??$?RPA_W@__crt_internal_free_policy@@QBEXQBQA_W@Z 10061aac f i libucrt:argv_parsing.obj
 0001:00060d23       ??$get_module_file_name@$$TAAY0BAF@DH@?$__crt_char_traits@D@@SAK$$QA$$TAAY0BAF@D$$QAH@Z 10061d23 f i libucrt:argv_parsing.obj
 0001:00060d3f       ??$get_module_file_name@$$TAAY0BAF@_WH@?$__crt_char_traits@_W@@SAK$$QA$$TAAY0BAF@_W$$QAH@Z 10061d3f f i libucrt:argv_parsing.obj
 0001:00061061       ??$set_program_name@PAD@?$__crt_char_traits@D@@SAX$$QAPAD@Z 10062061 f i libucrt:argv_parsing.obj
 0001:00061072       ??$set_program_name@PA_W@?$__crt_char_traits@_W@@SAX$$QAPA_W@Z 10062072 f i libucrt:argv_parsing.obj
 0001:000610a3       ??0?$__crt_unique_heap_ptr@EU__crt_internal_free_policy@@@@QAE@QAE@Z 100620a3 f i libucrt:argv_parsing.obj
 0001:000610b3       ??0?$__crt_unique_heap_ptr@PADU__crt_internal_free_policy@@@@QAE@QAPAD@Z 100620b3 f i libucrt:argv_parsing.obj
 0001:000610c3       ??0?$__crt_unique_heap_ptr@PA_WU__crt_internal_free_policy@@@@QAE@QAPA_W@Z 100620c3 f i libucrt:argv_parsing.obj
 0001:000610d3       ??1?$__crt_unique_heap_ptr@EU__crt_internal_free_policy@@@@QAE@XZ 100620d3 f i libucrt:argv_parsing.obj
 0001:000610e5       ??1?$__crt_unique_heap_ptr@PADU__crt_internal_free_policy@@@@QAE@XZ 100620e5 f i libucrt:argv_parsing.obj
 0001:000610f7       ??1?$__crt_unique_heap_ptr@PA_WU__crt_internal_free_policy@@@@QAE@XZ 100620f7 f i libucrt:argv_parsing.obj
 0001:00061109       ??B?$__crt_unique_heap_ptr@EU__crt_internal_free_policy@@@@QBE_NXZ 10062109 f i libucrt:argv_parsing.obj
 0001:0006113c       ?detach@?$__crt_unique_heap_ptr@EU__crt_internal_free_policy@@@@QAEPAEXZ 1006213c f i libucrt:argv_parsing.obj
 0001:00061142       ?detach@?$__crt_unique_heap_ptr@PADU__crt_internal_free_policy@@@@QAEPAPADXZ 10062142 f i libucrt:argv_parsing.obj
 0001:00061148       ?detach@?$__crt_unique_heap_ptr@PA_WU__crt_internal_free_policy@@@@QAEPAPA_WXZ 10062148 f i libucrt:argv_parsing.obj
 0001:0006116c       ?get@?$__crt_unique_heap_ptr@EU__crt_internal_free_policy@@@@QBEPAEXZ 1006216c f i libucrt:argv_parsing.obj
 0001:0006116f       ?get@?$__crt_unique_heap_ptr@PADU__crt_internal_free_policy@@@@QBEPAPADXZ 1006216f f i libucrt:argv_parsing.obj
 0001:00061172       ?get@?$__crt_unique_heap_ptr@PA_WU__crt_internal_free_policy@@@@QBEPAPA_WXZ 10062172 f i libucrt:argv_parsing.obj
 0001:00061175       ?get_address_of@?$__crt_unique_heap_ptr@PADU__crt_internal_free_policy@@@@QAEPAPAPADXZ 10062175 f i libucrt:argv_parsing.obj
 0001:00061178       ?get_address_of@?$__crt_unique_heap_ptr@PA_WU__crt_internal_free_policy@@@@QAEPAPAPA_WXZ 10062178 f i libucrt:argv_parsing.obj
 0001:00061193       ?is_valid@?$__crt_unique_heap_ptr@EU__crt_internal_free_policy@@@@QBE_NXZ 10062193 f i libucrt:argv_parsing.obj
 0001:0006119a       ?release@?$__crt_unique_heap_ptr@EU__crt_internal_free_policy@@@@QAEXXZ 1006219a f i libucrt:argv_parsing.obj
 0001:000611ac       ?release@?$__crt_unique_heap_ptr@PADU__crt_internal_free_policy@@@@QAEXXZ 100621ac f i libucrt:argv_parsing.obj
 0001:000611be       ?release@?$__crt_unique_heap_ptr@PA_WU__crt_internal_free_policy@@@@QAEXXZ 100621be f i libucrt:argv_parsing.obj
 0001:000611ea       ___acrt_allocate_buffer_for_argv 100621ea f   libucrt:argv_parsing.obj
 0001:00061239       __configure_narrow_argv    10062239 f   libucrt:argv_parsing.obj
 0001:00061244       __configure_wide_argv      10062244 f   libucrt:argv_parsing.obj
 0001:0006124f       __set_pgmptr               1006224f f i libucrt:argv_parsing.obj
 0001:0006125e       __set_wpgmptr              1006225e f i libucrt:argv_parsing.obj
 0001:00061646       ??$get_environment_from_os@$$V@?$__crt_char_traits@D@@SAPADXZ 10062646 f i libucrt:environment_initialization.obj
 0001:0006164b       ??$get_environment_from_os@$$V@?$__crt_char_traits@_W@@SAPA_WXZ 1006264b f i libucrt:environment_initialization.obj
 0001:00061750       ??$set_variable_in_environment_nolock@PADH@?$__crt_char_traits@D@@SAH$$QAPAD$$QAH@Z 10062750 f i libucrt:environment_initialization.obj
 0001:00061768       ??$set_variable_in_environment_nolock@PA_WH@?$__crt_char_traits@_W@@SAH$$QAPA_W$$QAH@Z 10062768 f i libucrt:environment_initialization.obj
 0001:00061780       ??$tcscpy_s@PADABIAAPAD@?$__crt_char_traits@D@@SAH$$QAPADABIAAPAD@Z 10062780 f i libucrt:environment_initialization.obj
 0001:0006179e       ??$tcscpy_s@PA_WABIAAPA_W@?$__crt_char_traits@_W@@SAH$$QAPA_WABIAAPA_W@Z 1006279e f i libucrt:environment_initialization.obj
 0001:000617bc       ??$tcslen@AAPAD@?$__crt_char_traits@D@@SAIAAPAD@Z 100627bc f i libucrt:environment_initialization.obj
 0001:000617d4       ??$tcslen@AAPA_W@?$__crt_char_traits@_W@@SAIAAPA_W@Z 100627d4 f i libucrt:environment_initialization.obj
 0001:000617f2       ??$uninitialize@A6AXAAPAPAD@Z@?$dual_state_global@PAPAD@__crt_state_management@@QAEXA6AXAAPAPAD@Z@Z 100627f2 f i libucrt:environment_initialization.obj
 0001:0006181b       ??$uninitialize@A6AXAAPAPA_W@Z@?$dual_state_global@PAPA_W@__crt_state_management@@QAEXA6AXAAPAPA_W@Z@Z 1006281b f i libucrt:environment_initialization.obj
 0001:0006187a       ??B?$__crt_unique_heap_ptr@PADU__crt_internal_free_policy@@@@QBE_NXZ 1006287a f i libucrt:environment_initialization.obj
 0001:00061881       ??B?$__crt_unique_heap_ptr@PA_WU__crt_internal_free_policy@@@@QBE_NXZ 10062881 f i libucrt:environment_initialization.obj
 0001:00061888       ??B?$__crt_unique_heap_ptr@_WU__crt_internal_free_policy@@@@QBE_NXZ 10062888 f i libucrt:environment_initialization.obj
 0001:0006188f       ?__crt_compute_required_transform_buffer_count@@YAIIQBD@Z 1006288f f i libucrt:environment_initialization.obj
 0001:000618ab       ?__crt_compute_required_transform_buffer_count@@YAIIQB_W@Z 100628ab f i libucrt:environment_initialization.obj
 0001:000618c9       ?__crt_transform_string@@YAIIQBDQA_WI@Z 100628c9 f i libucrt:environment_initialization.obj
 0001:000618e8       ?__crt_transform_string@@YAIIQB_WQADI@Z 100628e8 f i libucrt:environment_initialization.obj
 0001:0006190a       ?detach@?$__crt_unique_heap_ptr@_WU__crt_internal_free_policy@@@@QAEPA_WXZ 1006290a f i libucrt:environment_initialization.obj
 0001:00061934       ?initialize@?$dual_state_global@PAPAD@__crt_state_management@@QAEXQAPAD@Z 10062934 f i libucrt:environment_initialization.obj
 0001:0006195a       ?initialize@?$dual_state_global@PAPA_W@__crt_state_management@@QAEXQAPA_W@Z 1006295a f i libucrt:environment_initialization.obj
 0001:00061980       ?is_valid@?$__crt_unique_heap_ptr@PADU__crt_internal_free_policy@@@@QBE_NXZ 10062980 f i libucrt:environment_initialization.obj
 0001:00061987       ?is_valid@?$__crt_unique_heap_ptr@PA_WU__crt_internal_free_policy@@@@QBE_NXZ 10062987 f i libucrt:environment_initialization.obj
 0001:0006198e       ?is_valid@?$__crt_unique_heap_ptr@_WU__crt_internal_free_policy@@@@QBE_NXZ 1006298e f i libucrt:environment_initialization.obj
 0001:0006199d       ?value@?$dual_state_global@PAPAD@__crt_state_management@@QAEAAPAPADXZ 1006299d f i libucrt:environment_initialization.obj
 0001:000619a0       ?value@?$dual_state_global@PAPA_W@__crt_state_management@@QAEAAPAPA_WXZ 100629a0 f i libucrt:environment_initialization.obj
 0001:000619a3       ___dcrt_get_or_create_narrow_environment_nolock 100629a3 f   libucrt:environment_initialization.obj
 0001:000619a8       ___dcrt_get_or_create_wide_environment_nolock 100629a8 f   libucrt:environment_initialization.obj
 0001:000619ad       ___dcrt_uninitialize_environments_nolock 100629ad f   libucrt:environment_initialization.obj
 0001:000619e4       ___p__environ              100629e4 f   libucrt:environment_initialization.obj
 0001:000619ea       ___p__wenviron             100629ea f   libucrt:environment_initialization.obj
 0001:000619f0       __get_initial_narrow_environment 100629f0 f   libucrt:environment_initialization.obj
 0001:00061a04       __get_initial_wide_environment 10062a04 f   libucrt:environment_initialization.obj
 0001:00061a18       __initialize_narrow_environment 10062a18 f   libucrt:environment_initialization.obj
 0001:00061a1d       __initialize_wide_environment 10062a1d f   libucrt:environment_initialization.obj
 0001:00061a22       ??$?B$$A6AXXZ@__crt_fast_encoded_nullptr_t@@QBEP6AXXZXZ 10062a22 f i libucrt:onexit.obj
 0001:00061a28       ??$?BP6AXXZ@__crt_fast_encoded_nullptr_t@@QBEPAP6AXXZXZ 10062a28 f i libucrt:onexit.obj
 0001:00061a2e       ??$?RP6AXXZ@__crt_internal_free_policy@@QBEXQBQ6AXXZ@Z 10062a2e f i libucrt:onexit.obj
 0001:00061b42       ??$__crt_fast_decode_pointer@P6AXXZ@@YAP6AXXZQ6AXXZ@Z 10062b42 f i libucrt:onexit.obj
 0001:00061b58       ??$__crt_fast_decode_pointer@PAP6AXXZ@@YAPAP6AXXZQAP6AXXZ@Z 10062b58 f i libucrt:onexit.obj
 0001:00061b6e       ??$__crt_fast_encode_pointer@P6AHXZ@@YAP6AHXZQ6AHXZ@Z 10062b6e f i libucrt:onexit.obj
 0001:00061b8d       ??$__crt_fast_encode_pointer@P6AXXZ@@YAP6AXXZQ6AXXZ@Z 10062b8d f i libucrt:onexit.obj
 0001:00061bac       ??$__crt_fast_encode_pointer@PAP6AXXZ@@YAPAP6AXXZQAP6AXXZ@Z 10062bac f i libucrt:onexit.obj
 0001:00061c39       ??0?$__crt_unique_heap_ptr@P6AXXZU__crt_internal_free_policy@@@@QAE@QAP6AXXZ@Z 10062c39 f i libucrt:onexit.obj
 0001:00061c49       ??1?$__crt_unique_heap_ptr@P6AXXZU__crt_internal_free_policy@@@@QAE@XZ 10062c49 f i libucrt:onexit.obj
 0001:00061c5b       ??1scoped_global_state_reset@__crt_state_management@@QAE@XZ 10062c5b f i libucrt:onexit.obj
 0001:00061e85       ?detach@?$__crt_unique_heap_ptr@P6AXXZU__crt_internal_free_policy@@@@QAEPAP6AXXZXZ 10062e85 f i libucrt:onexit.obj
 0001:00061e8b       ?release@?$__crt_unique_heap_ptr@P6AXXZU__crt_internal_free_policy@@@@QAEXXZ 10062e8b f i libucrt:onexit.obj
 0001:00061e9d       __crt_at_quick_exit        10062e9d f   libucrt:onexit.obj
 0001:00061eb3       __crt_atexit               10062eb3 f   libucrt:onexit.obj
 0001:00061ec9       __execute_onexit_table     10062ec9 f   libucrt:onexit.obj
 0001:00061ef6       __initialize_onexit_table  10062ef6 f   libucrt:onexit.obj
 0001:00061f1f       __register_onexit_function 10062f1f f   libucrt:onexit.obj
 0001:00062030       ??$?BX@__crt_fast_encoded_nullptr_t@@QBEPAXXZ 10063030 f i libucrt:initialization.obj
 0001:00062036       ??$__crt_fast_encode_pointer@PAX@@YAPAXQAX@Z 10063036 f i libucrt:initialization.obj
 0001:000620a7       ?__acrt_stdio_is_initialized@@YA_NXZ 100630a7 f i libucrt:initialization.obj
 0001:000620b2       ?initialize@?$dual_state_global@PAU__crt_locale_data@@@__crt_state_management@@QAEXQAU__crt_locale_data@@@Z 100630b2 f i libucrt:initialization.obj
 0001:000620d8       ___acrt_initialize         100630d8 f   libucrt:initialization.obj
 0001:000620ea       ___acrt_thread_attach      100630ea f   libucrt:initialization.obj
 0001:000620f5       ___acrt_thread_detach      100630f5 f   libucrt:initialization.obj
 0001:000620fd       ___acrt_uninitialize       100630fd f   libucrt:initialization.obj
 0001:0006212d       ___acrt_uninitialize_critical 1006312d f   libucrt:initialization.obj
 0001:0006213f       __set_abort_behavior       1006313f f   libucrt:abort.obj
 0001:00062160       _abort                     10063160 f   libucrt:abort.obj
 0001:000621a4       _calloc                    100631a4 f   libucrt:calloc.obj
 0001:000621af       _wcsncmp                   100631af f   libucrt:wcsncmp.obj
 0001:000621e9       __malloc_base              100631e9 f   libucrt:malloc_base.obj
 0001:00062237       ??$?RU__acrt_ptd@@@__crt_internal_free_policy@@QBEXQBU__acrt_ptd@@@Z 10063237 f i libucrt:per_thread_data.obj
 0001:00062523       ??0?$__crt_unique_heap_ptr@U__acrt_ptd@@U__crt_internal_free_policy@@@@QAE@QAU__acrt_ptd@@@Z 10063523 f i libucrt:per_thread_data.obj
 0001:00062533       ??0__crt_scoped_get_last_error_reset@@QAE@XZ 10063533 f i libucrt:per_thread_data.obj
 0001:00062544       ??1?$__crt_unique_heap_ptr@U__acrt_ptd@@U__crt_internal_free_policy@@@@QAE@XZ 10063544 f i libucrt:per_thread_data.obj
 0001:00062556       ??1__crt_scoped_get_last_error_reset@@QAE@XZ 10063556 f i libucrt:per_thread_data.obj
 0001:0006255f       ??B?$__crt_unique_heap_ptr@U__acrt_ptd@@U__crt_internal_free_policy@@@@QBE_NXZ 1006355f f i libucrt:per_thread_data.obj
 0001:000626ad       ?dangerous_get_state_array@?$dual_state_global@PAU__crt_locale_data@@@__crt_state_management@@QAEPAPAU__crt_locale_data@@XZ 100636ad f i libucrt:per_thread_data.obj
 0001:000627a3       ?detach@?$__crt_unique_heap_ptr@U__acrt_ptd@@U__crt_internal_free_policy@@@@QAEPAU__acrt_ptd@@XZ 100637a3 f i libucrt:per_thread_data.obj
 0001:000627a9       ?get@?$__crt_unique_heap_ptr@U__acrt_ptd@@U__crt_internal_free_policy@@@@QBEPAU__acrt_ptd@@XZ 100637a9 f i libucrt:per_thread_data.obj
 0001:000627ac       ?get_current_state_index@__crt_state_management@@YAIABV__crt_scoped_get_last_error_reset@@@Z 100637ac f i libucrt:per_thread_data.obj
 0001:000628e1       ?is_valid@?$__crt_unique_heap_ptr@U__acrt_ptd@@U__crt_internal_free_policy@@@@QBE_NXZ 100638e1 f i libucrt:per_thread_data.obj
 0001:000628e8       ?release@?$__crt_unique_heap_ptr@U__acrt_ptd@@U__crt_internal_free_policy@@@@QAEXXZ 100638e8 f i libucrt:per_thread_data.obj
 0001:0006295c       ?value@?$dual_state_global@PAU__crt_locale_data@@@__crt_state_management@@QAEAAPAU__crt_locale_data@@XZ 1006395c f i libucrt:per_thread_data.obj
 0001:0006295f       ___acrt_freeptd            1006395f f   libucrt:per_thread_data.obj
 0001:0006298b       ___acrt_getptd             1006398b f   libucrt:per_thread_data.obj
 0001:00062a48       ___acrt_getptd_head        10063a48 f   libucrt:per_thread_data.obj
 0001:00062ae2       ___acrt_getptd_noexit      10063ae2 f   libucrt:per_thread_data.obj
 0001:00062b97       ___acrt_initialize_ptd     10063b97 f   libucrt:per_thread_data.obj
 0001:00062bc3       ___acrt_uninitialize_ptd   10063bc3 f   libucrt:per_thread_data.obj
 0001:00062bdd       ___threadhandle            10063bdd f   libucrt:per_thread_data.obj
 0001:00062be3       ___threadid                10063be3 f   libucrt:per_thread_data.obj
 0001:00062bef       __free_base                10063bef f   libucrt:free_base.obj
 0001:00062c30       __twoToTOS                 10063c30 f   libucrt:common.obj
 0001:00062c45       __load_CW                  10063c45 f   libucrt:common.obj
 0001:00062c5c       __convertTOStoQNaN         10063c5c f   libucrt:common.obj
 0001:00062c75       __fload_withFB             10063c75 f   libucrt:common.obj
 0001:00062cb8       __checkTOS_withFB          10063cb8 f   libucrt:common.obj
 0001:00062cce       __fast_exit                10063cce f   libucrt:common.obj
 0001:00062cdb       __math_exit                10063cdb f   libucrt:common.obj
 0001:00062d05       __check_overflow_exit      10063d05 f   libucrt:common.obj
 0001:00062d19       __check_range_exit         10063d19 f   libucrt:common.obj
 0001:00062dc0       __CIsqrt                   10063dc0 f   libucrt:sqrt_impl.obj
 0001:00062dd4       __sqrt_common              10063dd4     libucrt:sqrt_impl.obj
 0001:00062e71       __mbtowc_l                 10063e71 f   libucrt:mbtowc.obj
 0001:00062fb3       _mbtowc                    10063fb3 f   libucrt:mbtowc.obj
 0001:00062fcd       __wctomb_l                 10063fcd f   libucrt:wctomb.obj
 0001:0006301e       __wctomb_s_l               1006401e f   libucrt:wctomb.obj
 0001:00063179       _wctomb                    10064179 f   libucrt:wctomb.obj
 0001:000631ab       _wctomb_s                  100641ab f   libucrt:wctomb.obj
 0001:000631c8       ?value@?$dual_state_global@PAU__crt_multibyte_data@@@__crt_state_management@@QAEAAPAU__crt_multibyte_data@@XZ 100641c8 f i libucrt:locale_update.obj
 0001:000631cb       ___acrt_should_sync_with_global_locale 100641cb f i libucrt:locale_update.obj
 0001:000631e7       ___acrt_update_locale_info 100641e7 f   libucrt:locale_update.obj
 0001:00063214       ___acrt_update_multibyte_info 10064214 f   libucrt:locale_update.obj
 0001:00063241       ?__acrt_fp_classify@@YA?AW4__acrt_fp_class@@ABN@Z 10064241 f i libucrt:cvt.obj
 0001:000632a3       ?__acrt_fp_is_negative@@YA_NABN@Z 100642a3 f i libucrt:cvt.obj
 0001:00063c0d       ___acrt_fp_format          10064c0d f   libucrt:cvt.obj
 0001:00063d99       __fputwc_nolock            10064d99 f   libucrt:fputwc.obj
 0001:00063ec2       __fputwchar                10064ec2 f   libucrt:fputwc.obj
 0001:00063edc       __putwc_nolock             10064edc f   libucrt:fputwc.obj
 0001:00063ee7       _fputwc                    10064ee7 f   libucrt:fputwc.obj
 0001:00063f65       _putwc                     10064f65 f   libucrt:fputwc.obj
 0001:00063f70       _putwchar                  10064f70 f   libucrt:fputwc.obj
 0001:00063f7b       ?lowio_handle@__crt_stdio_stream@@QBEHXZ 10064f7b f i libucrt:fileno.obj
 0001:00063f82       __fileno                   10064f82 f   libucrt:fileno.obj
 0001:00063fa9       ??$?RPAU__crt_stdio_stream_data@@@__crt_internal_free_policy@@QBEXQBQAU__crt_stdio_stream_data@@@Z 10064fa9 f i libucrt:_file.obj
 0001:00063fbb       ??0?$__crt_unique_heap_ptr@PAU__crt_stdio_stream_data@@U__crt_internal_free_policy@@@@QAE@QAPAU__crt_stdio_stream_data@@@Z 10064fbb f i libucrt:_file.obj
 0001:00063fcb       ??1?$__crt_unique_heap_ptr@PAU__crt_stdio_stream_data@@U__crt_internal_free_policy@@@@QAE@XZ 10064fcb f i libucrt:_file.obj
 0001:00063fdd       ?detach@?$__crt_unique_heap_ptr@PAU__crt_stdio_stream_data@@U__crt_internal_free_policy@@@@QAEPAPAU__crt_stdio_stream_data@@XZ 10064fdd f i libucrt:_file.obj
 0001:00063fe3       ?release@?$__crt_unique_heap_ptr@PAU__crt_stdio_stream_data@@U__crt_internal_free_policy@@@@QAEXXZ 10064fe3 f i libucrt:_file.obj
 0001:00063ff5       ___acrt_initialize_stdio   10064ff5 f   libucrt:_file.obj
 0001:000640bd       ___acrt_iob_func           100650bd f   libucrt:_file.obj
 0001:000640cd       ___acrt_uninitialize_stdio 100650cd f   libucrt:_file.obj
 0001:00064119       __get_stream_buffer_pointers 10065119 f   libucrt:_file.obj
 0001:0006415f       __lock_file                1006515f f   libucrt:_file.obj
 0001:00064173       __unlock_file              10065173 f   libucrt:_file.obj
 0001:00064187       __fputc_nolock             10065187 f   libucrt:fputc.obj
 0001:000641b0       __fputchar                 100651b0 f   libucrt:fputc.obj
 0001:000641ca       __putc_nolock              100651ca f   libucrt:fputc.obj
 0001:000641d5       _fputc                     100651d5 f   libucrt:fputc.obj
 0001:000642df       _putc                      100652df f   libucrt:fputc.obj
 0001:000642ea       _putchar                   100652ea f   libucrt:fputc.obj
 0001:000642f5       __get_printf_count_output  100652f5 f   libucrt:printf_count_output.obj
 0001:0006430a       __set_printf_count_output  1006530a f   libucrt:printf_count_output.obj
 0001:00064334       ?has_any_buffer@__crt_stdio_stream@@QBE_NXZ 10065334 f i libucrt:_sftbuf.obj
 0001:00064343       ?has_any_of@__crt_stdio_stream@@QBE_NJ@Z 10065343 f i libucrt:_sftbuf.obj
 0001:00064358       ?has_temporary_buffer@__crt_stdio_stream@@QBE_NXZ 10065358 f i libucrt:_sftbuf.obj
 0001:00064364       ?set_flags@__crt_stdio_stream@@QBE_NJ@Z 10065364 f i libucrt:_sftbuf.obj
 0001:00064388       ?unset_flags@__crt_stdio_stream@@QBE_NJ@Z 10065388 f i libucrt:_sftbuf.obj
 0001:000643b1       ___acrt_should_use_temporary_buffer 100653b1 f   libucrt:_sftbuf.obj
 0001:000643ec       ___acrt_stdio_begin_temporary_buffering_nolock 100653ec f   libucrt:_sftbuf.obj
 0001:00064498       ___acrt_stdio_end_temporary_buffering_nolock 10065498 f   libucrt:_sftbuf.obj
 0001:000644d5       ??$?RU__crt_locale_data@@@__crt_internal_free_policy@@QBEXQBU__crt_locale_data@@@Z 100654d5 f i libucrt:wsetlocale.obj
 0001:000644e7       ??$?RU__crt_locale_pointers@@@__crt_internal_free_policy@@QBEXQBU__crt_locale_pointers@@@Z 100654e7 f i libucrt:wsetlocale.obj
 0001:000644f9       ??$?RU__crt_multibyte_data@@@__crt_internal_free_policy@@QBEXQBU__crt_multibyte_data@@@Z 100654f9 f i libucrt:wsetlocale.obj
 0001:000648a2       ??0?$__crt_unique_heap_ptr@U__crt_locale_data@@U__crt_internal_free_policy@@@@QAE@QAU__crt_locale_data@@@Z 100658a2 f i libucrt:wsetlocale.obj
 0001:000648b2       ??0?$__crt_unique_heap_ptr@U__crt_locale_pointers@@U__crt_internal_free_policy@@@@QAE@QAU__crt_locale_pointers@@@Z 100658b2 f i libucrt:wsetlocale.obj
 0001:000648c2       ??0?$__crt_unique_heap_ptr@U__crt_multibyte_data@@U__crt_internal_free_policy@@@@QAE@QAU__crt_multibyte_data@@@Z 100658c2 f i libucrt:wsetlocale.obj
 0001:000648d2       ??0_expandlocale_locale_name_cache@@QAE@QA_WIQAU__crt_qualified_locale_data@@@Z 100658d2 f i libucrt:wsetlocale.obj
 0001:0006491c       ??1?$__crt_unique_heap_ptr@U__crt_locale_data@@U__crt_internal_free_policy@@@@QAE@XZ 1006591c f i libucrt:wsetlocale.obj
 0001:0006492e       ??1?$__crt_unique_heap_ptr@U__crt_locale_pointers@@U__crt_internal_free_policy@@@@QAE@XZ 1006592e f i libucrt:wsetlocale.obj
 0001:00064940       ??1?$__crt_unique_heap_ptr@U__crt_multibyte_data@@U__crt_internal_free_policy@@@@QAE@XZ 10065940 f i libucrt:wsetlocale.obj
 0001:00064952       ??1_expandlocale_locale_name_cache@@QAE@XZ 10065952 f i libucrt:wsetlocale.obj
 0001:00064982       ??B?$__crt_unique_heap_ptr@U__crt_locale_data@@U__crt_internal_free_policy@@@@QBE_NXZ 10065982 f i libucrt:wsetlocale.obj
 0001:00064989       ??B?$__crt_unique_heap_ptr@U__crt_locale_pointers@@U__crt_internal_free_policy@@@@QBE_NXZ 10065989 f i libucrt:wsetlocale.obj
 0001:00064990       ??B?$__crt_unique_heap_ptr@U__crt_multibyte_data@@U__crt_internal_free_policy@@@@QBE_NXZ 10065990 f i libucrt:wsetlocale.obj
 0001:00064bb0       ?commit_locale_name@_expandlocale_locale_name_cache@@QAEXQB_WI@Z 10065bb0 f i libucrt:wsetlocale.obj
 0001:00064bf4       ?commit_locale_name_cache_already_updated@_expandlocale_locale_name_cache@@QAEXQB_WI@Z 10065bf4 f i libucrt:wsetlocale.obj
 0001:00064c29       ?detach@?$__crt_unique_heap_ptr@U__crt_locale_data@@U__crt_internal_free_policy@@@@QAEPAU__crt_locale_data@@XZ 10065c29 f i libucrt:wsetlocale.obj
 0001:00064c2f       ?detach@?$__crt_unique_heap_ptr@U__crt_locale_pointers@@U__crt_internal_free_policy@@@@QAEPAU__crt_locale_pointers@@XZ 10065c2f f i libucrt:wsetlocale.obj
 0001:00064c35       ?detach@?$__crt_unique_heap_ptr@U__crt_multibyte_data@@U__crt_internal_free_policy@@@@QAEPAU__crt_multibyte_data@@XZ 10065c35 f i libucrt:wsetlocale.obj
 0001:00064c3b       ?get@?$__crt_unique_heap_ptr@U__crt_locale_data@@U__crt_internal_free_policy@@@@QBEPAU__crt_locale_data@@XZ 10065c3b f i libucrt:wsetlocale.obj
 0001:00064c3e       ?get@?$__crt_unique_heap_ptr@U__crt_locale_pointers@@U__crt_internal_free_policy@@@@QBEPAU__crt_locale_pointers@@XZ 10065c3e f i libucrt:wsetlocale.obj
 0001:00064c41       ?get@?$__crt_unique_heap_ptr@U__crt_multibyte_data@@U__crt_internal_free_policy@@@@QBEPAU__crt_multibyte_data@@XZ 10065c41 f i libucrt:wsetlocale.obj
 0001:00064c44       ?is_valid@?$__crt_unique_heap_ptr@U__crt_locale_data@@U__crt_internal_free_policy@@@@QBE_NXZ 10065c44 f i libucrt:wsetlocale.obj
 0001:00064c4b       ?is_valid@?$__crt_unique_heap_ptr@U__crt_locale_pointers@@U__crt_internal_free_policy@@@@QBE_NXZ 10065c4b f i libucrt:wsetlocale.obj
 0001:00064c52       ?is_valid@?$__crt_unique_heap_ptr@U__crt_multibyte_data@@U__crt_internal_free_policy@@@@QBE_NXZ 10065c52 f i libucrt:wsetlocale.obj
 0001:00064c59       ?release@?$__crt_unique_heap_ptr@U__crt_locale_data@@U__crt_internal_free_policy@@@@QAEXXZ 10065c59 f i libucrt:wsetlocale.obj
 0001:00064c6b       ?release@?$__crt_unique_heap_ptr@U__crt_locale_pointers@@U__crt_internal_free_policy@@@@QAEXXZ 10065c6b f i libucrt:wsetlocale.obj
 0001:00064c7d       ?release@?$__crt_unique_heap_ptr@U__crt_multibyte_data@@U__crt_internal_free_policy@@@@QAEXXZ 10065c7d f i libucrt:wsetlocale.obj
 0001:00064c8f       ___acrt_copy_locale_name   10065c8f f   libucrt:wsetlocale.obj
 0001:00064cef       ___acrt_set_locale_changed 10065cef f   libucrt:wsetlocale.obj
 0001:00064cfa       ___acrt_uninitialize_locale 10065cfa f   libucrt:wsetlocale.obj
 0001:00064d21       ___ascii_towlower          10065d21 f i libucrt:wsetlocale.obj
 0001:00064d38       ___lc_lctowcs              10065d38 f   libucrt:wsetlocale.obj
 0001:00064da8       ___lc_wcstolc              10065da8 f   libucrt:wsetlocale.obj
 0001:00064ef8       __configthreadlocale       10065ef8 f   libucrt:wsetlocale.obj
 0001:00064f89       __create_locale            10065f89 f   libucrt:wsetlocale.obj
 0001:000653b3       __free_locale              100663b3 f   libucrt:wsetlocale.obj
 0001:00065475       __get_current_locale       10066475 f   libucrt:wsetlocale.obj
 0001:00065510       __wcreate_locale           10066510 f   libucrt:wsetlocale.obj
 0001:00065617       __wcscats                  10066617 f   libucrt:wsetlocale.obj
 0001:00065658       __wsetlocale               10066658 f   libucrt:wsetlocale.obj
 0001:000663bd       ___p___mb_cur_max          100673bd f   libucrt:nlsdata.obj
 0001:0006656e       ___acrt_initialize_lowio   1006756e f   libucrt:ioinit.obj
 0001:000665ce       ___acrt_uninitialize_lowio 100675ce f   libucrt:ioinit.obj
 0001:000665fa       ??0?$__crt_scoped_stack_ptr@_W@@QAE@U?$__crt_scoped_stack_ptr_tag@_W@@@Z 100675fa f i libucrt:lcmapstringa.obj
 0001:0006660a       ??0?$__crt_scoped_stack_ptr_tag@_W@@QAE@QA_W@Z 1006760a f i libucrt:lcmapstringa.obj
 0001:0006661a       ??1?$__crt_scoped_stack_ptr@_W@@QAE@XZ 1006761a f i libucrt:lcmapstringa.obj
 0001:00066623       ??B?$__crt_scoped_stack_ptr@_W@@QBE_NXZ 10067623 f i libucrt:lcmapstringa.obj
 0001:00066814       ?get@?$__crt_scoped_stack_ptr@_W@@QBEPA_WXZ 10067814 f i libucrt:lcmapstringa.obj
 0001:00066817       ___acrt_LCMapStringA       10067817 f   libucrt:lcmapstringa.obj
 0001:00066860       ?dangerous_get_state_array@?$dual_state_global@PAPAD@__crt_state_management@@QAEPAPAPADXZ 10067860 f i libucrt:timeset.obj
 0001:00066863       ?dangerous_get_state_array@?$dual_state_global@PAPA_W@__crt_state_management@@QAEPAPAPA_WXZ 10067863 f i libucrt:timeset.obj
 0001:00066866       ?initialize@?$dual_state_global@H@__crt_state_management@@QAEXH@Z 10067866 f i libucrt:timeset.obj
 0001:0006688c       ?initialize@?$dual_state_global@J@__crt_state_management@@QAEXJ@Z 1006788c f i libucrt:timeset.obj
 0001:000668b2       ?value@?$dual_state_global@H@__crt_state_management@@QAEAAHXZ 100678b2 f i libucrt:timeset.obj
 0001:000668b5       ?value@?$dual_state_global@J@__crt_state_management@@QAEAAJXZ 100678b5 f i libucrt:timeset.obj
 0001:000668b8       ___acrt_initialize_timeset 100678b8 f   libucrt:timeset.obj
 0001:000668ed       ___daylight                100678ed f   libucrt:timeset.obj
 0001:000668f3       ___dstbias                 100678f3 f   libucrt:timeset.obj
 0001:000668f9       ___timezone                100678f9 f   libucrt:timeset.obj
 0001:000668ff       ___tzname                  100678ff f   libucrt:timeset.obj
 0001:00066905       ___wide_tzname             10067905 f   libucrt:timeset.obj
 0001:0006690b       __get_daylight             1006790b f   libucrt:timeset.obj
 0001:00066937       __get_dstbias              10067937 f   libucrt:timeset.obj
 0001:00066963       __get_timezone             10067963 f   libucrt:timeset.obj
 0001:0006698f       __get_tzname               1006798f f   libucrt:timeset.obj
 0001:00066a40       ??$?RUtm@@@__crt_internal_free_policy@@QBEXQBUtm@@@Z 10067a40 f i libucrt:gmtime.obj
 0001:00066a52       ??$__crt_time_elapsed_leap_years@H@@YAHH@Z 10067a52 f i libucrt:gmtime.obj
 0001:00066a8c       ??$__crt_time_is_leap_year@H@@YA_NH@Z 10067a8c f i libucrt:gmtime.obj
 0001:00066d6e       ??0?$__crt_unique_heap_ptr@Utm@@U__crt_internal_free_policy@@@@QAE@QAUtm@@@Z 10067d6e f i libucrt:gmtime.obj
 0001:00066d7e       ??1?$__crt_unique_heap_ptr@Utm@@U__crt_internal_free_policy@@@@QAE@XZ 10067d7e f i libucrt:gmtime.obj
 0001:00066eab       ?detach@?$__crt_unique_heap_ptr@Utm@@U__crt_internal_free_policy@@@@QAEPAUtm@@XZ 10067eab f i libucrt:gmtime.obj
 0001:00066eb1       ?release@?$__crt_unique_heap_ptr@Utm@@U__crt_internal_free_policy@@@@QAEXXZ 10067eb1 f i libucrt:gmtime.obj
 0001:00066ec3       ___getgmtimebuf            10067ec3 f   libucrt:gmtime.obj
 0001:00066f01       __gmtime32                 10067f01 f   libucrt:gmtime.obj
 0001:00066f28       __gmtime32_s               10067f28 f   libucrt:gmtime.obj
 0001:00066f33       __gmtime64                 10067f33 f   libucrt:gmtime.obj
 0001:00066f5a       __gmtime64_s               10067f5a f   libucrt:gmtime.obj
 0001:00066f65       ?__acrt_get_utf8_acp_compatibility_codepage@@YAIXZ 10067f65 f i libucrt:tzset.obj
 0001:000671bf       ?_set_daylight@@YAXH@Z     100681bf f i libucrt:tzset.obj
 0001:000671d0       ?_set_dstbias@@YAXJ@Z      100681d0 f i libucrt:tzset.obj
 0001:000671e1       ?_set_timezone@@YAXJ@Z     100681e1 f i libucrt:tzset.obj
 0001:00067332       ?dangerous_get_state_array@?$dual_state_global@J@__crt_state_management@@QAEPAJXZ 10068332 f i libucrt:tzset.obj
 0001:0006790f       ___tzset                   1006890f f   libucrt:tzset.obj
 0001:0006796c       __isindst                  1006896c f   libucrt:tzset.obj
 0001:000679c0       __tzset                    100689c0 f   libucrt:tzset.obj
 0001:00067a6a       ___acrt_MultiByteToWideChar 10068a6a f   libucrt:multibytetowidechar.obj
 0001:00067b4b       ___acrt_WideCharToMultiByte 10068b4b f   libucrt:widechartomultibyte.obj
 0001:00067c02       ?__crt_get_2digit_year@@YAHH@Z 10068c02 f i libucrt:wcsftime.obj
 0001:00067c19       ?__crt_get_century@@YAHH@Z 10068c19 f i libucrt:wcsftime.obj
 0001:00068c91       __W_Getdays                10069c91 f   libucrt:wcsftime.obj
 0001:00068df0       __W_Getmonths              10069df0 f   libucrt:wcsftime.obj
 0001:00068f4f       __W_Gettnames              10069f4f f   libucrt:wcsftime.obj
 0001:0006964b       __Wcsftime                 1006a64b f   libucrt:wcsftime.obj
 0001:0006966b       __Wcsftime_l               1006a66b f   libucrt:wcsftime.obj
 0001:000697dc       __wcsftime_l               1006a7dc f   libucrt:wcsftime.obj
 0001:000697fc       _wcsftime                  1006a7fc f   libucrt:wcsftime.obj
 0001:00069828       ??$?B$$A6GHPA_WKJ@Z@__crt_fast_encoded_nullptr_t@@QBEP6GHPA_WKJ@ZXZ 1006a828 f i libucrt:winapi_thunks.obj
 0001:000698d0       ??$__crt_fast_decode_pointer@P6GHPA_WKJ@Z@@YAP6GHPA_WKJ@ZQ6GH0KJ@Z@Z 1006a8d0 f i libucrt:winapi_thunks.obj
 0001:000698e6       ??$__crt_fast_decode_pointer@PAX@@YAPAXQAX@Z 1006a8e6 f i libucrt:winapi_thunks.obj
 0001:000698fc       ??$__crt_fast_encode_pointer@P6GHPA_WKJ@Z@@YAP6GHPA_WKJ@ZQ6GH0KJ@Z@Z 1006a8fc f i libucrt:winapi_thunks.obj
 0001:00069f88       _GetCurrentThreadEffectiveToken 1006af88 f i libucrt:winapi_thunks.obj
 0001:00069f8c       ___acrt_AppPolicyGetProcessTerminationMethodInternal@4 1006af8c f   libucrt:winapi_thunks.obj
 0001:00069fcc       ___acrt_AppPolicyGetShowDeveloperDiagnosticInternal@4 1006afcc f   libucrt:winapi_thunks.obj
 0001:0006a00c       ___acrt_AppPolicyGetThreadInitializationTypeInternal@4 1006b00c f   libucrt:winapi_thunks.obj
 0001:0006a04c       ___acrt_AppPolicyGetWindowingModelInternal@4 1006b04c f   libucrt:winapi_thunks.obj
 0001:0006a08c       ___acrt_AreFileApisANSI@0  1006b08c f   libucrt:winapi_thunks.obj
 0001:0006a0ab       ___acrt_CompareStringEx@36 1006b0ab f   libucrt:winapi_thunks.obj
 0001:0006a108       ___acrt_EnumSystemLocalesEx@16 1006b108 f   libucrt:winapi_thunks.obj
 0001:0006a15c       ___acrt_FlsAlloc@4         1006b15c f   libucrt:winapi_thunks.obj
 0001:0006a19b       ___acrt_FlsFree@4          1006b19b f   libucrt:winapi_thunks.obj
 0001:0006a1da       ___acrt_FlsGetValue@4      1006b1da f   libucrt:winapi_thunks.obj
 0001:0006a219       ___acrt_FlsSetValue@8      1006b219 f   libucrt:winapi_thunks.obj
 0001:0006a25b       ___acrt_GetDateFormatEx@28 1006b25b f   libucrt:winapi_thunks.obj
 0001:0006a2b2       ___acrt_GetEnabledXStateFeatures@0 1006b2b2 f   libucrt:winapi_thunks.obj
 0001:0006a2e6       ___acrt_GetLocaleInfoEx@16 1006b2e6 f   libucrt:winapi_thunks.obj
 0001:0006a325       ___acrt_GetSystemTimePreciseAsFileTime@4 1006b325 f   libucrt:winapi_thunks.obj
 0001:0006a364       ___acrt_GetTimeFormatEx@24 1006b364 f   libucrt:winapi_thunks.obj
 0001:0006a3a9       ___acrt_GetUserDefaultLocaleName@8 1006b3a9 f   libucrt:winapi_thunks.obj
 0001:0006a3e5       ___acrt_GetXStateFeaturesMask@8 1006b3e5 f   libucrt:winapi_thunks.obj
 0001:0006a425       ___acrt_InitializeCriticalSectionEx@12 1006b425 f   libucrt:winapi_thunks.obj
 0001:0006a470       ___acrt_IsValidLocaleName@4 1006b470 f   libucrt:winapi_thunks.obj
 0001:0006a4a8       ___acrt_LCIDToLocaleName@16 1006b4a8 f   libucrt:winapi_thunks.obj
 0001:0006a4e7       ___acrt_LCMapStringEx@36   1006b4e7 f   libucrt:winapi_thunks.obj
 0001:0006a544       ___acrt_LocaleNameToLCID@8 1006b544 f   libucrt:winapi_thunks.obj
 0001:0006a575       ___acrt_LocateXStateFeature@12 1006b575 f   libucrt:winapi_thunks.obj
 0001:0006a5a4       ___acrt_MessageBoxA@16     1006b5a4 f   libucrt:winapi_thunks.obj
 0001:0006a5d6       ___acrt_MessageBoxW@16     1006b5d6 f   libucrt:winapi_thunks.obj
 0001:0006a608       ___acrt_RoInitialize@4     1006b608 f   libucrt:winapi_thunks.obj
 0001:0006a643       ___acrt_RoUninitialize@0   1006b643 f   libucrt:winapi_thunks.obj
 0001:0006a671       ___acrt_RtlGenRandom@8     1006b671 f   libucrt:winapi_thunks.obj
 0001:0006a6b1       ___acrt_SetThreadStackGuarantee@4 1006b6b1 f   libucrt:winapi_thunks.obj
 0001:0006a6ec       ___acrt_can_show_message_box 1006b6ec f   libucrt:winapi_thunks.obj
 0001:0006a713       ___acrt_can_use_vista_locale_apis 1006b713 f   libucrt:winapi_thunks.obj
 0001:0006a71e       ___acrt_can_use_xstate_apis 1006b71e f   libucrt:winapi_thunks.obj
 0001:0006a729       ___acrt_eagerly_load_locale_apis 1006b729 f   libucrt:winapi_thunks.obj
 0001:0006a760       ___acrt_get_parent_window  1006b760 f   libucrt:winapi_thunks.obj
 0001:0006a7c8       ___acrt_initialize_winapi_thunks 1006b7c8 f   libucrt:winapi_thunks.obj
 0001:0006a7f3       ___acrt_is_interactive     1006b7f3 f   libucrt:winapi_thunks.obj
 0001:0006a892       ___acrt_uninitialize_winapi_thunks 1006b892 f   libucrt:winapi_thunks.obj
 0001:0006a8c8       ___pctype_func             1006b8c8 f   libucrt:ctype.obj
