 zdraw

 Timestamp is 62e6ba37 (Sun Jul 31 13:21:59 2022)

 Preferred load address is 10000000

 Start         Length     Name                   Class
 0001:00000000 000002e0H .text$di                CODE
 0001:000002e0 00081a30H .text$mn                CODE
 0001:00081d10 00001c34H .text$x                 CODE
 0002:00000000 00000280H .idata$5                DATA
 0002:00000280 0000000cH .00cfg                  DATA
 0002:0000028c 00000004H .CRT$XCA                DATA
 0002:00000290 0000005cH .CRT$XCU                DATA
 0002:000002ec 00000004H .CRT$XCZ                DATA
 0002:000002f0 00000004H .CRT$XIA                DATA
 0002:000002f4 00000010H .CRT$XIC                DATA
 0002:00000304 00000004H .CRT$XIZ                DATA
 0002:00000308 00000004H .CRT$XPA                DATA
 0002:0000030c 00000008H .CRT$XPX                DATA
 0002:00000314 00000004H .CRT$XPXA               DATA
 0002:00000318 00000004H .CRT$XPZ                DATA
 0002:0000031c 00000004H .CRT$XTA                DATA
 0002:00000320 00000010H .CRT$XTZ                DATA
 0002:00000324 00000000H .gfids$y                DATA
 0002:00000330 0000af10H .rdata                  DATA
 0002:0000b240 00000040H .rdata$CastGuardVftablesA DATA
 0002:0000b280 00000040H .rdata$CastGuardVftablesC DATA
 0002:0000b2c0 00000a28H .rdata$r                DATA
 0002:0000bce8 000001e8H .rdata$sxdata           DATA
 0002:0000bed0 000006b8H .rdata$voltmd           DATA
 0002:0000c588 000003a0H .rdata$zzzdbg           DATA
 0002:0000c928 00000004H .rtc$IAA                DATA
 0002:0000c92c 00000004H .rtc$IZZ                DATA
 0002:0000c930 00000004H .rtc$TAA                DATA
 0002:0000c934 00000004H .rtc$TZZ                DATA
 0002:0000c938 000027c8H .xdata$x                DATA
 0002:0000f100 000002bcH .edata                  DATA
 0002:0000f3bc 00000064H .idata$2                DATA
 0002:0000f420 00000014H .idata$3                DATA
 0002:0000f434 00000280H .idata$4                DATA
 0002:0000f6b4 00000b68H .idata$6                DATA
 0003:00000000 00003550H .data                   DATA
 0003:00003550 000001acH .data$r                 DATA
 0003:000036fc 0000028cH .data$rs                DATA
 0003:00003988 00001a28H .bss                    DATA
 0004:00000000 00000360H .rsrc$01                DATA
 0004:00000360 0001da08H .rsrc$02                DATA

  Address         Publics by Value              Rva+Base       Lib:Object

 0000:00000000       ___AbsoluteZero            00000000     <absolute>
 0000:00000000       ___arm64x_extra_rfe_table  00000000     <absolute>
 0000:00000000       ___arm64x_extra_rfe_table_size 00000000     <absolute>
 0000:00000000       ___arm64x_native_entrypoint 00000000     <absolute>
 0000:00000000       ___arm64x_redirection_metadata 00000000     <absolute>
 0000:00000000       ___arm64x_redirection_metadata_count 00000000     <absolute>
 0000:00000000       ___dynamic_value_reloc_table 00000000     <absolute>
 0000:00000000       ___enclave_config          00000000     <absolute>
 0000:00000000       ___guard_check_icall_a64n_fptr 00000000     <absolute>
 0000:00000000       ___guard_eh_cont_count     00000000     <absolute>
 0000:00000000       ___guard_eh_cont_table     00000000     <absolute>
 0000:00000000       ___guard_fids_count        00000000     <absolute>
 0000:00000000       ___guard_fids_table        00000000     <absolute>
 0000:00000000       ___guard_iat_count         00000000     <absolute>
 0000:00000000       ___guard_iat_table         00000000     <absolute>
 0000:00000000       ___guard_longjmp_count     00000000     <absolute>
 0000:00000000       ___guard_longjmp_table     00000000     <absolute>
 0000:00000000       ___hybrid_auxiliary_iat    00000000     <absolute>
 0000:00000000       ___hybrid_auxiliary_iat_copy 00000000     <absolute>
 0000:00000000       ___hybrid_code_map         00000000     <absolute>
 0000:00000000       ___hybrid_code_map_count   00000000     <absolute>
 0000:00000000       ___x64_code_ranges_to_entry_points 00000000     <absolute>
 0000:00000000       ___x64_code_ranges_to_entry_points_count 00000000     <absolute>
 0000:00000000       __except_list              00000000     <absolute>
 0000:0000007a       ___safe_se_handler_count   0000007a     <absolute>
 0000:00000100       ___guard_flags             00000100     <absolute>
 0000:00000000       ___ImageBase               10000000     <linker-defined>
 0001:000002e0       ??0MappedMap@@QAE@HH@Z     100012e0 f   MappedMAP.obj
 0001:00000340       ??1MappedMap@@QAE@XZ       10001340 f   MappedMAP.obj
 0001:00000390       ?NowDrawMapped@MappedMap@@QAEHPAEPAUtagPOINT@@@Z 10001390 f   MappedMAP.obj
 0001:00000a70       ?PictureInfo@MappedMap@@QAEPAEPAPAEPAUtagPOINT@@@Z 10001a70 f   MappedMAP.obj
 0001:00000aa0       ??0MegaMapControl@@QAE@PAVFullScreenMinimap@@PAUtagRECT@@11HHHHHH@Z 10001aa0 f   MegamapControl.obj
 0001:00000c70       ??1MegaMapControl@@QAE@XZ  10001c70 f   MegamapControl.obj
 0001:00000d10       ??_GInlineSingleHook@@QAEPAXI@Z 10001d10 f i MegamapControl.obj
 0001:00000d40       ?CheckInControl@MegaMapControl@@AAEHHH@Z 10001d40 f   MegamapControl.obj
 0001:00000e70       ?CheckInMap@MegaMapControl@@AAEHHH@Z 10001e70 f   MegamapControl.obj
 0001:00000ec0       ?DoubleClick@MegaMapControl@@AAEHHH_N@Z 10001ec0 f   MegamapControl.obj
 0001:00001010       ?EnterMegaMap@MegaMapControl@@QAEXXZ 10002010 f   MegamapControl.obj
 0001:00001100       ?FindMouseUnitRounte@@YGHPAUtagInlineX86StackBuffer@@@Z 10002100 f   MegamapControl.obj
 0001:00001140       ?GetGridPosFeatureRounte@@YGHPAUtagInlineX86StackBuffer@@@Z 10002140 f   MegamapControl.obj
 0001:00001180       ?GetPosition_DwordRounte@@YGHPAUtagInlineX86StackBuffer@@@Z 10002180 f   MegamapControl.obj
 0001:000011b0       ?Init@MegaMapControl@@QAEXPAVFullScreenMinimap@@PAUtagRECT@@11HHHHHH@Z 100021b0 f   MegamapControl.obj
 0001:00001360       ?IsBliting@MegaMapControl@@QAEHXZ 10002360 f   MegamapControl.obj
 0001:00001380       ?IsDrawCursor@MegaMapControl@@QAEHHH@Z 10002380 f   MegamapControl.obj
 0001:00001500       ?IsDrawOrder@MegaMapControl@@QAEHXZ 10002500 f   MegamapControl.obj
 0001:00001530       ?IsDrawRect@MegaMapControl@@QAEHH@Z 10002530 f   MegamapControl.obj
 0001:00001600       ?IsInControl@MegaMapControl@@QAEHXZ 10002600 f   MegamapControl.obj
 0001:00001620       ?IsInMap@MegaMapControl@@QAEHXZ 10002620 f   MegamapControl.obj
 0001:00001640       ?LeftDown@MegaMapControl@@AAEHHH_N@Z 10002640 f   MegamapControl.obj
 0001:00001660       ?LeftUp@MegaMapControl@@AAEHHH_N@Z 10002660 f   MegamapControl.obj
 0001:00001960       ?MegamapMoveSceen@MegaMapControl@@AAEXHH@Z 10002960 f   MegamapControl.obj
 0001:00001a50       ?Message@MegaMapControl@@QAE_NPAUHWND__@@IIJ@Z 10002a50 f   MegamapControl.obj
 0001:00001e80       ?MouseMove@MegaMapControl@@AAEHHH@Z 10002e80 f   MegamapControl.obj
 0001:00002100       ?MoveScreen@MegaMapControl@@AAEXHHH@Z 10003100 f   MegamapControl.obj
 0001:00002210       ?QuitMegaMap@MegaMapControl@@QAEXXZ 10003210 f   MegamapControl.obj
 0001:00002280       ?ReadSelectRect@MegaMapControl@@QAEPAUtagRECT@@PAU2@@Z 10003280 f   MegamapControl.obj
 0001:000022b0       ?ReadSelectState@MegaMapControl@@QAE?AW4SELECTBUTTOM@selectbuttom@@XZ 100032b0 f   MegamapControl.obj
 0001:000022d0       ?RightDown@MegaMapControl@@AAEHHH_N@Z 100032d0 f   MegamapControl.obj
 0001:000022f0       ?RightUp@MegaMapControl@@AAEHHH_N@Z 100032f0 f   MegamapControl.obj
 0001:00002430       ?ScreenPos2TAPos@MegaMapControl@@AAEPAU_Position_Dword@@PAU2@HHH@Z 10003430 f   MegamapControl.obj
 0001:000024c0       ?SelectDown@MegaMapControl@@AAEHHH_N@Z 100034c0 f   MegamapControl.obj
 0001:00002500       ?SelectMove@MegaMapControl@@AAEHHH_N0@Z 10003500 f   MegamapControl.obj
 0001:000025c0       ?SelectUp@MegaMapControl@@AAEHHH_N0@Z 100035c0 f   MegamapControl.obj
 0001:000027e0       ?Set@MegaMapControl@@QAEXH@Z 100037e0 f   MegamapControl.obj
 0001:00002800       ?TAPos2ScreenPos@MegaMapControl@@AAEPAUtagPOINT@@PAU2@III@Z 10003800 f   MegamapControl.obj
 0001:00002870       ?WheelBack@MegaMapControl@@AAEHHH@Z 10003870 f   MegamapControl.obj
 0001:000028b0       ?WheelFont@MegaMapControl@@AAEHHH@Z 100038b0 f   MegamapControl.obj
 0001:00002910       ?abs@@YGJJ@Z               10003910 f i MegamapControl.obj
 0001:00002930       ??$?0$$V@?$_Compressed_pair@V?$allocator@U_Position_Dword@@@std@@V?$_Vector_val@U?$_Simple_types@U_Position_Dword@@@std@@@2@$00@std@@QAE@U_Zero_then_variadic_args_t@1@@Z 10003930 f i MegamapTAStuff.obj
 0001:00002950       ??$_Allocate@$07U_Default_allocate_traits@std@@$0A@@std@@YGPAXI@Z 10003950 f i MegamapTAStuff.obj
 0001:00002980       ??$_Allocate_manually_vector_aligned@U_Default_allocate_traits@std@@@std@@YGPAXI@Z 10003980 f i MegamapTAStuff.obj
 0001:000029f0       ??$_Construct_in_place@U_Position_Dword@@ABU1@@std@@YGXAAU_Position_Dword@@ABU1@@Z 100039f0 f i MegamapTAStuff.obj
 0001:00002a40       ??$_Copy_memmove@PAU_Position_Dword@@PAU1@@std@@YGPAU_Position_Dword@@PAU1@00@Z 10003a40 f i MegamapTAStuff.obj
 0001:00002ab0       ??$_Deallocate@$07$0A@@std@@YGXPAXI@Z 10003ab0 f i MegamapTAStuff.obj
 0001:00002b10       ??$_Destroy_range@V?$allocator@U_Position_Dword@@@std@@@std@@YGXPAU_Position_Dword@@QAU1@AAV?$allocator@U_Position_Dword@@@0@@Z 10003b10 f i MegamapTAStuff.obj
 0001:00002b20       ??$_Emplace_back@U_Position_Dword@@@?$_Uninitialized_backout_al@V?$allocator@U_Position_Dword@@@std@@@std@@QAEX$$QAU_Position_Dword@@@Z 10003b20 f i MegamapTAStuff.obj
 0001:00002b60       ??$_Emplace_back_with_unused_capacity@ABU_Position_Dword@@@?$vector@U_Position_Dword@@V?$allocator@U_Position_Dword@@@std@@@std@@AAEAAU_Position_Dword@@ABU2@@Z 10003b60 f i MegamapTAStuff.obj
 0001:00002bc0       ??$_Emplace_one_at_back@ABU_Position_Dword@@@?$vector@U_Position_Dword@@V?$allocator@U_Position_Dword@@@std@@@std@@AAEAAU_Position_Dword@@ABU2@@Z 10003bc0 f i MegamapTAStuff.obj
 0001:00002c20       ??$_Emplace_reallocate@ABU_Position_Dword@@@?$vector@U_Position_Dword@@V?$allocator@U_Position_Dword@@@std@@@std@@AAEPAU_Position_Dword@@QAU2@ABU2@@Z 10003c20 f i MegamapTAStuff.obj
 0001:00002e00       ??$_Get_size_of_n@$0M@@std@@YGII@Z 10003e00 f i MegamapTAStuff.obj
 0001:00002e30       ??$_Get_unwrapped@ABQAU_Position_Dword@@@std@@YG?A_TABQAU_Position_Dword@@@Z 10003e30 f i MegamapTAStuff.obj
 0001:00002e40       ??$_To_address@PAU_Position_Dword@@@std@@YG?A_PABQAU_Position_Dword@@@Z 10003e40 f i MegamapTAStuff.obj
 0001:00002e50       ??$_Unfancy@U_Position_Dword@@@std@@YGPAU_Position_Dword@@PAU1@@Z 10003e50 f i MegamapTAStuff.obj
 0001:00002e60       ??$_Uninitialized_move@PAU_Position_Dword@@V?$allocator@U_Position_Dword@@@std@@@std@@YGPAU_Position_Dword@@QAU1@0PAU1@AAV?$allocator@U_Position_Dword@@@0@@Z 10003e60 f i MegamapTAStuff.obj
 0001:00002f40       ??$_Voidify_iter@PAU_Position_Dword@@@std@@YGPAXPAU_Position_Dword@@@Z 10003f40 f i MegamapTAStuff.obj
 0001:00002f50       ??$addressof@U_Position_Dword@@@std@@YGPAU_Position_Dword@@AAU1@@Z 10003f50 f i MegamapTAStuff.obj
 0001:00002f60       ??$addressof@V?$_Vector_val@U?$_Simple_types@U_Position_Dword@@@std@@@std@@@std@@YGPAV?$_Vector_val@U?$_Simple_types@U_Position_Dword@@@std@@@0@AAV10@@Z 10003f60 f i MegamapTAStuff.obj
 0001:00002f70       ??$construct@U_Position_Dword@@ABU1@@?$_Default_allocator_traits@V?$allocator@U_Position_Dword@@@std@@@std@@SGXAAV?$allocator@U_Position_Dword@@@1@QAU_Position_Dword@@ABU3@@Z 10003f70 f i MegamapTAStuff.obj
 0001:00002fb0       ??$construct@U_Position_Dword@@U1@@?$_Default_allocator_traits@V?$allocator@U_Position_Dword@@@std@@@std@@SGXAAV?$allocator@U_Position_Dword@@@1@QAU_Position_Dword@@$$QAU3@@Z 10003fb0 f i MegamapTAStuff.obj
 0001:00002ff0       ??$emplace_back@ABU_Position_Dword@@@?$vector@U_Position_Dword@@V?$allocator@U_Position_Dword@@@std@@@std@@QAE?A_TABU_Position_Dword@@@Z 10003ff0 f i MegamapTAStuff.obj
 0001:00003020       ??$forward@ABU_Position_Dword@@@std@@YGABU_Position_Dword@@ABU1@@Z 10004020 f i MegamapTAStuff.obj
 0001:00003030       ??$forward@U_Position_Dword@@@std@@YG$$QAU_Position_Dword@@AAU1@@Z 10004030 f i MegamapTAStuff.obj
 0001:00003040       ??$min@I@std@@YGABIABI0@Z  10004040 f i MegamapTAStuff.obj
 0001:00003070       ??$move@AAU_Position_Dword@@@std@@YG$$QAU_Position_Dword@@AAU1@@Z 10004070 f i MegamapTAStuff.obj
 0001:00003080       ??$sprintf_s@$0BAA@@@YAHAAY0BAA@DPBDZZ 10004080 f i MegamapTAStuff.obj
 0001:000030b0       ??0?$_Uninitialized_backout_al@V?$allocator@U_Position_Dword@@@std@@@std@@QAE@PAU_Position_Dword@@AAV?$allocator@U_Position_Dword@@@1@@Z 100040b0 f i MegamapTAStuff.obj
 0001:000030e0       ??0?$_Vector_const_iterator@V?$_Vector_val@U?$_Simple_types@U_Position_Dword@@@std@@@std@@@std@@QAE@PAU_Position_Dword@@PBU_Container_base0@1@@Z 100040e0 f i MegamapTAStuff.obj
 0001:00003110       ??0?$_Vector_iterator@V?$_Vector_val@U?$_Simple_types@U_Position_Dword@@@std@@@std@@@std@@QAE@PAU_Position_Dword@@PBU_Container_base0@1@@Z 10004110 f i MegamapTAStuff.obj
 0001:00003130       ??0?$_Vector_val@U?$_Simple_types@U_Position_Dword@@@std@@@std@@QAE@XZ 10004130 f i MegamapTAStuff.obj
 0001:00003160       ??0?$allocator@U_Position_Dword@@@std@@QAE@XZ 10004160 f i MegamapTAStuff.obj
 0001:00003170       ??0?$vector@U_Position_Dword@@V?$allocator@U_Position_Dword@@@std@@@std@@QAE@XZ 10004170 f i MegamapTAStuff.obj
 0001:000031a0       ??0MegamapTAStuff@@QAE@PAVFullScreenMinimap@@PAUtagRECT@@11HHH@Z 100041a0 f   MegamapTAStuff.obj
 0001:00003220       ??0bad_alloc@std@@AAE@QBD@Z 10004220 f i MegamapTAStuff.obj
 0001:00003250       ??0bad_alloc@std@@QAE@ABV01@@Z 10004250 f i MegamapTAStuff.obj
 0001:00003280       ??0bad_array_new_length@std@@QAE@ABV01@@Z 10004280 f i MegamapTAStuff.obj
 0001:000032b0       ??0bad_array_new_length@std@@QAE@XZ 100042b0 f i MegamapTAStuff.obj
 0001:000032e0       ??0exception@std@@QAE@ABV01@@Z 100042e0 f i MegamapTAStuff.obj
 0001:00003320       ??0exception@std@@QAE@QBDH@Z 10004320 f i MegamapTAStuff.obj
 0001:00003350       ??1?$_Uninitialized_backout_al@V?$allocator@U_Position_Dword@@@std@@@std@@QAE@XZ 10004350 f i MegamapTAStuff.obj
 0001:00003380       ??1?$vector@U_Position_Dword@@V?$allocator@U_Position_Dword@@@std@@@std@@QAE@XZ 10004380 f i MegamapTAStuff.obj
 0001:000033a0       ??1MegamapTAStuff@@QAE@XZ  100043a0 f   MegamapTAStuff.obj
 0001:000033e0       ??1bad_alloc@std@@UAE@XZ   100043e0 f i MegamapTAStuff.obj
 0001:00003400       ??1bad_array_new_length@std@@UAE@XZ 10004400 f i MegamapTAStuff.obj
 0001:00003420       ??1exception@std@@UAE@XZ   10004420 f i MegamapTAStuff.obj
 0001:00003450       ??2@YAPAXIPAX@Z            10004450 f i MegamapTAStuff.obj
 0001:00003460       ??8?$_Vector_const_iterator@V?$_Vector_val@U?$_Simple_types@U_Position_Dword@@@std@@@std@@@std@@QBE_NABV01@@Z 10004460 f i MegamapTAStuff.obj
 0001:000034a0       ??9?$_Vector_const_iterator@V?$_Vector_val@U?$_Simple_types@U_Position_Dword@@@std@@@std@@@std@@QBE_NABV01@@Z 100044a0 f i MegamapTAStuff.obj
 0001:000034e0       ??C?$_Vector_iterator@V?$_Vector_val@U?$_Simple_types@U_Position_Dword@@@std@@@std@@@std@@QBEPAU_Position_Dword@@XZ 100044e0 f i MegamapTAStuff.obj
 0001:000034f0       ??E?$_Vector_const_iterator@V?$_Vector_val@U?$_Simple_types@U_Position_Dword@@@std@@@std@@@std@@QAEAAV01@XZ 100044f0 f i MegamapTAStuff.obj
 0001:00003510       ??E?$_Vector_iterator@V?$_Vector_val@U?$_Simple_types@U_Position_Dword@@@std@@@std@@@std@@QAEAAV01@XZ 10004510 f i MegamapTAStuff.obj
 0001:00003530       ??_Ebad_alloc@std@@UAEPAXI@Z 10004530 f i MegamapTAStuff.obj
 0001:00003530       ??_Gbad_alloc@std@@UAEPAXI@Z 10004530 f i MegamapTAStuff.obj
 0001:00003560       ??_Ebad_array_new_length@std@@UAEPAXI@Z 10004560 f i MegamapTAStuff.obj
 0001:00003560       ??_Gbad_array_new_length@std@@UAEPAXI@Z 10004560 f i MegamapTAStuff.obj
 0001:00003590       ??_Eexception@std@@UAEPAXI@Z 10004590 f i MegamapTAStuff.obj
 0001:00003590       ??_Gexception@std@@UAEPAXI@Z 10004590 f i MegamapTAStuff.obj
 0001:000035c0       ?BlitOrder@MegamapTAStuff@@QAEXPAXHHH@Z 100045c0 f   MegamapTAStuff.obj
 0001:00003d50       ?BlitSelect@MegamapTAStuff@@QAEXPAXHHH@Z 10004d50 f   MegamapTAStuff.obj
 0001:00003f40       ?DrawBuildRect@MegamapTAStuff@@QAEXPAU_OFFSCREEN@@EPAUUnitDefStruct@@HHH@Z 10004f40 f   MegamapTAStuff.obj
 0001:00004070       ?DrawCursor@MegamapTAStuff@@QAEXPAXHHHII@Z 10005070 f   MegamapTAStuff.obj
 0001:000040d0       ?DrawOrderPath@MegamapTAStuff@@QAEXPAU_OFFSCREEN@@PAUUnitOrdersStruct@@PAU_Position_Dword@@@Z 100050d0 f   MegamapTAStuff.obj
 0001:000043e0       ?DrawTargatOrder@MegamapTAStuff@@QAEXPAU_OFFSCREEN@@PAUUnitOrdersStruct@@PAUPlayerStruct@@@Z 100053e0 f   MegamapTAStuff.obj
 0001:00004550       ?GetTAStuffSurface@MegamapTAStuff@@QAEPAEXZ 10005550 f   MegamapTAStuff.obj
 0001:00004570       ?Init@MegamapTAStuff@@QAEXPAVFullScreenMinimap@@PAUtagRECT@@11HHH@Z 10005570 f   MegamapTAStuff.obj
 0001:00004790       ?InitSurface@MegamapTAStuff@@QAEXPAUIDirectDraw@@H@Z 10005790 f   MegamapTAStuff.obj
 0001:00004cb0       ?LockBlit@MegamapTAStuff@@QAEXPAXHHH@Z 10005cb0 f   MegamapTAStuff.obj
 0001:00004df0       ?LockBlit_MEGA@MegamapTAStuff@@QAEXPAXHHH@Z 10005df0 f   MegamapTAStuff.obj
 0001:00004e60       ?LockBlit_TA@MegamapTAStuff@@QAEXPAXHHHPAH@Z 10005e60 f   MegamapTAStuff.obj
 0001:00005210       ?ReleaseSurface@MegamapTAStuff@@QAEXXZ 10006210 f   MegamapTAStuff.obj
 0001:000052c0       ?ScreenPos2TAPos@MegamapTAStuff@@AAEPAU_Position_Dword@@PAU2@HHH@Z 100062c0 f   MegamapTAStuff.obj
 0001:00005350       ?TADrawRect@MegamapTAStuff@@QAEXPAU_OFFSCREEN@@HHHHHHH@Z 10006350 f   MegamapTAStuff.obj
 0001:00005470       ?TAPos2ScreenPos@MegamapTAStuff@@AAEPAUtagPOINT@@PAU2@III@Z 10006470 f   MegamapTAStuff.obj
 0001:000054d0       ?UpdateTAGameStuffMEGA@MegamapTAStuff@@QAEXPAXHHPAH@Z 100064d0 f   MegamapTAStuff.obj
 0001:00005570       ?UpdateTAGameStuffTA@MegamapTAStuff@@QAEXPAU_DDSURFACEDESC@@HHPAH@Z 10006570 f   MegamapTAStuff.obj
 0001:00005620       ?_Adjust_manually_vector_aligned@std@@YGXAAPAXAAI@Z 10006620 f i MegamapTAStuff.obj
 0001:00005690       ?_Adopt@_Iterator_base0@std@@QAEXPBX@Z 10006690 f i MegamapTAStuff.obj
 0001:000056a0       ?_Alloc_proxy@_Container_base0@std@@QAEXABU_Fake_allocator@2@@Z 100066a0 f i MegamapTAStuff.obj
 0001:000056b0       ?_Allocate@_Default_allocate_traits@std@@SGPAXI@Z 100066b0 f i MegamapTAStuff.obj
 0001:000056d0       ?_Calculate_growth@?$vector@U_Position_Dword@@V?$allocator@U_Position_Dword@@@std@@@std@@ABEII@Z 100066d0 f i MegamapTAStuff.obj
 0001:00005730       ?_Change_array@?$vector@U_Position_Dword@@V?$allocator@U_Position_Dword@@@std@@@std@@AAEXQAU_Position_Dword@@II@Z 10006730 f i MegamapTAStuff.obj
 0001:000057d0       ?_Compat@?$_Vector_const_iterator@V?$_Vector_val@U?$_Simple_types@U_Position_Dword@@@std@@@std@@@std@@QBEXABV12@@Z 100067d0 f i MegamapTAStuff.obj
 0001:000057e0       ?_Get_first@?$_Compressed_pair@V?$allocator@U_Position_Dword@@@std@@V?$_Vector_val@U?$_Simple_types@U_Position_Dword@@@std@@@2@$00@std@@QAEAAV?$allocator@U_Position_Dword@@@2@XZ 100067e0 f i MegamapTAStuff.obj
 0001:000057f0       ?_Get_first@?$_Compressed_pair@V?$allocator@U_Position_Dword@@@std@@V?$_Vector_val@U?$_Simple_types@U_Position_Dword@@@std@@@2@$00@std@@QBEABV?$allocator@U_Position_Dword@@@2@XZ 100067f0 f i MegamapTAStuff.obj
 0001:00005800       ?_Getal@?$vector@U_Position_Dword@@V?$allocator@U_Position_Dword@@@std@@@std@@AAEAAV?$allocator@U_Position_Dword@@@2@XZ 10006800 f i MegamapTAStuff.obj
 0001:00005820       ?_Getal@?$vector@U_Position_Dword@@V?$allocator@U_Position_Dword@@@std@@@std@@ABEABV?$allocator@U_Position_Dword@@@2@XZ 10006820 f i MegamapTAStuff.obj
 0001:00005840       ?_Orphan_all@_Container_base0@std@@QAEXXZ 10006840 f i MegamapTAStuff.obj
 0001:00005850       ?_Orphan_range@?$vector@U_Position_Dword@@V?$allocator@U_Position_Dword@@@std@@@std@@ABEXPAU_Position_Dword@@0@Z 10006850 f i MegamapTAStuff.obj
 0001:00005860       ?_Release@?$_Uninitialized_backout_al@V?$allocator@U_Position_Dword@@@std@@@std@@QAEPAU_Position_Dword@@XZ 10006860 f i MegamapTAStuff.obj
 0001:00005880       ?_Throw_bad_array_new_length@std@@YGXXZ 10006880 f i MegamapTAStuff.obj
 0001:000058a0       ?_Tidy@?$vector@U_Position_Dword@@V?$allocator@U_Position_Dword@@@std@@@std@@AAEXXZ 100068a0 f i MegamapTAStuff.obj
 0001:00005970       ?_Xlength@?$vector@U_Position_Dword@@V?$allocator@U_Position_Dword@@@std@@@std@@CGXXZ 10006970 f i MegamapTAStuff.obj
 0001:00005980       ?allocate@?$allocator@U_Position_Dword@@@std@@QAEPAU_Position_Dword@@I@Z 10006980 f i MegamapTAStuff.obj
 0001:000059a0       ?begin@?$vector@U_Position_Dword@@V?$allocator@U_Position_Dword@@@std@@@std@@QAE?AV?$_Vector_iterator@V?$_Vector_val@U?$_Simple_types@U_Position_Dword@@@std@@@std@@@2@XZ 100069a0 f i MegamapTAStuff.obj
 0001:000059d0       ?capacity@?$vector@U_Position_Dword@@V?$allocator@U_Position_Dword@@@std@@@std@@QBEIXZ 100069d0 f i MegamapTAStuff.obj
 0001:00005a00       ?deallocate@?$allocator@U_Position_Dword@@@std@@QAEXQAU_Position_Dword@@I@Z 10006a00 f i MegamapTAStuff.obj
 0001:00005a20       ?end@?$vector@U_Position_Dword@@V?$allocator@U_Position_Dword@@@std@@@std@@QAE?AV?$_Vector_iterator@V?$_Vector_val@U?$_Simple_types@U_Position_Dword@@@std@@@std@@@2@XZ 10006a20 f i MegamapTAStuff.obj
 0001:00005a60       ?max@?$numeric_limits@H@std@@SGHXZ 10006a60 f i MegamapTAStuff.obj
 0001:00005a70       ?max_size@?$_Default_allocator_traits@V?$allocator@U_Position_Dword@@@std@@@std@@SGIABV?$allocator@U_Position_Dword@@@2@@Z 10006a70 f i MegamapTAStuff.obj
 0001:00005a80       ?max_size@?$vector@U_Position_Dword@@V?$allocator@U_Position_Dword@@@std@@@std@@QBEIXZ 10006a80 f i MegamapTAStuff.obj
 0001:00005ac0       ?push_back@?$vector@U_Position_Dword@@V?$allocator@U_Position_Dword@@@std@@@std@@QAEXABU_Position_Dword@@@Z 10006ac0 f i MegamapTAStuff.obj
 0001:00005ae0       ?what@exception@std@@UBEPBDXZ 10006ae0 f i MegamapTAStuff.obj
 0001:00005b10       ___local_stdio_printf_options 10006b10 f i MegamapTAStuff.obj
 0001:00005b20       __vsprintf_s_l             10006b20 f i MegamapTAStuff.obj
 0001:00005b70       _vsprintf_s                10006b70 f i MegamapTAStuff.obj
 0001:00005b90       ??0ProjectileMap@@QAE@PAVFullScreenMinimap@@PAVUnitsMinimap@@@Z 10006b90 f   ProjectileMap.obj
 0001:00005bc0       ??1ProjectileMap@@QAE@XZ   10006bc0 f   ProjectileMap.obj
 0001:00005bd0       ?DrawNuke@ProjectileMap@@AAEXPAEPAUtagPOINT@@HHPAUProjectileStruct@@@Z 10006bd0 f   ProjectileMap.obj
 0001:00005dc0       ?DrawProjectile@ProjectileMap@@AAEXPAEPAUtagPOINT@@PAUProjectileStruct@@@Z 10006dc0 f   ProjectileMap.obj
 0001:00005ed0       ?DrawWeapon@ProjectileMap@@AAEXPAEPAUtagPOINT@@HH@Z 10006ed0 f   ProjectileMap.obj
 0001:00005fc0       ?IsPosInPlayerLos@ProjectileMap@@AAEHIIPAUProjectileStruct@@@Z 10006fc0 f   ProjectileMap.obj
 0001:00006110       ?NowDrawProjectile@ProjectileMap@@QAEXPAEPAUtagPOINT@@@Z 10007110 f   ProjectileMap.obj
 0001:00006190       ??$strcpy_s@$0BAA@@@YAHAAY0BAA@DPBD@Z 10007190 f i UnitIcon.obj
 0001:000061b0       ??0TABMP@@QAE@XZ           100071b0 f   UnitIcon.obj
 0001:00006230       ??0UnitIcon@@QAE@PAD@Z     10007230 f   UnitIcon.obj
 0001:000063a0       ??1TABMP@@QAE@XZ           100073a0 f   UnitIcon.obj
 0001:00006420       ??1UnitIcon@@QAE@XZ        10007420 f   UnitIcon.obj
 0001:000064b0       ??_GPCX@@QAEPAXI@Z         100074b0 f i UnitIcon.obj
 0001:000064f0       ??_GTABMP@@QAEPAXI@Z       100074f0 f i UnitIcon.obj
 0001:00006520       ?BufSize@PCX@@QAEJXZ       10007520 f i UnitIcon.obj
 0001:00006540       ?BufSize@TABMP@@QAEJXZ     10007540 f i UnitIcon.obj
 0001:00006560       ?BufSize@UnitIcon@@QAEJXZ  10007560 f   UnitIcon.obj
 0001:000065a0       ?Data@TABMP@@QAEPAEXZ      100075a0 f i UnitIcon.obj
 0001:000065c0       ?Data@UnitIcon@@QAEPAEXZ   100075c0 f   UnitIcon.obj
 0001:00006600       ?Height@TABMP@@QAEJXZ      10007600 f i UnitIcon.obj
 0001:00006620       ?Height@UnitIcon@@QAEJXZ   10007620 f   UnitIcon.obj
 0001:00006660       ?Load@TABMP@@QAEXPAD@Z     10007660 f   UnitIcon.obj
 0001:00006850       ?PCXData@PCX@@QAEPAEXZ     10007850 f i UnitIcon.obj
 0001:00006870       ?Transformer@TABMP@@QAEXPAEPAUtagLOGPALETTE@@PAUtagBITMAPINFO@@0@Z 10007870 f   UnitIcon.obj
 0001:00006930       ?Width@TABMP@@QAEJXZ       10007930 f i UnitIcon.obj
 0001:00006950       ?Width@UnitIcon@@QAEJXZ    10007950 f   UnitIcon.obj
 0001:00006990       ??_GLimitCrack@@QAEPAXI@Z  10007990 f i ddraw.obj
 0001:000069c0       ??_GTABugFixing@@QAEPAXI@Z 100079c0 f i ddraw.obj
 0001:00006a00       ??_GTADRConfig@@QAEPAXI@Z  10007a00 f i ddraw.obj
 0001:00006a40       ??_GUnicodeSupport@@QAEPAXI@Z 10007a40 f i ddraw.obj
 0001:00006a80       ??_G_TAHPI@@QAEPAXI@Z      10007a80 f i ddraw.obj
 0001:00006ab0       ?AddtionInit@@YGHPAUtagInlineX86StackBuffer@@@Z 10007ab0 f   ddraw.obj
 0001:00006b50       ?AddtionInitAfterDDraw@@YGHPAUtagInlineX86StackBuffer@@@Z 10007b50 f   ddraw.obj
 0001:00006d40       ?AddtionRelease@@YGXXZ     10007d40 f   ddraw.obj
 0001:00006da0       ?AddtionReleaseAfterDDraw@@YGXXZ 10007da0 f   ddraw.obj
 0001:00006e30       ?DirectDrawCreate@@YGJPAU_GUID@@PAPAUIDirectDraw@@PAUIUnknown@@@Z 10007e30 f   ddraw.obj
 0001:00006f10       ?EnableSound@@YGXXZ        10007f10 f   ddraw.obj
 0001:00006f40       ?GetAddress@@YGP6GHXZPBD@Z 10007f40 f   ddraw.obj
 0001:00006f70       ?GetSysDir@@YGXXZ          10007f70 f   ddraw.obj
 0001:00007000       ?SetupFileMap@@YG_NXZ      10008000 f   ddraw.obj
 0001:00007090       ?SetupLocalFileMap@@YG_NXZ 10008090 f   ddraw.obj
 0001:00007110       ?SetupTAHookFileMap@@YGXXZ 10008110 f   ddraw.obj
 0001:00007180       ?ShutDownTAHookFileMap@@YGXXZ 10008180 f   ddraw.obj
 0001:000071b0       ?ShutdownFileMap@@YGXXZ    100081b0 f   ddraw.obj
 0001:000071e0       ?ShutdownLocalFileMap@@YGXXZ 100081e0 f   ddraw.obj
 0001:00007210       _AheadLib_AcquireDDThreadLock 10008210 f   ddraw.obj
 0001:00007220       _AheadLib_CompleteCreateSysmemSurface 10008220 f   ddraw.obj
 0001:00007230       _AheadLib_D3DParseUnknownCommand 10008230 f   ddraw.obj
 0001:00007240       _AheadLib_DDGetAttachedSurfaceLcl 10008240 f   ddraw.obj
 0001:00007250       _AheadLib_DDInternalLock   10008250 f   ddraw.obj
 0001:00007260       _AheadLib_DDInternalUnlock 10008260 f   ddraw.obj
 0001:00007270       _AheadLib_DSoundHelp       10008270 f   ddraw.obj
 0001:00007280       _AheadLib_DirectDrawCreateClipper 10008280 f   ddraw.obj
 0001:00007290       _AheadLib_DirectDrawCreateEx 10008290 f   ddraw.obj
 0001:000072a0       _AheadLib_DirectDrawEnumerateA 100082a0 f   ddraw.obj
 0001:000072b0       _AheadLib_DirectDrawEnumerateExA 100082b0 f   ddraw.obj
 0001:000072c0       _AheadLib_DirectDrawEnumerateExW 100082c0 f   ddraw.obj
 0001:000072d0       _AheadLib_DirectDrawEnumerateW 100082d0 f   ddraw.obj
 0001:000072e0       _AheadLib_DllCanUnloadNow  100082e0 f   ddraw.obj
 0001:000072f0       _AheadLib_DllGetClassObject 100082f0 f   ddraw.obj
 0001:00007300       _AheadLib_GetDDSurfaceLocal 10008300 f   ddraw.obj
 0001:00007310       _AheadLib_GetOLEThunkData  10008310 f   ddraw.obj
 0001:00007320       _AheadLib_GetSurfaceFromDC 10008320 f   ddraw.obj
 0001:00007330       _AheadLib_RegisterSpecialCase 10008330 f   ddraw.obj
 0001:00007340       _AheadLib_ReleaseDDThreadLock 10008340 f   ddraw.obj
 0001:00007350       _AheadLib_SetAppCompatData 10008350 f   ddraw.obj
 0001:00007360       _DllMain@12                10008360 f   ddraw.obj
 0001:00007610       ??0ExternHotKey@@QAE@XZ    10008610 f   ExternhotKey.obj
 0001:00007940       ??1ExternHotKey@@QAE@XZ    10008940 f   ExternhotKey.obj
 0001:00007ac0       ?AddRoutine_InitAfterExternKey@@YGXXZ 10008ac0 f   ExternhotKey.obj
 0001:00007b00       ?AddtionRoutine_CircleSelect@@YGHPAUtagInlineX86StackBuffer@@@Z 10008b00 f   ExternhotKey.obj
 0001:00007bd0       ?AddtionRoutine_UnitINFOInit@@YGHPAUtagInlineX86StackBuffer@@@Z 10008bd0 f   ExternhotKey.obj
 0001:00007c00       ?DestroyExternTypeMask@ExternHotKey@@QAEXXZ 10008c00 f   ExternhotKey.obj
 0001:00007d30       ?FilterSelectedUnit@ExternHotKey@@QAEHXZ 10008d30 f   ExternhotKey.obj
 0001:00007da0       ?FilterSelectedUnitProc@ExternHotKey@@QAEHW4TAUnitType@@@Z 10008da0 f   ExternhotKey.obj
 0001:00007fa0       ?FindIdelFactory@ExternHotKey@@QAEXXZ 10008fa0 f   ExternhotKey.obj
 0001:00008160       ?FindIdleConst@ExternHotKey@@QAEXXZ 10009160 f   ExternhotKey.obj
 0001:000083a0       ?InitExternTypeMask@ExternHotKey@@QAEHXZ 100093a0 f   ExternhotKey.obj
 0001:00008c60       ?Message@ExternHotKey@@QAE_NPAUHWND__@@IIJ@Z 10009c60 f   ExternhotKey.obj
 0001:00009040       ?SelectOnlyInScreenSameTypeUnit@ExternHotKey@@QAEHH@Z 1000a040 f   ExternhotKey.obj
 0001:00009260       ?SelectOnlyInScreenWeaponUnit@ExternHotKey@@QAEHI@Z 1000a260 f   ExternhotKey.obj
 0001:000093d0       ?SelectUnitInRect@ExternHotKey@@QAEHW4TAUnitType@@PAUtagRECT@@_N@Z 1000a3d0 f   ExternhotKey.obj
 0001:000095a0       ??0FullScreenMinimap@@QAE@HH@Z 1000a5a0 f   fullscreenminimap.obj
 0001:00009960       ??1FullScreenMinimap@@QAE@XZ 1000a960 f   fullscreenminimap.obj
 0001:00009bf0       ??_GMappedMap@@QAEPAXI@Z   1000abf0 f i fullscreenminimap.obj
 0001:00009c30       ??_GMegaMapControl@@QAEPAXI@Z 1000ac30 f i fullscreenminimap.obj
 0001:00009c70       ??_GMegamapTAStuff@@QAEPAXI@Z 1000ac70 f i fullscreenminimap.obj
 0001:00009cb0       ??_GProjectileMap@@QAEPAXI@Z 1000acb0 f i fullscreenminimap.obj
 0001:00009ce0       ??_GSingleHook@@QAEPAXI@Z  1000ace0 f i fullscreenminimap.obj
 0001:00009d10       ??_GTAGameAreaReDrawer@@QAEPAXI@Z 1000ad10 f i fullscreenminimap.obj
 0001:00009d40       ??_GTNTtoMiniMap@@QAEPAXI@Z 1000ad40 f i fullscreenminimap.obj
 0001:00009d70       ??_GUnitsMinimap@@QAEPAXI@Z 1000ad70 f i fullscreenminimap.obj
 0001:00009db0       ?BlockGUIState@FullScreenMinimap@@QAEXXZ 1000adb0 f   fullscreenminimap.obj
 0001:00009dc0       ?BlockTADraw@@YGHPAUtagInlineX86StackBuffer@@@Z 1000adc0 f   fullscreenminimap.obj
 0001:00009e10       ?DischargeGUIState@FullScreenMinimap@@QAEXXZ 1000ae10 f   fullscreenminimap.obj
 0001:00009e20       ?DischargeTADraw@@YGHPAUtagInlineX86StackBuffer@@@Z 1000ae20 f   fullscreenminimap.obj
 0001:00009e50       ?EnterMegaMap@FullScreenMinimap@@QAEXXZ 1000ae50 f   fullscreenminimap.obj
 0001:00009e70       ?ForceTADrawBlit@@YGHPAUtagInlineX86StackBuffer@@@Z 1000ae70 f   fullscreenminimap.obj
 0001:00009eb0       ?IfRenderMegaThenBlock2@@YGXXZ 1000aeb0 f   fullscreenminimap.obj
 0001:00009ee0       ?IfRenderMegaThenBlock@@YGXXZ 1000aee0 f   fullscreenminimap.obj
 0001:00009f20       ?InitMinimap@FullScreenMinimap@@QAEXPAUtagTNTHeaderStruct@@PAUtagRECT@@@Z 1000af20 f   fullscreenminimap.obj
 0001:0000aac0       ?InitSurface@FullScreenMinimap@@QAEXPAUIDirectDraw@@@Z 1000bac0 f   fullscreenminimap.obj
 0001:0000aaf0       ?InitSurface@FullScreenMinimap@@QAEXPAUIDirectDraw@@H@Z 1000baf0 f   fullscreenminimap.obj
 0001:0000abc0       ?IsBliting@FullScreenMinimap@@QAEHXZ 1000bbc0 f   fullscreenminimap.obj
 0001:0000abe0       ?LoadMap_Routine@@YGHPAUtagInlineX86StackBuffer@@@Z 1000bbe0 f   fullscreenminimap.obj
 0001:0000ac20       ?LockBlit@FullScreenMinimap@@QAEXPAXHHH@Z 1000bc20 f   fullscreenminimap.obj
 0001:0000aca0       ?MegamapFrameThd@@YGKXZ    1000bca0 f   fullscreenminimap.obj
 0001:0000ae70       ?Message@FullScreenMinimap@@QAE_NPAUHWND__@@IIJ@Z 1000be70 f   fullscreenminimap.obj
 0001:0000aed0       ?QuitMegaMap@FullScreenMinimap@@QAEXXZ 1000bed0 f   fullscreenminimap.obj
 0001:0000aef0       ?ReleaseSurface@FullScreenMinimap@@QAEXXZ 1000bef0 f   fullscreenminimap.obj
 0001:0000af50       ?Set@FullScreenMinimap@@QAEXH@Z 1000bf50 f   fullscreenminimap.obj
 0001:0000af90       ?SetVid@FullScreenMinimap@@QAEXH@Z 1000bf90 f   fullscreenminimap.obj
 0001:0000afb0       ?UpdateFrame@FullScreenMinimap@@QAGXPAXPAU_DDSURFACEDESC@@@Z 1000bfb0 f   fullscreenminimap.obj
 0001:0000b2e0       ?gametimeupdate@@YGXXZ     1000c2e0 f   fullscreenminimap.obj
 0001:0000b300       ?writejmp@FullScreenMinimap@@QAEXII@Z 1000c300 f i fullscreenminimap.obj
 0001:0000b350       ?CopyGafSequenceToBits@@YGPAEPAEPAUtagPOINT@@PAU_GAFSequence@@H@Z 1000c350 f   gaf.obj
 0001:0000b3c0       ?CopyGafToBits@@YGXPAEPAUtagPOINT@@IIPAU_GAFFrame@@PAUtagRECT@@@Z 1000c3c0 f   gaf.obj
 0001:0000b460       ?CreateSurfByGafFrame@@YGPAUIDirectDrawSurface@@PAUIDirectDraw@@PAU_GAFFrame@@H@Z 1000c460 f   gaf.obj
 0001:0000b5c0       ?CreateSurfByGafSequence@@YGPAUIDirectDrawSurface@@PAUIDirectDraw@@PAU_GAFSequence@@_N@Z 1000c5c0 f   gaf.obj
 0001:0000b810       ?InstanceGAFFrame@@YGPAEPAU_GAFFrame@@PAPAEPAUtagPOINT@@@Z 1000c810 f   gaf.obj
 0001:0000b8c0       ??0GUIExpand@@QAE@XZ       1000c8c0 f   GuiExpand.obj
 0001:0000bad0       ??1GUIExpand@@QAE@XZ       1000cad0 f   GuiExpand.obj
 0001:0000bb70       ??_GFullScreenMinimap@@QAEPAXI@Z 1000cb70 f i GuiExpand.obj
 0001:0000bbb0       ??_GMenuResolution@@QAEPAXI@Z 1000cbb0 f i GuiExpand.obj
 0001:0000bbe0       ??_GShareDialogExpand@@QAEPAXI@Z 1000cbe0 f i GuiExpand.obj
 0001:0000bc10       ?ApplySelectUnitMenu_Wapper@@YGXXZ 1000cc10 f   HardCodeFunctions.obj
 0001:0000bc50       ?ChatText@@YGHPAD@Z        1000cc50 f   HardCodeFunctions.obj
 0001:0000bcc0       ?CleanIDMaskInTypeAry@@YG_NGQAK@Z 1000ccc0 f   HardCodeFunctions.obj
 0001:0000bd20       ?CountSelectedUnits@@YGHXZ 1000cd20 f   HardCodeFunctions.obj
 0001:0000bdf0       ?DeselectUnits@@YGXXZ      1000cdf0 f   HardCodeFunctions.obj
 0001:0000beb0       ?DrawDotteCircle@@YGHPAEPAUtagPOINT@@HHHHHH@Z 1000ceb0 f   HardCodeFunctions.obj
 0001:0000bf40       ?DrawRadarCircle@@YGHPAEPAUtagPOINT@@HHHH@Z 1000cf40 f   HardCodeFunctions.obj
 0001:0000bfd0       ?DrawTextInScreen_ez@@YG_NPAU_OFFSCREEN@@PADHH@Z 1000cfd0 f   HardCodeFunctions.obj
 0001:0000c000       ?GetMaxScrollX@@YGHXZ      1000d000 f   HardCodeFunctions.obj
 0001:0000c040       ?GetMaxScrollY@@YGHXZ      1000d040 f   HardCodeFunctions.obj
 0001:0000c080       ?GetUnitIDMaskAryByCategory@@YGPAKPAD@Z 1000d080 f   HardCodeFunctions.obj
 0001:0000c110       ?IsPlayerAllyUnit@@YGHHH@Z 1000d110 f   HardCodeFunctions.obj
 0001:0000c1c0       ?MatchInTypeAry@@YG_NGQAK@Z 1000d1c0 f   HardCodeFunctions.obj
 0001:0000c1f0       ?PauseCDMusic@@YGHXZ       1000d1f0 f   HardCodeFunctions.obj
 0001:0000c220       ?ScrollToCenter@@YGXHH@Z   1000d220 f   HardCodeFunctions.obj
 0001:0000c2e0       ?SendOrder@@YGXIIIH_N@Z    1000d2e0 f   HardCodeFunctions.obj
 0001:0000c370       ?SetIDMaskInTypeAry@@YG_NGQAK@Z 1000d370 f   HardCodeFunctions.obj
 0001:0000c3b0       ?UpdateSelectUnitEffect@@YGXXZ 1000d3b0 f   HardCodeFunctions.obj
 0001:0000c3f0       ?UpdateTAProcess@@YGHXZ    1000d3f0 f   HardCodeFunctions.obj
 0001:0000c4a0       ?ViewPlayerLos_Replay@@YGHHH@Z 1000d4a0 f   HardCodeFunctions.obj
 0001:0000c700       ?freeTAMem@@YGXPAX@Z       1000d700 f   HardCodeFunctions.obj
 0001:0000c780       ?resumeOffScreen@@YGXXZ    1000d780 f   HardCodeFunctions.obj
 0001:0000c790       ?resumeScreenPlatte@@YGXXZ 1000d790 f   HardCodeFunctions.obj
 0001:0000c7f0       _sprintf_s                 1000d7f0 f i HardCodeFunctions.obj
 0001:0000c830       ??0ModifyHook@@QAE@IHKPAEKK@Z 1000d830 f   ModifyHook.obj
 0001:0000c8f0       ??0ModifyHook@@QAE@PAEHK0KK@Z 1000d8f0 f   ModifyHook.obj
 0001:0000c9b0       ??0ModifyHook@@QAE@XZ      1000d9b0 f   ModifyHook.obj
 0001:0000ca00       ??1ModifyHook@@QAE@XZ      1000da00 f   ModifyHook.obj
 0001:0000cad0       ?Hook@ModifyHook@@UAEXXZ   1000dad0 f   ModifyHook.obj
 0001:0000cc10       ?InitHookClass@ModifyHook@@AAEXPAEHK0KK@Z 1000dc10 f   ModifyHook.obj
 0001:0000ce10       ??0_TAHPI@@QAE@H@Z         1000de10 f   HPIfunc.obj
 0001:0000cf00       ??1_TAHPI@@QAE@XZ          1000df00 f   HPIfunc.obj
 0001:0000cf50       ?TADontInit@@YGHPAUtagInlineX86StackBuffer@@@Z 1000df50 f   HPIfunc.obj
 0001:0000cf70       ?fclose@_TAHPI@@QAEHPAU_OPENTAFILE@@@Z 1000df70 f   HPIfunc.obj
 0001:0000cf90       ?filelen@_TAHPI@@QAEIPAU_OPENTAFILE@@@Z 1000df90 f   HPIfunc.obj
 0001:0000cfb0       ?filelength@_TAHPI@@QAEIPAD@Z 1000dfb0 f   HPIfunc.obj
 0001:0000cfd0       ?fopen@_TAHPI@@QAEPAU_OPENTAFILE@@PAD0@Z 1000dfd0 f   HPIfunc.obj
 0001:0000cff0       ?free_readfile@_TAHPI@@QAEXPAD@Z 1000dff0 f   HPIfunc.obj
 0001:0000d010       ?read@_TAHPI@@QAEHPAU_OPENTAFILE@@PAXH@Z 1000e010 f   HPIfunc.obj
 0001:0000d030       ?readfile@_TAHPI@@QAEPADPADPAI@Z 1000e030 f   HPIfunc.obj
 0001:0000d050       ??0IDDraw@@QAE@PAUIDirectDraw@@_N@Z 1000e050 f   iddraw.obj
 0001:0000d0f0       ??0IDirectDraw@@QAE@XZ     1000e0f0 f i iddraw.obj
 0001:0000d110       ??0IUnknown@@QAE@XZ        1000e110 f i iddraw.obj
 0001:0000d120       ?AddRef@IDDraw@@UAGKXZ     1000e120 f   iddraw.obj
 0001:0000d150       ?Compact@IDDraw@@UAGJXZ    1000e150 f   iddraw.obj
 0001:0000d180       ?CreateClipper@IDDraw@@UAGJKPAPAUIDirectDrawClipper@@PAUIUnknown@@@Z 1000e180 f   iddraw.obj
 0001:0000d1c0       ?CreatePalette@IDDraw@@UAGJKPAUtagPALETTEENTRY@@PAPAUIDirectDrawPalette@@PAUIUnknown@@@Z 1000e1c0 f   iddraw.obj
 0001:0000d200       ?CreateSurface@IDDraw@@UAGJPAU_DDSURFACEDESC@@PAPAUIDirectDrawSurface@@PAUIUnknown@@@Z 1000e200 f   iddraw.obj
 0001:0000d2c0       ?DuplicateSurface@IDDraw@@UAGJPAUIDirectDrawSurface@@PAPAU2@@Z 1000e2c0 f   iddraw.obj
 0001:0000d2f0       ?EnumDisplayModes@IDDraw@@UAGJKPAU_DDSURFACEDESC@@PAXP6GJ01@Z@Z 1000e2f0 f   iddraw.obj
 0001:0000d330       ?EnumSurfaces@IDDraw@@UAGJKPAU_DDSURFACEDESC@@PAXP6GJPAUIDirectDrawSurface@@01@Z@Z 1000e330 f   iddraw.obj
 0001:0000d370       ?FlipToGDISurface@IDDraw@@UAGJXZ 1000e370 f   iddraw.obj
 0001:0000d3a0       ?GetCaps@IDDraw@@UAGJPAU_DDCAPS_DX7@@0@Z 1000e3a0 f   iddraw.obj
 0001:0000d3d0       ?GetDisplayMode@IDDraw@@UAGJPAU_DDSURFACEDESC@@@Z 1000e3d0 f   iddraw.obj
 0001:0000d400       ?GetFourCCCodes@IDDraw@@UAGJPAK0@Z 1000e400 f   iddraw.obj
 0001:0000d430       ?GetGDISurface@IDDraw@@UAGJPAPAUIDirectDrawSurface@@@Z 1000e430 f   iddraw.obj
 0001:0000d460       ?GetMonitorFrequency@IDDraw@@UAGJPAK@Z 1000e460 f   iddraw.obj
 0001:0000d490       ?GetScanLine@IDDraw@@UAGJPAK@Z 1000e490 f   iddraw.obj
 0001:0000d4c0       ?GetVerticalBlankStatus@IDDraw@@UAGJPAH@Z 1000e4c0 f   iddraw.obj
 0001:0000d4f0       ?Initialize@IDDraw@@UAGJPAU_GUID@@@Z 1000e4f0 f   iddraw.obj
 0001:0000d520       ?QueryInterface@IDDraw@@UAGJABU_GUID@@PAPAX@Z 1000e520 f   iddraw.obj
 0001:0000d550       ?Release@IDDraw@@UAGKXZ    1000e550 f   iddraw.obj
 0001:0000d5a0       ?RestoreDisplayMode@IDDraw@@UAGJXZ 1000e5a0 f   iddraw.obj
 0001:0000d5d0       ?SetCooperativeLevel@IDDraw@@UAGJPAUHWND__@@K@Z 1000e5d0 f   iddraw.obj
 0001:0000d630       ?SetDisplayMode@IDDraw@@UAGJKKK@Z 1000e630 f   iddraw.obj
 0001:0000d6a0       ?WaitForVerticalBlank@IDDraw@@UAGJKPAX@Z 1000e6a0 f   iddraw.obj
 0001:0000d6d0       ?resume@IDDraw@@QAGXXZ     1000e6d0 f   iddraw.obj
 0001:0000d700       ??0IDDrawSurface@@QAE@PAUIDirectDraw@@PAU_DDSURFACEDESC@@PAPAUIDirectDrawSurface@@PAUIUnknown@@PAJ_NHH@Z 1000e700 f   iddrawsurface.obj
 0001:0000dc60       ??0IDirectDrawSurface@@QAE@XZ 1000ec60 f i iddrawsurface.obj
 0001:0000dc80       ??_GAlliesWhiteboard@@QAEPAXI@Z 1000ec80 f i iddrawsurface.obj
 0001:0000dcc0       ??_GCChangeQueue@@QAEPAXI@Z 1000ecc0 f i iddrawsurface.obj
 0001:0000dcf0       ??_GCDDDTA@@QAEPAXI@Z      1000ecf0 f i iddrawsurface.obj
 0001:0000dd20       ??_GCMapRect@@QAEPAXI@Z    1000ed20 f i iddrawsurface.obj
 0001:0000dd50       ??_GCTAHook@@QAEPAXI@Z     1000ed50 f i iddrawsurface.obj
 0001:0000dd90       ??_GCWarp@@QAEPAXI@Z       1000ed90 f i iddrawsurface.obj
 0001:0000ddc0       ?AddAttachedSurface@IDDrawSurface@@UAGJPAUIDirectDrawSurface@@@Z 1000edc0 f   iddrawsurface.obj
 0001:0000ddf0       ?AddOverlayDirtyRect@IDDrawSurface@@UAGJPAUtagRECT@@@Z 1000edf0 f   iddrawsurface.obj
 0001:0000de20       ?AddRef@IDDrawSurface@@UAGKXZ 1000ee20 f   iddrawsurface.obj
 0001:0000de50       ?Blt@IDDrawSurface@@UAGJPAUtagRECT@@PAUIDirectDrawSurface@@0KPAU_DDBLTFX@@@Z 1000ee50 f   iddrawsurface.obj
 0001:0000dea0       ?BltBatch@IDDrawSurface@@UAGJPAU_DDBLTBATCH@@KK@Z 1000eea0 f   iddrawsurface.obj
 0001:0000dee0       ?BltFast@IDDrawSurface@@UAGJKKPAUIDirectDrawSurface@@PAUtagRECT@@K@Z 1000eee0 f   iddrawsurface.obj
 0001:0000df20       ?CorrectName@IDDrawSurface@@QAEXPAD@Z 1000ef20 f   iddrawsurface.obj
 0001:0000df80       ?CreateClipplist@IDDrawSurface@@QAEXXZ 1000ef80 f   iddrawsurface.obj
 0001:0000e1f0       ?CreateDir@IDDrawSurface@@QAEXPAD@Z 1000f1f0 f   iddrawsurface.obj
 0001:0000e2f0       ?CreateFileName@IDDrawSurface@@AAEXPADH@Z 1000f2f0 f   iddrawsurface.obj
 0001:0000e580       ?DeInterlace@IDDrawSurface@@AAEXXZ 1000f580 f   iddrawsurface.obj
 0001:0000e640       ?DeleteAttachedSurface@IDDrawSurface@@UAGJKPAUIDirectDrawSurface@@@Z 1000f640 f   iddrawsurface.obj
 0001:0000e680       ?EnumAttachedSurfaces@IDDrawSurface@@UAGJPAXP6GJPAUIDirectDrawSurface@@PAU_DDSURFACEDESC@@0@Z@Z 1000f680 f   iddrawsurface.obj
 0001:0000e6c0       ?EnumOverlayZOrders@IDDrawSurface@@UAGJKPAXP6GJPAUIDirectDrawSurface@@PAU_DDSURFACEDESC@@0@Z@Z 1000f6c0 f   iddrawsurface.obj
 0001:0000e700       ?Flip@IDDrawSurface@@UAGJPAUIDirectDrawSurface@@K@Z 1000f700 f   iddrawsurface.obj
 0001:0000e740       ?FrontSurface@IDDrawSurface@@QAEXPAUIDirectDrawSurface@@@Z 1000f740 f   iddrawsurface.obj
 0001:0000e760       ?GetAttachedSurface@IDDrawSurface@@UAGJPAU_DDSCAPS@@PAPAUIDirectDrawSurface@@@Z 1000f760 f   iddrawsurface.obj
 0001:0000e7c0       ?GetBltStatus@IDDrawSurface@@UAGJK@Z 1000f7c0 f   iddrawsurface.obj
 0001:0000e7f0       ?GetCaps@IDDrawSurface@@UAGJPAU_DDSCAPS@@@Z 1000f7f0 f   iddrawsurface.obj
 0001:0000e820       ?GetClipper@IDDrawSurface@@UAGJPAPAUIDirectDrawClipper@@@Z 1000f820 f   iddrawsurface.obj
 0001:0000e850       ?GetColorKey@IDDrawSurface@@UAGJKPAU_DDCOLORKEY@@@Z 1000f850 f   iddrawsurface.obj
 0001:0000e890       ?GetDC@IDDrawSurface@@UAGJPAPAUHDC__@@@Z 1000f890 f   iddrawsurface.obj
 0001:0000e8c0       ?GetFlipStatus@IDDrawSurface@@UAGJK@Z 1000f8c0 f   iddrawsurface.obj
 0001:0000e8f0       ?GetOverlayPosition@IDDrawSurface@@UAGJPAJ0@Z 1000f8f0 f   iddrawsurface.obj
 0001:0000e930       ?GetPalette@IDDrawSurface@@UAGJPAPAUIDirectDrawPalette@@@Z 1000f930 f   iddrawsurface.obj
 0001:0000e960       ?GetPixelFormat@IDDrawSurface@@UAGJPAU_DDPIXELFORMAT@@@Z 1000f960 f   iddrawsurface.obj
 0001:0000e990       ?GetSurfaceDesc@IDDrawSurface@@UAGJPAU_DDSURFACEDESC@@@Z 1000f990 f   iddrawsurface.obj
 0001:0000e9c0       ?Initialize@IDDrawSurface@@UAGJPAUIDirectDraw@@PAU_DDSURFACEDESC@@@Z 1000f9c0 f   iddrawsurface.obj
 0001:0000ea00       ?IsLost@IDDrawSurface@@UAGJXZ 1000fa00 f   iddrawsurface.obj
 0001:0000ea60       ?Lock@IDDrawSurface@@UAGJPAUtagRECT@@PAU_DDSURFACEDESC@@KPAX@Z 1000fa60 f   iddrawsurface.obj
 0001:0000eb60       ?OutptInt@IDDrawSurface@@SGXH@Z 1000fb60 f   iddrawsurface.obj
 0001:0000eba0       ?OutptTxt@IDDrawSurface@@SGXPAD@Z 1000fba0 f   iddrawsurface.obj
 0001:0000ebb0       ?QueryInterface@IDDrawSurface@@UAGJABU_GUID@@PAPAX@Z 1000fbb0 f   iddrawsurface.obj
 0001:0000ebf0       ?Release@IDDrawSurface@@UAGKXZ 1000fbf0 f   iddrawsurface.obj
 0001:0000ee50       ?ReleaseDC@IDDrawSurface@@UAGJPAUHDC__@@@Z 1000fe50 f   iddrawsurface.obj
 0001:0000ee80       ?Restore@IDDrawSurface@@UAGJXZ 1000fe80 f   iddrawsurface.obj
 0001:0000eee0       ?ScreenShot@IDDrawSurface@@QAEXXZ 1000fee0 f   iddrawsurface.obj
 0001:0000f150       ?Set@IDDrawSurface@@QAEX_N@Z 10010150 f   iddrawsurface.obj
 0001:0000f170       ?SetClipper@IDDrawSurface@@UAGJPAUIDirectDrawClipper@@@Z 10010170 f   iddrawsurface.obj
 0001:0000f1a0       ?SetColorKey@IDDrawSurface@@UAGJKPAU_DDCOLORKEY@@@Z 100101a0 f   iddrawsurface.obj
 0001:0000f1e0       ?SetOverlayPosition@IDDrawSurface@@UAGJJJ@Z 100101e0 f   iddrawsurface.obj
 0001:0000f220       ?SetPalette@IDDrawSurface@@UAGJPAUIDirectDrawPalette@@@Z 10010220 f   iddrawsurface.obj
 0001:0000f260       ?Unlock@IDDrawSurface@@UAGJPAX@Z 10010260 f   iddrawsurface.obj
 0001:0000f590       ?UpdateOverlay@IDDrawSurface@@UAGJPAUtagRECT@@PAUIDirectDrawSurface@@0KPAU_DDOVERLAYFX@@@Z 10010590 f   iddrawsurface.obj
 0001:0000f5d0       ?UpdateOverlayDisplay@IDDrawSurface@@UAGJK@Z 100105d0 f   iddrawsurface.obj
 0001:0000f600       ?UpdateOverlayZOrder@IDDrawSurface@@UAGJKPAUIDirectDrawSurface@@@Z 10010600 f   iddrawsurface.obj
 0001:0000f630       ?WinProc@@YGJPAUHWND__@@IIJ@Z 10010630 f   iddrawsurface.obj
 0001:0000fa40       ?strstr@@YAPADQADQBD@Z     10010a40 f i iddrawsurface.obj
 0001:0000faa0       ??0TAGameAreaReDrawer@@QAE@XZ 10010aa0 f   GameRedrawer.obj
 0001:0000fad0       ??1TAGameAreaReDrawer@@QAE@XZ 10010ad0 f   GameRedrawer.obj
 0001:0000fb20       ?Cls@TAGameAreaReDrawer@@QAEXXZ 10010b20 f   GameRedrawer.obj
 0001:0000fb80       ?Flip@TAGameAreaReDrawer@@QAEPAEXZ 10010b80 f   GameRedrawer.obj
 0001:0000fbc0       ?GrayBlitOfBits@TAGameAreaReDrawer@@QAEHPAUtagRECT@@PAEPAUtagPOINT@@0H@Z 10010bc0 f   GameRedrawer.obj
 0001:0000ffc0       ?InitOwnSurface@TAGameAreaReDrawer@@QAEPAEPAUIDirectDraw@@H@Z 10010fc0 f   GameRedrawer.obj
 0001:00010100       ?MixBitsInBlit@TAGameAreaReDrawer@@QAEHPAUtagRECT@@PAEPAUtagPOINT@@0@Z 10011100 f   GameRedrawer.obj
 0001:00010470       ?MixDSufInBlit@TAGameAreaReDrawer@@QAEHPAEPAUtagRECT@@01@Z 10011470 f   GameRedrawer.obj
 0001:00010500       ?ReleaseSurface@TAGameAreaReDrawer@@QAEXXZ 10011500 f   GameRedrawer.obj
 0001:00010550       ?TAWGameAreaRect@TAGameAreaReDrawer@@QAEQAUtagRECT@@PAU2@@Z 10011550 f   GameRedrawer.obj
 0001:000105c0       ?backSurface_p@TAGameAreaReDrawer@@QAEQAEXZ 100115c0 f   GameRedrawer.obj
 0001:000105e0       ?frontSurface_p@TAGameAreaReDrawer@@QAEQAEXZ 100115e0 f   GameRedrawer.obj
 0001:00010600       ??0MiniMapPicture@@QAE@HH@Z 10011600 f   MapParse.obj
 0001:00010650       ??0TNTtoMiniMap@@QAE@KK@Z  10011650 f   MapParse.obj
 0001:00010760       ??0TNTtoMiniMap@@QAE@XZ    10011760 f   MapParse.obj
 0001:00010870       ??1MiniMapPicture@@QAE@XZ  10011870 f   MapParse.obj
 0001:000108a0       ??1TNTtoMiniMap@@QAE@XZ    100118a0 f   MapParse.obj
 0001:00010940       ??_GMiniMapPicture@@QAEPAXI@Z 10011940 f i MapParse.obj
 0001:00010970       ?DrawMiniMap@MiniMapPicture@@QAEHPAEPAUtagRECT@@HH1@Z 10011970 f   MapParse.obj
 0001:00010d30       ?DrawMiniMap@TNTtoMiniMap@@QAEHPAEHH@Z 10011d30 f   MapParse.obj
 0001:00010d90       ?DrawRectMapToBuf@TNTtoMiniMap@@AAEPAEPAPAEPAUtagTNTHeaderStruct@@PAUtagRECT@@@Z 10011d90 f   MapParse.obj
 0001:00010e30       ?MapFromTNTFileA@TNTtoMiniMap@@QAEXPAD@Z 10011e30 f   MapParse.obj
 0001:00010f30       ?MapFromTNTInMem@TNTtoMiniMap@@QAEXPAX@Z 10011f30 f   MapParse.obj
 0001:00010f60       ?MapFromValidTNTHeader@TNTtoMiniMap@@QAEXPAUtagTNTHeaderStruct@@@Z 10011f60 f   MapParse.obj
 0001:00010fd0       ?ParseMyTNTHeader@TNTtoMiniMap@@QAEPAUtagTNTHeaderStruct@@PAU2@@Z 10011fd0 f   MapParse.obj
 0001:00011070       ?PictureInfo@MiniMapPicture@@QAEPAEPAPAEPAUtagPOINT@@@Z 10012070 f   MapParse.obj
 0001:000110a0       ?PictureInfo@TNTtoMiniMap@@QAEPAEPAPAEPAUtagPOINT@@@Z 100120a0 f   MapParse.obj
 0001:000110c0       ?StretchTAMapToMiniMap@MiniMapPicture@@QAEPAEPAEPAUtagRECT@@@Z 100120c0 f   MapParse.obj
 0001:000112f0       ?StretchTATNTDataToMiniMap@MiniMapPicture@@QAEPAEPAUtagTNTHeaderStruct@@@Z 100122f0 f   MapParse.obj
 0001:00011720       ??0MenuResolution@@QAE@H@Z 10012720 f   MenuResolution.obj
 0001:00011790       ??0MenuResolution@@QAE@HH@Z 10012790 f   MenuResolution.obj
 0001:00011820       ??1MenuResolution@@QAE@XZ  10012820 f   MenuResolution.obj
 0001:00011870       ?InstallHook@MenuResolution@@AAEXXZ 10012870 f   MenuResolution.obj
 0001:00011ab0       ?UninstallHook@MenuResolution@@AAEXXZ 10012ab0 f   MenuResolution.obj
 0001:00011c10       ?sub_00491A75@@YGHPAUtagInlineX86StackBuffer@@@Z 10012c10 f   MenuResolution.obj
 0001:00011cd0       ?sub_00491B01@@YGHPAUtagInlineX86StackBuffer@@@Z 10012cd0 f   MenuResolution.obj
 0001:00011d80       ?sub_0049E91C@@YGHPAUtagInlineX86StackBuffer@@@Z 10012d80 f   MenuResolution.obj
 0001:00011df0       ?sub_0049E93B@@YGHPAUtagInlineX86StackBuffer@@@Z 10012df0 f   MenuResolution.obj
 0001:00011e70       ??0ModifyWeaponPacket@@QAE@H@Z 10012e70 f   MultiGameWeaponID.obj
 0001:00011eb0       ??0ModifyWeaponPacket@@QAE@XZ 10012eb0 f   MultiGameWeaponID.obj
 0001:00011ee0       ??1ModifyWeaponPacket@@QAE@XZ 10012ee0 f   MultiGameWeaponID.obj
 0001:00012070       ??_GModifyHook@@QAEPAXI@Z  10013070 f i MultiGameWeaponID.obj
 0001:000120a0       ?EnsureDplayx@ModifyWeaponPacket@@AAEXH@Z 100130a0 f   MultiGameWeaponID.obj
 0001:000126e0       ?FeaturePacket@ModifyWeaponPacket@@AAEXH@Z 100136e0 f   MultiGameWeaponID.obj
 0001:000128a0       ?ModifyRoutine@ModifyWeaponPacket@@AAEXH@Z 100138a0 f   MultiGameWeaponID.obj
 0001:000129b0       ??$?0$$V@?$_Compressed_pair@V?$allocator@UTAShareMemStruct@CDDDTA@@@std@@V?$_Deque_val@U?$_Deque_simple_types@UTAShareMemStruct@CDDDTA@@@std@@@2@$00@std@@QAE@U_Zero_then_variadic_args_t@1@@Z 100139b0 f i dddta.obj
 0001:000129d0       ??$?0UTAShareMemStruct@CDDDTA@@@?$allocator@PAUTAShareMemStruct@CDDDTA@@@std@@QAE@ABV?$allocator@UTAShareMemStruct@CDDDTA@@@1@@Z 100139d0 f i dddta.obj
 0001:000129e0       ??$?0UTAShareMemStruct@CDDDTA@@@?$allocator@U_Container_proxy@std@@@std@@QAE@ABV?$allocator@UTAShareMemStruct@CDDDTA@@@1@@Z 100139e0 f i dddta.obj
 0001:000129f0       ??$_Adl_verify_range@PAPAUTAShareMemStruct@CDDDTA@@PAPAU12@@std@@YGXABQAPAUTAShareMemStruct@CDDDTA@@0@Z 100139f0 f i dddta.obj
 0001:00012a00       ??$_Alloc_proxy@V?$allocator@U_Container_proxy@std@@@std@@@_Container_base12@std@@QAEX$$QAV?$allocator@U_Container_proxy@std@@@1@@Z 10013a00 f i dddta.obj
 0001:00012a50       ??$_Construct_in_place@PAUTAShareMemStruct@CDDDTA@@AAPAU12@@std@@YGXAAPAUTAShareMemStruct@CDDDTA@@0@Z 10013a50 f i dddta.obj
 0001:00012a90       ??$_Construct_in_place@U_Container_proxy@std@@PAU_Container_base12@2@@std@@YGXAAU_Container_proxy@0@$$QAPAU_Container_base12@0@@Z 10013a90 f i dddta.obj
 0001:00012ad0       ??$_Copy_memmove@PAPAUTAShareMemStruct@CDDDTA@@PAPAU12@@std@@YGPAPAUTAShareMemStruct@CDDDTA@@PAPAU12@00@Z 10013ad0 f i dddta.obj
 0001:00012b40       ??$_Deallocate_plain@V?$allocator@U_Container_proxy@std@@@std@@@std@@YGXAAV?$allocator@U_Container_proxy@std@@@0@QAU_Container_proxy@0@@Z 10013b40 f i dddta.obj
 0001:00012b90       ??$_Delete_plain_internal@V?$allocator@U_Container_proxy@std@@@std@@@std@@YGXAAV?$allocator@U_Container_proxy@std@@@0@QAU_Container_proxy@0@@Z 10013b90 f i dddta.obj
 0001:00012bb0       ??$_Destroy_in_place@PAUTAShareMemStruct@CDDDTA@@@std@@YGXAAPAUTAShareMemStruct@CDDDTA@@@Z 10013bb0 f i dddta.obj
 0001:00012bc0       ??$_Destroy_range@PAPAUTAShareMemStruct@CDDDTA@@PAPAU12@@std@@YGXPAPAUTAShareMemStruct@CDDDTA@@QAPAU12@@Z 10013bc0 f i dddta.obj
 0001:00012bd0       ??$_Emplace_back@AAPAUTAShareMemStruct@CDDDTA@@@?$_Uninitialized_backout@PAPAUTAShareMemStruct@CDDDTA@@@std@@QAEXAAPAUTAShareMemStruct@CDDDTA@@@Z 10013bd0 f i dddta.obj
 0001:00012c10       ??$_Get_size_of_n@$03@std@@YGII@Z 10013c10 f i dddta.obj
 0001:00012c40       ??$_Get_size_of_n@$07@std@@YGII@Z 10013c40 f i dddta.obj
 0001:00012c70       ??$_Get_size_of_n@$0BE@@std@@YGII@Z 10013c70 f i dddta.obj
 0001:00012ca0       ??$_Get_unwrapped@ABQAPAUTAShareMemStruct@CDDDTA@@@std@@YG?A_TABQAPAUTAShareMemStruct@CDDDTA@@@Z 10013ca0 f i dddta.obj
 0001:00012cb0       ??$_Get_unwrapped_n@AAPAPAUTAShareMemStruct@CDDDTA@@H@std@@YG?A_TAAPAPAUTAShareMemStruct@CDDDTA@@H@Z 10013cb0 f i dddta.obj
 0001:00012cc0       ??$_Idl_distance@PAPAUTAShareMemStruct@CDDDTA@@PAPAU12@@std@@YG?A_PABQAPAUTAShareMemStruct@CDDDTA@@0@Z 10013cc0 f i dddta.obj
 0001:00012ce0       ??$_Seek_wrapped@PAPAUTAShareMemStruct@CDDDTA@@PAPAU12@@std@@YGXAAPAPAUTAShareMemStruct@CDDDTA@@$$QAPAPAU12@@Z 10013ce0 f i dddta.obj
 0001:00012d00       ??$_To_address@PAPAUTAShareMemStruct@CDDDTA@@@std@@YG?A_PABQAPAUTAShareMemStruct@CDDDTA@@@Z 10013d00 f i dddta.obj
 0001:00012d10       ??$_Unfancy@UTAShareMemStruct@CDDDTA@@@std@@YGPAUTAShareMemStruct@CDDDTA@@PAU12@@Z 10013d10 f i dddta.obj
 0001:00012d20       ??$_Unfancy@U_Container_proxy@std@@@std@@YGPAU_Container_proxy@0@PAU10@@Z 10013d20 f i dddta.obj
 0001:00012d30       ??$_Uninitialized_copy_unchecked@PAPAUTAShareMemStruct@CDDDTA@@PAPAU12@@std@@YGPAPAUTAShareMemStruct@CDDDTA@@PAPAU12@QAPAU12@0@Z 10013d30 f i dddta.obj
 0001:00012dd0       ??$_Uninitialized_value_construct_n_unchecked1@PAPAUTAShareMemStruct@CDDDTA@@I@std@@YGPAPAUTAShareMemStruct@CDDDTA@@PAPAU12@I@Z 10013dd0 f i dddta.obj
 0001:00012df0       ??$_Voidify_iter@PAPAUTAShareMemStruct@CDDDTA@@@std@@YGPAXPAPAUTAShareMemStruct@CDDDTA@@@Z 10013df0 f i dddta.obj
 0001:00012e00       ??$_Voidify_iter@PAUTAShareMemStruct@CDDDTA@@@std@@YGPAXPAUTAShareMemStruct@CDDDTA@@@Z 10013e00 f i dddta.obj
 0001:00012e10       ??$_Voidify_iter@PAU_Container_proxy@std@@@std@@YGPAXPAU_Container_proxy@0@@Z 10013e10 f i dddta.obj
 0001:00012e20       ??$_Zero_range@PAPAUTAShareMemStruct@CDDDTA@@@std@@YGPAPAUTAShareMemStruct@CDDDTA@@QAPAU12@0@Z 10013e20 f i dddta.obj
 0001:00012e60       ??$addressof@PAUTAShareMemStruct@CDDDTA@@@std@@YGPAPAUTAShareMemStruct@CDDDTA@@AAPAU12@@Z 10013e60 f i dddta.obj
 0001:00012e70       ??$addressof@U_Container_proxy@std@@@std@@YGPAU_Container_proxy@0@AAU10@@Z 10013e70 f i dddta.obj
 0001:00012e80       ??$addressof@V?$_Deque_val@U?$_Deque_simple_types@UTAShareMemStruct@CDDDTA@@@std@@@std@@@std@@YGPAV?$_Deque_val@U?$_Deque_simple_types@UTAShareMemStruct@CDDDTA@@@std@@@0@AAV10@@Z 10013e80 f i dddta.obj
 0001:00012e90       ??$construct@UTAShareMemStruct@CDDDTA@@ABU12@@?$_Default_allocator_traits@V?$allocator@UTAShareMemStruct@CDDDTA@@@std@@@std@@SGXAAV?$allocator@UTAShareMemStruct@CDDDTA@@@1@QAUTAShareMemStruct@CDDDTA@@ABU34@@Z 10013e90 f i dddta.obj
 0001:00012ee0       ??$destroy@UTAShareMemStruct@CDDDTA@@@?$_Default_allocator_traits@V?$allocator@UTAShareMemStruct@CDDDTA@@@std@@@std@@SGXAAV?$allocator@UTAShareMemStruct@CDDDTA@@@1@QAUTAShareMemStruct@CDDDTA@@@Z 10013ee0 f i dddta.obj
 0001:00012ef0       ??$emplace_front@ABUTAShareMemStruct@CDDDTA@@@?$deque@UTAShareMemStruct@CDDDTA@@V?$allocator@UTAShareMemStruct@CDDDTA@@@std@@@std@@QAE?A_TABUTAShareMemStruct@CDDDTA@@@Z 10013ef0 f i dddta.obj
 0001:00013050       ??$exchange@PAU_Container_proxy@std@@$$T@std@@YGPAU_Container_proxy@0@AAPAU10@$$QA$$T@Z 10014050 f i dddta.obj
 0001:00013070       ??$forward@AAPAUTAShareMemStruct@CDDDTA@@@std@@YGAAPAUTAShareMemStruct@CDDDTA@@AAPAU12@@Z 10014070 f i dddta.obj
 0001:00013080       ??$forward@ABUTAShareMemStruct@CDDDTA@@@std@@YGABUTAShareMemStruct@CDDDTA@@ABU12@@Z 10014080 f i dddta.obj
 0001:00013090       ??$forward@PAPAUTAShareMemStruct@CDDDTA@@@std@@YG$$QAPAPAUTAShareMemStruct@CDDDTA@@AAPAPAU12@@Z 10014090 f i dddta.obj
 0001:000130a0       ??$forward@PAU_Container_base12@std@@@std@@YG$$QAPAU_Container_base12@0@AAPAU10@@Z 100140a0 f i dddta.obj
 0001:000130b0       ??$uninitialized_copy@PAPAUTAShareMemStruct@CDDDTA@@PAPAU12@@std@@YGPAPAUTAShareMemStruct@CDDDTA@@QAPAU12@0PAPAU12@@Z 100140b0 f i dddta.obj
 0001:00013120       ??0?$_Deque_unchecked_const_iterator@V?$_Deque_val@U?$_Deque_simple_types@UTAShareMemStruct@CDDDTA@@@std@@@std@@@std@@QAE@IPBU_Container_base12@1@@Z 10014120 f i dddta.obj
 0001:00013150       ??0?$_Deque_unchecked_iterator@V?$_Deque_val@U?$_Deque_simple_types@UTAShareMemStruct@CDDDTA@@@std@@@std@@@std@@QAE@IPBU_Container_base12@1@@Z 10014150 f i dddta.obj
 0001:00013170       ??0?$_Deque_val@U?$_Deque_simple_types@UTAShareMemStruct@CDDDTA@@@std@@@std@@QAE@XZ 10014170 f i dddta.obj
 0001:000131b0       ??0?$_Uninitialized_backout@PAPAUTAShareMemStruct@CDDDTA@@@std@@QAE@PAPAUTAShareMemStruct@CDDDTA@@@Z 100141b0 f i dddta.obj
 0001:000131e0       ??0?$allocator@UTAShareMemStruct@CDDDTA@@@std@@QAE@XZ 100141e0 f i dddta.obj
 0001:000131f0       ??0?$deque@UTAShareMemStruct@CDDDTA@@V?$allocator@UTAShareMemStruct@CDDDTA@@@std@@@std@@QAE@XZ 100141f0 f i dddta.obj
 0001:00013230       ??0CDDDTA@@QAE@XZ          10014230 f   dddta.obj
 0001:00013320       ??0_Container_base12@std@@QAE@XZ 10014320 f i dddta.obj
 0001:00013340       ??0_Container_proxy@std@@QAE@PAU_Container_base12@1@@Z 10014340 f i dddta.obj
 0001:00013370       ??1?$_Uninitialized_backout@PAPAUTAShareMemStruct@CDDDTA@@@std@@QAE@XZ 10014370 f i dddta.obj
 0001:00013390       ??1?$deque@UTAShareMemStruct@CDDDTA@@V?$allocator@UTAShareMemStruct@CDDDTA@@@std@@@std@@QAE@XZ 10014390 f i dddta.obj
 0001:000133e0       ??1CDDDTA@@QAE@XZ          100143e0 f   dddta.obj
 0001:00013440       ??A?$deque@UTAShareMemStruct@CDDDTA@@V?$allocator@UTAShareMemStruct@CDDDTA@@@std@@@std@@QAEAAUTAShareMemStruct@CDDDTA@@I@Z 10014440 f i dddta.obj
 0001:00013480       ??D?$_Deque_unchecked_const_iterator@V?$_Deque_val@U?$_Deque_simple_types@UTAShareMemStruct@CDDDTA@@@std@@@std@@@std@@QBEABUTAShareMemStruct@CDDDTA@@XZ 10014480 f i dddta.obj
 0001:000134d0       ??D?$_Deque_unchecked_iterator@V?$_Deque_val@U?$_Deque_simple_types@UTAShareMemStruct@CDDDTA@@@std@@@std@@@std@@QBEAAUTAShareMemStruct@CDDDTA@@XZ 100144d0 f i dddta.obj
 0001:000134f0       ??H?$_Deque_unchecked_iterator@V?$_Deque_val@U?$_Deque_simple_types@UTAShareMemStruct@CDDDTA@@@std@@@std@@@std@@QBE?AV01@H@Z 100144f0 f i dddta.obj
 0001:00013530       ??Y?$_Deque_unchecked_const_iterator@V?$_Deque_val@U?$_Deque_simple_types@UTAShareMemStruct@CDDDTA@@@std@@@std@@@std@@QAEAAV01@H@Z 10014530 f i dddta.obj
 0001:00013550       ??Y?$_Deque_unchecked_iterator@V?$_Deque_val@U?$_Deque_simple_types@UTAShareMemStruct@CDDDTA@@@std@@@std@@@std@@QAEAAV01@H@Z 10014550 f i dddta.obj
 0001:00013570       ?Blit@CDDDTA@@QAEXPAUIDirectDrawSurface@@@Z 10014570 f   dddta.obj
 0001:000136e0       ?ChatStrnCpy@@YAPADPADPBDI@Z 100146e0 f   dddta.obj
 0001:00013720       ?CheckMessages@CDDDTA@@AAEXXZ 10014720 f   dddta.obj
 0001:00013870       ?CreateSharedTAMem@CDDDTA@@AAEXHHPAD@Z 10014870 f   dddta.obj
 0001:000139a0       ?DeInitDDDTA@CDDDTA@@QAEXXZ 100149a0 f   dddta.obj
 0001:00013a40       ?DeleteMem@@YAXPAX@Z       10014a40 f   dddta.obj
 0001:00013a70       ?FrameUpdate@CDDDTA@@QAEXXZ 10014a70 f   dddta.obj
 0001:00013bc0       ?InitDDDTA@CDDDTA@@AAEXXZ  10014bc0 f   dddta.obj
 0001:00013f60       ?Message@CDDDTA@@QAE_NPAUHWND__@@IIJ@Z 10014f60 f   dddta.obj
 0001:00014040       ?Moo@CDDDTA@@QAEXXZ        10015040 f   dddta.obj
 0001:00014110       ?Print@CDDDTA@@AAEXPAUHDC__@@PAUPrimitiveStruct@@@Z 10015110 f   dddta.obj
 0001:00014280       ?RestoreAllSharedTAMem@CDDDTA@@AAEXXZ 10015280 f   dddta.obj
 0001:00014350       ?SendTextToSpring@CDDDTA@@QAEXPBD@Z 10015350 f   dddta.obj
 0001:00014400       ?SetActiveUnit@CDDDTA@@AAEXPAUBeginUnitsArray_p@@PAUUnitStruct@@@Z 10015400 f i dddta.obj
 0001:00014500       ?WriteExplosion@CDDDTA@@AAEXXZ 10015500 f   dddta.obj
 0001:00014830       ?WriteProjectiles@CDDDTA@@AAEXXZ 10015830 f   dddta.obj
 0001:00014a10       ?WriteSmoke@CDDDTA@@AAEXXZ 10015a10 f   dddta.obj
 0001:00014ca0       ?WriteSubPart@CDDDTA@@AAEXPAUSubPart@@PAUPrimitiveStruct@@@Z 10015ca0 f   dddta.obj
 0001:00014d90       ?WriteUnits@CDDDTA@@AAEXXZ 10015d90 f   dddta.obj
 0001:00014e90       ?_Get_data@?$deque@UTAShareMemStruct@CDDDTA@@V?$allocator@UTAShareMemStruct@CDDDTA@@@std@@@std@@AAEAAV?$_Deque_val@U?$_Deque_simple_types@UTAShareMemStruct@CDDDTA@@@std@@@2@XZ 10015e90 f i dddta.obj
 0001:00014ea0       ?_Get_data@?$deque@UTAShareMemStruct@CDDDTA@@V?$allocator@UTAShareMemStruct@CDDDTA@@@std@@@std@@ABEABV?$_Deque_val@U?$_Deque_simple_types@UTAShareMemStruct@CDDDTA@@@std@@@2@XZ 10015ea0 f i dddta.obj
 0001:00014eb0       ?_Get_first@?$_Compressed_pair@V?$allocator@UTAShareMemStruct@CDDDTA@@@std@@V?$_Deque_val@U?$_Deque_simple_types@UTAShareMemStruct@CDDDTA@@@std@@@2@$00@std@@QAEAAV?$allocator@UTAShareMemStruct@CDDDTA@@@2@XZ 10015eb0 f i dddta.obj
 0001:00014ec0       ?_Get_first@?$_Compressed_pair@V?$allocator@UTAShareMemStruct@CDDDTA@@@std@@V?$_Deque_val@U?$_Deque_simple_types@UTAShareMemStruct@CDDDTA@@@std@@@2@$00@std@@QBEABV?$allocator@UTAShareMemStruct@CDDDTA@@@2@XZ 10015ec0 f i dddta.obj
 0001:00014ed0       ?_Getal@?$deque@UTAShareMemStruct@CDDDTA@@V?$allocator@UTAShareMemStruct@CDDDTA@@@std@@@std@@AAEAAV?$allocator@UTAShareMemStruct@CDDDTA@@@2@XZ 10015ed0 f i dddta.obj
 0001:00014ef0       ?_Getal@?$deque@UTAShareMemStruct@CDDDTA@@V?$allocator@UTAShareMemStruct@CDDDTA@@@std@@@std@@ABEABV?$allocator@UTAShareMemStruct@CDDDTA@@@2@XZ 10015ef0 f i dddta.obj
 0001:00014f10       ?_Getblock@?$_Deque_val@U?$_Deque_simple_types@UTAShareMemStruct@CDDDTA@@@std@@@std@@QBEII@Z 10015f10 f i dddta.obj
 0001:00014f30       ?_Getblock@?$deque@UTAShareMemStruct@CDDDTA@@V?$allocator@UTAShareMemStruct@CDDDTA@@@std@@@std@@ABEII@Z 10015f30 f i dddta.obj
 0001:00014f50       ?_Growmap@?$deque@UTAShareMemStruct@CDDDTA@@V?$allocator@UTAShareMemStruct@CDDDTA@@@std@@@std@@AAEXI@Z 10015f50 f i dddta.obj
 0001:00015180       ?_Map@?$deque@UTAShareMemStruct@CDDDTA@@V?$allocator@UTAShareMemStruct@CDDDTA@@@std@@@std@@AAEAAPAPAUTAShareMemStruct@CDDDTA@@XZ 10016180 f i dddta.obj
 0001:000151a0       ?_Mapsize@?$deque@UTAShareMemStruct@CDDDTA@@V?$allocator@UTAShareMemStruct@CDDDTA@@@std@@@std@@AAEAAIXZ 100161a0 f i dddta.obj
 0001:000151c0       ?_Myoff@?$deque@UTAShareMemStruct@CDDDTA@@V?$allocator@UTAShareMemStruct@CDDDTA@@@std@@@std@@AAEAAIXZ 100161c0 f i dddta.obj
 0001:000151e0       ?_Mysize@?$deque@UTAShareMemStruct@CDDDTA@@V?$allocator@UTAShareMemStruct@CDDDTA@@@std@@@std@@AAEAAIXZ 100161e0 f i dddta.obj
 0001:00015200       ?_Mysize@?$deque@UTAShareMemStruct@CDDDTA@@V?$allocator@UTAShareMemStruct@CDDDTA@@@std@@@std@@ABEABIXZ 10016200 f i dddta.obj
 0001:00015220       ?_Orphan_all@?$deque@UTAShareMemStruct@CDDDTA@@V?$allocator@UTAShareMemStruct@CDDDTA@@@std@@@std@@AAEXXZ 10016220 f i dddta.obj
 0001:00015240       ?_Orphan_all@_Container_base12@std@@QAEXXZ 10016240 f i dddta.obj
 0001:00015250       ?_Release@?$_Uninitialized_backout@PAPAUTAShareMemStruct@CDDDTA@@@std@@QAEPAPAUTAShareMemStruct@CDDDTA@@XZ 10016250 f i dddta.obj
 0001:00015270       ?_Tidy@?$deque@UTAShareMemStruct@CDDDTA@@V?$allocator@UTAShareMemStruct@CDDDTA@@@std@@@std@@AAEXXZ 10016270 f i dddta.obj
 0001:00015390       ?_Unchecked_begin@?$deque@UTAShareMemStruct@CDDDTA@@V?$allocator@UTAShareMemStruct@CDDDTA@@@std@@@std@@QAE?AV?$_Deque_unchecked_iterator@V?$_Deque_val@U?$_Deque_simple_types@UTAShareMemStruct@CDDDTA@@@std@@@std@@@2@XZ 10016390 f i dddta.obj
 0001:000153d0       ?_Xlen@?$deque@UTAShareMemStruct@CDDDTA@@V?$allocator@UTAShareMemStruct@CDDDTA@@@std@@@std@@ABEXXZ 100163d0 f i dddta.obj
 0001:000153f0       ?allocate@?$allocator@PAUTAShareMemStruct@CDDDTA@@@std@@QAEPAPAUTAShareMemStruct@CDDDTA@@I@Z 100163f0 f i dddta.obj
 0001:00015410       ?allocate@?$allocator@UTAShareMemStruct@CDDDTA@@@std@@QAEPAUTAShareMemStruct@CDDDTA@@I@Z 10016410 f i dddta.obj
 0001:00015430       ?allocate@?$allocator@U_Container_proxy@std@@@std@@QAEPAU_Container_proxy@2@I@Z 10016430 f i dddta.obj
 0001:00015450       ?clear@?$deque@UTAShareMemStruct@CDDDTA@@V?$allocator@UTAShareMemStruct@CDDDTA@@@std@@@std@@QAEXXZ 10016450 f i dddta.obj
 0001:00015470       ?deallocate@?$_Default_allocator_traits@V?$allocator@U_Container_proxy@std@@@std@@@std@@SGXAAV?$allocator@U_Container_proxy@std@@@2@QAU_Container_proxy@2@I@Z 10016470 f i dddta.obj
 0001:00015490       ?deallocate@?$allocator@PAUTAShareMemStruct@CDDDTA@@@std@@QAEXQAPAUTAShareMemStruct@CDDDTA@@I@Z 10016490 f i dddta.obj
 0001:000154b0       ?deallocate@?$allocator@UTAShareMemStruct@CDDDTA@@@std@@QAEXQAUTAShareMemStruct@CDDDTA@@I@Z 100164b0 f i dddta.obj
 0001:000154d0       ?empty@?$deque@UTAShareMemStruct@CDDDTA@@V?$allocator@UTAShareMemStruct@CDDDTA@@@std@@@std@@QBE_NXZ 100164d0 f i dddta.obj
 0001:00015500       ?max_size@?$_Default_allocator_traits@V?$allocator@UTAShareMemStruct@CDDDTA@@@std@@@std@@SGIABV?$allocator@UTAShareMemStruct@CDDDTA@@@2@@Z 10016500 f i dddta.obj
 0001:00015510       ?max_size@?$deque@UTAShareMemStruct@CDDDTA@@V?$allocator@UTAShareMemStruct@CDDDTA@@@std@@@std@@QBEIXZ 10016510 f i dddta.obj
 0001:00015550       ?pop_back@?$deque@UTAShareMemStruct@CDDDTA@@V?$allocator@UTAShareMemStruct@CDDDTA@@@std@@@std@@QAEXXZ 10016550 f i dddta.obj
 0001:00015620       ?push_front@?$deque@UTAShareMemStruct@CDDDTA@@V?$allocator@UTAShareMemStruct@CDDDTA@@@std@@@std@@QAEXABUTAShareMemStruct@CDDDTA@@@Z 10016620 f i dddta.obj
 0001:00015640       ?size@?$deque@UTAShareMemStruct@CDDDTA@@V?$allocator@UTAShareMemStruct@CDDDTA@@@std@@@std@@QBEIXZ 10016640 f i dddta.obj
 0001:00015660       ??0CBookmarks@@QAE@XZ      10016660 f   bookmarks.obj
 0001:00015670       ??1CBookmarks@@QAE@XZ      10016670 f   bookmarks.obj
 0001:00015680       ?Blit@CBookmarks@@QAEXPAUIDirectDrawSurface@@@Z 10016680 f   bookmarks.obj
 0001:00015690       ?Message@CBookmarks@@QAE_NPAUHWND__@@IIJ@Z 10016690 f   bookmarks.obj
 0001:000156a0       ??0CChangeQueue@@QAE@XZ    100166a0 f   changequeue.obj
 0001:000156d0       ??1CChangeQueue@@QAE@XZ    100166d0 f   changequeue.obj
 0001:000156e0       ?Blit@CChangeQueue@@QAEXPAUIDirectDrawSurface@@@Z 100166e0 f   changequeue.obj
 0001:000156f0       ?Message@CChangeQueue@@QAE_NPAUHWND__@@IIJ@Z 100166f0 f   changequeue.obj
 0001:000157b0       ?Write@@YGXPAUHWND__@@@Z   100167b0 f   changequeue.obj
 0001:00015840       ??$sprintf_s@$0GE@@@YAHAAY0GE@DPBDZZ 10016840 f i cinomce.obj
 0001:00015870       ??0CIncome@@QAE@H@Z        10016870 f   cinomce.obj
 0001:00015a70       ??1CIncome@@QAE@XZ         10016a70 f   cinomce.obj
 0001:00015a80       ?BlitIncome@CIncome@@QAEXPAE@Z 10016a80 f   cinomce.obj
 0001:00015c00       ?CorrectPos@CIncome@@AAEXXZ 10016c00 f   cinomce.obj
 0001:00015cf0       ?DrawPlayerRect@CIncome@@AAEXHHD@Z 10016cf0 f   cinomce.obj
 0001:00015d50       ?DrawStorageText@CIncome@@AAEHMHH@Z 10016d50 f   cinomce.obj
 0001:00015e70       ?DrawTextA@CIncome@@AAEXPADHHD@Z 10016e70 f   cinomce.obj
 0001:00015fd0       ?FillRect@CIncome@@AAEXD@Z 10016fd0 f   cinomce.obj
 0001:00016050       ?GetPlayerColor@CIncome@@AAEEH@Z 10017050 f   cinomce.obj
 0001:00016080       ?IsShow@CIncome@@QAE_NPAUtagRECT@@@Z 10017080 f   cinomce.obj
 0001:000160d0       ?Message@CIncome@@QAE_NPAUHWND__@@IIJ@Z 100170d0 f   cinomce.obj
 0001:00016620       ?PaintStoragebar@CIncome@@AAEXHHHH@Z 10017620 f   cinomce.obj
 0001:00016800       ?ReadPos@CIncome@@AAEXXZ   10017800 f   cinomce.obj
 0001:000168b0       ?Set@CIncome@@QAEXH@Z      100178b0 f   cinomce.obj
 0001:000168d0       ?ShowAllIncome@CIncome@@AAEHXZ 100178d0 f   cinomce.obj
 0001:000169a0       ?ShowAllyIncome@CIncome@@AAEHXZ 100179a0 f   cinomce.obj
 0001:00016a90       ?ShowMyViewIncome@CIncome@@AAEXHH@Z 10017a90 f   cinomce.obj
 0001:00016b60       ?ShowPlayerIncome@CIncome@@AAEXHHH@Z 10017b60 f   cinomce.obj
 0001:00016e40       ?WritePos@CIncome@@AAEXXZ  10017e40 f   cinomce.obj
 0001:00016ef0       ?inRect@CIncome@@AAE_NHH@Z 10017ef0 f   cinomce.obj
 0001:00017010       ??0CWarp@@QAE@H@Z          10018010 f   commanderwarp.obj
 0001:00017090       ??1CWarp@@QAE@XZ           10018090 f   commanderwarp.obj
 0001:00017100       ?Blit@CWarp@@QAEXPAUIDirectDrawSurface@@@Z 10018100 f   commanderwarp.obj
 0001:00017170       ?BlitBtn@CWarp@@AAEXPAE@Z  10018170 f   commanderwarp.obj
 0001:00017300       ?Message@CWarp@@QAE_NPAUHWND__@@IIJ@Z 10018300 f   commanderwarp.obj
 0001:000174d0       ?SetPos@CWarp@@AAEXHH@Z    100184d0 f   commanderwarp.obj
 0001:00017520       ?WithinButton@CWarp@@AAE_NHH@Z 10018520 f   commanderwarp.obj
 0001:00017570       ??$?0$$V@?$_Compressed_pair@V?$allocator@D@std@@V?$_String_val@U?$_Simple_types@D@std@@@2@$00@std@@QAE@U_Zero_then_variadic_args_t@1@@Z 10018570 f i dialog.obj
 0001:00017590       ??$_Construct_in_place@PADABQAD@std@@YGXAAPADABQAD@Z 10018590 f i dialog.obj
 0001:000175d0       ??$_Convert_size@I@std@@YGII@Z 100185d0 f i dialog.obj
 0001:000175e0       ??$_Destroy_in_place@PAD@std@@YGXAAPAD@Z 100185e0 f i dialog.obj
 0001:000175f0       ??$_Get_size_of_n@$00@std@@YGII@Z 100185f0 f i dialog.obj
 0001:00017610       ??$_Reallocate_for@V<lambda_9366063389c5f42a00a5088cf24e69de>@@PBD@?$basic_string@DU?$char_traits@D@std@@V?$allocator@D@2@@std@@AAEAAV01@IV<lambda_9366063389c5f42a00a5088cf24e69de>@@PBD@Z 10018610 f i dialog.obj
 0001:000176d0       ??$_Unfancy@D@std@@YGPADPAD@Z 100186d0 f i dialog.obj
 0001:000176e0       ??$_Voidify_iter@PAPAD@std@@YGPAXPAPAD@Z 100186e0 f i dialog.obj
 0001:000176f0       ??$addressof@PAD@std@@YGPAPADAAPAD@Z 100186f0 f i dialog.obj
 0001:00017700       ??$forward@ABQAD@std@@YGABQADABQAD@Z 10018700 f i dialog.obj
 0001:00017710       ??$max@I@std@@YGABIABI0@Z  10018710 f i dialog.obj
 0001:00017740       ??0?$_String_val@U?$_Simple_types@D@std@@@std@@QAE@XZ 10018740 f i dialog.obj
 0001:00017770       ??0?$allocator@D@std@@QAE@XZ 10018770 f i dialog.obj
 0001:00017780       ??0?$basic_string@DU?$char_traits@D@std@@V?$allocator@D@2@@std@@QAE@QBD@Z 10018780 f i dialog.obj
 0001:00017810       ??0Dialog@@QAE@H@Z         10018810 f   dialog.obj
 0001:00017aa0       ??0_Bxty@?$_String_val@U?$_Simple_types@D@std@@@std@@QAE@XZ 10018aa0 f i dialog.obj
 0001:00017ac0       ??0_Fake_proxy_ptr_impl@std@@QAE@ABU_Fake_allocator@1@ABU_Container_base0@1@@Z 10018ac0 f i dialog.obj
 0001:00017ad0       ??1?$_Compressed_pair@V?$allocator@D@std@@V?$_String_val@U?$_Simple_types@D@std@@@2@$00@std@@QAE@XZ 10018ad0 f i dialog.obj
 0001:00017af0       ??1?$_String_val@U?$_Simple_types@D@std@@@std@@QAE@XZ 10018af0 f i dialog.obj
 0001:00017b10       ??1?$basic_string@DU?$char_traits@D@std@@V?$allocator@D@2@@std@@QAE@XZ 10018b10 f i dialog.obj
 0001:00017b30       ??1Dialog@@QAE@XZ          10018b30 f   dialog.obj
 0001:00017b40       ??1_Bxty@?$_String_val@U?$_Simple_types@D@std@@@std@@QAE@XZ 10018b40 f i dialog.obj
 0001:00017b50       ??A?$basic_string@DU?$char_traits@D@std@@V?$allocator@D@2@@std@@QAEAADI@Z 10018b50 f i dialog.obj
 0001:00017b70       ??R<lambda_9366063389c5f42a00a5088cf24e69de>@@QBE@QADIQBD@Z 10018b70 f i dialog.obj
 0001:00017bb0       ?BlitCursor@Dialog@@QAEXPAEHH@Z 10018bb0 f   dialog.obj
 0001:00017d90       ?BlitDialog@Dialog@@QAEXPAE@Z 10018d90 f   dialog.obj
 0001:00018030       ?CorrectPos@Dialog@@AAEXXZ 10019030 f   dialog.obj
 0001:000180c0       ?DrawBackgroundButton@Dialog@@AAEXXZ 100190c0 f   dialog.obj
 0001:00018450       ?DrawDelay@Dialog@@AAEXXZ  10019450 f   dialog.obj
 0001:00018550       ?DrawFullRings@Dialog@@AAEXXZ 10019550 f   dialog.obj
 0001:000187e0       ?DrawKeyCode@Dialog@@AAEXXZ 100197e0 f   dialog.obj
 0001:00018920       ?DrawMegaMapKey@Dialog@@AAEXXZ 10019920 f   dialog.obj
 0001:00018a10       ?DrawOptimizeDT@Dialog@@AAEXXZ 10019a10 f   dialog.obj
 0001:00018ca0       ?DrawShareBox@Dialog@@AAEXXZ 10019ca0 f   dialog.obj
 0001:000190a0       ?DrawSmallText@Dialog@@QAEXPAEHHPAD@Z 1001a0a0 f   dialog.obj
 0001:000196e0       ?DrawTextA@Dialog@@QAEXPAEHHPAD@Z 1001a6e0 f   dialog.obj
 0001:00019d20       ?DrawTinyText@Dialog@@AAEXPADHHD@Z 1001ad20 f   dialog.obj
 0001:00019e80       ?DrawVSync@Dialog@@AAEXXZ  1001ae80 f   dialog.obj
 0001:0001a1f0       ?DrawVisibleButton@Dialog@@AAEXXZ 1001b1f0 f   dialog.obj
 0001:0001a2b0       ?DrawWhiteboardKey@Dialog@@AAEXXZ 1001b2b0 f   dialog.obj
 0001:0001a3a0       ?EnterOption@@YGHPAUtagInlineX86StackBuffer@@@Z 1001b3a0 f   dialog.obj
 0001:0001a3c0       ?FillRect@Dialog@@AAEXHHHHD@Z 1001b3c0 f   dialog.obj
 0001:0001a480       ?HideDialog@Dialog@@QAEXXZ 1001b480 f   dialog.obj
 0001:0001a4c0       ?Inside@Dialog@@AAE_NHHH@Z 1001b4c0 f   dialog.obj
 0001:0001a730       ?IsShow@Dialog@@QAE_NPAUtagRECT@@@Z 1001b730 f   dialog.obj
 0001:0001a790       ?Message@Dialog@@QAE_NPAUHWND__@@IIJ@Z 1001b790 f   dialog.obj
 0001:0001b510       ?PressInOption@@YGHPAUtagInlineX86StackBuffer@@@Z 1001c510 f   dialog.obj
 0001:0001b540       ?ReadPos@Dialog@@AAEXXZ    1001c540 f   dialog.obj
 0001:0001b5d0       ?ReadSettings@Dialog@@QAEXXZ 1001c5d0 f   dialog.obj
 0001:0001b910       ?RenderDialog@Dialog@@QAEXPAE@Z 1001c910 f   dialog.obj
 0001:0001bbf0       ?RestoreAll@Dialog@@QAEXXZ 1001cbf0 f   dialog.obj
 0001:0001bd70       ?RestoreCursor@Dialog@@AAEXXZ 1001cd70 f   dialog.obj
 0001:0001bf30       ?SetAll@Dialog@@QAEXXZ     1001cf30 f   dialog.obj
 0001:0001c040       ?SetVisibleList@Dialog@@AAEXXZ 1001d040 f   dialog.obj
 0001:0001c050       ?ShowDialog@Dialog@@QAEXXZ 1001d050 f   dialog.obj
 0001:0001c0c0       ?WritePos@Dialog@@AAEXXZ   1001d0c0 f   dialog.obj
 0001:0001c170       ?WriteSettings@Dialog@@AAEXXZ 1001d170 f   dialog.obj
 0001:0001c2d0       ?_Calculate_growth@?$basic_string@DU?$char_traits@D@std@@V?$allocator@D@2@@std@@ABEII@Z 1001d2d0 f i dialog.obj
 0001:0001c300       ?_Calculate_growth@?$basic_string@DU?$char_traits@D@std@@V?$allocator@D@2@@std@@CGIIII@Z 1001d300 f i dialog.obj
 0001:0001c350       ?_Get_first@?$_Compressed_pair@V?$allocator@D@std@@V?$_String_val@U?$_Simple_types@D@std@@@2@$00@std@@QAEAAV?$allocator@D@2@XZ 1001d350 f i dialog.obj
 0001:0001c360       ?_Get_first@?$_Compressed_pair@V?$allocator@D@std@@V?$_String_val@U?$_Simple_types@D@std@@@2@$00@std@@QBEABV?$allocator@D@2@XZ 1001d360 f i dialog.obj
 0001:0001c370       ?_Getal@?$basic_string@DU?$char_traits@D@std@@V?$allocator@D@2@@std@@AAEAAV?$allocator@D@2@XZ 1001d370 f i dialog.obj
 0001:0001c390       ?_Getal@?$basic_string@DU?$char_traits@D@std@@V?$allocator@D@2@@std@@ABEABV?$allocator@D@2@XZ 1001d390 f i dialog.obj
 0001:0001c3b0       ?_Large_string_engaged@?$_String_val@U?$_Simple_types@D@std@@@std@@QBE_NXZ 1001d3b0 f i dialog.obj
 0001:0001c3e0       ?_Myptr@?$_String_val@U?$_Simple_types@D@std@@@std@@QAEPADXZ 1001d3e0 f i dialog.obj
 0001:0001c420       ?_Release@_Fake_proxy_ptr_impl@std@@QAEXXZ 1001d420 f i dialog.obj
 0001:0001c430       ?_Tidy_deallocate@?$basic_string@DU?$char_traits@D@std@@V?$allocator@D@2@@std@@AAEXXZ 1001d430 f i dialog.obj
 0001:0001c4f0       ?_Tidy_init@?$basic_string@DU?$char_traits@D@std@@V?$allocator@D@2@@std@@AAEXXZ 1001d4f0 f i dialog.obj
 0001:0001c530       ?_Xlen_string@std@@YGXXZ   1001d530 f i dialog.obj
 0001:0001c540       ?allocate@?$allocator@D@std@@QAEPADI@Z 1001d540 f i dialog.obj
 0001:0001c560       ?assign@?$_Narrow_char_traits@DH@std@@SGXAADABD@Z 1001d560 f i dialog.obj
 0001:0001c580       ?assign@?$basic_string@DU?$char_traits@D@std@@V?$allocator@D@2@@std@@QAEAAV12@QBD@Z 1001d580 f i dialog.obj
 0001:0001c5b0       ?assign@?$basic_string@DU?$char_traits@D@std@@V?$allocator@D@2@@std@@QAEAAV12@QBDI@Z 1001d5b0 f i dialog.obj
 0001:0001c630       ?copy@?$_Char_traits@DH@std@@SGPADQADQBDI@Z 1001d630 f i dialog.obj
 0001:0001c650       ?deallocate@?$allocator@D@std@@QAEXQADI@Z 1001d650 f i dialog.obj
 0001:0001c670       ?length@?$_Narrow_char_traits@DH@std@@SGIQBD@Z 1001d670 f i dialog.obj
 0001:0001c690       ?max_size@?$_Default_allocator_traits@V?$allocator@D@std@@@std@@SGIABV?$allocator@D@2@@Z 1001d690 f i dialog.obj
 0001:0001c6a0       ?max_size@?$basic_string@DU?$char_traits@D@std@@V?$allocator@D@2@@std@@QBEIXZ 1001d6a0 f i dialog.obj
 0001:0001c700       ?move@?$_Char_traits@DH@std@@SGPADQADQBDI@Z 1001d700 f i dialog.obj
 0001:0001c720       ?size@?$basic_string@DU?$char_traits@D@std@@V?$allocator@D@2@@std@@QBEIXZ 1001d720 f i dialog.obj
 0001:0001c740       ??0CMapRect@@QAE@H@Z       1001d740 f   maprect.obj
 0001:0001cc00       ??1CMapRect@@QAE@XZ        1001dc00 f   maprect.obj
 0001:0001cc60       ?Blit@CMapRect@@QAEXPAUIDirectDrawSurface@@@Z 1001dc60 f   maprect.obj
 0001:0001ce90       ?GetMapMaxX@CMapRect@@AAEHXZ 1001de90 f   maprect.obj
 0001:0001ceb0       ?GetMapMaxY@CMapRect@@AAEHXZ 1001deb0 f   maprect.obj
 0001:0001ced0       ?LockBlit@CMapRect@@QAEXPADH@Z 1001ded0 f   maprect.obj
 0001:0001d210       ?PaintRect@CMapRect@@AAEXXZ 1001e210 f   maprect.obj
 0001:0001d3a0       ?WorldToMiniX@CMapRect@@QAEHH@Z 1001e3a0 f   maprect.obj
 0001:0001d3e0       ?WorldToMiniY@CMapRect@@QAEHH@Z 1001e3e0 f   maprect.obj
 0001:0001d420       ??0CMinimapHandler@@QAE@XZ 1001e420 f   MinimapHandler.obj
 0001:0001d450       ??1CMinimapHandler@@UAE@XZ 1001e450 f   MinimapHandler.obj
 0001:0001d470       ??_ECMinimapHandler@@UAEPAXI@Z 1001e470 f i MinimapHandler.obj
 0001:0001d470       ??_GCMinimapHandler@@UAEPAXI@Z 1001e470 f i MinimapHandler.obj
 0001:0001d4a0       ?DeinitMinimap@CMinimapHandler@@QAEXXZ 1001e4a0 f   MinimapHandler.obj
 0001:0001d4f0       ?FrameUpdate@CMinimapHandler@@QAEXXZ 1001e4f0 f   MinimapHandler.obj
 0001:0001d570       ?InitMinimap@CMinimapHandler@@QAEXPAUSharedMem@@@Z 1001e570 f   MinimapHandler.obj
 0001:0001d650       ??0ShareDialogExpand@@QAE@H@Z 1001e650 f   sharedialog.obj
 0001:0001d760       ??1ShareDialogExpand@@QAE@XZ 1001e760 f   sharedialog.obj
 0001:0001d7d0       ?EnergyPosProc@@YGXPAU_GUIInfo@@H@Z 1001e7d0 f   sharedialog.obj
 0001:0001d8f0       ?GameSpeedPosProc@@YGXPAU_GUIInfo@@H@Z 1001e8f0 f   sharedialog.obj
 0001:0001d950       ?MetalPosProc@@YGXPAU_GUIInfo@@H@Z 1001e950 f   sharedialog.obj
 0001:0001da70       ?ShareDialogInit@@YGHPAUtagInlineX86StackBuffer@@@Z 1001ea70 f   sharedialog.obj
 0001:0001df60       ?ShareDialogProc@@YGHPAUtagInlineX86StackBuffer@@@Z 1001ef60 f   sharedialog.obj
 0001:0001e220       ??0TABugFixing@@QAE@XZ     1001f220 f   TABugFix.obj
 0001:0001e770       ??1TABugFixing@@QAE@XZ     1001f770 f   TABugFix.obj
 0001:0001ea00       ?AntiCheat@TABugFixing@@QAEHXZ 1001fa00 f   TABugFix.obj
 0001:0001ea60       ?BadModelHunter@@YGHPAUtagInlineX86StackBuffer@@@Z 1001fa60 f   TABugFix.obj
 0001:0001ebb0       ?CDMusic_MenuProc@@YGHPAUtagInlineX86StackBuffer@@@Z 1001fbb0 f   TABugFix.obj
 0001:0001ebd0       ?CDMusic_VictoryProc@@YGHPAUtagInlineX86StackBuffer@@@Z 1001fbd0 f   TABugFix.obj
 0001:0001ebe0       ?EnterProc@@YGHPAUtagInlineX86StackBuffer@@@Z 1001fbe0 f   TABugFix.obj
 0001:0001ec00       ?LeaveProc@@YGHPAUtagInlineX86StackBuffer@@@Z 1001fc00 f   TABugFix.obj
 0001:0001ec20       ?LogToErrorlog@@YGXPAD@Z   1001fc20 f   TABugFix.obj
 0001:0001eca0       ?Message@TABugFixing@@QAE_NPAUHWND__@@IIJ@Z 1001fca0 f   TABugFix.obj
 0001:0001ecb0       ?UnitDeath_BeforeUpdateUI_Proc@@YGHPAUtagInlineX86StackBuffer@@@Z 1001fcb0 f   TABugFix.obj
 0001:0001ece0       ?UnitIDOutRange_Proc@@YGHPAUtagInlineX86StackBuffer@@@Z 1001fce0 f   TABugFix.obj
 0001:0001ed20       ?UnitVolumeYequZero_Proc@@YGHPAUtagInlineX86StackBuffer@@@Z 1001fd20 f   TABugFix.obj
 0001:0001ed50       ?VectoredHandler@@YGJPAU_EXCEPTION_POINTERS@@@Z 1001fd50 f   TABugFix.obj
 0001:0001ed60       ?resume_EHA@@YGKPAX@Z      1001fd60 f   TABugFix.obj
 0001:0001ed90       ??$?0$$V@?$_Compressed_pair@V?$allocator@PAVRegDword@@@std@@V?$_Vector_val@U?$_Simple_types@PAVRegDword@@@std@@@2@$00@std@@QAE@U_Zero_then_variadic_args_t@1@@Z 1001fd90 f i TAConfig.obj
 0001:0001edb0       ??$?0$$V@?$_Compressed_pair@V?$allocator@PAVRegString@@@std@@V?$_Vector_val@U?$_Simple_types@PAVRegString@@@std@@@2@$00@std@@QAE@U_Zero_then_variadic_args_t@1@@Z 1001fdb0 f i TAConfig.obj
 0001:0001edd0       ??$_Construct_in_place@PAVRegDword@@ABQAV1@@std@@YGXAAPAVRegDword@@ABQAV1@@Z 1001fdd0 f i TAConfig.obj
 0001:0001ee10       ??$_Construct_in_place@PAVRegString@@ABQAV1@@std@@YGXAAPAVRegString@@ABQAV1@@Z 1001fe10 f i TAConfig.obj
 0001:0001ee50       ??$_Copy_memmove@PAPAVRegDword@@PAPAV1@@std@@YGPAPAVRegDword@@PAPAV1@00@Z 1001fe50 f i TAConfig.obj
 0001:0001eec0       ??$_Copy_memmove@PAPAVRegString@@PAPAV1@@std@@YGPAPAVRegString@@PAPAV1@00@Z 1001fec0 f i TAConfig.obj
 0001:0001ef30       ??$_Destroy_range@V?$allocator@PAVRegDword@@@std@@@std@@YGXPAPAVRegDword@@QAPAV1@AAV?$allocator@PAVRegDword@@@0@@Z 1001ff30 f i TAConfig.obj
 0001:0001ef40       ??$_Destroy_range@V?$allocator@PAVRegString@@@std@@@std@@YGXPAPAVRegString@@QAPAV1@AAV?$allocator@PAVRegString@@@0@@Z 1001ff40 f i TAConfig.obj
 0001:0001ef50       ??$_Emplace_back@PAVRegDword@@@?$_Uninitialized_backout_al@V?$allocator@PAVRegDword@@@std@@@std@@QAEX$$QAPAVRegDword@@@Z 1001ff50 f i TAConfig.obj
 0001:0001ef90       ??$_Emplace_back@PAVRegString@@@?$_Uninitialized_backout_al@V?$allocator@PAVRegString@@@std@@@std@@QAEX$$QAPAVRegString@@@Z 1001ff90 f i TAConfig.obj
 0001:0001efd0       ??$_Emplace_back_with_unused_capacity@ABQAVRegDword@@@?$vector@PAVRegDword@@V?$allocator@PAVRegDword@@@std@@@std@@AAEAAPAVRegDword@@ABQAV2@@Z 1001ffd0 f i TAConfig.obj
 0001:0001f030       ??$_Emplace_back_with_unused_capacity@ABQAVRegString@@@?$vector@PAVRegString@@V?$allocator@PAVRegString@@@std@@@std@@AAEAAPAVRegString@@ABQAV2@@Z 10020030 f i TAConfig.obj
 0001:0001f090       ??$_Emplace_one_at_back@ABQAVRegDword@@@?$vector@PAVRegDword@@V?$allocator@PAVRegDword@@@std@@@std@@AAEAAPAVRegDword@@ABQAV2@@Z 10020090 f i TAConfig.obj
 0001:0001f0f0       ??$_Emplace_one_at_back@ABQAVRegString@@@?$vector@PAVRegString@@V?$allocator@PAVRegString@@@std@@@std@@AAEAAPAVRegString@@ABQAV2@@Z 100200f0 f i TAConfig.obj
 0001:0001f150       ??$_Emplace_reallocate@ABQAVRegDword@@@?$vector@PAVRegDword@@V?$allocator@PAVRegDword@@@std@@@std@@AAEPAPAVRegDword@@QAPAV2@ABQAV2@@Z 10020150 f i TAConfig.obj
 0001:0001f320       ??$_Emplace_reallocate@ABQAVRegString@@@?$vector@PAVRegString@@V?$allocator@PAVRegString@@@std@@@std@@AAEPAPAVRegString@@QAPAV2@ABQAV2@@Z 10020320 f i TAConfig.obj
 0001:0001f4f0       ??$_Get_unwrapped@ABQAPAVRegDword@@@std@@YG?A_TABQAPAVRegDword@@@Z 100204f0 f i TAConfig.obj
 0001:0001f500       ??$_Get_unwrapped@ABQAPAVRegString@@@std@@YG?A_TABQAPAVRegString@@@Z 10020500 f i TAConfig.obj
 0001:0001f510       ??$_To_address@PAPAVRegDword@@@std@@YG?A_PABQAPAVRegDword@@@Z 10020510 f i TAConfig.obj
 0001:0001f520       ??$_To_address@PAPAVRegString@@@std@@YG?A_PABQAPAVRegString@@@Z 10020520 f i TAConfig.obj
 0001:0001f530       ??$_Unfancy@PAVRegDword@@@std@@YGPAPAVRegDword@@PAPAV1@@Z 10020530 f i TAConfig.obj
 0001:0001f540       ??$_Unfancy@PAVRegString@@@std@@YGPAPAVRegString@@PAPAV1@@Z 10020540 f i TAConfig.obj
 0001:0001f550       ??$_Uninitialized_move@PAPAVRegDword@@V?$allocator@PAVRegDword@@@std@@@std@@YGPAPAVRegDword@@QAPAV1@0PAPAV1@AAV?$allocator@PAVRegDword@@@0@@Z 10020550 f i TAConfig.obj
 0001:0001f630       ??$_Uninitialized_move@PAPAVRegString@@V?$allocator@PAVRegString@@@std@@@std@@YGPAPAVRegString@@QAPAV1@0PAPAV1@AAV?$allocator@PAVRegString@@@0@@Z 10020630 f i TAConfig.obj
 0001:0001f710       ??$_Voidify_iter@PAPAVRegDword@@@std@@YGPAXPAPAVRegDword@@@Z 10020710 f i TAConfig.obj
 0001:0001f720       ??$_Voidify_iter@PAPAVRegString@@@std@@YGPAXPAPAVRegString@@@Z 10020720 f i TAConfig.obj
 0001:0001f730       ??$addressof@PAVRegDword@@@std@@YGPAPAVRegDword@@AAPAV1@@Z 10020730 f i TAConfig.obj
 0001:0001f740       ??$addressof@PAVRegString@@@std@@YGPAPAVRegString@@AAPAV1@@Z 10020740 f i TAConfig.obj
 0001:0001f750       ??$addressof@V?$_Vector_val@U?$_Simple_types@PAVRegDword@@@std@@@std@@@std@@YGPAV?$_Vector_val@U?$_Simple_types@PAVRegDword@@@std@@@0@AAV10@@Z 10020750 f i TAConfig.obj
 0001:0001f760       ??$addressof@V?$_Vector_val@U?$_Simple_types@PAVRegString@@@std@@@std@@@std@@YGPAV?$_Vector_val@U?$_Simple_types@PAVRegString@@@std@@@0@AAV10@@Z 10020760 f i TAConfig.obj
 0001:0001f770       ??$construct@PAVRegDword@@ABQAV1@@?$_Default_allocator_traits@V?$allocator@PAVRegDword@@@std@@@std@@SGXAAV?$allocator@PAVRegDword@@@1@QAPAVRegDword@@ABQAV3@@Z 10020770 f i TAConfig.obj
 0001:0001f7b0       ??$construct@PAVRegDword@@PAV1@@?$_Default_allocator_traits@V?$allocator@PAVRegDword@@@std@@@std@@SGXAAV?$allocator@PAVRegDword@@@1@QAPAVRegDword@@$$QAPAV3@@Z 100207b0 f i TAConfig.obj
 0001:0001f7f0       ??$construct@PAVRegString@@ABQAV1@@?$_Default_allocator_traits@V?$allocator@PAVRegString@@@std@@@std@@SGXAAV?$allocator@PAVRegString@@@1@QAPAVRegString@@ABQAV3@@Z 100207f0 f i TAConfig.obj
 0001:0001f830       ??$construct@PAVRegString@@PAV1@@?$_Default_allocator_traits@V?$allocator@PAVRegString@@@std@@@std@@SGXAAV?$allocator@PAVRegString@@@1@QAPAVRegString@@$$QAPAV3@@Z 10020830 f i TAConfig.obj
 0001:0001f870       ??$destroy@PAVRegDword@@@?$_Default_allocator_traits@V?$allocator@PAVRegDword@@@std@@@std@@SGXAAV?$allocator@PAVRegDword@@@1@QAPAVRegDword@@@Z 10020870 f i TAConfig.obj
 0001:0001f880       ??$destroy@PAVRegString@@@?$_Default_allocator_traits@V?$allocator@PAVRegString@@@std@@@std@@SGXAAV?$allocator@PAVRegString@@@1@QAPAVRegString@@@Z 10020880 f i TAConfig.obj
 0001:0001f890       ??$emplace_back@ABQAVRegDword@@@?$vector@PAVRegDword@@V?$allocator@PAVRegDword@@@std@@@std@@QAE?A_TABQAVRegDword@@@Z 10020890 f i TAConfig.obj
 0001:0001f8c0       ??$emplace_back@ABQAVRegString@@@?$vector@PAVRegString@@V?$allocator@PAVRegString@@@std@@@std@@QAE?A_TABQAVRegString@@@Z 100208c0 f i TAConfig.obj
 0001:0001f8f0       ??$forward@ABQAVRegDword@@@std@@YGABQAVRegDword@@ABQAV1@@Z 100208f0 f i TAConfig.obj
 0001:0001f900       ??$forward@ABQAVRegString@@@std@@YGABQAVRegString@@ABQAV1@@Z 10020900 f i TAConfig.obj
 0001:0001f910       ??$forward@PAVRegDword@@@std@@YG$$QAPAVRegDword@@AAPAV1@@Z 10020910 f i TAConfig.obj
 0001:0001f920       ??$forward@PAVRegString@@@std@@YG$$QAPAVRegString@@AAPAV1@@Z 10020920 f i TAConfig.obj
 0001:0001f930       ??$move@AAPAVRegDword@@@std@@YG$$QAPAVRegDword@@AAPAV1@@Z 10020930 f i TAConfig.obj
 0001:0001f940       ??$move@AAPAVRegString@@@std@@YG$$QAPAVRegString@@AAPAV1@@Z 10020940 f i TAConfig.obj
 0001:0001f950       ??0?$CTraceCategoryEx@$00$0A@@ATL@@QAE@PBD@Z 10020950 f i TAConfig.obj
 0001:0001f960       ??0?$CTraceCategoryEx@$01$0A@@ATL@@QAE@PBD@Z 10020960 f i TAConfig.obj
 0001:0001f970       ??0?$CTraceCategoryEx@$03$0A@@ATL@@QAE@PBD@Z 10020970 f i TAConfig.obj
 0001:0001f980       ??0?$CTraceCategoryEx@$07$0A@@ATL@@QAE@PBD@Z 10020980 f i TAConfig.obj
 0001:0001f990       ??0?$CTraceCategoryEx@$0BA@$0A@@ATL@@QAE@PBD@Z 10020990 f i TAConfig.obj
 0001:0001f9a0       ??0?$CTraceCategoryEx@$0BAA@$0A@@ATL@@QAE@PBD@Z 100209a0 f i TAConfig.obj
 0001:0001f9b0       ??0?$CTraceCategoryEx@$0BAAA@$0A@@ATL@@QAE@PBD@Z 100209b0 f i TAConfig.obj
 0001:0001f9c0       ??0?$CTraceCategoryEx@$0BAAAA@$0A@@ATL@@QAE@PBD@Z 100209c0 f i TAConfig.obj
 0001:0001f9d0       ??0?$CTraceCategoryEx@$0BAAAAA@$0A@@ATL@@QAE@PBD@Z 100209d0 f i TAConfig.obj
 0001:0001f9e0       ??0?$CTraceCategoryEx@$0CA@$0A@@ATL@@QAE@PBD@Z 100209e0 f i TAConfig.obj
 0001:0001f9f0       ??0?$CTraceCategoryEx@$0CAA@$0A@@ATL@@QAE@PBD@Z 100209f0 f i TAConfig.obj
 0001:0001fa00       ??0?$CTraceCategoryEx@$0CAAA@$0A@@ATL@@QAE@PBD@Z 10020a00 f i TAConfig.obj
 0001:0001fa10       ??0?$CTraceCategoryEx@$0CAAAA@$0A@@ATL@@QAE@PBD@Z 10020a10 f i TAConfig.obj
 0001:0001fa20       ??0?$CTraceCategoryEx@$0CAAAAA@$0A@@ATL@@QAE@PBD@Z 10020a20 f i TAConfig.obj
 0001:0001fa30       ??0?$CTraceCategoryEx@$0EA@$0A@@ATL@@QAE@PBD@Z 10020a30 f i TAConfig.obj
 0001:0001fa40       ??0?$CTraceCategoryEx@$0EAA@$0A@@ATL@@QAE@PBD@Z 10020a40 f i TAConfig.obj
 0001:0001fa50       ??0?$CTraceCategoryEx@$0EAAA@$0A@@ATL@@QAE@PBD@Z 10020a50 f i TAConfig.obj
 0001:0001fa60       ??0?$CTraceCategoryEx@$0EAAAA@$0A@@ATL@@QAE@PBD@Z 10020a60 f i TAConfig.obj
 0001:0001fa70       ??0?$CTraceCategoryEx@$0EAAAAA@$0A@@ATL@@QAE@PBD@Z 10020a70 f i TAConfig.obj
 0001:0001fa80       ??0?$CTraceCategoryEx@$0IA@$0A@@ATL@@QAE@PBD@Z 10020a80 f i TAConfig.obj
 0001:0001fa90       ??0?$CTraceCategoryEx@$0IAA@$0A@@ATL@@QAE@PBD@Z 10020a90 f i TAConfig.obj
 0001:0001faa0       ??0?$CTraceCategoryEx@$0IAAA@$0A@@ATL@@QAE@PBD@Z 10020aa0 f i TAConfig.obj
 0001:0001fab0       ??0?$CTraceCategoryEx@$0IAAAA@$0A@@ATL@@QAE@PBD@Z 10020ab0 f i TAConfig.obj
 0001:0001fac0       ??0?$_Uninitialized_backout_al@V?$allocator@PAVRegDword@@@std@@@std@@QAE@PAPAVRegDword@@AAV?$allocator@PAVRegDword@@@1@@Z 10020ac0 f i TAConfig.obj
 0001:0001faf0       ??0?$_Uninitialized_backout_al@V?$allocator@PAVRegString@@@std@@@std@@QAE@PAPAVRegString@@AAV?$allocator@PAVRegString@@@1@@Z 10020af0 f i TAConfig.obj
 0001:0001fb20       ??0?$_Vector_const_iterator@V?$_Vector_val@U?$_Simple_types@PAVRegDword@@@std@@@std@@@std@@QAE@PAPAVRegDword@@PBU_Container_base0@1@@Z 10020b20 f i TAConfig.obj
 0001:0001fb50       ??0?$_Vector_const_iterator@V?$_Vector_val@U?$_Simple_types@PAVRegString@@@std@@@std@@@std@@QAE@PAPAVRegString@@PBU_Container_base0@1@@Z 10020b50 f i TAConfig.obj
 0001:0001fb80       ??0?$_Vector_iterator@V?$_Vector_val@U?$_Simple_types@PAVRegDword@@@std@@@std@@@std@@QAE@PAPAVRegDword@@PBU_Container_base0@1@@Z 10020b80 f i TAConfig.obj
 0001:0001fba0       ??0?$_Vector_iterator@V?$_Vector_val@U?$_Simple_types@PAVRegString@@@std@@@std@@@std@@QAE@PAPAVRegString@@PBU_Container_base0@1@@Z 10020ba0 f i TAConfig.obj
 0001:0001fbc0       ??0?$_Vector_val@U?$_Simple_types@PAVRegDword@@@std@@@std@@QAE@XZ 10020bc0 f i TAConfig.obj
 0001:0001fbf0       ??0?$_Vector_val@U?$_Simple_types@PAVRegString@@@std@@@std@@QAE@XZ 10020bf0 f i TAConfig.obj
 0001:0001fc20       ??0?$allocator@PAVRegDword@@@std@@QAE@XZ 10020c20 f i TAConfig.obj
 0001:0001fc30       ??0?$allocator@PAVRegString@@@std@@QAE@XZ 10020c30 f i TAConfig.obj
 0001:0001fc40       ??0?$vector@PAVRegDword@@V?$allocator@PAVRegDword@@@std@@@std@@QAE@XZ 10020c40 f i TAConfig.obj
 0001:0001fc70       ??0?$vector@PAVRegString@@V?$allocator@PAVRegString@@@std@@@std@@QAE@XZ 10020c70 f i TAConfig.obj
 0001:0001fca0       ??0CAtlException@ATL@@QAE@J@Z 10020ca0 f i TAConfig.obj
 0001:0001fcc0       ??0RegDword@@QAE@PADHK@Z   10020cc0 f   TAConfig.obj
 0001:0001fd30       ??0RegString@@QAE@PADH0H@Z 10020d30 f   TAConfig.obj
 0001:0001fdd0       ??0TADRConfig@@QAE@XZ      10020dd0 f   TAConfig.obj
 0001:000201c0       ??1?$_Uninitialized_backout_al@V?$allocator@PAVRegDword@@@std@@@std@@QAE@XZ 100211c0 f i TAConfig.obj
 0001:000201f0       ??1?$_Uninitialized_backout_al@V?$allocator@PAVRegString@@@std@@@std@@QAE@XZ 100211f0 f i TAConfig.obj
 0001:00020220       ??1?$vector@PAVRegDword@@V?$allocator@PAVRegDword@@@std@@@std@@QAE@XZ 10021220 f i TAConfig.obj
 0001:00020240       ??1?$vector@PAVRegString@@V?$allocator@PAVRegString@@@std@@@std@@QAE@XZ 10021240 f i TAConfig.obj
 0001:00020260       ??1RegDword@@QAE@XZ        10021260 f   TAConfig.obj
 0001:00020290       ??1RegString@@QAE@XZ       10021290 f   TAConfig.obj
 0001:000202e0       ??1TADRConfig@@QAE@XZ      100212e0 f   TAConfig.obj
 0001:000203c0       ??8?$_Vector_const_iterator@V?$_Vector_val@U?$_Simple_types@PAVRegDword@@@std@@@std@@@std@@QBE_NABV01@@Z 100213c0 f i TAConfig.obj
 0001:00020400       ??8?$_Vector_const_iterator@V?$_Vector_val@U?$_Simple_types@PAVRegString@@@std@@@std@@@std@@QBE_NABV01@@Z 10021400 f i TAConfig.obj
 0001:00020440       ??9?$_Vector_const_iterator@V?$_Vector_val@U?$_Simple_types@PAVRegString@@@std@@@std@@@std@@QBE_NABV01@@Z 10021440 f i TAConfig.obj
 0001:00020480       ??D?$_Vector_const_iterator@V?$_Vector_val@U?$_Simple_types@PAVRegDword@@@std@@@std@@@std@@QBEABQAVRegDword@@XZ 10021480 f i TAConfig.obj
 0001:00020490       ??D?$_Vector_const_iterator@V?$_Vector_val@U?$_Simple_types@PAVRegString@@@std@@@std@@@std@@QBEABQAVRegString@@XZ 10021490 f i TAConfig.obj
 0001:000204a0       ??D?$_Vector_iterator@V?$_Vector_val@U?$_Simple_types@PAVRegDword@@@std@@@std@@@std@@QBEAAPAVRegDword@@XZ 100214a0 f i TAConfig.obj
 0001:000204c0       ??D?$_Vector_iterator@V?$_Vector_val@U?$_Simple_types@PAVRegString@@@std@@@std@@@std@@QBEAAPAVRegString@@XZ 100214c0 f i TAConfig.obj
 0001:000204e0       ??E?$_Vector_const_iterator@V?$_Vector_val@U?$_Simple_types@PAVRegDword@@@std@@@std@@@std@@QAEAAV01@XZ 100214e0 f i TAConfig.obj
 0001:00020500       ??E?$_Vector_const_iterator@V?$_Vector_val@U?$_Simple_types@PAVRegString@@@std@@@std@@@std@@QAEAAV01@XZ 10021500 f i TAConfig.obj
 0001:00020520       ??E?$_Vector_iterator@V?$_Vector_val@U?$_Simple_types@PAVRegDword@@@std@@@std@@@std@@QAEAAV01@XZ 10021520 f i TAConfig.obj
 0001:00020540       ??E?$_Vector_iterator@V?$_Vector_val@U?$_Simple_types@PAVRegString@@@std@@@std@@@std@@QAEAAV01@XZ 10021540 f i TAConfig.obj
 0001:00020560       ??_GRegDword@@QAEPAXI@Z    10021560 f i TAConfig.obj
 0001:00020590       ??_GRegString@@QAEPAXI@Z   10021590 f i TAConfig.obj
 0001:000205c0       ?AtlCrtErrorCheck@ATL@@YGHH@Z 100215c0 f i TAConfig.obj
 0001:00020680       ?AtlThrowImpl@ATL@@YGXJ@Z  10021680 f i TAConfig.obj
 0001:000206b0       ?EnumIniRegInfo_Begin@TADRConfig@@QAEHPAPAU_EnumRegInfo@@PAPBDPAPBX@Z 100216b0 f   TAConfig.obj
 0001:00020740       ?EnumIniRegInfo_End@TADRConfig@@QAEHPAPAU_EnumRegInfo@@@Z 10021740 f   TAConfig.obj
 0001:000207a0       ?EnumIniRegInfo_Next@TADRConfig@@QAEHPAPAU_EnumRegInfo@@PAPBDPAPBX@Z 100217a0 f   TAConfig.obj
 0001:000208c0       ?FindRegDword@TADRConfig@@QAEKPADK@Z 100218c0 f   TAConfig.obj
 0001:00020950       ?FindRegStr@TADRConfig@@QAEPBDPADPBD@Z 10021950 f   TAConfig.obj
 0001:000209e0       ?GetIniBool@TADRConfig@@QAEHPBDH@Z 100219e0 f   TAConfig.obj
 0001:00020a90       ?GetIniCrc@TADRConfig@@QAEIXZ 10021a90 f   TAConfig.obj
 0001:00020b70       ?GetIniInt@TADRConfig@@QAEHPBDH@Z 10021b70 f   TAConfig.obj
 0001:00020ba0       ?GetIniStr@TADRConfig@@QAEHPBDPADK1@Z 10021ba0 f   TAConfig.obj
 0001:00020c00       ?LoadIniRegSetting@TADRConfig@@AAEXPAE@Z 10021c00 f   TAConfig.obj
 0001:00021390       ?Name@RegDword@@QAEPBDXZ   10022390 f   TAConfig.obj
 0001:000213a0       ?Name@RegString@@QAEPBDXZ  100223a0 f   TAConfig.obj
 0001:000213b0       ?ReadTAReg_Dword@TADRConfig@@QAEJPADPAK@Z 100223b0 f   TAConfig.obj
 0001:000213f0       ?ReadTAReg_Str@TADRConfig@@QAEJPADPBDK@Z 100223f0 f   TAConfig.obj
 0001:00021440       ?SetIniBool@TADRConfig@@QAEHPBDH@Z 10022440 f   TAConfig.obj
 0001:00021530       ?Str@RegString@@QAEPBDXZ   10022530 f   TAConfig.obj
 0001:00021550       ?TARegPath_HKEY@TADRConfig@@AAEPAUHKEY__@@XZ 10022550 f   TAConfig.obj
 0001:000215c0       ?Value@RegDword@@QAEKXZ    100225c0 f   TAConfig.obj
 0001:000215e0       ?WriteTAReg_Dword@TADRConfig@@QAEJPADK@Z 100225e0 f   TAConfig.obj
 0001:00021620       ?WriteTAReg_Str@TADRConfig@@QAEJPADPBDK@Z 10022620 f   TAConfig.obj
 0001:00021670       ?_Calculate_growth@?$vector@PAVRegDword@@V?$allocator@PAVRegDword@@@std@@@std@@ABEII@Z 10022670 f i TAConfig.obj
 0001:000216d0       ?_Calculate_growth@?$vector@PAVRegString@@V?$allocator@PAVRegString@@@std@@@std@@ABEII@Z 100226d0 f i TAConfig.obj
 0001:00021730       ?_Change_array@?$vector@PAVRegDword@@V?$allocator@PAVRegDword@@@std@@@std@@AAEXQAPAVRegDword@@II@Z 10022730 f i TAConfig.obj
 0001:000217d0       ?_Change_array@?$vector@PAVRegString@@V?$allocator@PAVRegString@@@std@@@std@@AAEXQAPAVRegString@@II@Z 100227d0 f i TAConfig.obj
 0001:00021870       ?_Compat@?$_Vector_const_iterator@V?$_Vector_val@U?$_Simple_types@PAVRegDword@@@std@@@std@@@std@@QBEXABV12@@Z 10022870 f i TAConfig.obj
 0001:00021880       ?_Compat@?$_Vector_const_iterator@V?$_Vector_val@U?$_Simple_types@PAVRegString@@@std@@@std@@@std@@QBEXABV12@@Z 10022880 f i TAConfig.obj
 0001:00021890       ?_Get_first@?$_Compressed_pair@V?$allocator@PAVRegDword@@@std@@V?$_Vector_val@U?$_Simple_types@PAVRegDword@@@std@@@2@$00@std@@QAEAAV?$allocator@PAVRegDword@@@2@XZ 10022890 f i TAConfig.obj
 0001:000218a0       ?_Get_first@?$_Compressed_pair@V?$allocator@PAVRegDword@@@std@@V?$_Vector_val@U?$_Simple_types@PAVRegDword@@@std@@@2@$00@std@@QBEABV?$allocator@PAVRegDword@@@2@XZ 100228a0 f i TAConfig.obj
 0001:000218b0       ?_Get_first@?$_Compressed_pair@V?$allocator@PAVRegString@@@std@@V?$_Vector_val@U?$_Simple_types@PAVRegString@@@std@@@2@$00@std@@QAEAAV?$allocator@PAVRegString@@@2@XZ 100228b0 f i TAConfig.obj
 0001:000218c0       ?_Get_first@?$_Compressed_pair@V?$allocator@PAVRegString@@@std@@V?$_Vector_val@U?$_Simple_types@PAVRegString@@@std@@@2@$00@std@@QBEABV?$allocator@PAVRegString@@@2@XZ 100228c0 f i TAConfig.obj
 0001:000218d0       ?_Getal@?$vector@PAVRegDword@@V?$allocator@PAVRegDword@@@std@@@std@@AAEAAV?$allocator@PAVRegDword@@@2@XZ 100228d0 f i TAConfig.obj
 0001:000218f0       ?_Getal@?$vector@PAVRegDword@@V?$allocator@PAVRegDword@@@std@@@std@@ABEABV?$allocator@PAVRegDword@@@2@XZ 100228f0 f i TAConfig.obj
 0001:00021910       ?_Getal@?$vector@PAVRegString@@V?$allocator@PAVRegString@@@std@@@std@@AAEAAV?$allocator@PAVRegString@@@2@XZ 10022910 f i TAConfig.obj
 0001:00021930       ?_Getal@?$vector@PAVRegString@@V?$allocator@PAVRegString@@@std@@@std@@ABEABV?$allocator@PAVRegString@@@2@XZ 10022930 f i TAConfig.obj
 0001:00021950       ?_Orphan_range@?$vector@PAVRegDword@@V?$allocator@PAVRegDword@@@std@@@std@@ABEXPAPAVRegDword@@0@Z 10022950 f i TAConfig.obj
 0001:00021960       ?_Orphan_range@?$vector@PAVRegString@@V?$allocator@PAVRegString@@@std@@@std@@ABEXPAPAVRegString@@0@Z 10022960 f i TAConfig.obj
 0001:00021970       ?_Release@?$_Uninitialized_backout_al@V?$allocator@PAVRegDword@@@std@@@std@@QAEPAPAVRegDword@@XZ 10022970 f i TAConfig.obj
 0001:00021990       ?_Release@?$_Uninitialized_backout_al@V?$allocator@PAVRegString@@@std@@@std@@QAEPAPAVRegString@@XZ 10022990 f i TAConfig.obj
 0001:000219b0       ?_Tidy@?$vector@PAVRegDword@@V?$allocator@PAVRegDword@@@std@@@std@@AAEXXZ 100229b0 f i TAConfig.obj
 0001:00021a80       ?_Tidy@?$vector@PAVRegString@@V?$allocator@PAVRegString@@@std@@@std@@AAEXXZ 10022a80 f i TAConfig.obj
 0001:00021b50       ?_Xlength@?$vector@PAVRegDword@@V?$allocator@PAVRegDword@@@std@@@std@@CGXXZ 10022b50 f i TAConfig.obj
 0001:00021b60       ?_Xlength@?$vector@PAVRegString@@V?$allocator@PAVRegString@@@std@@@std@@CGXXZ 10022b60 f i TAConfig.obj
 0001:00021b70       ?allocate@?$allocator@PAVRegDword@@@std@@QAEPAPAVRegDword@@I@Z 10022b70 f i TAConfig.obj
 0001:00021b90       ?allocate@?$allocator@PAVRegString@@@std@@QAEPAPAVRegString@@I@Z 10022b90 f i TAConfig.obj
 0001:00021bb0       ?back@?$vector@PAVRegDword@@V?$allocator@PAVRegDword@@@std@@@std@@QAEAAPAVRegDword@@XZ 10022bb0 f i TAConfig.obj
 0001:00021be0       ?back@?$vector@PAVRegString@@V?$allocator@PAVRegString@@@std@@@std@@QAEAAPAVRegString@@XZ 10022be0 f i TAConfig.obj
 0001:00021c10       ?begin@?$vector@PAVRegDword@@V?$allocator@PAVRegDword@@@std@@@std@@QAE?AV?$_Vector_iterator@V?$_Vector_val@U?$_Simple_types@PAVRegDword@@@std@@@std@@@2@XZ 10022c10 f i TAConfig.obj
 0001:00021c40       ?begin@?$vector@PAVRegString@@V?$allocator@PAVRegString@@@std@@@std@@QAE?AV?$_Vector_iterator@V?$_Vector_val@U?$_Simple_types@PAVRegString@@@std@@@std@@@2@XZ 10022c40 f i TAConfig.obj
 0001:00021c70       ?capacity@?$vector@PAVRegDword@@V?$allocator@PAVRegDword@@@std@@@std@@QBEIXZ 10022c70 f i TAConfig.obj
 0001:00021ca0       ?capacity@?$vector@PAVRegString@@V?$allocator@PAVRegString@@@std@@@std@@QBEIXZ 10022ca0 f i TAConfig.obj
 0001:00021cd0       ?deallocate@?$allocator@PAVRegDword@@@std@@QAEXQAPAVRegDword@@I@Z 10022cd0 f i TAConfig.obj
 0001:00021cf0       ?deallocate@?$allocator@PAVRegString@@@std@@QAEXQAPAVRegString@@I@Z 10022cf0 f i TAConfig.obj
 0001:00021d10       ?empty@?$vector@PAVRegDword@@V?$allocator@PAVRegDword@@@std@@@std@@QBE_NXZ 10022d10 f i TAConfig.obj
 0001:00021d50       ?empty@?$vector@PAVRegString@@V?$allocator@PAVRegString@@@std@@@std@@QBE_NXZ 10022d50 f i TAConfig.obj
 0001:00021d90       ?end@?$vector@PAVRegDword@@V?$allocator@PAVRegDword@@@std@@@std@@QAE?AV?$_Vector_iterator@V?$_Vector_val@U?$_Simple_types@PAVRegDword@@@std@@@std@@@2@XZ 10022d90 f i TAConfig.obj
 0001:00021dd0       ?end@?$vector@PAVRegString@@V?$allocator@PAVRegString@@@std@@@std@@QAE?AV?$_Vector_iterator@V?$_Vector_val@U?$_Simple_types@PAVRegString@@@std@@@std@@@2@XZ 10022dd0 f i TAConfig.obj
 0001:00021e10       ?max_size@?$_Default_allocator_traits@V?$allocator@PAVRegDword@@@std@@@std@@SGIABV?$allocator@PAVRegDword@@@2@@Z 10022e10 f i TAConfig.obj
 0001:00021e20       ?max_size@?$_Default_allocator_traits@V?$allocator@PAVRegString@@@std@@@std@@SGIABV?$allocator@PAVRegString@@@2@@Z 10022e20 f i TAConfig.obj
 0001:00021e30       ?max_size@?$vector@PAVRegDword@@V?$allocator@PAVRegDword@@@std@@@std@@QBEIXZ 10022e30 f i TAConfig.obj
 0001:00021e70       ?max_size@?$vector@PAVRegString@@V?$allocator@PAVRegString@@@std@@@std@@QBEIXZ 10022e70 f i TAConfig.obj
 0001:00021eb0       ?pop_back@?$vector@PAVRegDword@@V?$allocator@PAVRegDword@@@std@@@std@@QAEXXZ 10022eb0 f i TAConfig.obj
 0001:00021f40       ?pop_back@?$vector@PAVRegString@@V?$allocator@PAVRegString@@@std@@@std@@QAEXXZ 10022f40 f i TAConfig.obj
 0001:00021fd0       ?push_back@?$vector@PAVRegDword@@V?$allocator@PAVRegDword@@@std@@@std@@QAEXABQAVRegDword@@@Z 10022fd0 f i TAConfig.obj
 0001:00021ff0       ?push_back@?$vector@PAVRegString@@V?$allocator@PAVRegString@@@std@@@std@@QAEXABQAVRegString@@@Z 10022ff0 f i TAConfig.obj
 0001:00022010       ?size@?$vector@PAVRegDword@@V?$allocator@PAVRegDword@@@std@@@std@@QBEIXZ 10023010 f i TAConfig.obj
 0001:00022040       ?size@?$vector@PAVRegString@@V?$allocator@PAVRegString@@@std@@@std@@QBEIXZ 10023040 f i TAConfig.obj
 0001:00022070       ?strchr@@YAPADQADH@Z       10023070 f i TAConfig.obj
 0001:00022090       ?strlwr_s@Checked@ATL@@YAXPADI@Z 10023090 f i TAConfig.obj
 0001:000220b0       ?strupr_s@Checked@ATL@@YAXPADI@Z 100230b0 f i TAConfig.obj
 0001:000220d0       ??$?0ABV?$allocator@D@std@@$$V@?$_Compressed_pair@V?$allocator@D@std@@V?$_String_val@U?$_Simple_types@D@std@@@2@$00@std@@QAE@U_One_then_variadic_args_t@1@ABV?$allocator@D@1@@Z 100230d0 f i tahook.obj
 0001:00022100       ??$?0PAD$0A@@?$basic_string@DU?$char_traits@D@std@@V?$allocator@D@2@@std@@QAE@PAD0ABV?$allocator@D@1@@Z 10023100 f i tahook.obj
 0001:000221d0       ??$?0V?$allocator@D@std@@$$V@?$_Compressed_pair@V?$allocator@D@std@@V?$_String_val@U?$_Simple_types@D@std@@@2@$00@std@@QAE@U_One_then_variadic_args_t@1@$$QAV?$allocator@D@1@@Z 100231d0 f i tahook.obj
 0001:00022200       ??$?HDU?$char_traits@D@std@@V?$allocator@D@1@@std@@YG?AV?$basic_string@DU?$char_traits@D@std@@V?$allocator@D@2@@0@QBD$$QAV10@@Z 10023200 f i tahook.obj
 0001:00022240       ??$_Adl_verify_range@PADPAD@std@@YGXABQAD0@Z 10023240 f i tahook.obj
 0001:00022250       ??$_Construct_in_place@PADAAPAD@std@@YGXAAPAD0@Z 10023250 f i tahook.obj
 0001:00022290       ??$_Get_unwrapped@AAPAD@std@@YG?A_TAAPAD@Z 10023290 f i tahook.obj
 0001:000222a0       ??$_Integral_to_string@DH@std@@YG?AV?$basic_string@DU?$char_traits@D@std@@V?$allocator@D@2@@0@H@Z 100232a0 f i tahook.obj
 0001:00022340       ??$_Pocma@V?$allocator@D@std@@@std@@YGXAAV?$allocator@D@0@0@Z 10023340 f i tahook.obj
 0001:00022350       ??$_Reallocate_grow_by@V<lambda_15711c68e099a15a58f4d77303cb286d>@@D@?$basic_string@DU?$char_traits@D@std@@V?$allocator@D@2@@std@@AAEAAV01@IV<lambda_15711c68e099a15a58f4d77303cb286d>@@D@Z 10023350 f i tahook.obj
 0001:00022460       ??$_Reallocate_grow_by@V<lambda_4d79bb85f269e6e8002a4599002d832c>@@IPBDI@?$basic_string@DU?$char_traits@D@std@@V?$allocator@D@2@@std@@AAEAAV01@IV<lambda_4d79bb85f269e6e8002a4599002d832c>@@IPBDI@Z 10023460 f i tahook.obj
 0001:00022580       ??$_UIntegral_to_buff@DI@std@@YGPADPADI@Z 10023580 f i tahook.obj
 0001:000225d0       ??$addressof@$$CBV?$_String_val@U?$_Simple_types@D@std@@@std@@@std@@YGPBV?$_String_val@U?$_Simple_types@D@std@@@0@ABV10@@Z 100235d0 f i tahook.obj
 0001:000225e0       ??$addressof@V?$_String_val@U?$_Simple_types@D@std@@@std@@@std@@YGPAV?$_String_val@U?$_Simple_types@D@std@@@0@AAV10@@Z 100235e0 f i tahook.obj
 0001:000225f0       ??$addressof@V?$basic_string@DU?$char_traits@D@std@@V?$allocator@D@2@@std@@@std@@YGPAV?$basic_string@DU?$char_traits@D@std@@V?$allocator@D@2@@0@AAV10@@Z 100235f0 f i tahook.obj
 0001:00022600       ??$end@D$0BF@@std@@YGPADAAY0BF@D@Z 10023600 f i tahook.obj
 0001:00022610       ??$forward@AAPAD@std@@YGAAPADAAPAD@Z 10023610 f i tahook.obj
 0001:00022620       ??$forward@ABV?$allocator@D@std@@@std@@YGABV?$allocator@D@0@ABV10@@Z 10023620 f i tahook.obj
 0001:00022630       ??$forward@V?$allocator@D@std@@@std@@YG$$QAV?$allocator@D@0@AAV10@@Z 10023630 f i tahook.obj
 0001:00022640       ??$move@AAV?$allocator@D@std@@@std@@YG$$QAV?$allocator@D@0@AAV10@@Z 10023640 f i tahook.obj
 0001:00022650       ??$move@AAV?$basic_string@DU?$char_traits@D@std@@V?$allocator@D@2@@std@@@std@@YG$$QAV?$basic_string@DU?$char_traits@D@std@@V?$allocator@D@2@@0@AAV10@@Z 10023650 f i tahook.obj
 0001:00022660       ??0?$basic_string@DU?$char_traits@D@std@@V?$allocator@D@2@@std@@QAE@$$QAV01@@Z 10023660 f i tahook.obj
 0001:000226b0       ??0?$basic_string@DU?$char_traits@D@std@@V?$allocator@D@2@@std@@QAE@XZ 100236b0 f i tahook.obj
 0001:000226f0       ??0CTAHook@@QAE@H@Z        100236f0 f   tahook.obj
 0001:000229c0       ??1CTAHook@@QAE@XZ         100239c0 f   tahook.obj
 0001:00022a30       ??4?$basic_string@DU?$char_traits@D@std@@V?$allocator@D@2@@std@@QAEAAV01@$$QAV01@@Z 10023a30 f i tahook.obj
 0001:00022aa0       ??4?$basic_string@DU?$char_traits@D@std@@V?$allocator@D@2@@std@@QAEAAV01@QBD@Z 10023aa0 f i tahook.obj
 0001:00022ac0       ??R<lambda_15711c68e099a15a58f4d77303cb286d>@@QBE@QADQBDID@Z 10023ac0 f i tahook.obj
 0001:00022b10       ??R<lambda_4d79bb85f269e6e8002a4599002d832c>@@QBE@QADQBDII1I@Z 10023b10 f i tahook.obj
 0001:00022b70       ??Y?$basic_string@DU?$char_traits@D@std@@V?$allocator@D@2@@std@@QAEAAV01@D@Z 10023b70 f i tahook.obj
 0001:00022b90       ?Blit@CTAHook@@QAEXPAUIDirectDrawSurface@@@Z 10023b90 f   tahook.obj
 0001:00022ba0       ?CalculateLine@CTAHook@@AAEXXZ 10023ba0 f   tahook.obj
 0001:00022e40       ?CalculateRing@CTAHook@@AAEXHHHH@Z 10023e40 f   tahook.obj
 0001:00023190       ?CalculateRing@CTAHook@@AAEXXZ 10024190 f   tahook.obj
 0001:00023290       ?ClickBuilding@CTAHook@@AAEXHH@Z 10024290 f   tahook.obj
 0001:00023340       ?DisableTABuildRect@CTAHook@@AAEXXZ 10024340 f   tahook.obj
 0001:00023370       ?DrawBuildRect@CTAHook@@AAEXHHHHH@Z 10024370 f   tahook.obj
 0001:00023560       ?EnableTABuildRect@CTAHook@@AAEXXZ 10024560 f   tahook.obj
 0001:00023590       ?GetFootX@CTAHook@@AAEFXZ  10024590 f   tahook.obj
 0001:000235c0       ?GetFootY@CTAHook@@AAEFXZ  100245c0 f   tahook.obj
 0001:000235f0       ?IsLineBuilding@CTAHook@@QAEHXZ 100245f0 f   tahook.obj
 0001:00023630       ?Message@CTAHook@@QAE_NPAUHWND__@@IIJ@Z 10024630 f   tahook.obj
 0001:00023d90       ?OptimizeDTRows@CTAHook@@AAEXXZ 10024d90 f   tahook.obj
 0001:00024100       ?PaintMinimapRect@CTAHook@@AAEXXZ 10025100 f   tahook.obj
 0001:00024130       ?Set@CTAHook@@QAEXHPAD_N1H@Z 10025130 f   tahook.obj
 0001:00024180       ?TABlit@CTAHook@@QAEXXZ    10025180 f   tahook.obj
 0001:00024200       ?UpdateSpacing@CTAHook@@AAEXXZ 10025200 f   tahook.obj
 0001:00024240       ?VisualizeRow@CTAHook@@AAEXXZ 10025240 f   tahook.obj
 0001:000243b0       ?VisualizeRow_ForME_megamap@CTAHook@@QAEXPAU_OFFSCREEN@@@Z 100253b0 f   tahook.obj
 0001:00024520       ?WriteDTLine@CTAHook@@AAEXXZ 10025520 f   tahook.obj
 0001:000245c0       ?WriteScrollDTLine@CTAHook@@AAEXXZ 100255c0 f   tahook.obj
 0001:000245d0       ?WriteShareMacro@CTAHook@@QAEXXZ 100255d0 f   tahook.obj
 0001:00024a20       ?_Check_offset@?$_String_val@U?$_Simple_types@D@std@@@std@@QBEXI@Z 10025a20 f i tahook.obj
 0001:00024a40       ?_Memcpy_val_from@?$basic_string@DU?$char_traits@D@std@@V?$allocator@D@2@@std@@AAEXABV12@@Z 10025a40 f i tahook.obj
 0001:00024a80       ?_Myptr@?$_String_val@U?$_Simple_types@D@std@@@std@@QBEPBDXZ 10025a80 f i tahook.obj
 0001:00024ac0       ?_Swap_proxy_and_iterators@?$basic_string@DU?$char_traits@D@std@@V?$allocator@D@2@@std@@AAEXAAV12@@Z 10025ac0 f i tahook.obj
 0001:00024ae0       ?_Swap_proxy_and_iterators@_Container_base0@std@@QAEXAAU12@@Z 10025ae0 f i tahook.obj
 0001:00024af0       ?_Take_contents@?$basic_string@DU?$char_traits@D@std@@V?$allocator@D@2@@std@@AAEXAAV12@@Z 10025af0 f i tahook.obj
 0001:00024bd0       ?_Xran@?$_String_val@U?$_Simple_types@D@std@@@std@@SGXXZ 10025bd0 f i tahook.obj
 0001:00024be0       ?c_str@?$basic_string@DU?$char_traits@D@std@@V?$allocator@D@2@@std@@QBEPBDXZ 10025be0 f i tahook.obj
 0001:00024c00       ?insert@?$basic_string@DU?$char_traits@D@std@@V?$allocator@D@2@@std@@QAEAAV12@IQBD@Z 10025c00 f i tahook.obj
 0001:00024c30       ?insert@?$basic_string@DU?$char_traits@D@std@@V?$allocator@D@2@@std@@QAEAAV12@IQBDI@Z 10025c30 f i tahook.obj
 0001:00024d50       ?push_back@?$basic_string@DU?$char_traits@D@std@@V?$allocator@D@2@@std@@QAEXD@Z 10025d50 f i tahook.obj
 0001:00024dd0       ?to_string@std@@YG?AV?$basic_string@DU?$char_traits@D@std@@V?$allocator@D@2@@1@H@Z 10025dd0 f i tahook.obj
 0001:00024e00       ??$?0$$V@?$_Compressed_pair@V?$allocator@PAD@std@@V?$_Vector_val@U?$_Simple_types@PAD@std@@@2@$00@std@@QAE@U_Zero_then_variadic_args_t@1@@Z 10025e00 f i UnicodeSupport.obj
 0001:00024e20       ??$_Construct_in_place@PADPAD@std@@YGXAAPAD$$QAPAD@Z 10025e20 f i UnicodeSupport.obj
 0001:00024e60       ??$_Copy_memmove@PAPADPAPAD@std@@YGPAPADPAPAD00@Z 10025e60 f i UnicodeSupport.obj
 0001:00024ed0       ??$_Destroy_range@V?$allocator@PAD@std@@@std@@YGXPAPADQAPADAAV?$allocator@PAD@0@@Z 10025ed0 f i UnicodeSupport.obj
 0001:00024ee0       ??$_Emplace_back@PAD@?$_Uninitialized_backout_al@V?$allocator@PAD@std@@@std@@QAEX$$QAPAD@Z 10025ee0 f i UnicodeSupport.obj
 0001:00024f20       ??$_Emplace_back_with_unused_capacity@PAD@?$vector@PADV?$allocator@PAD@std@@@std@@AAEAAPAD$$QAPAD@Z 10025f20 f i UnicodeSupport.obj
 0001:00024f80       ??$_Emplace_one_at_back@PAD@?$vector@PADV?$allocator@PAD@std@@@std@@AAEAAPAD$$QAPAD@Z 10025f80 f i UnicodeSupport.obj
 0001:00024fe0       ??$_Emplace_reallocate@PAD@?$vector@PADV?$allocator@PAD@std@@@std@@AAEPAPADQAPAD$$QAPAD@Z 10025fe0 f i UnicodeSupport.obj
 0001:000251b0       ??$_Get_unwrapped@ABQAPAD@std@@YG?A_TABQAPAD@Z 100261b0 f i UnicodeSupport.obj
 0001:000251c0       ??$_To_address@PAPAD@std@@YG?A_PABQAPAD@Z 100261c0 f i UnicodeSupport.obj
 0001:000251d0       ??$_Unfancy@PAD@std@@YGPAPADPAPAD@Z 100261d0 f i UnicodeSupport.obj
 0001:000251e0       ??$_Uninitialized_move@PAPADV?$allocator@PAD@std@@@std@@YGPAPADQAPAD0PAPADAAV?$allocator@PAD@0@@Z 100261e0 f i UnicodeSupport.obj
 0001:000252c0       ??$addressof@V?$_Vector_val@U?$_Simple_types@PAD@std@@@std@@@std@@YGPAV?$_Vector_val@U?$_Simple_types@PAD@std@@@0@AAV10@@Z 100262c0 f i UnicodeSupport.obj
 0001:000252d0       ??$construct@PADPAD@?$_Default_allocator_traits@V?$allocator@PAD@std@@@std@@SGXAAV?$allocator@PAD@1@QAPAD$$QAPAD@Z 100262d0 f i UnicodeSupport.obj
 0001:00025310       ??$destroy@PAD@?$_Default_allocator_traits@V?$allocator@PAD@std@@@std@@SGXAAV?$allocator@PAD@1@QAPAD@Z 10026310 f i UnicodeSupport.obj
 0001:00025320       ??$emplace_back@PAD@?$vector@PADV?$allocator@PAD@std@@@std@@QAE?A_T$$QAPAD@Z 10026320 f i UnicodeSupport.obj
 0001:00025350       ??$forward@PAD@std@@YG$$QAPADAAPAD@Z 10026350 f i UnicodeSupport.obj
 0001:00025360       ??$move@AAPAD@std@@YG$$QAPADAAPAD@Z 10026360 f i UnicodeSupport.obj
 0001:00025370       ??0?$_Uninitialized_backout_al@V?$allocator@PAD@std@@@std@@QAE@PAPADAAV?$allocator@PAD@1@@Z 10026370 f i UnicodeSupport.obj
 0001:000253a0       ??0?$_Vector_const_iterator@V?$_Vector_val@U?$_Simple_types@PAD@std@@@std@@@std@@QAE@PAPADPBU_Container_base0@1@@Z 100263a0 f i UnicodeSupport.obj
 0001:000253d0       ??0?$_Vector_iterator@V?$_Vector_val@U?$_Simple_types@PAD@std@@@std@@@std@@QAE@PAPADPBU_Container_base0@1@@Z 100263d0 f i UnicodeSupport.obj
 0001:000253f0       ??0?$_Vector_val@U?$_Simple_types@PAD@std@@@std@@QAE@XZ 100263f0 f i UnicodeSupport.obj
 0001:00025420       ??0?$allocator@PAD@std@@QAE@XZ 10026420 f i UnicodeSupport.obj
 0001:00025430       ??0?$vector@PADV?$allocator@PAD@std@@@std@@QAE@XZ 10026430 f i UnicodeSupport.obj
 0001:00025460       ??0UnicodeSupport@@QAE@H@Z 10026460 f   UnicodeSupport.obj
 0001:00025650       ??0UnicodeSupport@@QAE@PBDKKH@Z 10026650 f   UnicodeSupport.obj
 0001:00025c70       ??1?$_Uninitialized_backout_al@V?$allocator@PAD@std@@@std@@QAE@XZ 10026c70 f i UnicodeSupport.obj
 0001:00025ca0       ??1?$vector@PADV?$allocator@PAD@std@@@std@@QAE@XZ 10026ca0 f i UnicodeSupport.obj
 0001:00025cc0       ??1UnicodeSupport@@QAE@XZ  10026cc0 f   UnicodeSupport.obj
 0001:00025f10       ??8?$_Vector_const_iterator@V?$_Vector_val@U?$_Simple_types@PAD@std@@@std@@@std@@QBE_NABV01@@Z 10026f10 f i UnicodeSupport.obj
 0001:00025f50       ??9?$_Vector_const_iterator@V?$_Vector_val@U?$_Simple_types@PAD@std@@@std@@@std@@QBE_NABV01@@Z 10026f50 f i UnicodeSupport.obj
 0001:00025f90       ??D?$_Vector_const_iterator@V?$_Vector_val@U?$_Simple_types@PAD@std@@@std@@@std@@QBEABQADXZ 10026f90 f i UnicodeSupport.obj
 0001:00025fa0       ??D?$_Vector_iterator@V?$_Vector_val@U?$_Simple_types@PAD@std@@@std@@@std@@QBEAAPADXZ 10026fa0 f i UnicodeSupport.obj
 0001:00025fc0       ??E?$_Vector_const_iterator@V?$_Vector_val@U?$_Simple_types@PAD@std@@@std@@@std@@QAEAAV01@XZ 10026fc0 f i UnicodeSupport.obj
 0001:00025fe0       ??E?$_Vector_iterator@V?$_Vector_val@U?$_Simple_types@PAD@std@@@std@@@std@@QAEAAV01@XZ 10026fe0 f i UnicodeSupport.obj
 0001:00026000       ?Blt@UnicodeSupport@@QAE_NPAUIDirectDrawSurface@@@Z 10027000 f   UnicodeSupport.obj
 0001:000261f0       ?Blt_BottomState0_Text@@YGHPAUtagInlineX86StackBuffer@@@Z 100271f0 f   UnicodeSupport.obj
 0001:00026320       ?Blt_BottomState1_Text@@YGHPAUtagInlineX86StackBuffer@@@Z 10027320 f   UnicodeSupport.obj
 0001:00026440       ?CopyToContextScreenMem@@YGXPAU_OFFSCREEN@@PAUtagSpecScreenSurface@@@Z 10027440 f   UnicodeSupport.obj
 0001:000264c0       ?CopyToSpecSurfaceMem@@YGXPAUtagSpecScreenSurface@@PAU_OFFSCREEN@@@Z 100274c0 f   UnicodeSupport.obj
 0001:00026540       ?CreateSurfaceFromContextScreen@UnicodeSupport@@QAEPAUIDirectDrawSurface@@PAU_OFFSCREEN@@PAUIDirectDraw@@PAPAU2@@Z 10027540 f   UnicodeSupport.obj
 0001:00026600       ?DBSC2rdByte@@YGHPAUtagInlineX86StackBuffer@@@Z 10027600 f   UnicodeSupport.obj
 0001:000266a0       ?DrawALine_Ime@UnicodeSupport@@AAEXPAUHDC__@@PADPAH2@Z 100276a0 f   UnicodeSupport.obj
 0001:00026740       ?DrawSeparator@UnicodeSupport@@AAEHPAUHDC__@@HPAH1PAUHBRUSH__@@@Z 10027740 f   UnicodeSupport.obj
 0001:000267b0       ?FreeSpecScreenSurface@UnicodeSupport@@AAEXPAUtagSpecScreenSurface@@@Z 100277b0 f   UnicodeSupport.obj
 0001:00026890       ?GetSpecScreenSurface@UnicodeSupport@@AAEPAUtagSpecScreenSurface@@PAU_OFFSCREEN@@@Z 10027890 f   UnicodeSupport.obj
 0001:00026960       ?GetStrExtent@@YGHPAUtagInlineX86StackBuffer@@@Z 10027960 f   UnicodeSupport.obj
 0001:000269c0       ?GetTextExtent_AssignCharLen@@YGHPAUtagInlineX86StackBuffer@@@Z 100279c0 f   UnicodeSupport.obj
 0001:00026a20       ?IsIDDrawLost@UnicodeSupport@@AAEHXZ 10027a20 f   UnicodeSupport.obj
 0001:00026a50       ?Message@UnicodeSupport@@QAE_NPAUHWND__@@IIJ@Z 10027a50 f   UnicodeSupport.obj
 0001:00026f70       ?NewSpecScreenSurface@UnicodeSupport@@AAEPAUtagSpecScreenSurface@@PAU_OFFSCREEN@@@Z 10027f70 f   UnicodeSupport.obj
 0001:00027060       ?PopadState@@YGHPAUtagInlineX86StackBuffer@@@Z 10028060 f   UnicodeSupport.obj
 0001:00027100       ?ReleaseCandidateList@UnicodeSupport@@AAEXXZ 10028100 f   UnicodeSupport.obj
 0001:00027180       ?RestoreLocalSurf@UnicodeSupport@@AAEXH@Z 10028180 f   UnicodeSupport.obj
 0001:00027280       ?SendStr@UnicodeSupport@@AAEXPAD@Z 10028280 f   UnicodeSupport.obj
 0001:000272d0       ?Set@UnicodeSupport@@QAEXH@Z 100282d0 f   UnicodeSupport.obj
 0001:000272f0       ?SetHDCFont@UnicodeSupport@@AAEXPAUHDC__@@PAUHFONT__@@@Z 100282f0 f   UnicodeSupport.obj
 0001:00027330       ?USDrawTextInScreen_HookRouter@@YGHPAUtagInlineX86StackBuffer@@@Z 10028330 f   UnicodeSupport.obj
 0001:00027460       ?UnicodeDrawTextA@UnicodeSupport@@QAEHPAU_OFFSCREEN@@PADPAUIDirectDraw@@HH@Z 10028460 f   UnicodeSupport.obj
 0001:00027750       ?UpdateImeFrame@UnicodeSupport@@AAE_NXZ 10028750 f   UnicodeSupport.obj
 0001:00027b60       ?UpdateImeInput@UnicodeSupport@@AAE_NXZ 10028b60 f   UnicodeSupport.obj
 0001:00027d90       ?_Calculate_growth@?$vector@PADV?$allocator@PAD@std@@@std@@ABEII@Z 10028d90 f i UnicodeSupport.obj
 0001:00027df0       ?_Change_array@?$vector@PADV?$allocator@PAD@std@@@std@@AAEXQAPADII@Z 10028df0 f i UnicodeSupport.obj
 0001:00027e90       ?_Compat@?$_Vector_const_iterator@V?$_Vector_val@U?$_Simple_types@PAD@std@@@std@@@std@@QBEXABV12@@Z 10028e90 f i UnicodeSupport.obj
 0001:00027ea0       ?_Get_first@?$_Compressed_pair@V?$allocator@PAD@std@@V?$_Vector_val@U?$_Simple_types@PAD@std@@@2@$00@std@@QAEAAV?$allocator@PAD@2@XZ 10028ea0 f i UnicodeSupport.obj
 0001:00027eb0       ?_Get_first@?$_Compressed_pair@V?$allocator@PAD@std@@V?$_Vector_val@U?$_Simple_types@PAD@std@@@2@$00@std@@QBEABV?$allocator@PAD@2@XZ 10028eb0 f i UnicodeSupport.obj
 0001:00027ec0       ?_Getal@?$vector@PADV?$allocator@PAD@std@@@std@@AAEAAV?$allocator@PAD@2@XZ 10028ec0 f i UnicodeSupport.obj
 0001:00027ee0       ?_Getal@?$vector@PADV?$allocator@PAD@std@@@std@@ABEABV?$allocator@PAD@2@XZ 10028ee0 f i UnicodeSupport.obj
 0001:00027f00       ?_Orphan_range@?$vector@PADV?$allocator@PAD@std@@@std@@ABEXPAPAD0@Z 10028f00 f i UnicodeSupport.obj
 0001:00027f10       ?_Release@?$_Uninitialized_backout_al@V?$allocator@PAD@std@@@std@@QAEPAPADXZ 10028f10 f i UnicodeSupport.obj
 0001:00027f30       ?_Tidy@?$vector@PADV?$allocator@PAD@std@@@std@@AAEXXZ 10028f30 f i UnicodeSupport.obj
 0001:00028000       ?_Xlength@?$vector@PADV?$allocator@PAD@std@@@std@@CGXXZ 10029000 f i UnicodeSupport.obj
 0001:00028010       ?allocate@?$allocator@PAD@std@@QAEPAPADI@Z 10029010 f i UnicodeSupport.obj
 0001:00028030       ?back@?$vector@PADV?$allocator@PAD@std@@@std@@QAEAAPADXZ 10029030 f i UnicodeSupport.obj
 0001:00028060       ?begin@?$vector@PADV?$allocator@PAD@std@@@std@@QAE?AV?$_Vector_iterator@V?$_Vector_val@U?$_Simple_types@PAD@std@@@std@@@2@XZ 10029060 f i UnicodeSupport.obj
 0001:00028090       ?capacity@?$vector@PADV?$allocator@PAD@std@@@std@@QBEIXZ 10029090 f i UnicodeSupport.obj
 0001:000280c0       ?deallocate@?$allocator@PAD@std@@QAEXQAPADI@Z 100290c0 f i UnicodeSupport.obj
 0001:000280e0       ?empty@?$vector@PADV?$allocator@PAD@std@@@std@@QBE_NXZ 100290e0 f i UnicodeSupport.obj
 0001:00028120       ?end@?$vector@PADV?$allocator@PAD@std@@@std@@QAE?AV?$_Vector_iterator@V?$_Vector_val@U?$_Simple_types@PAD@std@@@std@@@2@XZ 10029120 f i UnicodeSupport.obj
 0001:00028160       ?freelpImeSurface@UnicodeSupport@@AAEXXZ 10029160 f   UnicodeSupport.obj
 0001:000281f0       ?max_size@?$_Default_allocator_traits@V?$allocator@PAD@std@@@std@@SGIABV?$allocator@PAD@2@@Z 100291f0 f i UnicodeSupport.obj
 0001:00028200       ?max_size@?$vector@PADV?$allocator@PAD@std@@@std@@QBEIXZ 10029200 f i UnicodeSupport.obj
 0001:00028240       ?myDeleteChar@@YGHPAUtagInlineX86StackBuffer@@@Z 10029240 f   UnicodeSupport.obj
 0001:00028320       ?myValidChar@@YGHPAUtagInlineX86StackBuffer@@@Z 10029320 f   UnicodeSupport.obj
 0001:00028480       ?pop_back@?$vector@PADV?$allocator@PAD@std@@@std@@QAEXXZ 10029480 f i UnicodeSupport.obj
 0001:00028510       ?push_back@?$vector@PADV?$allocator@PAD@std@@@std@@QAEX$$QAPAD@Z 10029510 f i UnicodeSupport.obj
 0001:00028640       ??0IncreaseAISearchMapEntriesLimit@@QAE@K@Z 10029640 f   LimitCrack.obj
 0001:000286f0       ??0IncreaseAISearchMapEntriesLimit@@QAE@XZ 100296f0 f   LimitCrack.obj
 0001:00028790       ??0IncreaseCompositeBuf@@QAE@KK@Z 10029790 f   LimitCrack.obj
 0001:000287b0       ??0IncreaseCompositeBuf@@QAE@XZ 100297b0 f   LimitCrack.obj
 0001:000287d0       ??0IncreaseSfxLimit@@QAE@K@Z 100297d0 f   LimitCrack.obj
 0001:00028800       ??0IncreaseSfxLimit@@QAE@XZ 10029800 f   LimitCrack.obj
 0001:00028820       ??0IncreaseUnitTypeLimit@@QAE@H@Z 10029820 f   LimitCrack.obj
 0001:00028840       ??0IncreaseUnitTypeLimit@@QAE@XZ 10029840 f   LimitCrack.obj
 0001:00028860       ??0IncreaseWeaponTypeLimit@@QAE@K@Z 10029860 f   LimitCrack.obj
 0001:00028880       ??0IncreaseWeaponTypeLimit@@QAE@XZ 10029880 f   LimitCrack.obj
 0001:000288a0       ??0LimitCrack@@QAE@XZ      100298a0 f   LimitCrack.obj
 0001:00028b90       ??0UnitLimit@@QAE@K@Z      10029b90 f   LimitCrack.obj
 0001:00028be0       ??0UnitLimit@@QAE@XZ       10029be0 f   LimitCrack.obj
 0001:00028c20       ??1IncreaseAISearchMapEntriesLimit@@QAE@XZ 10029c20 f   LimitCrack.obj
 0001:00028c60       ??1IncreaseCompositeBuf@@QAE@XZ 10029c60 f   LimitCrack.obj
 0001:00028ca0       ??1IncreaseSfxLimit@@QAE@XZ 10029ca0 f   LimitCrack.obj
 0001:00028d30       ??1IncreaseUnitTypeLimit@@QAE@XZ 10029d30 f   LimitCrack.obj
 0001:00028f40       ??1IncreaseWeaponTypeLimit@@QAE@XZ 10029f40 f   LimitCrack.obj
 0001:000290d0       ??1LimitCrack@@QAE@XZ      1002a0d0 f   LimitCrack.obj
 0001:000291e0       ??1UnitLimit@@QAE@XZ       1002a1e0 f   LimitCrack.obj
 0001:000292d0       ??_GExternHotKey@@QAEPAXI@Z 1002a2d0 f i LimitCrack.obj
 0001:00029310       ??_GIncreaseAISearchMapEntriesLimit@@QAEPAXI@Z 1002a310 f i LimitCrack.obj
 0001:00029340       ??_GIncreaseCompositeBuf@@QAEPAXI@Z 1002a340 f i LimitCrack.obj
 0001:00029370       ??_GIncreaseSfxLimit@@QAEPAXI@Z 1002a370 f i LimitCrack.obj
 0001:000293a0       ??_GIncreaseUnitTypeLimit@@QAEPAXI@Z 1002a3a0 f i LimitCrack.obj
 0001:000293d0       ??_GIncreaseWeaponTypeLimit@@QAEPAXI@Z 1002a3d0 f i LimitCrack.obj
 0001:00029410       ??_GModifyWeaponPacket@@QAEPAXI@Z 1002a410 f i LimitCrack.obj
 0001:00029440       ?NewLimit@IncreaseWeaponTypeLimit@@AAEXK@Z 1002a440 f   LimitCrack.obj
 0001:000295b0       ?NewUnitLimit@UnitLimit@@AAEXK@Z 1002a5b0 f   LimitCrack.obj
 0001:00029740       ?SetNewLimit@IncreaseSfxLimit@@AAEXKK@Z 1002a740 f   LimitCrack.obj
 0001:00029890       ?Sfx_mallocBufSizeRouter@@YGHPAUtagInlineX86StackBuffer@@@Z 1002a890 f   LimitCrack.obj
 0001:000298b0       ?WeaponType_IdLimit@IncreaseWeaponTypeLimit@@AAEXXZ 1002a8b0 f   LimitCrack.obj
 0001:000299e0       ?WriteNewLimit@IncreaseCompositeBuf@@AAEXKK@Z 1002a9e0 f   LimitCrack.obj
 0001:00029ae0       ?WriteNewLimit@IncreaseUnitTypeLimit@@AAEXK@Z 1002aae0 f   LimitCrack.obj
 0001:0002a270       ?WriteWeaponAryLen@IncreaseWeaponTypeLimit@@AAEKK@Z 1002b270 f   LimitCrack.obj
 0001:0002a340       ?WriteWeaponAryPtr@IncreaseWeaponTypeLimit@@AAEPAXPAPAX@Z 1002b340 f   LimitCrack.obj
 0001:0002a4b0       ??0UnitsMinimap@@QAE@PAVFullScreenMinimap@@HHHHHHHHHHHHHHHHPAH@Z 1002b4b0 f   UnitMinimap.obj
 0001:0002a520       ??0UnitsMinimap@@QAE@PAVFullScreenMinimap@@HHHHHHHHHHHHHHPAH@Z 1002b520 f   UnitMinimap.obj
 0001:0002a590       ??1UnitsMinimap@@QAE@XZ    1002b590 f   UnitMinimap.obj
 0001:0002a5e0       ??_GUnitIcon@@QAEPAXI@Z    1002b5e0 f i UnitMinimap.obj
 0001:0002a610       ?DrawUnit@UnitsMinimap@@AAEXPAEPAUtagPOINT@@PAUUnitStruct@@@Z 1002b610 f   UnitMinimap.obj
 0001:0002b100       ?FreeUnitPicture@UnitsMinimap@@QAEXXZ 1002c100 f   UnitMinimap.obj
 0001:0002b400       ?GetSurface@UnitsMinimap@@QAEPAEXZ 1002c400 f   UnitMinimap.obj
 0001:0002b410       ?GetTransparentColor@UnitsMinimap@@QAEHXZ 1002c410 f   UnitMinimap.obj
 0001:0002b430       ?Init@UnitsMinimap@@QAEXHHHHHHHHHHHHHHPAH@Z 1002c430 f   UnitMinimap.obj
 0001:0002b820       ?InitHoverPicturePlayerColors@UnitsMinimap@@AAEXHHHHPAPAPAE@Z 1002c820 f   UnitMinimap.obj
 0001:0002b9d0       ?InitPicturePlayerColors@UnitsMinimap@@AAEXHHPAPAPAE@Z 1002c9d0 f   UnitMinimap.obj
 0001:0002bb70       ?InitSurface@UnitsMinimap@@QAEPAEPAUIDirectDraw@@H@Z 1002cb70 f   UnitMinimap.obj
 0001:0002bc60       ?InitUnSelectedPicturePlayerColors@UnitsMinimap@@AAEXHHHHPAPAPAE@Z 1002cc60 f   UnitMinimap.obj
 0001:0002be10       ?LoadUnitPicture@UnitsMinimap@@QAEXXZ 1002ce10 f   UnitMinimap.obj
 0001:0002d2e0       ?LockOn@UnitsMinimap@@QAEPAEPAPAEPAUtagPOINT@@@Z 1002e2e0 f   UnitMinimap.obj
 0001:0002d320       ?NowDrawUnits@UnitsMinimap@@QAEXPAEPAUtagPOINT@@@Z 1002e320 f   UnitMinimap.obj
 0001:0002d480       ?NukePicture@UnitsMinimap@@QAEPAEHPAPAEPAUtagPOINT@@@Z 1002e480 f   UnitMinimap.obj
 0001:0002d570       ?ReSet@UnitsMinimap@@QAEXHH@Z 1002e570 f   UnitMinimap.obj
 0001:0002d5c0       ?ReleaseSurface@UnitsMinimap@@QAEXXZ 1002e5c0 f   UnitMinimap.obj
 0001:0002d5f0       ?UnitPicture@UnitsMinimap@@QAEPAEPAUUnitStruct@@HPAPAEPAUtagPOINT@@@Z 1002e5f0 f   UnitMinimap.obj
 0001:0002de30       ?Unlock@UnitsMinimap@@QAEXPAE@Z 1002ee30 f   UnitMinimap.obj
 0001:0002de40       ??0CUnitRotate@@QAE@XZ     1002ee40 f   unitrotate.obj
 0001:0002de60       ??1CUnitRotate@@QAE@XZ     1002ee60 f   unitrotate.obj
 0001:0002de70       ?Message@CUnitRotate@@QAE_NPAUHWND__@@IIJ@Z 1002ee70 f   unitrotate.obj
 0001:0002dec0       ?Rotate@CUnitRotate@@AAEXXZ 1002eec0 f   unitrotate.obj
 0001:0002e0d0       ?SetMem@CUnitRotate@@AAEXXZ 1002f0d0 f   unitrotate.obj
 0001:0002e130       ??$?0$$V@?$_Compressed_pair@V?$allocator@PAVGraphicElement@@@std@@V?$_Deque_val@U?$_Deque_simple_types@PAVGraphicElement@@@std@@@2@$00@std@@QAE@U_Zero_then_variadic_args_t@1@@Z 1002f130 f i whiteboard.obj
 0001:0002e150       ??$?0$$V@?$_Compressed_pair@V?$allocator@PAVGraphicElement@@@std@@V?$_Vector_val@U?$_Simple_types@PAVGraphicElement@@@std@@@2@$00@std@@QAE@U_Zero_then_variadic_args_t@1@@Z 1002f150 f i whiteboard.obj
 0001:0002e170       ??$?0$$V@?$_Compressed_pair@V?$allocator@UMMHS@AlliesWhiteboard@@@std@@V?$_Deque_val@U?$_Deque_simple_types@UMMHS@AlliesWhiteboard@@@std@@@2@$00@std@@QAE@U_Zero_then_variadic_args_t@1@@Z 1002f170 f i whiteboard.obj
 0001:0002e190       ??$?0PAVGraphicElement@@@?$allocator@PAPAVGraphicElement@@@std@@QAE@ABV?$allocator@PAVGraphicElement@@@1@@Z 1002f190 f i whiteboard.obj
 0001:0002e1a0       ??$?0PAVGraphicElement@@@?$allocator@U_Container_proxy@std@@@std@@QAE@ABV?$allocator@PAVGraphicElement@@@1@@Z 1002f1a0 f i whiteboard.obj
 0001:0002e1b0       ??$?0UMMHS@AlliesWhiteboard@@@?$allocator@PAUMMHS@AlliesWhiteboard@@@std@@QAE@ABV?$allocator@UMMHS@AlliesWhiteboard@@@1@@Z 1002f1b0 f i whiteboard.obj
 0001:0002e1c0       ??$?0UMMHS@AlliesWhiteboard@@@?$allocator@U_Container_proxy@std@@@std@@QAE@ABV?$allocator@UMMHS@AlliesWhiteboard@@@1@@Z 1002f1c0 f i whiteboard.obj
 0001:0002e1d0       ??$_Adl_verify_range@PAPAPAVGraphicElement@@PAPAPAV1@@std@@YGXABQAPAPAVGraphicElement@@0@Z 1002f1d0 f i whiteboard.obj
 0001:0002e1e0       ??$_Adl_verify_range@PAPAUMMHS@AlliesWhiteboard@@PAPAU12@@std@@YGXABQAPAUMMHS@AlliesWhiteboard@@0@Z 1002f1e0 f i whiteboard.obj
 0001:0002e1f0       ??$_Construct_in_place@PAPAVGraphicElement@@AAPAPAV1@@std@@YGXAAPAPAVGraphicElement@@0@Z 1002f1f0 f i whiteboard.obj
 0001:0002e230       ??$_Construct_in_place@PAUMMHS@AlliesWhiteboard@@AAPAU12@@std@@YGXAAPAUMMHS@AlliesWhiteboard@@0@Z 1002f230 f i whiteboard.obj
 0001:0002e270       ??$_Copy_memmove@PAPAPAVGraphicElement@@PAPAPAV1@@std@@YGPAPAPAVGraphicElement@@PAPAPAV1@00@Z 1002f270 f i whiteboard.obj
 0001:0002e2e0       ??$_Copy_memmove@PAPAUMMHS@AlliesWhiteboard@@PAPAU12@@std@@YGPAPAUMMHS@AlliesWhiteboard@@PAPAU12@00@Z 1002f2e0 f i whiteboard.obj
 0001:0002e350       ??$_Destroy_in_place@PAPAVGraphicElement@@@std@@YGXAAPAPAVGraphicElement@@@Z 1002f350 f i whiteboard.obj
 0001:0002e360       ??$_Destroy_in_place@PAUMMHS@AlliesWhiteboard@@@std@@YGXAAPAUMMHS@AlliesWhiteboard@@@Z 1002f360 f i whiteboard.obj
 0001:0002e370       ??$_Destroy_range@PAPAPAVGraphicElement@@PAPAPAV1@@std@@YGXPAPAPAVGraphicElement@@QAPAPAV1@@Z 1002f370 f i whiteboard.obj
 0001:0002e380       ??$_Destroy_range@PAPAUMMHS@AlliesWhiteboard@@PAPAU12@@std@@YGXPAPAUMMHS@AlliesWhiteboard@@QAPAU12@@Z 1002f380 f i whiteboard.obj
 0001:0002e390       ??$_Destroy_range@V?$allocator@PAVGraphicElement@@@std@@@std@@YGXPAPAVGraphicElement@@QAPAV1@AAV?$allocator@PAVGraphicElement@@@0@@Z 1002f390 f i whiteboard.obj
 0001:0002e3a0       ??$_Emplace_back@AAPAPAVGraphicElement@@@?$_Uninitialized_backout@PAPAPAVGraphicElement@@@std@@QAEXAAPAPAVGraphicElement@@@Z 1002f3a0 f i whiteboard.obj
 0001:0002e3e0       ??$_Emplace_back@AAPAUMMHS@AlliesWhiteboard@@@?$_Uninitialized_backout@PAPAUMMHS@AlliesWhiteboard@@@std@@QAEXAAPAUMMHS@AlliesWhiteboard@@@Z 1002f3e0 f i whiteboard.obj
 0001:0002e420       ??$_Emplace_back_internal@PAVGraphicElement@@@?$deque@PAVGraphicElement@@V?$allocator@PAVGraphicElement@@@std@@@std@@AAEX$$QAPAVGraphicElement@@@Z 1002f420 f i whiteboard.obj
 0001:0002e560       ??$_Get_unwrapped@ABQAPAPAVGraphicElement@@@std@@YG?A_TABQAPAPAVGraphicElement@@@Z 1002f560 f i whiteboard.obj
 0001:0002e570       ??$_Get_unwrapped@ABQAPAUMMHS@AlliesWhiteboard@@@std@@YG?A_TABQAPAUMMHS@AlliesWhiteboard@@@Z 1002f570 f i whiteboard.obj
 0001:0002e580       ??$_Get_unwrapped_n@AAPAPAPAVGraphicElement@@H@std@@YG?A_TAAPAPAPAVGraphicElement@@H@Z 1002f580 f i whiteboard.obj
 0001:0002e590       ??$_Get_unwrapped_n@AAPAPAUMMHS@AlliesWhiteboard@@H@std@@YG?A_TAAPAPAUMMHS@AlliesWhiteboard@@H@Z 1002f590 f i whiteboard.obj
 0001:0002e5a0       ??$_Idl_distance@PAPAPAVGraphicElement@@PAPAPAV1@@std@@YG?A_PABQAPAPAVGraphicElement@@0@Z 1002f5a0 f i whiteboard.obj
 0001:0002e5c0       ??$_Idl_distance@PAPAUMMHS@AlliesWhiteboard@@PAPAU12@@std@@YG?A_PABQAPAUMMHS@AlliesWhiteboard@@0@Z 1002f5c0 f i whiteboard.obj
 0001:0002e5e0       ??$_Pocma@V?$allocator@PAVGraphicElement@@@std@@@std@@YGXAAV?$allocator@PAVGraphicElement@@@0@0@Z 1002f5e0 f i whiteboard.obj
 0001:0002e5f0       ??$_Prev_iter@V?$_Deque_unchecked_iterator@V?$_Deque_val@U?$_Deque_simple_types@UMMHS@AlliesWhiteboard@@@std@@@std@@@std@@@std@@YG?AV?$_Deque_unchecked_iterator@V?$_Deque_val@U?$_Deque_simple_types@UMMHS@AlliesWhiteboard@@@std@@@std@@@0@V10@@Z 1002f5f0 f i whiteboard.obj
 0001:0002e610       ??$_Seek_wrapped@PAPAPAVGraphicElement@@PAPAPAV1@@std@@YGXAAPAPAPAVGraphicElement@@$$QAPAPAPAV1@@Z 1002f610 f i whiteboard.obj
 0001:0002e630       ??$_Seek_wrapped@PAPAUMMHS@AlliesWhiteboard@@PAPAU12@@std@@YGXAAPAPAUMMHS@AlliesWhiteboard@@$$QAPAPAU12@@Z 1002f630 f i whiteboard.obj
 0001:0002e650       ??$_To_address@PAPAPAVGraphicElement@@@std@@YG?A_PABQAPAPAVGraphicElement@@@Z 1002f650 f i whiteboard.obj
 0001:0002e660       ??$_To_address@PAPAUMMHS@AlliesWhiteboard@@@std@@YG?A_PABQAPAUMMHS@AlliesWhiteboard@@@Z 1002f660 f i whiteboard.obj
 0001:0002e670       ??$_Unfancy@PAVGraphicElement@@@std@@YGPAPAVGraphicElement@@PAPAV1@@Z 1002f670 f i whiteboard.obj
 0001:0002e680       ??$_Unfancy@UMMHS@AlliesWhiteboard@@@std@@YGPAUMMHS@AlliesWhiteboard@@PAU12@@Z 1002f680 f i whiteboard.obj
 0001:0002e690       ??$_Uninitialized_copy_unchecked@PAPAPAVGraphicElement@@PAPAPAV1@@std@@YGPAPAPAVGraphicElement@@PAPAPAV1@QAPAPAV1@0@Z 1002f690 f i whiteboard.obj
 0001:0002e730       ??$_Uninitialized_copy_unchecked@PAPAUMMHS@AlliesWhiteboard@@PAPAU12@@std@@YGPAPAUMMHS@AlliesWhiteboard@@PAPAU12@QAPAU12@0@Z 1002f730 f i whiteboard.obj
 0001:0002e7d0       ??$_Uninitialized_value_construct_n_unchecked1@PAPAPAVGraphicElement@@I@std@@YGPAPAPAVGraphicElement@@PAPAPAV1@I@Z 1002f7d0 f i whiteboard.obj
 0001:0002e7f0       ??$_Uninitialized_value_construct_n_unchecked1@PAPAUMMHS@AlliesWhiteboard@@I@std@@YGPAPAUMMHS@AlliesWhiteboard@@PAPAU12@I@Z 1002f7f0 f i whiteboard.obj
 0001:0002e810       ??$_Voidify_iter@PAPAPAVGraphicElement@@@std@@YGPAXPAPAPAVGraphicElement@@@Z 1002f810 f i whiteboard.obj
 0001:0002e820       ??$_Voidify_iter@PAPAUMMHS@AlliesWhiteboard@@@std@@YGPAXPAPAUMMHS@AlliesWhiteboard@@@Z 1002f820 f i whiteboard.obj
 0001:0002e830       ??$_Voidify_iter@PAPAVGraphicElement@@@std@@YGPAXPAPAVGraphicElement@@@Z 1002f830 f i whiteboard.obj
 0001:0002e840       ??$_Voidify_iter@PAUMMHS@AlliesWhiteboard@@@std@@YGPAXPAUMMHS@AlliesWhiteboard@@@Z 1002f840 f i whiteboard.obj
 0001:0002e850       ??$_Zero_range@PAPAPAVGraphicElement@@@std@@YGPAPAPAVGraphicElement@@QAPAPAV1@0@Z 1002f850 f i whiteboard.obj
 0001:0002e890       ??$_Zero_range@PAPAUMMHS@AlliesWhiteboard@@@std@@YGPAPAUMMHS@AlliesWhiteboard@@QAPAU12@0@Z 1002f890 f i whiteboard.obj
 0001:0002e8d0       ??$addressof@PAPAVGraphicElement@@@std@@YGPAPAPAVGraphicElement@@AAPAPAV1@@Z 1002f8d0 f i whiteboard.obj
 0001:0002e8e0       ??$addressof@PAUMMHS@AlliesWhiteboard@@@std@@YGPAPAUMMHS@AlliesWhiteboard@@AAPAU12@@Z 1002f8e0 f i whiteboard.obj
 0001:0002e8f0       ??$addressof@V?$_Deque_val@U?$_Deque_simple_types@PAVGraphicElement@@@std@@@std@@@std@@YGPAV?$_Deque_val@U?$_Deque_simple_types@PAVGraphicElement@@@std@@@0@AAV10@@Z 1002f8f0 f i whiteboard.obj
 0001:0002e900       ??$addressof@V?$_Deque_val@U?$_Deque_simple_types@UMMHS@AlliesWhiteboard@@@std@@@std@@@std@@YGPAV?$_Deque_val@U?$_Deque_simple_types@UMMHS@AlliesWhiteboard@@@std@@@0@AAV10@@Z 1002f900 f i whiteboard.obj
 0001:0002e910       ??$addressof@V?$vector@PAVGraphicElement@@V?$allocator@PAVGraphicElement@@@std@@@std@@@std@@YGPAV?$vector@PAVGraphicElement@@V?$allocator@PAVGraphicElement@@@std@@@0@AAV10@@Z 1002f910 f i whiteboard.obj
 0001:0002e920       ??$construct@PAVGraphicElement@@PAV1@@?$_Default_allocator_traits@V?$allocator@PAVGraphicElement@@@std@@@std@@SGXAAV?$allocator@PAVGraphicElement@@@1@QAPAVGraphicElement@@$$QAPAV3@@Z 1002f920 f i whiteboard.obj
 0001:0002e960       ??$construct@UMMHS@AlliesWhiteboard@@ABU12@@?$_Default_allocator_traits@V?$allocator@UMMHS@AlliesWhiteboard@@@std@@@std@@SGXAAV?$allocator@UMMHS@AlliesWhiteboard@@@1@QAUMMHS@AlliesWhiteboard@@ABU34@@Z 1002f960 f i whiteboard.obj
 0001:0002e9a0       ??$destroy@PAVGraphicElement@@@?$_Default_allocator_traits@V?$allocator@PAVGraphicElement@@@std@@@std@@SGXAAV?$allocator@PAVGraphicElement@@@1@QAPAVGraphicElement@@@Z 1002f9a0 f i whiteboard.obj
 0001:0002e9b0       ??$destroy@UMMHS@AlliesWhiteboard@@@?$_Default_allocator_traits@V?$allocator@UMMHS@AlliesWhiteboard@@@std@@@std@@SGXAAV?$allocator@UMMHS@AlliesWhiteboard@@@1@QAUMMHS@AlliesWhiteboard@@@Z 1002f9b0 f i whiteboard.obj
 0001:0002e9c0       ??$emplace_front@ABUMMHS@AlliesWhiteboard@@@?$deque@UMMHS@AlliesWhiteboard@@V?$allocator@UMMHS@AlliesWhiteboard@@@std@@@std@@QAE?A_TABUMMHS@AlliesWhiteboard@@@Z 1002f9c0 f i whiteboard.obj
 0001:0002eb20       ??$forward@AAPAPAVGraphicElement@@@std@@YGAAPAPAVGraphicElement@@AAPAPAV1@@Z 1002fb20 f i whiteboard.obj
 0001:0002eb30       ??$forward@AAPAUMMHS@AlliesWhiteboard@@@std@@YGAAPAUMMHS@AlliesWhiteboard@@AAPAU12@@Z 1002fb30 f i whiteboard.obj
 0001:0002eb40       ??$forward@ABUMMHS@AlliesWhiteboard@@@std@@YGABUMMHS@AlliesWhiteboard@@ABU12@@Z 1002fb40 f i whiteboard.obj
 0001:0002eb50       ??$forward@PAPAPAVGraphicElement@@@std@@YG$$QAPAPAPAVGraphicElement@@AAPAPAPAV1@@Z 1002fb50 f i whiteboard.obj
 0001:0002eb60       ??$forward@PAPAUMMHS@AlliesWhiteboard@@@std@@YG$$QAPAPAUMMHS@AlliesWhiteboard@@AAPAPAU12@@Z 1002fb60 f i whiteboard.obj
 0001:0002eb70       ??$forward@PAVGraphicElement@@@std@@YG$$QAPAVGraphicElement@@AAPAV1@@Z 1002fb70 f i whiteboard.obj
 0001:0002eb80       ??$move@AAPAVGraphicElement@@@std@@YG$$QAPAVGraphicElement@@AAPAV1@@Z 1002fb80 f i whiteboard.obj
 0001:0002eb90       ??$move@AAV?$allocator@PAVGraphicElement@@@std@@@std@@YG$$QAV?$allocator@PAVGraphicElement@@@0@AAV10@@Z 1002fb90 f i whiteboard.obj
 0001:0002eba0       ??$uninitialized_copy@PAPAPAVGraphicElement@@PAPAPAV1@@std@@YGPAPAPAVGraphicElement@@QAPAPAV1@0PAPAPAV1@@Z 1002fba0 f i whiteboard.obj
 0001:0002ec10       ??$uninitialized_copy@PAPAUMMHS@AlliesWhiteboard@@PAPAU12@@std@@YGPAPAUMMHS@AlliesWhiteboard@@QAPAU12@0PAPAU12@@Z 1002fc10 f i whiteboard.obj
 0001:0002ec80       ??0?$_Deque_unchecked_const_iterator@V?$_Deque_val@U?$_Deque_simple_types@PAVGraphicElement@@@std@@@std@@@std@@QAE@IPBU_Container_base12@1@@Z 1002fc80 f i whiteboard.obj
 0001:0002ecb0       ??0?$_Deque_unchecked_const_iterator@V?$_Deque_val@U?$_Deque_simple_types@UMMHS@AlliesWhiteboard@@@std@@@std@@@std@@QAE@IPBU_Container_base12@1@@Z 1002fcb0 f i whiteboard.obj
 0001:0002ece0       ??0?$_Deque_unchecked_iterator@V?$_Deque_val@U?$_Deque_simple_types@PAVGraphicElement@@@std@@@std@@@std@@QAE@IPBU_Container_base12@1@@Z 1002fce0 f i whiteboard.obj
 0001:0002ed00       ??0?$_Deque_unchecked_iterator@V?$_Deque_val@U?$_Deque_simple_types@UMMHS@AlliesWhiteboard@@@std@@@std@@@std@@QAE@IPBU_Container_base12@1@@Z 1002fd00 f i whiteboard.obj
 0001:0002ed20       ??0?$_Deque_val@U?$_Deque_simple_types@PAVGraphicElement@@@std@@@std@@QAE@XZ 1002fd20 f i whiteboard.obj
 0001:0002ed60       ??0?$_Deque_val@U?$_Deque_simple_types@UMMHS@AlliesWhiteboard@@@std@@@std@@QAE@XZ 1002fd60 f i whiteboard.obj
 0001:0002eda0       ??0?$_Uninitialized_backout@PAPAPAVGraphicElement@@@std@@QAE@PAPAPAVGraphicElement@@@Z 1002fda0 f i whiteboard.obj
 0001:0002edd0       ??0?$_Uninitialized_backout@PAPAUMMHS@AlliesWhiteboard@@@std@@QAE@PAPAUMMHS@AlliesWhiteboard@@@Z 1002fdd0 f i whiteboard.obj
 0001:0002ee00       ??0?$_Vector_val@U?$_Simple_types@PAVGraphicElement@@@std@@@std@@QAE@XZ 1002fe00 f i whiteboard.obj
 0001:0002ee30       ??0?$allocator@PAVGraphicElement@@@std@@QAE@XZ 1002fe30 f i whiteboard.obj
 0001:0002ee40       ??0?$allocator@UMMHS@AlliesWhiteboard@@@std@@QAE@XZ 1002fe40 f i whiteboard.obj
 0001:0002ee50       ??0?$deque@PAVGraphicElement@@V?$allocator@PAVGraphicElement@@@std@@@std@@QAE@XZ 1002fe50 f i whiteboard.obj
 0001:0002ee90       ??0?$deque@UMMHS@AlliesWhiteboard@@V?$allocator@UMMHS@AlliesWhiteboard@@@std@@@std@@QAE@XZ 1002fe90 f i whiteboard.obj
 0001:0002eed0       ??0?$vector@PAVGraphicElement@@V?$allocator@PAVGraphicElement@@@std@@@std@@QAE@XZ 1002fed0 f i whiteboard.obj
 0001:0002ef00       ??0AlliesWhiteboard@@QAE@H@Z 1002ff00 f   whiteboard.obj
 0001:0002f490       ??0DeleteGraphic@@QAE@HHD@Z 10030490 f i whiteboard.obj
 0001:0002f4c0       ??0GraphicElement@@QAE@HHHD@Z 100304c0 f i whiteboard.obj
 0001:0002f500       ??0GraphicLine@@QAE@HHHHD@Z 10030500 f i whiteboard.obj
 0001:0002f550       ??0GraphicMoveText@@QAE@HHHHD@Z 10030550 f i whiteboard.obj
 0001:0002f5a0       ??0GraphicText@@QAE@HHPADD@Z 100305a0 f i whiteboard.obj
 0001:0002f650       ??0GraphicTextEdited@@QAE@HHPADD@Z 10030650 f i whiteboard.obj
 0001:0002f700       ??1?$_Uninitialized_backout@PAPAPAVGraphicElement@@@std@@QAE@XZ 10030700 f i whiteboard.obj
 0001:0002f720       ??1?$_Uninitialized_backout@PAPAUMMHS@AlliesWhiteboard@@@std@@QAE@XZ 10030720 f i whiteboard.obj
 0001:0002f740       ??1?$deque@PAVGraphicElement@@V?$allocator@PAVGraphicElement@@@std@@@std@@QAE@XZ 10030740 f i whiteboard.obj
 0001:0002f790       ??1?$deque@UMMHS@AlliesWhiteboard@@V?$allocator@UMMHS@AlliesWhiteboard@@@std@@@std@@QAE@XZ 10030790 f i whiteboard.obj
 0001:0002f7e0       ??1?$vector@PAVGraphicElement@@V?$allocator@PAVGraphicElement@@@std@@@std@@QAE@XZ 100307e0 f i whiteboard.obj
 0001:0002f800       ??1AlliesWhiteboard@@QAE@XZ 10030800 f   whiteboard.obj
 0001:0002f8d0       ??1DeleteGraphic@@UAE@XZ   100308d0 f i whiteboard.obj
 0001:0002f8f0       ??1GraphicElement@@UAE@XZ  100308f0 f i whiteboard.obj
 0001:0002f910       ??1GraphicLine@@UAE@XZ     10030910 f i whiteboard.obj
 0001:0002f930       ??1GraphicMoveText@@UAE@XZ 10030930 f i whiteboard.obj
 0001:0002f950       ??1GraphicText@@UAE@XZ     10030950 f i whiteboard.obj
 0001:0002f990       ??1GraphicTextEdited@@UAE@XZ 10030990 f i whiteboard.obj
 0001:0002f9d0       ??4?$vector@PAVGraphicElement@@V?$allocator@PAVGraphicElement@@@std@@@std@@QAEAAV01@$$QAV01@@Z 100309d0 f i whiteboard.obj
 0001:0002fa40       ??A?$deque@UMMHS@AlliesWhiteboard@@V?$allocator@UMMHS@AlliesWhiteboard@@@std@@@std@@QAEAAUMMHS@AlliesWhiteboard@@I@Z 10030a40 f i whiteboard.obj
 0001:0002fa80       ??A?$vector@PAVGraphicElement@@V?$allocator@PAVGraphicElement@@@std@@@std@@QAEAAPAVGraphicElement@@I@Z 10030a80 f i whiteboard.obj
 0001:0002faa0       ??D?$_Deque_unchecked_const_iterator@V?$_Deque_val@U?$_Deque_simple_types@PAVGraphicElement@@@std@@@std@@@std@@QBEABQAVGraphicElement@@XZ 10030aa0 f i whiteboard.obj
 0001:0002faf0       ??D?$_Deque_unchecked_const_iterator@V?$_Deque_val@U?$_Deque_simple_types@UMMHS@AlliesWhiteboard@@@std@@@std@@@std@@QBEABUMMHS@AlliesWhiteboard@@XZ 10030af0 f i whiteboard.obj
 0001:0002fb40       ??D?$_Deque_unchecked_iterator@V?$_Deque_val@U?$_Deque_simple_types@PAVGraphicElement@@@std@@@std@@@std@@QBEAAPAVGraphicElement@@XZ 10030b40 f i whiteboard.obj
 0001:0002fb60       ??D?$_Deque_unchecked_iterator@V?$_Deque_val@U?$_Deque_simple_types@UMMHS@AlliesWhiteboard@@@std@@@std@@@std@@QBEAAUMMHS@AlliesWhiteboard@@XZ 10030b60 f i whiteboard.obj
 0001:0002fb80       ??F?$_Deque_unchecked_const_iterator@V?$_Deque_val@U?$_Deque_simple_types@UMMHS@AlliesWhiteboard@@@std@@@std@@@std@@QAEAAV01@XZ 10030b80 f i whiteboard.obj
 0001:0002fba0       ??F?$_Deque_unchecked_iterator@V?$_Deque_val@U?$_Deque_simple_types@UMMHS@AlliesWhiteboard@@@std@@@std@@@std@@QAEAAV01@XZ 10030ba0 f i whiteboard.obj
 0001:0002fbc0       ??H?$_Deque_unchecked_iterator@V?$_Deque_val@U?$_Deque_simple_types@UMMHS@AlliesWhiteboard@@@std@@@std@@@std@@QBE?AV01@H@Z 10030bc0 f i whiteboard.obj
 0001:0002fc00       ??Y?$_Deque_unchecked_const_iterator@V?$_Deque_val@U?$_Deque_simple_types@UMMHS@AlliesWhiteboard@@@std@@@std@@@std@@QAEAAV01@H@Z 10030c00 f i whiteboard.obj
 0001:0002fc20       ??Y?$_Deque_unchecked_iterator@V?$_Deque_val@U?$_Deque_simple_types@UMMHS@AlliesWhiteboard@@@std@@@std@@@std@@QAEAAV01@H@Z 10030c20 f i whiteboard.obj
 0001:0002fc40       ??_EDeleteGraphic@@UAEPAXI@Z 10030c40 f i whiteboard.obj
 0001:0002fc40       ??_GDeleteGraphic@@UAEPAXI@Z 10030c40 f i whiteboard.obj
 0001:0002fc70       ??_EGraphicElement@@UAEPAXI@Z 10030c70 f i whiteboard.obj
 0001:0002fc70       ??_GGraphicElement@@UAEPAXI@Z 10030c70 f i whiteboard.obj
 0001:0002fca0       ??_EGraphicLine@@UAEPAXI@Z 10030ca0 f i whiteboard.obj
 0001:0002fca0       ??_GGraphicLine@@UAEPAXI@Z 10030ca0 f i whiteboard.obj
 0001:0002fcd0       ??_EGraphicMoveText@@UAEPAXI@Z 10030cd0 f i whiteboard.obj
 0001:0002fcd0       ??_GGraphicMoveText@@UAEPAXI@Z 10030cd0 f i whiteboard.obj
 0001:0002fd00       ??_EGraphicText@@UAEPAXI@Z 10030d00 f i whiteboard.obj
 0001:0002fd00       ??_GGraphicText@@UAEPAXI@Z 10030d00 f i whiteboard.obj
 0001:0002fd30       ??_EGraphicTextEdited@@UAEPAXI@Z 10030d30 f i whiteboard.obj
 0001:0002fd30       ??_GGraphicTextEdited@@UAEPAXI@Z 10030d30 f i whiteboard.obj
 0001:0002fd60       ?AddTextMarker@AlliesWhiteboard@@AAEXHHPADD@Z 10030d60 f   whiteboard.obj
 0001:0002fe20       ?AddTextMarker@AlliesWhiteboard@@AAEXXZ 10030e20 f   whiteboard.obj
 0001:0002ff70       ?Blit@AlliesWhiteboard@@QAEXPAE@Z 10030f70 f   whiteboard.obj
 0001:0002ffe0       ?Clip_Line@AlliesWhiteboard@@QAEHAAH000@Z 10030fe0 f   whiteboard.obj
 0001:00030ae0       ?DeleteMarker@AlliesWhiteboard@@AAEXHH@Z 10031ae0 f   whiteboard.obj
 0001:00030b90       ?Draw@GraphicElement@@UAEXXZ 10031b90 f i whiteboard.obj
 0001:00030ba0       ?Draw@GraphicLine@@UAEXXZ  10031ba0 f i whiteboard.obj
 0001:00030bb0       ?Draw@GraphicText@@UAEXXZ  10031bb0 f i whiteboard.obj
 0001:00030bc0       ?DrawFreeLine@AlliesWhiteboard@@QAEXHHHHDPADH@Z 10031bc0 f   whiteboard.obj
 0001:00030c10       ?DrawLine@AlliesWhiteboard@@QAEXHHHHDPADH@Z 10031c10 f   whiteboard.obj
 0001:00030cc0       ?DrawMarkers@AlliesWhiteboard@@AAEXPAE@Z 10031cc0 f   whiteboard.obj
 0001:00030e20       ?DrawMinimapMarkers@AlliesWhiteboard@@QAEXPADH_N@Z 10031e20 f   whiteboard.obj
 0001:000310a0       ?DrawRotateRect@AlliesWhiteboard@@AAEXHHHPADH@Z 100320a0 f   whiteboard.obj
 0001:00031380       ?DrawTextInput@AlliesWhiteboard@@AAEXPAE@Z 10032380 f   whiteboard.obj
 0001:00031640       ?DrawTextMarker@AlliesWhiteboard@@AAEXPAEHHPADD@Z 10032640 f   whiteboard.obj
 0001:000319d0       ?Draw_Line@AlliesWhiteboard@@QAEHHHHHEPAEH@Z 100329d0 f   whiteboard.obj
 0001:00031b10       ?EchoMarker@AlliesWhiteboard@@AAEXPAD@Z 10032b10 f   whiteboard.obj
 0001:00031b70       ?EreaseArea@AlliesWhiteboard@@AAEXHH@Z 10032b70 f   whiteboard.obj
 0001:00031c60       ?GenerateLookupTables@AlliesWhiteboard@@AAEXXZ 10032c60 f   whiteboard.obj
 0001:00031cf0       ?GetMapX@AlliesWhiteboard@@QAEHXZ 10032cf0 f   whiteboard.obj
 0001:00031d10       ?GetMapY@AlliesWhiteboard@@QAEHXZ 10032d10 f   whiteboard.obj
 0001:00031d30       ?GetMarkers@AlliesWhiteboard@@QAEXPAUMarkerArray@@@Z 10032d30 f   whiteboard.obj
 0001:00031e20       ?GetTextElementAt@AlliesWhiteboard@@AAEPAVGraphicElement@@HHH@Z 10032e20 f   whiteboard.obj
 0001:00031f20       ?InstantScrollTo@AlliesWhiteboard@@QAEXHH@Z 10032f20 f   whiteboard.obj
 0001:00031f70       ?Line@AlliesWhiteboard@@QAEXHHHHEPADH@Z 10032f70 f   whiteboard.obj
 0001:00032020       ?LockBlit@AlliesWhiteboard@@QAEXPADH@Z 10033020 f   whiteboard.obj
 0001:00032220       ?Message@AlliesWhiteboard@@QAE_NPAUHWND__@@IIJ@Z 10033220 f   whiteboard.obj
 0001:00032b30       ?MouseMove@AlliesWhiteboard@@AAEXHHHH@Z 10033b30 f   whiteboard.obj
 0001:00032c90       ?ReceiveMarkers@AlliesWhiteboard@@AAEXXZ 10033c90 f   whiteboard.obj
 0001:00033080       ?RestoreAll@AlliesWhiteboard@@AAEXXZ 10034080 f   whiteboard.obj
 0001:00033130       ?ScrollToCenter@AlliesWhiteboard@@QAEXHH@Z 10034130 f   whiteboard.obj
 0001:000331d0       ?SendMarkers@AlliesWhiteboard@@AAEXXZ 100341d0 f   whiteboard.obj
 0001:000336f0       ?Set@AlliesWhiteboard@@QAEXH@Z 100346f0 f   whiteboard.obj
 0001:00033710       ?TextInputChar@AlliesWhiteboard@@AAEXD@Z 10034710 f   whiteboard.obj
 0001:00033790       ?TextInputKeyDown@AlliesWhiteboard@@AAEXH@Z 10034790 f   whiteboard.obj
 0001:00033960       ?_Get_data@?$deque@PAVGraphicElement@@V?$allocator@PAVGraphicElement@@@std@@@std@@AAEAAV?$_Deque_val@U?$_Deque_simple_types@PAVGraphicElement@@@std@@@2@XZ 10034960 f i whiteboard.obj
 0001:00033970       ?_Get_data@?$deque@PAVGraphicElement@@V?$allocator@PAVGraphicElement@@@std@@@std@@ABEABV?$_Deque_val@U?$_Deque_simple_types@PAVGraphicElement@@@std@@@2@XZ 10034970 f i whiteboard.obj
 0001:00033980       ?_Get_data@?$deque@UMMHS@AlliesWhiteboard@@V?$allocator@UMMHS@AlliesWhiteboard@@@std@@@std@@AAEAAV?$_Deque_val@U?$_Deque_simple_types@UMMHS@AlliesWhiteboard@@@std@@@2@XZ 10034980 f i whiteboard.obj
 0001:00033990       ?_Get_data@?$deque@UMMHS@AlliesWhiteboard@@V?$allocator@UMMHS@AlliesWhiteboard@@@std@@@std@@ABEABV?$_Deque_val@U?$_Deque_simple_types@UMMHS@AlliesWhiteboard@@@std@@@2@XZ 10034990 f i whiteboard.obj
 0001:000339a0       ?_Get_first@?$_Compressed_pair@V?$allocator@PAVGraphicElement@@@std@@V?$_Deque_val@U?$_Deque_simple_types@PAVGraphicElement@@@std@@@2@$00@std@@QAEAAV?$allocator@PAVGraphicElement@@@2@XZ 100349a0 f i whiteboard.obj
 0001:000339b0       ?_Get_first@?$_Compressed_pair@V?$allocator@PAVGraphicElement@@@std@@V?$_Deque_val@U?$_Deque_simple_types@PAVGraphicElement@@@std@@@2@$00@std@@QBEABV?$allocator@PAVGraphicElement@@@2@XZ 100349b0 f i whiteboard.obj
 0001:000339c0       ?_Get_first@?$_Compressed_pair@V?$allocator@PAVGraphicElement@@@std@@V?$_Vector_val@U?$_Simple_types@PAVGraphicElement@@@std@@@2@$00@std@@QAEAAV?$allocator@PAVGraphicElement@@@2@XZ 100349c0 f i whiteboard.obj
 0001:000339d0       ?_Get_first@?$_Compressed_pair@V?$allocator@UMMHS@AlliesWhiteboard@@@std@@V?$_Deque_val@U?$_Deque_simple_types@UMMHS@AlliesWhiteboard@@@std@@@2@$00@std@@QAEAAV?$allocator@UMMHS@AlliesWhiteboard@@@2@XZ 100349d0 f i whiteboard.obj
 0001:000339e0       ?_Get_first@?$_Compressed_pair@V?$allocator@UMMHS@AlliesWhiteboard@@@std@@V?$_Deque_val@U?$_Deque_simple_types@UMMHS@AlliesWhiteboard@@@std@@@2@$00@std@@QBEABV?$allocator@UMMHS@AlliesWhiteboard@@@2@XZ 100349e0 f i whiteboard.obj
 0001:000339f0       ?_Getal@?$deque@PAVGraphicElement@@V?$allocator@PAVGraphicElement@@@std@@@std@@AAEAAV?$allocator@PAVGraphicElement@@@2@XZ 100349f0 f i whiteboard.obj
 0001:00033a10       ?_Getal@?$deque@PAVGraphicElement@@V?$allocator@PAVGraphicElement@@@std@@@std@@ABEABV?$allocator@PAVGraphicElement@@@2@XZ 10034a10 f i whiteboard.obj
 0001:00033a30       ?_Getal@?$deque@UMMHS@AlliesWhiteboard@@V?$allocator@UMMHS@AlliesWhiteboard@@@std@@@std@@AAEAAV?$allocator@UMMHS@AlliesWhiteboard@@@2@XZ 10034a30 f i whiteboard.obj
 0001:00033a50       ?_Getal@?$deque@UMMHS@AlliesWhiteboard@@V?$allocator@UMMHS@AlliesWhiteboard@@@std@@@std@@ABEABV?$allocator@UMMHS@AlliesWhiteboard@@@2@XZ 10034a50 f i whiteboard.obj
 0001:00033a70       ?_Getal@?$vector@PAVGraphicElement@@V?$allocator@PAVGraphicElement@@@std@@@std@@AAEAAV?$allocator@PAVGraphicElement@@@2@XZ 10034a70 f i whiteboard.obj
 0001:00033a90       ?_Getblock@?$_Deque_val@U?$_Deque_simple_types@PAVGraphicElement@@@std@@@std@@QBEII@Z 10034a90 f i whiteboard.obj
 0001:00033ab0       ?_Getblock@?$_Deque_val@U?$_Deque_simple_types@UMMHS@AlliesWhiteboard@@@std@@@std@@QBEII@Z 10034ab0 f i whiteboard.obj
 0001:00033ad0       ?_Getblock@?$deque@PAVGraphicElement@@V?$allocator@PAVGraphicElement@@@std@@@std@@ABEII@Z 10034ad0 f i whiteboard.obj
 0001:00033af0       ?_Getblock@?$deque@UMMHS@AlliesWhiteboard@@V?$allocator@UMMHS@AlliesWhiteboard@@@std@@@std@@ABEII@Z 10034af0 f i whiteboard.obj
 0001:00033b10       ?_Growmap@?$deque@PAVGraphicElement@@V?$allocator@PAVGraphicElement@@@std@@@std@@AAEXI@Z 10034b10 f i whiteboard.obj
 0001:00033d50       ?_Growmap@?$deque@UMMHS@AlliesWhiteboard@@V?$allocator@UMMHS@AlliesWhiteboard@@@std@@@std@@AAEXI@Z 10034d50 f i whiteboard.obj
 0001:00033f80       ?_Map@?$deque@PAVGraphicElement@@V?$allocator@PAVGraphicElement@@@std@@@std@@AAEAAPAPAPAVGraphicElement@@XZ 10034f80 f i whiteboard.obj
 0001:00033fa0       ?_Map@?$deque@UMMHS@AlliesWhiteboard@@V?$allocator@UMMHS@AlliesWhiteboard@@@std@@@std@@AAEAAPAPAUMMHS@AlliesWhiteboard@@XZ 10034fa0 f i whiteboard.obj
 0001:00033fc0       ?_Mapsize@?$deque@PAVGraphicElement@@V?$allocator@PAVGraphicElement@@@std@@@std@@AAEAAIXZ 10034fc0 f i whiteboard.obj
 0001:00033fe0       ?_Mapsize@?$deque@UMMHS@AlliesWhiteboard@@V?$allocator@UMMHS@AlliesWhiteboard@@@std@@@std@@AAEAAIXZ 10034fe0 f i whiteboard.obj
 0001:00034000       ?_Myoff@?$deque@PAVGraphicElement@@V?$allocator@PAVGraphicElement@@@std@@@std@@AAEAAIXZ 10035000 f i whiteboard.obj
 0001:00034020       ?_Myoff@?$deque@UMMHS@AlliesWhiteboard@@V?$allocator@UMMHS@AlliesWhiteboard@@@std@@@std@@AAEAAIXZ 10035020 f i whiteboard.obj
 0001:00034040       ?_Mysize@?$deque@PAVGraphicElement@@V?$allocator@PAVGraphicElement@@@std@@@std@@AAEAAIXZ 10035040 f i whiteboard.obj
 0001:00034060       ?_Mysize@?$deque@PAVGraphicElement@@V?$allocator@PAVGraphicElement@@@std@@@std@@ABEABIXZ 10035060 f i whiteboard.obj
 0001:00034080       ?_Mysize@?$deque@UMMHS@AlliesWhiteboard@@V?$allocator@UMMHS@AlliesWhiteboard@@@std@@@std@@AAEAAIXZ 10035080 f i whiteboard.obj
 0001:000340a0       ?_Mysize@?$deque@UMMHS@AlliesWhiteboard@@V?$allocator@UMMHS@AlliesWhiteboard@@@std@@@std@@ABEABIXZ 100350a0 f i whiteboard.obj
 0001:000340c0       ?_Orphan_all@?$deque@PAVGraphicElement@@V?$allocator@PAVGraphicElement@@@std@@@std@@AAEXXZ 100350c0 f i whiteboard.obj
 0001:000340e0       ?_Orphan_all@?$deque@UMMHS@AlliesWhiteboard@@V?$allocator@UMMHS@AlliesWhiteboard@@@std@@@std@@AAEXXZ 100350e0 f i whiteboard.obj
 0001:00034100       ?_Release@?$_Uninitialized_backout@PAPAPAVGraphicElement@@@std@@QAEPAPAPAVGraphicElement@@XZ 10035100 f i whiteboard.obj
 0001:00034120       ?_Release@?$_Uninitialized_backout@PAPAUMMHS@AlliesWhiteboard@@@std@@QAEPAPAUMMHS@AlliesWhiteboard@@XZ 10035120 f i whiteboard.obj
 0001:00034140       ?_Take_contents@?$_Vector_val@U?$_Simple_types@PAVGraphicElement@@@std@@@std@@QAEXAAV12@@Z 10035140 f i whiteboard.obj
 0001:000341a0       ?_Tidy@?$deque@PAVGraphicElement@@V?$allocator@PAVGraphicElement@@@std@@@std@@AAEXXZ 100351a0 f i whiteboard.obj
 0001:000342c0       ?_Tidy@?$deque@UMMHS@AlliesWhiteboard@@V?$allocator@UMMHS@AlliesWhiteboard@@@std@@@std@@AAEXXZ 100352c0 f i whiteboard.obj
 0001:000343e0       ?_Tidy@?$vector@PAVGraphicElement@@V?$allocator@PAVGraphicElement@@@std@@@std@@AAEXXZ 100353e0 f i whiteboard.obj
 0001:000344b0       ?_Unchecked_begin@?$deque@PAVGraphicElement@@V?$allocator@PAVGraphicElement@@@std@@@std@@QAE?AV?$_Deque_unchecked_iterator@V?$_Deque_val@U?$_Deque_simple_types@PAVGraphicElement@@@std@@@std@@@2@XZ 100354b0 f i whiteboard.obj
 0001:000344f0       ?_Unchecked_begin@?$deque@UMMHS@AlliesWhiteboard@@V?$allocator@UMMHS@AlliesWhiteboard@@@std@@@std@@QAE?AV?$_Deque_unchecked_iterator@V?$_Deque_val@U?$_Deque_simple_types@UMMHS@AlliesWhiteboard@@@std@@@std@@@2@XZ 100354f0 f i whiteboard.obj
 0001:00034530       ?_Unchecked_end@?$deque@UMMHS@AlliesWhiteboard@@V?$allocator@UMMHS@AlliesWhiteboard@@@std@@@std@@QAE?AV?$_Deque_unchecked_iterator@V?$_Deque_val@U?$_Deque_simple_types@UMMHS@AlliesWhiteboard@@@std@@@std@@@2@XZ 10035530 f i whiteboard.obj
 0001:00034570       ?_Xlen@?$deque@PAVGraphicElement@@V?$allocator@PAVGraphicElement@@@std@@@std@@ABEXXZ 10035570 f i whiteboard.obj
 0001:00034590       ?_Xlen@?$deque@UMMHS@AlliesWhiteboard@@V?$allocator@UMMHS@AlliesWhiteboard@@@std@@@std@@ABEXXZ 10035590 f i whiteboard.obj
 0001:000345b0       ?allocate@?$allocator@PAPAVGraphicElement@@@std@@QAEPAPAPAVGraphicElement@@I@Z 100355b0 f i whiteboard.obj
 0001:000345d0       ?allocate@?$allocator@PAUMMHS@AlliesWhiteboard@@@std@@QAEPAPAUMMHS@AlliesWhiteboard@@I@Z 100355d0 f i whiteboard.obj
 0001:000345f0       ?allocate@?$allocator@PAVGraphicElement@@@std@@QAEPAPAVGraphicElement@@I@Z 100355f0 f i whiteboard.obj
 0001:00034610       ?allocate@?$allocator@UMMHS@AlliesWhiteboard@@@std@@QAEPAUMMHS@AlliesWhiteboard@@I@Z 10035610 f i whiteboard.obj
 0001:00034630       ?back@?$deque@UMMHS@AlliesWhiteboard@@V?$allocator@UMMHS@AlliesWhiteboard@@@std@@@std@@QAEAAUMMHS@AlliesWhiteboard@@XZ 10035630 f i whiteboard.obj
 0001:00034690       ?clear@?$deque@UMMHS@AlliesWhiteboard@@V?$allocator@UMMHS@AlliesWhiteboard@@@std@@@std@@QAEXXZ 10035690 f i whiteboard.obj
 0001:000346b0       ?deallocate@?$allocator@PAPAVGraphicElement@@@std@@QAEXQAPAPAVGraphicElement@@I@Z 100356b0 f i whiteboard.obj
 0001:000346d0       ?deallocate@?$allocator@PAUMMHS@AlliesWhiteboard@@@std@@QAEXQAPAUMMHS@AlliesWhiteboard@@I@Z 100356d0 f i whiteboard.obj
 0001:000346f0       ?deallocate@?$allocator@PAVGraphicElement@@@std@@QAEXQAPAVGraphicElement@@I@Z 100356f0 f i whiteboard.obj
 0001:00034710       ?deallocate@?$allocator@UMMHS@AlliesWhiteboard@@@std@@QAEXQAUMMHS@AlliesWhiteboard@@I@Z 10035710 f i whiteboard.obj
 0001:00034730       ?empty@?$deque@PAVGraphicElement@@V?$allocator@PAVGraphicElement@@@std@@@std@@QBE_NXZ 10035730 f i whiteboard.obj
 0001:00034760       ?empty@?$deque@UMMHS@AlliesWhiteboard@@V?$allocator@UMMHS@AlliesWhiteboard@@@std@@@std@@QBE_NXZ 10035760 f i whiteboard.obj
 0001:00034790       ?front@?$deque@PAVGraphicElement@@V?$allocator@PAVGraphicElement@@@std@@@std@@QAEAAPAVGraphicElement@@XZ 10035790 f i whiteboard.obj
 0001:000347b0       ?max_size@?$_Default_allocator_traits@V?$allocator@PAVGraphicElement@@@std@@@std@@SGIABV?$allocator@PAVGraphicElement@@@2@@Z 100357b0 f i whiteboard.obj
 0001:000347c0       ?max_size@?$_Default_allocator_traits@V?$allocator@UMMHS@AlliesWhiteboard@@@std@@@std@@SGIABV?$allocator@UMMHS@AlliesWhiteboard@@@2@@Z 100357c0 f i whiteboard.obj
 0001:000347d0       ?max_size@?$deque@PAVGraphicElement@@V?$allocator@PAVGraphicElement@@@std@@@std@@QBEIXZ 100357d0 f i whiteboard.obj
 0001:00034810       ?max_size@?$deque@UMMHS@AlliesWhiteboard@@V?$allocator@UMMHS@AlliesWhiteboard@@@std@@@std@@QBEIXZ 10035810 f i whiteboard.obj
 0001:00034850       ?pop_back@?$deque@PAVGraphicElement@@V?$allocator@PAVGraphicElement@@@std@@@std@@QAEXXZ 10035850 f i whiteboard.obj
 0001:00034920       ?pop_back@?$deque@UMMHS@AlliesWhiteboard@@V?$allocator@UMMHS@AlliesWhiteboard@@@std@@@std@@QAEXXZ 10035920 f i whiteboard.obj
 0001:000349f0       ?pop_front@?$deque@PAVGraphicElement@@V?$allocator@PAVGraphicElement@@@std@@@std@@QAEXXZ 100359f0 f i whiteboard.obj
 0001:00034ad0       ?push_back@?$deque@PAVGraphicElement@@V?$allocator@PAVGraphicElement@@@std@@@std@@QAEX$$QAPAVGraphicElement@@@Z 10035ad0 f i whiteboard.obj
 0001:00034b00       ?push_front@?$deque@UMMHS@AlliesWhiteboard@@V?$allocator@UMMHS@AlliesWhiteboard@@@std@@@std@@QAEXABUMMHS@AlliesWhiteboard@@@Z 10035b00 f i whiteboard.obj
 0001:00034b20       ?size@?$deque@PAVGraphicElement@@V?$allocator@PAVGraphicElement@@@std@@@std@@QBEIXZ 10035b20 f i whiteboard.obj
 0001:00034b40       ?size@?$deque@UMMHS@AlliesWhiteboard@@V?$allocator@UMMHS@AlliesWhiteboard@@@std@@@std@@QBEIXZ 10035b40 f i whiteboard.obj
 0001:00034b60       ?size@?$vector@PAVGraphicElement@@V?$allocator@PAVGraphicElement@@@std@@@std@@QBEIXZ 10035b60 f i whiteboard.obj
 0001:00034b90       ??0PCX@@QAE@XZ             10035b90 f   PCX.obj
 0001:00034bd0       ??1PCX@@QAE@XZ             10035bd0 f   PCX.obj
 0001:00034c40       ?CopyPalette@PCX@@QAEXPAUtagPALETTEENTRY@@@Z 10035c40 f   PCX.obj
 0001:00034ca0       ?Erase@PCX@@QAEXXZ         10035ca0 f   PCX.obj
 0001:00034ce0       ?Height@PCX@@QAEJXZ        10035ce0 f   PCX.obj
 0001:00034d00       ?Load24@PCX@@QAEHPBD@Z     10035d00 f   PCX.obj
 0001:00034ef0       ?Load@PCX@@QAEHPBDH@Z      10035ef0 f   PCX.obj
 0001:00035250       ?NewBuffer@PCX@@QAEPAEFF@Z 10036250 f   PCX.obj
 0001:000352b0       ?ReadLine24@PCX@@AAEPAEPAEKF@Z 100362b0 f   PCX.obj
 0001:000353a0       ?Save@PCX@@QAEHPBD@Z       100363a0 f   PCX.obj
 0001:000356c0       ?SetBuffer@PCX@@QAEPAEPAE@Z 100366c0 f   PCX.obj
 0001:000356f0       ?SetPalette@PCX@@QAEXPAUtagPALETTEENTRY@@@Z 100366f0 f   PCX.obj
 0001:00035730       ?Width@PCX@@QAEJXZ         10036730 f   PCX.obj
 0001:00035740       ?WriteLine@PCX@@AAEPAEPAEK@Z 10036740 f   PCX.obj
 0001:000358c0       ?CreateSurfPCXResource@@YGPAUIDirectDrawSurface@@GH@Z 100368c0 f   pcxread.obj
 0001:00035ac0       ?PCX2BitMap@@YGXPAEPAUpcx_picture_typ@@J@Z 10036ac0 f   pcxread.obj
 0001:00035cb0       ?RestoreFromPCX@@YGXGPAUIDirectDrawSurface@@@Z 10036cb0 f   pcxread.obj
 0001:00035e40       ?RestoreFromPCXFile@@YGXPADPAUIDirectDrawSurface@@@Z 10036e40 f   pcxread.obj
 0001:00036020       ?strrchr@@YAPADQADH@Z      10037020 f i etc.obj
 0001:00036040       _CalcCRC@8                 10037040 f   etc.obj
 0001:000360e0       _GetMinValidLenWithMatchOpcode@8 100370e0 f   etc.obj
 0001:00036120       _GetOpCodeSize@4           10037120 f   etc.obj
 0001:000363c0       _MemWriteWithBackup@16     100373c0 f   etc.obj
 0001:000364b0       _RegReadData@24            100374b0 f   etc.obj
 0001:00036540       _RegReadDword@16           10037540 f   etc.obj
 0001:00036560       _RegReadStr@20             10037560 f   etc.obj
 0001:00036590       _RegWriteData@24           10037590 f   etc.obj
 0001:00036620       _RegWriteDword@16          10037620 f   etc.obj
 0001:00036640       _RegWriteStr@20            10037640 f   etc.obj
 0001:00036670       _X86RedirectOpcodeToNewBase@16 10037670 f   etc.obj
 0001:00036a50       _X86ShallToRedirect@20     10037a50 f   etc.obj
 0001:00036d30       _clean_remark@8            10037d30 f   etc.obj
 0001:00036d80       _duplicate_str@4           10037d80 f   etc.obj
 0001:00036de0       _getDBCSlen@4              10037de0 f   etc.obj
 0001:00036e50       _memfind@24                10037e50 f   etc.obj
 0001:00036fc0       _trim_crlf_@4              10037fc0 f   etc.obj
 0001:000370c0       _vkToStr@12                100380c0 f   etc.obj
 0001:00038160       ??0SingleHook@@QAE@IKHPAE@Z 10039160 f   Hook.obj
 0001:000381a0       ??0SingleHook@@QAE@PAEKH0@Z 100391a0 f   Hook.obj
 0001:000381e0       ??0SingleHook@@QAE@XZ      100391e0 f   Hook.obj
 0001:00038210       ??1SingleHook@@QAE@XZ      10039210 f   Hook.obj
 0001:000382b0       ?AddrToHook@SingleHook@@UAEPAXPAX@Z 100392b0 f   Hook.obj
 0001:000382d0       ?AddrToHook@SingleHook@@UAEQAXXZ 100392d0 f   Hook.obj
 0001:000382f0       ?AddrToRtn@SingleHook@@QAEPAXXZ 100392f0 f   Hook.obj
 0001:00038310       ?Hook@SingleHook@@UAEXXZ   10039310 f   Hook.obj
 0001:00038350       ?InitHookClass@SingleHook@@UAEXPAEKH0@Z 10039350 f   Hook.obj
 0001:000384d0       ?LenToHook@SingleHook@@UAEKK@Z 100394d0 f   Hook.obj
 0001:000384f0       ?ThisHookMode@SingleHook@@UAE?BHXZ 100394f0 f   Hook.obj
 0001:00038510       ?ThisHookMode@SingleHook@@UAEHH@Z 10039510 f   Hook.obj
 0001:00038530       ?UnHook@SingleHook@@UAEXXZ 10039530 f   Hook.obj
 0001:00038570       ?X86CurrentThreadStackBufferFixRtnAddr@@YGPAUtagInlineX86StackBuffer@@PAPAU1@@Z 10039570 f   InlineHook.obj
 0001:00038620       ?X86CurrentThreadStackBuffer@@YGPAUtagInlineX86StackBuffer@@PAPAU1@@Z 10039620 f   InlineHook.obj
 0001:000386b0       ??0InlineSingleHook@@QAE@IKHP6GHPAUtagInlineX86StackBuffer@@@Z@Z 100396b0 f   InlineHook.obj
 0001:00038740       ??0InlineSingleHook@@QAE@IKHPAX@Z 10039740 f   InlineHook.obj
 0001:000387d0       ??0InlineSingleHook@@QAE@XZ 100397d0 f   InlineHook.obj
 0001:00038850       ??1InlineSingleHook@@QAE@XZ 10039850 f   InlineHook.obj
 0001:00038960       ?Hook@InlineSingleHook@@UAEXXZ 10039960 f   InlineHook.obj
 0001:00038a40       ?InitHookClass@InlineSingleHook@@AAEXQAEKHPAX1@Z 10039a40 f   InlineHook.obj
 0001:00038d60       ?NewBytesForInlineHook@InlineSingleHook@@QAEPAEPAE@Z 10039d60 f   InlineHook.obj
 0001:00038d90       ?RedirectedOpcodeInStub@InlineSingleHook@@QAEQAXXZ 10039d90 f   InlineHook.obj
 0001:00038db0       ?RedirectedOrgOpcodes@InlineSingleHook@@QAEQAEXZ 10039db0 f   InlineHook.obj
 0001:00038dd0       ?RtnAddrOfHook@InlineSingleHook@@QAEQAXXZ 10039dd0 f   InlineHook.obj
 0001:00038df0       ?SetParamOfHook@InlineSingleHook@@QAEPAXPAX@Z 10039df0 f   InlineHook.obj
 0001:00038e20       ?X86InlineHookRouter@@YGXXZ 10039e20 f   InlineHook.obj
 0001:00038ef0       ??0CGraphic@@QAE@XZ        10039ef0 f   cgraphic.obj
 0001:00038f10       ??1CGraphic@@QAE@XZ        10039f10 f   cgraphic.obj
 0001:00038f20       ?DrawRotateRect@CGraphic@@QAEXPAUIDirectDrawSurface@@HHH@Z 10039f20 f   cgraphic.obj
 0001:00039160       ?GenerateLookupTables@CGraphic@@AAEXXZ 1003a160 f   cgraphic.obj
 0001:000391f0       ??$?0V?$allocator@PAVGraphicElement@@@std@@PAPAVGraphicElement@@PAPAV2@PAPAV2@@?$_Compressed_pair@V?$allocator@PAVGraphicElement@@@std@@V?$_Vector_val@U?$_Simple_types@PAVGraphicElement@@@std@@@2@$00@std@@QAE@U_One_then_variadic_args_t@1@$$QAV?$allocator@PAVGraphicElement@@@1@$$QAPAPAVGraphicElement@@22@Z 1003a1f0 f i ElementHandler.obj
 0001:00039240       ??$_Construct_in_place@PAVGraphicElement@@ABQAV1@@std@@YGXAAPAVGraphicElement@@ABQAV1@@Z 1003a240 f i ElementHandler.obj
 0001:00039280       ??$_Copy_memmove@PAPAVGraphicElement@@PAPAV1@@std@@YGPAPAVGraphicElement@@PAPAV1@00@Z 1003a280 f i ElementHandler.obj
 0001:000392f0       ??$_Emplace_back@PAVGraphicElement@@@?$_Uninitialized_backout_al@V?$allocator@PAVGraphicElement@@@std@@@std@@QAEX$$QAPAVGraphicElement@@@Z 1003a2f0 f i ElementHandler.obj
 0001:00039330       ??$_Emplace_back_with_unused_capacity@ABQAVGraphicElement@@@?$vector@PAVGraphicElement@@V?$allocator@PAVGraphicElement@@@std@@@std@@AAEAAPAVGraphicElement@@ABQAV2@@Z 1003a330 f i ElementHandler.obj
 0001:00039390       ??$_Emplace_one_at_back@ABQAVGraphicElement@@@?$vector@PAVGraphicElement@@V?$allocator@PAVGraphicElement@@@std@@@std@@AAEAAPAVGraphicElement@@ABQAV2@@Z 1003a390 f i ElementHandler.obj
 0001:000393f0       ??$_Emplace_reallocate@ABQAVGraphicElement@@@?$vector@PAVGraphicElement@@V?$allocator@PAVGraphicElement@@@std@@@std@@AAEPAPAVGraphicElement@@QAPAV2@ABQAV2@@Z 1003a3f0 f i ElementHandler.obj
 0001:000395c0       ??$_Get_unwrapped@ABQAPAVGraphicElement@@@std@@YG?A_TABQAPAVGraphicElement@@@Z 1003a5c0 f i ElementHandler.obj
 0001:000395d0       ??$_Move_unchecked@PAPAVGraphicElement@@PAPAV1@@std@@YGPAPAVGraphicElement@@PAPAV1@00@Z 1003a5d0 f i ElementHandler.obj
 0001:00039620       ??$_To_address@PAPAVGraphicElement@@@std@@YG?A_PABQAPAVGraphicElement@@@Z 1003a620 f i ElementHandler.obj
 0001:00039630       ??$_Uninitialized_move@PAPAVGraphicElement@@V?$allocator@PAVGraphicElement@@@std@@@std@@YGPAPAVGraphicElement@@QAPAV1@0PAPAV1@AAV?$allocator@PAVGraphicElement@@@0@@Z 1003a630 f i ElementHandler.obj
 0001:00039710       ??$addressof@PAVGraphicElement@@@std@@YGPAPAVGraphicElement@@AAPAV1@@Z 1003a710 f i ElementHandler.obj
 0001:00039720       ??$addressof@V?$_Vector_val@U?$_Simple_types@PAVGraphicElement@@@std@@@std@@@std@@YGPAV?$_Vector_val@U?$_Simple_types@PAVGraphicElement@@@std@@@0@AAV10@@Z 1003a720 f i ElementHandler.obj
 0001:00039730       ??$construct@PAVGraphicElement@@ABQAV1@@?$_Default_allocator_traits@V?$allocator@PAVGraphicElement@@@std@@@std@@SGXAAV?$allocator@PAVGraphicElement@@@1@QAPAVGraphicElement@@ABQAV3@@Z 1003a730 f i ElementHandler.obj
 0001:00039770       ??$emplace_back@ABQAVGraphicElement@@@?$vector@PAVGraphicElement@@V?$allocator@PAVGraphicElement@@@std@@@std@@QAE?A_TABQAVGraphicElement@@@Z 1003a770 f i ElementHandler.obj
 0001:000397a0       ??$exchange@PAPAVGraphicElement@@$$T@std@@YGPAPAVGraphicElement@@AAPAPAV1@$$QA$$T@Z 1003a7a0 f i ElementHandler.obj
 0001:000397c0       ??$forward@ABQAVGraphicElement@@@std@@YGABQAVGraphicElement@@ABQAV1@@Z 1003a7c0 f i ElementHandler.obj
 0001:000397d0       ??$forward@PAPAVGraphicElement@@@std@@YG$$QAPAPAVGraphicElement@@AAPAPAV1@@Z 1003a7d0 f i ElementHandler.obj
 0001:000397e0       ??$forward@V?$allocator@PAVGraphicElement@@@std@@@std@@YG$$QAV?$allocator@PAVGraphicElement@@@0@AAV10@@Z 1003a7e0 f i ElementHandler.obj
 0001:000397f0       ??0?$_Uninitialized_backout_al@V?$allocator@PAVGraphicElement@@@std@@@std@@QAE@PAPAVGraphicElement@@AAV?$allocator@PAVGraphicElement@@@1@@Z 1003a7f0 f i ElementHandler.obj
 0001:00039820       ??0?$_Vector_const_iterator@V?$_Vector_val@U?$_Simple_types@PAVGraphicElement@@@std@@@std@@@std@@QAE@PAPAVGraphicElement@@PBU_Container_base0@1@@Z 1003a820 f i ElementHandler.obj
 0001:00039850       ??0?$_Vector_iterator@V?$_Vector_val@U?$_Simple_types@PAVGraphicElement@@@std@@@std@@@std@@QAE@PAPAVGraphicElement@@PBU_Container_base0@1@@Z 1003a850 f i ElementHandler.obj
 0001:00039870       ??0?$_Vector_val@U?$_Simple_types@PAVGraphicElement@@@std@@@std@@QAE@PAPAVGraphicElement@@00@Z 1003a870 f i ElementHandler.obj
 0001:000398a0       ??0?$vector@PAVGraphicElement@@V?$allocator@PAVGraphicElement@@@std@@@std@@QAE@$$QAV01@@Z 1003a8a0 f i ElementHandler.obj
 0001:00039940       ??0CElementHandler@@QAE@XZ 1003a940 f   ElementHandler.obj
 0001:00039980       ??1?$_Uninitialized_backout_al@V?$allocator@PAVGraphicElement@@@std@@@std@@QAE@XZ 1003a980 f i ElementHandler.obj
 0001:000399b0       ??1CElementHandler@@UAE@XZ 1003a9b0 f   ElementHandler.obj
 0001:00039b40       ??H?$_Vector_iterator@V?$_Vector_val@U?$_Simple_types@PAVGraphicElement@@@std@@@std@@@std@@QBE?AV01@H@Z 1003ab40 f i ElementHandler.obj
 0001:00039b70       ??Y?$_Vector_const_iterator@V?$_Vector_val@U?$_Simple_types@PAVGraphicElement@@@std@@@std@@@std@@QAEAAV01@H@Z 1003ab70 f i ElementHandler.obj
 0001:00039ba0       ??Y?$_Vector_iterator@V?$_Vector_val@U?$_Simple_types@PAVGraphicElement@@@std@@@std@@@std@@QAEAAV01@H@Z 1003aba0 f i ElementHandler.obj
 0001:00039bc0       ??_ECElementHandler@@UAEPAXI@Z 1003abc0 f i ElementHandler.obj
 0001:00039bc0       ??_GCElementHandler@@UAEPAXI@Z 1003abc0 f i ElementHandler.obj
 0001:00039c00       ?AddElement@CElementHandler@@QAEXPAVGraphicElement@@@Z 1003ac00 f   ElementHandler.obj
 0001:00039c50       ?DeleteBetween@CElementHandler@@QAEXHHHH@Z 1003ac50 f   ElementHandler.obj
 0001:00039f30       ?DeleteOn@CElementHandler@@QAEXHH@Z 1003af30 f   ElementHandler.obj
 0001:00039f70       ?GetArea@CElementHandler@@QAE?AV?$vector@PAVGraphicElement@@V?$allocator@PAVGraphicElement@@@std@@@std@@HHHH@Z 1003af70 f   ElementHandler.obj
 0001:0003a1d0       ?GetClosestElement@CElementHandler@@QAEPAVGraphicElement@@HH@Z 1003b1d0 f   ElementHandler.obj
 0001:0003a1e0       ?MoveTextElement@CElementHandler@@QAEPAVGraphicElement@@PAV2@HH@Z 1003b1e0 f   ElementHandler.obj
 0001:0003a400       ?_Calculate_growth@?$vector@PAVGraphicElement@@V?$allocator@PAVGraphicElement@@@std@@@std@@ABEII@Z 1003b400 f i ElementHandler.obj
 0001:0003a460       ?_Change_array@?$vector@PAVGraphicElement@@V?$allocator@PAVGraphicElement@@@std@@@std@@AAEXQAPAVGraphicElement@@II@Z 1003b460 f i ElementHandler.obj
 0001:0003a500       ?_Get_first@?$_Compressed_pair@V?$allocator@PAVGraphicElement@@@std@@V?$_Vector_val@U?$_Simple_types@PAVGraphicElement@@@std@@@2@$00@std@@QBEABV?$allocator@PAVGraphicElement@@@2@XZ 1003b500 f i ElementHandler.obj
 0001:0003a510       ?_Getal@?$vector@PAVGraphicElement@@V?$allocator@PAVGraphicElement@@@std@@@std@@ABEABV?$allocator@PAVGraphicElement@@@2@XZ 1003b510 f i ElementHandler.obj
 0001:0003a530       ?_Orphan_range@?$vector@PAVGraphicElement@@V?$allocator@PAVGraphicElement@@@std@@@std@@ABEXPAPAVGraphicElement@@0@Z 1003b530 f i ElementHandler.obj
 0001:0003a540       ?_Release@?$_Uninitialized_backout_al@V?$allocator@PAVGraphicElement@@@std@@@std@@QAEPAPAVGraphicElement@@XZ 1003b540 f i ElementHandler.obj
 0001:0003a560       ?_Verify_offset@?$_Vector_const_iterator@V?$_Vector_val@U?$_Simple_types@PAVGraphicElement@@@std@@@std@@@std@@QBEXH@Z 1003b560 f i ElementHandler.obj
 0001:0003a570       ?_Xlength@?$vector@PAVGraphicElement@@V?$allocator@PAVGraphicElement@@@std@@@std@@CGXXZ 1003b570 f i ElementHandler.obj
 0001:0003a580       ?back@?$vector@PAVGraphicElement@@V?$allocator@PAVGraphicElement@@@std@@@std@@QAEAAPAVGraphicElement@@XZ 1003b580 f i ElementHandler.obj
 0001:0003a5b0       ?begin@?$vector@PAVGraphicElement@@V?$allocator@PAVGraphicElement@@@std@@@std@@QAE?AV?$_Vector_iterator@V?$_Vector_val@U?$_Simple_types@PAVGraphicElement@@@std@@@std@@@2@XZ 1003b5b0 f i ElementHandler.obj
 0001:0003a5e0       ?capacity@?$vector@PAVGraphicElement@@V?$allocator@PAVGraphicElement@@@std@@@std@@QBEIXZ 1003b5e0 f i ElementHandler.obj
 0001:0003a610       ?empty@?$vector@PAVGraphicElement@@V?$allocator@PAVGraphicElement@@@std@@@std@@QBE_NXZ 1003b610 f i ElementHandler.obj
 0001:0003a650       ?erase@?$vector@PAVGraphicElement@@V?$allocator@PAVGraphicElement@@@std@@@std@@QAE?AV?$_Vector_iterator@V?$_Vector_val@U?$_Simple_types@PAVGraphicElement@@@std@@@std@@@2@V?$_Vector_const_iterator@V?$_Vector_val@U?$_Simple_types@PAVGraphicElement@@@std@@@std@@@2@@Z 1003b650 f i ElementHandler.obj
 0001:0003a710       ?max_size@?$vector@PAVGraphicElement@@V?$allocator@PAVGraphicElement@@@std@@@std@@QBEIXZ 1003b710 f i ElementHandler.obj
 0001:0003a750       ?pop_back@?$vector@PAVGraphicElement@@V?$allocator@PAVGraphicElement@@@std@@@std@@QAEXXZ 1003b750 f i ElementHandler.obj
 0001:0003a7e0       ?push_back@?$vector@PAVGraphicElement@@V?$allocator@PAVGraphicElement@@@std@@@std@@QAEXABQAVGraphicElement@@@Z 1003b7e0 f i ElementHandler.obj
 0001:0003a7f9       _ImmIsIME@4                1003b7f9 f   imm32:IMM32.dll
 0001:0003a7ff       _ImmAssociateContext@8     1003b7ff f   imm32:IMM32.dll
 0001:0003a805       _ImmGetCompositionStringA@16 1003b805 f   imm32:IMM32.dll
 0001:0003a80b       _ImmGetCandidateListA@16   1003b80b f   imm32:IMM32.dll
 0001:0003a811       _ImmEscapeA@16             1003b811 f   imm32:IMM32.dll
 0001:0003a817       _ImmNotifyIME@16           1003b817 f   imm32:IMM32.dll
 0001:0003a81d       _GetAsyncKeyState@4        1003b81d f   user32:USER32.dll
 0001:0003a823       _GetCursorPos@4            1003b823 f   user32:USER32.dll
 0001:0003a829       _SetWindowLongA@12         1003b829 f   user32:USER32.dll
 0001:0003a82f       _GetKeyState@4             1003b82f f   user32:USER32.dll
 0001:0003a835       _wsprintfA                 1003b835 f   user32:USER32.dll
 0001:0003a83b       _GetForegroundWindow@0     1003b83b f   user32:USER32.dll
 0001:0003a841       _GetClassNameA@12          1003b841 f   user32:USER32.dll
 0001:0003a847       _GetKeyboardLayout@4       1003b847 f   user32:USER32.dll
 0001:0003a84d       _SendMessageA@16           1003b84d f   user32:USER32.dll
 0001:0003a853       _DrawTextExA@24            1003b853 f   user32:USER32.dll
 0001:0003a859       _FillRect@12               1003b859 f   user32:USER32.dll
 0001:0003a85f       _CloseHandle@4             1003b85f f   kernel32:KERNEL32.dll
 0001:0003a865       _ReleaseMutex@4            1003b865 f   kernel32:KERNEL32.dll
 0001:0003a86b       _WaitForSingleObject@8     1003b86b f   kernel32:KERNEL32.dll
 0001:0003a871       _CreateMutexA@12           1003b871 f   kernel32:KERNEL32.dll
 0001:0003a877       _GetTickCount@0            1003b877 f   kernel32:KERNEL32.dll
 0001:0003a87d       _CreateFileA@28            1003b87d f   kernel32:KERNEL32.dll
 0001:0003a883       _ReadFile@20               1003b883 f   kernel32:KERNEL32.dll
 0001:0003a889       _GetLastError@0            1003b889 f   kernel32:KERNEL32.dll
 0001:0003a88f       _GetCurrentProcess@0       1003b88f f   kernel32:KERNEL32.dll
 0001:0003a895       _GetSystemDirectoryA@8     1003b895 f   kernel32:KERNEL32.dll
 0001:0003a89b       _WriteProcessMemory@20     1003b89b f   kernel32:KERNEL32.dll
 0001:0003a8a1       _MapViewOfFile@20          1003b8a1 f   kernel32:KERNEL32.dll
 0001:0003a8a7       _UnmapViewOfFile@4         1003b8a7 f   kernel32:KERNEL32.dll
 0001:0003a8ad       _FreeLibrary@4             1003b8ad f   kernel32:KERNEL32.dll
 0001:0003a8b3       _GetProcAddress@8          1003b8b3 f   kernel32:KERNEL32.dll
 0001:0003a8b9       _LoadLibraryA@4            1003b8b9 f   kernel32:KERNEL32.dll
 0001:0003a8bf       _lstrcpyA@8                1003b8bf f   kernel32:KERNEL32.dll
 0001:0003a8c5       _lstrcatA@8                1003b8c5 f   kernel32:KERNEL32.dll
 0001:0003a8cb       _CreateFileMappingA@24     1003b8cb f   kernel32:KERNEL32.dll
 0001:0003a8d1       _ReleaseSemaphore@12       1003b8d1 f   kernel32:KERNEL32.dll
 0001:0003a8d7       _CreateSemaphoreA@16       1003b8d7 f   kernel32:KERNEL32.dll
 0001:0003a8dd       _Sleep@4                   1003b8dd f   kernel32:KERNEL32.dll
 0001:0003a8e3       _CreateThread@24           1003b8e3 f   kernel32:KERNEL32.dll
 0001:0003a8e9       _VirtualProtect@16         1003b8e9 f   kernel32:KERNEL32.dll
 0001:0003a8ef       _CreateDirectoryA@8        1003b8ef f   kernel32:KERNEL32.dll
 0001:0003a8f5       _FindClose@4               1003b8f5 f   kernel32:KERNEL32.dll
 0001:0003a8fb       _FindFirstFileA@8          1003b8fb f   kernel32:KERNEL32.dll
 0001:0003a901       _GetFileSize@8             1003b901 f   kernel32:KERNEL32.dll
 0001:0003a907       _GetModuleHandleA@4        1003b907 f   kernel32:KERNEL32.dll
 0001:0003a90d       _lstrcmpiA@8               1003b90d f   kernel32:KERNEL32.dll
 0001:0003a913       _GetModuleFileNameA@12     1003b913 f   kernel32:KERNEL32.dll
 0001:0003a919       _GetPrivateProfileIntA@16  1003b919 f   kernel32:KERNEL32.dll
 0001:0003a91f       _SetFilePointer@16         1003b91f f   kernel32:KERNEL32.dll
 0001:0003a925       _WriteFile@20              1003b925 f   kernel32:KERNEL32.dll
 0001:0003a92b       _AddVectoredExceptionHandler@8 1003b92b f   kernel32:KERNEL32.dll
 0001:0003a931       _RemoveVectoredExceptionHandler@4 1003b931 f   kernel32:KERNEL32.dll
 0001:0003a937       _EnterCriticalSection@4    1003b937 f   kernel32:KERNEL32.dll
 0001:0003a93d       _LeaveCriticalSection@4    1003b93d f   kernel32:KERNEL32.dll
 0001:0003a943       _GetTempPathA@8            1003b943 f   kernel32:KERNEL32.dll
 0001:0003a949       _GetTempFileNameA@16       1003b949 f   kernel32:KERNEL32.dll
 0001:0003a94f       _GetPrivateProfileStringA@24 1003b94f f   kernel32:KERNEL32.dll
 0001:0003a955       _WritePrivateProfileStringA@16 1003b955 f   kernel32:KERNEL32.dll
 0001:0003a95b       _IsDBCSLeadByte@4          1003b95b f   kernel32:KERNEL32.dll
 0001:0003a961       _GetCurrentDirectoryA@8    1003b961 f   kernel32:KERNEL32.dll
 0001:0003a967       _GetFileAttributesA@4      1003b967 f   kernel32:KERNEL32.dll
 0001:0003a96d       _GetPrivateProfileSectionA@16 1003b96d f   kernel32:KERNEL32.dll
 0001:0003a973       _LoadResource@8            1003b973 f   kernel32:KERNEL32.dll
 0001:0003a979       _LockResource@4            1003b979 f   kernel32:KERNEL32.dll
 0001:0003a97f       _FindResourceA@12          1003b97f f   kernel32:KERNEL32.dll
 0001:0003a985       _IsBadWritePtr@8           1003b985 f   kernel32:KERNEL32.dll
 0001:0003a98b       _GetCurrentThreadId@0      1003b98b f   kernel32:KERNEL32.dll
 0001:0003a991       _CreateDCA@16              1003b991 f   gdi32:GDI32.dll
 0001:0003a997       _CreateDIBitmap@24         1003b997 f   gdi32:GDI32.dll
 0001:0003a99d       _CreatePalette@4           1003b99d f   gdi32:GDI32.dll
 0001:0003a9a3       _DeleteDC@4                1003b9a3 f   gdi32:GDI32.dll
 0001:0003a9a9       _DeleteObject@4            1003b9a9 f   gdi32:GDI32.dll
 0001:0003a9af       _GetDIBits@28              1003b9af f   gdi32:GDI32.dll
 0001:0003a9b5       _SelectObject@8            1003b9b5 f   gdi32:GDI32.dll
 0001:0003a9bb       _SelectPalette@12          1003b9bb f   gdi32:GDI32.dll
 0001:0003a9c1       _TextOutA@20               1003b9c1 f   gdi32:GDI32.dll
 0001:0003a9c7       _CreateFontA@56            1003b9c7 f   gdi32:GDI32.dll
 0001:0003a9cd       _GetTextExtentPoint32A@16  1003b9cd f   gdi32:GDI32.dll
 0001:0003a9d3       _SetBkColor@8              1003b9d3 f   gdi32:GDI32.dll
 0001:0003a9d9       _SetTextColor@8            1003b9d9 f   gdi32:GDI32.dll
 0001:0003a9df       _RegCloseKey@4             1003b9df f   advapi32:ADVAPI32.dll
 0001:0003a9e5       _RegCreateKeyExA@36        1003b9e5 f   advapi32:ADVAPI32.dll
 0001:0003a9eb       _RegQueryValueExA@24       1003b9eb f   advapi32:ADVAPI32.dll
 0001:0003a9f1       _RegSetValueExA@24         1003b9f1 f   advapi32:ADVAPI32.dll
 0001:0003a9f7       ??2@YAPAXI@Z               1003b9f7 f   LIBCMT:new_scalar.obj
 0001:0003aa27       ??3@YAXPAXI@Z              1003ba27 f   LIBCMT:delete_scalar_size.obj
 0001:0003aa35       @__security_check_cookie@4 1003ba35 f   LIBCMT:secchk.obj
 0001:0003aa43       ??_U@YAPAXI@Z              1003ba43 f   LIBCMT:new_array.obj
 0001:0003aa4c       ??1type_info@@UAE@XZ       1003ba4c f   LIBCMT:std_type_info_static.obj
 0001:0003aa53       ??_Etype_info@@UAEPAXI@Z   1003ba53 f i LIBCMT:std_type_info_static.obj
 0001:0003aa53       ??_Gtype_info@@UAEPAXI@Z   1003ba53 f i LIBCMT:std_type_info_static.obj
 0001:0003aa76       ??_V@YAXPAX@Z              1003ba76 f   LIBCMT:delete_array.obj
 0001:0003aa7b       ___raise_securityfailure   1003ba7b f   LIBCMT:gs_report.obj
 0001:0003aaa3       ___report_gsfailure        1003baa3 f   LIBCMT:gs_report.obj
 0001:0003ab9d       ___report_rangecheckfailure 1003bb9d f   LIBCMT:gs_report.obj
 0001:0003aba9       ___report_securityfailure  1003bba9 f   LIBCMT:gs_report.obj
 0001:0003ac78       ___report_securityfailureEx 1003bc78 f   LIBCMT:gs_report.obj
 0001:0003ad90       __ftoui3                   1003bd90 f   LIBCMT:ftol3.obj
 0001:0003ade0       __ftoul3                   1003bde0 f   LIBCMT:ftol3.obj
 0001:0003ae50       __ftoul3_legacy            1003be50 f   LIBCMT:ftol3.obj
 0001:0003ae80       __ftol3                    1003be80 f   LIBCMT:ftol3.obj
 0001:0003aef0       __dtoui3                   1003bef0 f   LIBCMT:ftol3.obj
 0001:0003af70       __dtoul3                   1003bf70 f   LIBCMT:ftol3.obj
 0001:0003b020       __dtoul3_legacy            1003c020 f   LIBCMT:ftol3.obj
 0001:0003b050       __dtol3                    1003c050 f   LIBCMT:ftol3.obj
 0001:0003b100       __ultod3                   1003c100 f   LIBCMT:ftol3.obj
 0001:0003b160       __ltod3                    1003c160 f   LIBCMT:ftol3.obj
 0001:0003b1a1       ??3@YAXPAX@Z               1003c1a1 f   LIBCMT:delete_scalar.obj
 0001:0003b1a6       ??_L@YGXPAXIHP6EX0@Z1@Z    1003c1a6 f   LIBCMT:ehvecctr.obj
 0001:0003b1ab       ??_L@YGXPAXIIP6EX0@Z1@Z    1003c1ab f   LIBCMT:ehvecctr.obj
 0001:0003b21f       ??_M@YGXPAXIHP6EX0@Z@Z     1003c21f f   LIBCMT:ehvecdtr.obj
 0001:0003b224       ??_M@YGXPAXIIP6EX0@Z@Z     1003c224 f   LIBCMT:ehvecdtr.obj
 0001:0003b2d8       ?__ArrayUnwind@@YGXPAXIIP6EX0@Z@Z 1003c2d8 f   LIBCMT:ehvecdtr.obj
 0001:0003b370       __ftol2_sse_excpt          1003c370 f   LIBCMT:ftol2.obj
 0001:0003b380       __ftol2_sse                1003c380 f   LIBCMT:ftol2.obj
 0001:0003b390       __ftoi2                    1003c390 f   LIBCMT:ftol2.obj
 0001:0003b410       __ftoui2                   1003c410 f   LIBCMT:ftol2.obj
 0001:0003b4c0       __ftol2                    1003c4c0 f   LIBCMT:ftol2.obj
 0001:0003b570       __ftoul2                   1003c570 f   LIBCMT:ftol2.obj
 0001:0003b630       __ftoul2_legacy            1003c630 f   LIBCMT:ftol2.obj
 0001:0003b991       __CRT_INIT@12              1003c991 f   LIBCMT:dll_dllmain.obj
 0001:0003b99a       __DllMainCRTStartup@12     1003c99a f   LIBCMT:dll_dllmain.obj
 0001:0003b9bd       ??0bad_alloc@std@@QAE@XZ   1003c9bd f i LIBCMT:throw_bad_alloc.obj
 0001:0003b9d5       ?__scrt_throw_std_bad_alloc@@YAXXZ 1003c9d5 f   LIBCMT:throw_bad_alloc.obj
 0001:0003b9f2       ?__scrt_throw_std_bad_array_new_length@@YAXXZ 1003c9f2 f   LIBCMT:throw_bad_alloc.obj
 0001:0003ba0f       ___isa_available_init      1003ca0f f   LIBCMT:cpu_disp.obj
 0001:0003bbf0       __SEH_prolog4              1003cbf0 f   LIBCMT:sehprolg4.obj
 0001:0003bc40       __SEH_epilog4              1003cc40 f   LIBCMT:sehprolg4.obj
 0001:0003bc54       @_guard_check_icall_nop@4  1003cc54 f i LIBCMT:guard_support.obj
 0001:0003bc57       _ReadNoFence               1003cc57 f i LIBCMT:guard_support.obj
 0001:0003bc61       _ReadPointerNoFence        1003cc61 f i LIBCMT:guard_support.obj
 0001:0003bc6b       ___castguard_check_failure_debugbreak 1003cc6b f i LIBCMT:guard_support.obj
 0001:0003bc86       ___castguard_check_failure_fastfail 1003cc86 f i LIBCMT:guard_support.obj
 0001:0003bca5       ___castguard_check_failure_nop 1003cca5 f i LIBCMT:guard_support.obj
 0001:0003bca8       ___castguard_check_failure_os_handled 1003cca8 f i LIBCMT:guard_support.obj
 0001:0003bd04       ___castguard_slow_path_check_debugbreak 1003cd04 f i LIBCMT:guard_support.obj
 0001:0003bd31       ___castguard_slow_path_check_fastfail 1003cd31 f i LIBCMT:guard_support.obj
 0001:0003bd62       ___castguard_slow_path_check_nop 1003cd62 f i LIBCMT:guard_support.obj
 0001:0003bd65       ___castguard_slow_path_check_os_handled 1003cd65 f i LIBCMT:guard_support.obj
 0001:0003bdc0       __guard_icall_checks_enforced 1003cdc0 f i LIBCMT:guard_support.obj
 0001:0003be1f       ___security_init_cookie    1003ce1f f   LIBCMT:gs_support.obj
 0001:0003be6a       ?__scrt_initialize_type_info@@YAXXZ 1003ce6a f   LIBCMT:tncleanup.obj
 0001:0003be76       ?__scrt_uninitialize_type_info@@YAXXZ 1003ce76 f   LIBCMT:tncleanup.obj
 0001:0003be82       ___local_stdio_scanf_options 1003ce82 f i LIBCMT:default_local_stdio_options.obj
 0001:0003be88       ___scrt_initialize_default_local_stdio_options 1003ce88 f   LIBCMT:default_local_stdio_options.obj
 0001:0003bea5       ?configure_argv@__scrt_narrow_argv_policy@@SAHXZ 1003cea5 f i LIBCMT:utility.obj
 0001:0003bef6       ?initialize_environment@__scrt_narrow_environment_policy@@SAHXZ 1003cef6 f i LIBCMT:utility.obj
 0001:0003bf2e       _NtCurrentTeb              1003cf2e f i LIBCMT:utility.obj
 0001:0003bf35       ___scrt_acquire_startup_lock 1003cf35 f   LIBCMT:utility.obj
 0001:0003bf67       ___scrt_dllmain_after_initialize_c 1003cf67 f   LIBCMT:utility.obj
 0001:0003bf92       ___scrt_dllmain_before_initialize_c 1003cf92 f   LIBCMT:utility.obj
 0001:0003bfa0       ___scrt_dllmain_crt_thread_attach 1003cfa0 f   LIBCMT:utility.obj
 0001:0003bfbf       ___scrt_dllmain_crt_thread_detach 1003cfbf f   LIBCMT:utility.obj
 0001:0003bfcc       ___scrt_dllmain_exception_filter 1003cfcc f   LIBCMT:utility.obj
 0001:0003c000       ___scrt_dllmain_uninitialize_c 1003d000 f   LIBCMT:utility.obj
 0001:0003c023       ___scrt_dllmain_uninitialize_critical 1003d023 f   LIBCMT:utility.obj
 0001:0003c030       ___scrt_initialize_crt     1003d030 f   LIBCMT:utility.obj
 0001:0003c069       ___scrt_initialize_onexit_tables 1003d069 f   LIBCMT:utility.obj
 0001:0003c0f0       ___scrt_is_nonwritable_in_current_image 1003d0f0 f   LIBCMT:utility.obj
 0001:0003c184       ___scrt_release_startup_lock 1003d184 f   LIBCMT:utility.obj
 0001:0003c1a1       ___scrt_uninitialize_crt   1003d1a1 f   LIBCMT:utility.obj
 0001:0003c1c9       __onexit                   1003d1c9 f   LIBCMT:utility.obj
 0001:0003c1f6       _at_quick_exit             1003d1f6 f   LIBCMT:utility.obj
 0001:0003c219       _atexit                    1003d219 f   LIBCMT:utility.obj
 0001:0003c22e       ___scrt_get_dyn_tls_init_callback 1003d22e f   LIBCMT:dyn_tls_init.obj
 0001:0003c234       ___scrt_fastfail           1003d234 f   LIBCMT:utility_desktop.obj
 0001:0003c34f       ___scrt_get_show_window_mode 1003d34f f   LIBCMT:utility_desktop.obj
 0001:0003c380       ___scrt_initialize_mta     1003d380 f   LIBCMT:utility_desktop.obj
 0001:0003c385       ___scrt_initialize_winrt   1003d385 f   LIBCMT:utility_desktop.obj
 0001:0003c388       ___scrt_is_managed_app     1003d388 f   LIBCMT:utility_desktop.obj
 0001:0003c3ca       ___scrt_set_unhandled_exception_filter 1003d3ca f   LIBCMT:utility_desktop.obj
 0001:0003c3d6       ___scrt_exe_initialize_mta 1003d3d6 f   LIBCMT:utility_desktop.obj
 0001:0003c3d6       ___scrt_stub_for_initialize_mta 1003d3d6 f   LIBCMT:utility_desktop.obj
 0001:0003c3d9       ___scrt_unhandled_exception_filter@4 1003d3d9 f   LIBCMT:utility_desktop.obj
 0001:0003c42f       __crt_debugger_hook        1003d42f f   LIBCMT:utility_desktop.obj
 0001:0003c437       __RTC_Initialize           1003d437 f   LIBCMT:initsect.obj
 0001:0003c463       __RTC_Terminate            1003d463 f   LIBCMT:initsect.obj
 0001:0003c48f       __get_startup_argv_mode    1003d48f f   LIBCMT:argv_mode.obj
 0001:0003c493       ___scrt_is_ucrt_dll_in_use 1003d493 f   LIBCMT:ucrt_detection.obj
 0001:0003c49f       ??0bad_function_call@std@@QAE@ABV01@@Z 1003d49f f i libcpmt:xthrow.obj
 0001:0003c4ba       ??0bad_function_call@std@@QAE@XZ 1003d4ba f i libcpmt:xthrow.obj
 0001:0003c4cb       ??0exception@std@@QAE@QBD@Z 1003d4cb f i libcpmt:xthrow.obj
 0001:0003c500       ??0exception@std@@QAE@XZ   1003d500 f i libcpmt:xthrow.obj
 0001:0003c511       ??0invalid_argument@std@@QAE@ABV01@@Z 1003d511 f i libcpmt:xthrow.obj
 0001:0003c52c       ??0invalid_argument@std@@QAE@PBD@Z 1003d52c f i libcpmt:xthrow.obj
 0001:0003c54b       ??0length_error@std@@QAE@ABV01@@Z 1003d54b f i libcpmt:xthrow.obj
 0001:0003c566       ??0length_error@std@@QAE@PBD@Z 1003d566 f i libcpmt:xthrow.obj
 0001:0003c585       ??0logic_error@std@@QAE@ABV01@@Z 1003d585 f i libcpmt:xthrow.obj
 0001:0003c5a0       ??0logic_error@std@@QAE@PBD@Z 1003d5a0 f i libcpmt:xthrow.obj
 0001:0003c5bf       ??0out_of_range@std@@QAE@ABV01@@Z 1003d5bf f i libcpmt:xthrow.obj
 0001:0003c5da       ??0out_of_range@std@@QAE@PBD@Z 1003d5da f i libcpmt:xthrow.obj
 0001:0003c5f9       ??0overflow_error@std@@QAE@ABV01@@Z 1003d5f9 f i libcpmt:xthrow.obj
 0001:0003c614       ??0overflow_error@std@@QAE@PBD@Z 1003d614 f i libcpmt:xthrow.obj
 0001:0003c633       ??0regex_error@std@@QAE@ABV01@@Z 1003d633 f i libcpmt:xthrow.obj
 0001:0003c657       ??0regex_error@std@@QAE@W4error_type@regex_constants@1@@Z 1003d657 f i libcpmt:xthrow.obj
 0001:0003c685       ??0runtime_error@std@@QAE@ABV01@@Z 1003d685 f i libcpmt:xthrow.obj
 0001:0003c6a0       ??0runtime_error@std@@QAE@PBD@Z 1003d6a0 f i libcpmt:xthrow.obj
 0001:0003c6bf       ??1bad_function_call@std@@UAE@XZ 1003d6bf f i libcpmt:xthrow.obj
 0001:0003c6d0       ??1invalid_argument@std@@UAE@XZ 1003d6d0 f i libcpmt:xthrow.obj
 0001:0003c6e1       ??1length_error@std@@UAE@XZ 1003d6e1 f i libcpmt:xthrow.obj
 0001:0003c6f2       ??1logic_error@std@@UAE@XZ 1003d6f2 f i libcpmt:xthrow.obj
 0001:0003c703       ??1out_of_range@std@@UAE@XZ 1003d703 f i libcpmt:xthrow.obj
 0001:0003c714       ??1overflow_error@std@@UAE@XZ 1003d714 f i libcpmt:xthrow.obj
 0001:0003c725       ??1regex_error@std@@UAE@XZ 1003d725 f i libcpmt:xthrow.obj
 0001:0003c736       ??1runtime_error@std@@UAE@XZ 1003d736 f i libcpmt:xthrow.obj
 0001:0003c747       ??_Ebad_function_call@std@@UAEPAXI@Z 1003d747 f i libcpmt:xthrow.obj
 0001:0003c747       ??_Gbad_function_call@std@@UAEPAXI@Z 1003d747 f i libcpmt:xthrow.obj
 0001:0003c774       ??_Einvalid_argument@std@@UAEPAXI@Z 1003d774 f i libcpmt:xthrow.obj
 0001:0003c774       ??_Ginvalid_argument@std@@UAEPAXI@Z 1003d774 f i libcpmt:xthrow.obj
 0001:0003c7a1       ??_Elength_error@std@@UAEPAXI@Z 1003d7a1 f i libcpmt:xthrow.obj
 0001:0003c7a1       ??_Glength_error@std@@UAEPAXI@Z 1003d7a1 f i libcpmt:xthrow.obj
 0001:0003c7ce       ??_Elogic_error@std@@UAEPAXI@Z 1003d7ce f i libcpmt:xthrow.obj
 0001:0003c7ce       ??_Glogic_error@std@@UAEPAXI@Z 1003d7ce f i libcpmt:xthrow.obj
 0001:0003c7fb       ??_Eout_of_range@std@@UAEPAXI@Z 1003d7fb f i libcpmt:xthrow.obj
 0001:0003c7fb       ??_Gout_of_range@std@@UAEPAXI@Z 1003d7fb f i libcpmt:xthrow.obj
 0001:0003c828       ??_Eoverflow_error@std@@UAEPAXI@Z 1003d828 f i libcpmt:xthrow.obj
 0001:0003c828       ??_Goverflow_error@std@@UAEPAXI@Z 1003d828 f i libcpmt:xthrow.obj
 0001:0003c855       ??_Eregex_error@std@@UAEPAXI@Z 1003d855 f i libcpmt:xthrow.obj
 0001:0003c855       ??_Gregex_error@std@@UAEPAXI@Z 1003d855 f i libcpmt:xthrow.obj
 0001:0003c882       ??_Eruntime_error@std@@UAEPAXI@Z 1003d882 f i libcpmt:xthrow.obj
 0001:0003c882       ??_Gruntime_error@std@@UAEPAXI@Z 1003d882 f i libcpmt:xthrow.obj
 0001:0003c8af       ?_Stringify@regex_error@std@@CAPBDW4error_type@regex_constants@2@@Z 1003d8af f i libcpmt:xthrow.obj
 0001:0003c96f       ?_Xbad_alloc@std@@YAXXZ    1003d96f f   libcpmt:xthrow.obj
 0001:0003c98c       ?_Xbad_function_call@std@@YAXXZ 1003d98c f   libcpmt:xthrow.obj
 0001:0003c9a9       ?_Xinvalid_argument@std@@YAXPBD@Z 1003d9a9 f   libcpmt:xthrow.obj
 0001:0003c9c9       ?_Xlength_error@std@@YAXPBD@Z 1003d9c9 f   libcpmt:xthrow.obj
 0001:0003c9e9       ?_Xout_of_range@std@@YAXPBD@Z 1003d9e9 f   libcpmt:xthrow.obj
 0001:0003ca09       ?_Xoverflow_error@std@@YAXPBD@Z 1003da09 f   libcpmt:xthrow.obj
 0001:0003ca29       ?_Xregex_error@std@@YAXW4error_type@regex_constants@1@@Z 1003da29 f   libcpmt:xthrow.obj
 0001:0003ca49       ?_Xruntime_error@std@@YAXPBD@Z 1003da49 f   libcpmt:xthrow.obj
 0001:0003ca69       ?what@bad_function_call@std@@UBEPBDXZ 1003da69 f i libcpmt:xthrow.obj
 0001:0003ca70       _memcpy                    1003da70 f   libvcruntime:memcpy.obj
 0001:0003cff0       _memset                    1003dff0 f   libvcruntime:memset.obj
 0001:0003d14a       ??$?0AAViterator@TryBlockMap@__FrameHandler3@@AAV012@$0A@@?$pair@Viterator@TryBlockMap@__FrameHandler3@@V123@@std@@QAE@AAViterator@TryBlockMap@__FrameHandler3@@0@Z 1003e14a f i libvcruntime:trnsctrl.obj
 0001:0003d16e       ??$forward@AAViterator@TryBlockMap@__FrameHandler3@@@std@@YAAAViterator@TryBlockMap@__FrameHandler3@@AAV123@@Z 1003e16e f i libvcruntime:trnsctrl.obj
 0001:0003d176       ??0iterator@TryBlockMap@__FrameHandler3@@QAE@AAV12@I@Z 1003e176 f i libvcruntime:trnsctrl.obj
 0001:0003d18a       ?GetRangeOfTrysToCheck@__FrameHandler3@@SA?AU?$pair@Viterator@TryBlockMap@__FrameHandler3@@V123@@std@@AAVTryBlockMap@1@HPAXPBU_s_FuncInfo@@H@Z 1003e18a f   libvcruntime:trnsctrl.obj
 0001:0003d1fa       ?_CallCatchBlock2@@YAPAXPAUEHRegistrationNode@@PBU_s_FuncInfo@@PAXHK@Z 1003e1fa f   libvcruntime:trnsctrl.obj
 0001:0003d257       ?_CallSETranslator@@YAHPAUEHExceptionRecord@@PAUEHRegistrationNode@@PAX2PBU_s_FuncInfo@@H1@Z 1003e257 f   libvcruntime:trnsctrl.obj
 0001:0003d34d       ?_JumpToContinuation@@YGXPAXPAUEHRegistrationNode@@@Z 1003e34d f   libvcruntime:trnsctrl.obj
 0001:0003d37d       ?_UnwindNestedFrames@@YGXPAUEHRegistrationNode@@PAUEHExceptionRecord@@@Z 1003e37d f   libvcruntime:trnsctrl.obj
 0001:0003d3d0       __CatchGuardHandler        1003e3d0 f   libvcruntime:trnsctrl.obj
 0001:0003d401       __CreateFrameInfo          1003e401 f   libvcruntime:trnsctrl.obj
 0001:0003d425       __FindAndUnlinkFrame       1003e425 f   libvcruntime:trnsctrl.obj
 0001:0003d46d       __TranslatorGuardHandler   1003e46d f   libvcruntime:trnsctrl.obj
 0001:0003d50a       ___CxxFrameHandler         1003e50a f   libvcruntime:trnsctrl.obj
 0001:0003d540       ___CxxFrameHandler2        1003e540 f   libvcruntime:trnsctrl.obj
 0001:0003d576       ___CxxFrameHandler3        1003e576 f   libvcruntime:trnsctrl.obj
 0001:0003d5ac       ___CxxLongjmpUnwind@4      1003e5ac f   libvcruntime:trnsctrl.obj
 0001:0003d5e0       _memmove                   1003e5e0 f   libvcruntime:memmove.obj
 0001:0003db54       ??$?RD@__crt_public_free_policy@@QBEXQBD@Z 1003eb54 f i libvcruntime:std_exception.obj
 0001:0003db64       ??0?$__crt_unique_heap_ptr@DU__crt_public_free_policy@@@@QAE@QAD@Z 1003eb64 f i libvcruntime:std_exception.obj
 0001:0003db72       ??1?$__crt_unique_heap_ptr@DU__crt_public_free_policy@@@@QAE@XZ 1003eb72 f i libvcruntime:std_exception.obj
 0001:0003db82       ??B?$__crt_unique_heap_ptr@DU__crt_public_free_policy@@@@QBE_NXZ 1003eb82 f i libvcruntime:std_exception.obj
 0001:0003db89       ?detach@?$__crt_unique_heap_ptr@DU__crt_public_free_policy@@@@QAEPADXZ 1003eb89 f i libvcruntime:std_exception.obj
 0001:0003db8f       ?get@?$__crt_unique_heap_ptr@DU__crt_public_free_policy@@@@QBEPADXZ 1003eb8f f i libvcruntime:std_exception.obj
 0001:0003db92       ?is_valid@?$__crt_unique_heap_ptr@DU__crt_public_free_policy@@@@QBE_NXZ 1003eb92 f i libvcruntime:std_exception.obj
 0001:0003db99       ?release@?$__crt_unique_heap_ptr@DU__crt_public_free_policy@@@@QAEXXZ 1003eb99 f i libvcruntime:std_exception.obj
 0001:0003dba9       ___std_exception_copy      1003eba9 f   libvcruntime:std_exception.obj
 0001:0003dc0c       ___std_exception_destroy   1003ec0c f   libvcruntime:std_exception.obj
 0001:0003dc2b       __CxxThrowException@8      1003ec2b f   libvcruntime:throw.obj
 0001:0003dce0       __except_handler4          1003ece0 f   libvcruntime:chandler4.obj
 0001:0003de40       _strchr                    1003ee40 f   libvcruntime:strchr.obj
 0001:0003deae       ___from_strstr_to_strchr   1003eeae     libvcruntime:strchr.obj
 0001:0003df70       _strstr                    1003ef70 f   libvcruntime:strstr.obj
 0001:0003e2f8       _memcmp                    1003f2f8 f   libvcruntime:memcmp.obj
 0001:00040f60       _strrchr                   10041f60 f   libvcruntime:strrchr.obj
 0001:00041097       ___DestructExceptionObject 10042097 f   libvcruntime:ehhelpers.obj
 0001:00041138       ?_CallMemberFunction0@@YGXQAX0@Z 10042138 f i libvcruntime:ehhelpers.obj
 0001:0004119d       ?raw_name@type_info@@QBEPBDXZ 1004219d f i libvcruntime:ehhelpers.obj
 0001:000411a1       __IsExceptionObjectToBeDestroyed 100421a1 f   libvcruntime:ehhelpers.obj
 0001:000411c7       __SetWinRTOutOfMemoryExceptionCallback 100421c7 f   libvcruntime:ehhelpers.obj
 0001:000411d4       ___AdjustPointer           100421d4 f   libvcruntime:ehhelpers.obj
 0001:000411f9       ___FrameUnwindFilter       100421f9 f   libvcruntime:ehhelpers.obj
 0001:0004124f       ___GetPlatformExceptionInfo 1004224f f   libvcruntime:ehhelpers.obj
 0001:0004129b       ___current_exception       1004229b f   libvcruntime:ehhelpers.obj
 0001:000412a4       ___current_exception_context 100422a4 f   libvcruntime:ehhelpers.obj
 0001:000412ad       ___processing_throw        100422ad f   libvcruntime:ehhelpers.obj
 0001:000412b6       ___std_terminate           100422b6 f   libvcruntime:ehhelpers.obj
 0001:000412bb       __is_exception_typeof      100422bb f   libvcruntime:ehhelpers.obj
 0001:0004136d       ??$?RD@__crt_internal_free_policy@@QBEXQBD@Z 1004236d f i libvcruntime:std_type_info.obj
 0001:0004137d       ??$?RX@__crt_internal_free_policy@@QBEXQBX@Z 1004237d f i libvcruntime:std_type_info.obj
 0001:0004138d       ??$__crt_interlocked_compare_exchange_pointer@$$CBDPAD$$T@@YAPBDPDSBDQAD$$T@Z 1004238d f i libvcruntime:std_type_info.obj
 0001:0004139f       ??$__crt_interlocked_read_pointer@$$CBD@@YAPBDPDSBD@Z 1004239f f i libvcruntime:std_type_info.obj
 0001:000413aa       ??0?$__crt_unique_heap_ptr@DU__crt_internal_free_policy@@@@QAE@QAD@Z 100423aa f i libvcruntime:std_type_info.obj
 0001:000413b8       ??0?$__crt_unique_heap_ptr@XU__crt_internal_free_policy@@@@QAE@QAX@Z 100423b8 f i libvcruntime:std_type_info.obj
 0001:000413c6       ??1?$__crt_unique_heap_ptr@DU__crt_internal_free_policy@@@@QAE@XZ 100423c6 f i libvcruntime:std_type_info.obj
 0001:000413d6       ??1?$__crt_unique_heap_ptr@XU__crt_internal_free_policy@@@@QAE@XZ 100423d6 f i libvcruntime:std_type_info.obj
 0001:000413e6       ??B?$__crt_unique_heap_ptr@DU__crt_internal_free_policy@@@@QBE_NXZ 100423e6 f i libvcruntime:std_type_info.obj
 0001:000413ed       ??B?$__crt_unique_heap_ptr@XU__crt_internal_free_policy@@@@QBE_NXZ 100423ed f i libvcruntime:std_type_info.obj
 0001:00041420       ?__crt_interlocked_read_32@@YAHPDH@Z 10042420 f i libvcruntime:std_type_info.obj
 0001:0004142b       ?detach@?$__crt_unique_heap_ptr@XU__crt_internal_free_policy@@@@QAEPAXXZ 1004242b f i libvcruntime:std_type_info.obj
 0001:00041431       ?get@?$__crt_unique_heap_ptr@DU__crt_internal_free_policy@@@@QBEPADXZ 10042431 f i libvcruntime:std_type_info.obj
 0001:00041434       ?get@?$__crt_unique_heap_ptr@XU__crt_internal_free_policy@@@@QBEPAXXZ 10042434 f i libvcruntime:std_type_info.obj
 0001:00041437       ?is_valid@?$__crt_unique_heap_ptr@DU__crt_internal_free_policy@@@@QBE_NXZ 10042437 f i libvcruntime:std_type_info.obj
 0001:0004143e       ?is_valid@?$__crt_unique_heap_ptr@XU__crt_internal_free_policy@@@@QBE_NXZ 1004243e f i libvcruntime:std_type_info.obj
 0001:00041445       ?release@?$__crt_unique_heap_ptr@DU__crt_internal_free_policy@@@@QAEXXZ 10042445 f i libvcruntime:std_type_info.obj
 0001:00041455       ?release@?$__crt_unique_heap_ptr@XU__crt_internal_free_policy@@@@QAEXXZ 10042455 f i libvcruntime:std_type_info.obj
 0001:00041465       ___std_type_info_compare   10042465 f   libvcruntime:std_type_info.obj
 0001:000414a1       ___std_type_info_destroy_list 100424a1 f   libvcruntime:std_type_info.obj
 0001:000414c4       ___std_type_info_hash      100424c4 f   libvcruntime:std_type_info.obj
 0001:000414ea       ___std_type_info_name      100424ea f   libvcruntime:std_type_info.obj
 0001:000415b0       ___vcrt_initialize         100425b0 f   libvcruntime:initialization.obj
 0001:000415cf       ___vcrt_thread_attach      100425cf f   libvcruntime:initialization.obj
 0001:000415da       ___vcrt_thread_detach      100425da f   libvcruntime:initialization.obj
 0001:000415e5       ___vcrt_uninitialize       100425e5 f   libvcruntime:initialization.obj
 0001:000415fc       ___vcrt_uninitialize_critical 100425fc f   libvcruntime:initialization.obj
 0001:00041607       ??$?RU__vcrt_ptd@@@__crt_internal_free_policy@@QBEXQBU__vcrt_ptd@@@Z 10042607 f i libvcruntime:per_thread_data.obj
 0001:00041617       ??0?$__crt_unique_heap_ptr@U__vcrt_ptd@@U__crt_internal_free_policy@@@@QAE@QAU__vcrt_ptd@@@Z 10042617 f i libvcruntime:per_thread_data.obj
 0001:00041634       ??1?$__crt_unique_heap_ptr@U__vcrt_ptd@@U__crt_internal_free_policy@@@@QAE@XZ 10042634 f i libvcruntime:per_thread_data.obj
 0001:0004164d       ??B?$__crt_unique_heap_ptr@U__vcrt_ptd@@U__crt_internal_free_policy@@@@QBE_NXZ 1004264d f i libvcruntime:per_thread_data.obj
 0001:00041654       ?detach@?$__crt_unique_heap_ptr@U__vcrt_ptd@@U__crt_internal_free_policy@@@@QAEPAU__vcrt_ptd@@XZ 10042654 f i libvcruntime:per_thread_data.obj
 0001:0004165a       ?get@?$__crt_unique_heap_ptr@U__vcrt_ptd@@U__crt_internal_free_policy@@@@QBEPAU__vcrt_ptd@@XZ 1004265a f i libvcruntime:per_thread_data.obj
 0001:0004165d       ?is_valid@?$__crt_unique_heap_ptr@U__vcrt_ptd@@U__crt_internal_free_policy@@@@QBE_NXZ 1004265d f i libvcruntime:per_thread_data.obj
 0001:00041664       ?release@?$__crt_unique_heap_ptr@U__vcrt_ptd@@U__crt_internal_free_policy@@@@QAEXXZ 10042664 f i libvcruntime:per_thread_data.obj
 0001:0004168e       ___vcrt_freefls@4          1004268e f   libvcruntime:per_thread_data.obj
 0001:000416aa       ___vcrt_freeptd            100426aa f   libvcruntime:per_thread_data.obj
 0001:000416e0       ___vcrt_getptd             100426e0 f   libvcruntime:per_thread_data.obj
 0001:000416ee       ___vcrt_getptd_noexit      100426ee f   libvcruntime:per_thread_data.obj
 0001:00041780       ___vcrt_getptd_noinit      10042780 f   libvcruntime:per_thread_data.obj
 0001:000417b7       ___vcrt_initialize_ptd     100427b7 f   libvcruntime:per_thread_data.obj
 0001:000417ea       ___vcrt_uninitialize_ptd   100427ea f   libvcruntime:per_thread_data.obj
 0001:00041f37       ??$TypeMatchHelper@V__FrameHandler3@@@@YAHPBU_s_HandlerType@@PBU_s_CatchableType@@PBU_s_ThrowInfo@@@Z 10042f37 f i libvcruntime:frame.obj
 0001:00041fc5       ??$__InternalCxxFrameHandler@V__FrameHandler3@@@@YA?AW4_EXCEPTION_DISPOSITION@@PAUEHExceptionRecord@@PAUEHRegistrationNode@@PAU_CONTEXT@@PAXPBU_s_FuncInfo@@H1E@Z 10042fc5 f i libvcruntime:frame.obj
 0001:000420c7       ??0HandlerMap@__FrameHandler3@@QAE@PBU_s_TryBlockMapEntry@@II@Z 100430c7 f i libvcruntime:frame.obj
 0001:000420de       ??0TryBlockMap@__FrameHandler3@@QAE@PBU_s_FuncInfo@@I@Z 100430de f i libvcruntime:frame.obj
 0001:000420f2       ??0bad_exception@std@@QAE@ABV01@@Z 100430f2 f i libvcruntime:frame.obj
 0001:0004210d       ??0bad_exception@std@@QAE@XZ 1004310d f i libvcruntime:frame.obj
 0001:00042125       ??0iterator@HandlerMap@__FrameHandler3@@QAE@AAV12@I@Z 10043125 f i libvcruntime:frame.obj
 0001:00042139       ??1bad_exception@std@@UAE@XZ 10043139 f i libvcruntime:frame.obj
 0001:0004214a       ??8iterator@HandlerMap@__FrameHandler3@@QBE_NABV012@@Z 1004314a f i libvcruntime:frame.obj
 0001:0004215d       ??8type_info@@QBE_NABV0@@Z 1004315d f i libvcruntime:frame.obj
 0001:0004217c       ??9iterator@HandlerMap@__FrameHandler3@@QBE_NABV012@@Z 1004317c f i libvcruntime:frame.obj
 0001:0004218f       ??Diterator@HandlerMap@__FrameHandler3@@QAE?BU_s_HandlerType@@XZ 1004318f f i libvcruntime:frame.obj
 0001:000421ae       ??Diterator@TryBlockMap@__FrameHandler3@@QAE?BU_s_TryBlockMapEntry@@XZ 100431ae f i libvcruntime:frame.obj
 0001:000421d0       ??Eiterator@HandlerMap@__FrameHandler3@@QAEAAV012@XZ 100431d0 f i libvcruntime:frame.obj
 0001:000421d6       ??Eiterator@TryBlockMap@__FrameHandler3@@QAEAAV012@XZ 100431d6 f i libvcruntime:frame.obj
 0001:000421dc       ??Miterator@TryBlockMap@__FrameHandler3@@QBE_NABV012@@Z 100431dc f i libvcruntime:frame.obj
 0001:000421ef       ??_Ebad_exception@std@@UAEPAXI@Z 100431ef f i libvcruntime:frame.obj
 0001:000421ef       ??_Gbad_exception@std@@UAEPAXI@Z 100431ef f i libvcruntime:frame.obj
 0001:0004221c       ?BuildCatchObject@__FrameHandler3@@SAXPAUEHExceptionRecord@@PAXPBU_s_HandlerType@@PBU_s_CatchableType@@@Z 1004321c f   libvcruntime:frame.obj
 0001:00042221       ?BuildCatchObjectHelper@__FrameHandler3@@SAHPAUEHExceptionRecord@@PAXPBU_s_HandlerType@@PBU_s_CatchableType@@@Z 10043221 f   libvcruntime:frame.obj
 0001:00042482       ?FrameUnwindToEmptyState@__FrameHandler3@@SAXPAUEHRegistrationNode@@PAXPBU_s_FuncInfo@@@Z 10043482 f   libvcruntime:frame.obj
 0001:0004249a       ?FrameUnwindToState@__FrameHandler3@@SAXPAUEHRegistrationNode@@PAXPBU_s_FuncInfo@@H@Z 1004349a f   libvcruntime:frame.obj
 0001:00042582       ?GetMaxState@__FrameHandler3@@SAHPAXPBU_s_FuncInfo@@@Z 10043582 f i libvcruntime:frame.obj
 0001:00042660       ?TypeMatch@__FrameHandler3@@SAHPBU_s_HandlerType@@PBU_s_CatchableType@@PBU_s_ThrowInfo@@@Z 10043660 f   libvcruntime:frame.obj
 0001:00042669       ?_CallMemberFunction1@@YGXQAX00@Z 10043669 f i libvcruntime:frame.obj
 0001:00042679       ?_CallMemberFunction2@@YGXQAX00H@Z 10043679 f i libvcruntime:frame.obj
 0001:0004268c       ?begin@HandlerMap@__FrameHandler3@@QAE?AViterator@12@XZ 1004368c f i libvcruntime:frame.obj
 0001:0004269c       ?end@HandlerMap@__FrameHandler3@@QAE?AViterator@12@XZ 1004369c f i libvcruntime:frame.obj
 0001:000426ad       ?getESTypes@__FrameHandler3@@SAPBU_s_ESTypeList@@PBU_s_FuncInfo@@@Z 100436ad f i libvcruntime:frame.obj
 0001:000426b8       ?getLastEntry@HandlerMap@__FrameHandler3@@QAEPBU_s_HandlerType@@XZ 100436b8 f i libvcruntime:frame.obj
 0001:000426c6       ?getMagicNum@__FrameHandler3@@SAIPBU_s_FuncInfo@@@Z 100436c6 f i libvcruntime:frame.obj
 0001:000426d5       ?getNumTryBlocks@TryBlockMap@__FrameHandler3@@QAEIXZ 100436d5 f i libvcruntime:frame.obj
 0001:000426db       ?isEHs@__FrameHandler3@@SA_NPBU_s_FuncInfo@@@Z 100436db f i libvcruntime:frame.obj
 0001:000426e8       ?isNoExcept@__FrameHandler3@@SA_NPBU_s_FuncInfo@@@Z 100436e8 f i libvcruntime:frame.obj
 0001:000426f8       ___BuildCatchObject        100436f8 f   libvcruntime:frame.obj
 0001:000426fd       ___BuildCatchObjectHelper  100436fd f   libvcruntime:frame.obj
 0001:00042706       ___TypeMatch               10043706 f   libvcruntime:frame.obj
 0001:0004270f       ___vcrt_EncodePointer      1004370f f i libvcruntime:frame.obj
 0001:00042720       __CallSettingFrame@12      10043720 f   libvcruntime:lowhelpr.obj
 0001:00042747       __NLG_Return               10043747     libvcruntime:lowhelpr.obj
 0001:00042777       ___except_validate_context_record 10043777 f   libvcruntime:jbcxrval.obj
 0001:000427a7       ___except_validate_jump_buffer 100437a7 f   libvcruntime:jbcxrval.obj
 0001:000427d4       ___except_validate_jump_buffer_common 100437d4 f i libvcruntime:jbcxrval.obj
 0001:00042810       __local_unwind4            10043810 f   libvcruntime:exsup4.obj
 0001:00042900       __seh_longjmp_unwind4@4    10043900 f   libvcruntime:exsup4.obj
 0001:00042930       @_EH4_CallFilterFunc@8     10043930 f   libvcruntime:exsup4.obj
 0001:00042950       @_EH4_TransferToHandler@8  10043950 f   libvcruntime:exsup4.obj
 0001:00042970       @_EH4_GlobalUnwind2@8      10043970 f   libvcruntime:exsup4.obj
 0001:00042990       @_EH4_LocalUnwind@16       10043990 f   libvcruntime:exsup4.obj
 0001:000429a7       ??$?0$00@DName@@QAE@PBDU?$StringLifeSelector@$00@@@Z 100439a7 f i libvcruntime:undname.obj
 0001:000429da       ??$?0$00@pcharNode@@QAE@PBDHU?$StringLifeSelector@$00@@@Z 100439da f i libvcruntime:undname.obj
 0001:000429f5       ??$?0$01@DName@@QAE@PBDU?$StringLifeSelector@$01@@@Z 100439f5 f i libvcruntime:undname.obj
 0001:00042a28       ??$?0$01@pcharNode@@QAE@PBDHU?$StringLifeSelector@$01@@@Z 10043a28 f i libvcruntime:undname.obj
 0001:00042a68       ??$?0$0A@@DName@@QAE@PBDU?$StringLifeSelector@$0A@@@@Z 10043a68 f i libvcruntime:undname.obj
 0001:00042a9b       ??$?0$0A@@pcharNode@@QAE@PBDHU?$StringLifeSelector@$0A@@@@Z 10043a9b f i libvcruntime:undname.obj
 0001:00042adb       ??$?0_K$0A@@?$optional@_K@std@@QAE@$$QA_K@Z 10043adb f i libvcruntime:undname.obj
 0001:00042af5       ??$?0_K@?$_Optional_construct_base@_K@std@@QAE@Uin_place_t@1@$$QA_K@Z 10043af5 f i libvcruntime:undname.obj
 0001:00042b0f       ??$?0_K@?$_Optional_destruct_base@_K$00@std@@QAE@Uin_place_t@1@$$QA_K@Z 10043b0f f i libvcruntime:undname.obj
 0001:00042b29       ??$append@VDNameNode@@@DName@@AAEXPBVDNameNode@@@Z 10043b29 f i libvcruntime:undname.obj
 0001:00042b6a       ??$append@VDNameStatusNode@@@DName@@AAEXPBVDNameStatusNode@@@Z 10043b6a f i libvcruntime:undname.obj
 0001:00042bab       ??$append@VcharNode@@@DName@@AAEXPBVcharNode@@@Z 10043bab f i libvcruntime:undname.obj
 0001:00042bec       ??$append@VpDNameNode@@@DName@@AAEXPBVpDNameNode@@@Z 10043bec f i libvcruntime:undname.obj
 0001:00042c2d       ??$append@VpcharNode@@@DName@@AAEXPBVpcharNode@@@Z 10043c2d f i libvcruntime:undname.obj
 0001:00042c6e       ??$doPchar@$00@DName@@AAEXPBDH@Z 10043c6e f i libvcruntime:undname.obj
 0001:00042cd9       ??$doPchar@$01@DName@@AAEXPBDH@Z 10043cd9 f i libvcruntime:undname.obj
 0001:00042d4a       ??$doPchar@$0A@@DName@@AAEXPBDH@Z 10043d4a f i libvcruntime:undname.obj
 0001:00042dbb       ??$forward@_K@std@@YA$$QA_KAA_K@Z 10043dbb f i libvcruntime:undname.obj
 0001:00042e7f       ??$size@D$04@std@@YAIAAY04$$CBD@Z 10043e7f f i libvcruntime:undname.obj
 0001:00042e83       ??0?$_Optional_construct_base@_K@std@@QAE@XZ 10043e83 f i libvcruntime:undname.obj
 0001:00042e8a       ??0?$_Optional_destruct_base@_K$00@std@@QAE@XZ 10043e8a f i libvcruntime:undname.obj
 0001:00042e91       ??0?$optional@_K@std@@QAE@XZ 10043e91 f i libvcruntime:undname.obj
 0001:00042e98       ??0Block@_HeapManager@@QAE@XZ 10043e98 f i libvcruntime:undname.obj
 0001:00042e9e       ??0DName@@QAE@AAPBDD@Z     10043e9e f   libvcruntime:undname.obj
 0001:00042f1e       ??0DName@@QAE@ABUStringLiteral@@@Z 10043f1e f   libvcruntime:undname.obj
 0001:00042f45       ??0DName@@QAE@ABV0@@Z      10043f45 f i libvcruntime:undname.obj
 0001:00042f5b       ??0DName@@QAE@D@Z          10043f5b f   libvcruntime:undname.obj
 0001:00042f77       ??0DName@@QAE@PAV0@@Z      10043f77 f   libvcruntime:undname.obj
 0001:00042fc0       ??0DName@@QAE@W4DNameStatus@@@Z 10043fc0 f   libvcruntime:undname.obj
 0001:00043000       ??0DName@@QAE@XZ           10044000 f i libvcruntime:undname.obj
 0001:0004300a       ??0DName@@QAE@_J@Z         1004400a f   libvcruntime:undname.obj
 0001:0004309d       ??0DName@@QAE@_K@Z         1004409d f   libvcruntime:undname.obj
 0001:0004310f       ??0DNameNode@@IAE@XZ       1004410f f i libvcruntime:undname.obj
 0001:00043118       ??0Replicator@@QAE@XZ      10044118 f i libvcruntime:undname.obj
 0001:00043127       ??0UnDecorator@@QAE@PBDP6APADJ@ZK@Z 10044127 f i libvcruntime:undname.obj
 0001:00043173       ??0_Nontrivial_dummy_type@std@@QAE@XZ 10044173 f i libvcruntime:undname.obj
 0001:00043176       ??0charNode@@QAE@D@Z       10044176 f i libvcruntime:undname.obj
 0001:0004318b       ??0pDNameNode@@QAE@PAVDName@@@Z 1004418b f   libvcruntime:undname.obj
 0001:000431b3       ??0pairNode@@QAE@PBVDNameNode@@0@Z 100441b3 f i libvcruntime:undname.obj
 0001:000431d9       ??2@YAPAXIAAV_HeapManager@@H@Z 100441d9 f   libvcruntime:undname.obj
 0001:000431f8       ??4DName@@QAEAAV0@ABUStringLiteral@@@Z 100441f8 f   libvcruntime:undname.obj
 0001:00043219       ??4DName@@QAEAAV0@ABV0@@Z  10044219 f   libvcruntime:undname.obj
 0001:0004322f       ??4DName@@QAEAAV0@D@Z      1004422f f i libvcruntime:undname.obj
 0001:0004324b       ??4DName@@QAEAAV0@PAV0@@Z  1004424b f   libvcruntime:undname.obj
 0001:0004328e       ??4DName@@QAEAAV0@W4DNameStatus@@@Z 1004428e f   libvcruntime:undname.obj
 0001:000432c0       ??AReplicator@@QBE?AVDName@@H@Z 100442c0 f   libvcruntime:undname.obj
 0001:000432fc       ??B?$optional@_K@std@@QBE_NXZ 100442fc f i libvcruntime:undname.obj
 0001:00043300       ??D?$_Optional_construct_base@_K@std@@QGAEAA_KXZ 10044300 f i libvcruntime:undname.obj
 0001:00043303       ??H@YA?AVDName@@ABUStringLiteral@@ABV0@@Z 10044303 f i libvcruntime:undname.obj
 0001:00043325       ??H@YA?AVDName@@DABV0@@Z   10044325 f i libvcruntime:undname.obj
 0001:00043350       ??H@YA?AVDName@@W4DNameStatus@@ABV0@@Z 10044350 f i libvcruntime:undname.obj
 0001:00043372       ??HDName@@QBE?AV0@ABUStringLiteral@@@Z 10044372 f   libvcruntime:undname.obj
 0001:00043394       ??HDName@@QBE?AV0@ABV0@@Z  10044394 f   libvcruntime:undname.obj
 0001:000433b6       ??HDName@@QBE?AV0@D@Z      100443b6 f   libvcruntime:undname.obj
 0001:000433d8       ??HDName@@QBE?AV0@PAV0@@Z  100443d8 f   libvcruntime:undname.obj
 0001:000433fa       ??HDName@@QBE?AV0@W4DNameStatus@@@Z 100443fa f   libvcruntime:undname.obj
 0001:0004341c       ??HStringLiteral@@QBE?AU0@H@Z 1004441c f i libvcruntime:undname.obj
 0001:00043436       ??YDName@@QAEAAV0@ABUStringLiteral@@@Z 10044436 f   libvcruntime:undname.obj
 0001:0004348e       ??YDName@@QAEAAV0@ABV0@@Z  1004448e f   libvcruntime:undname.obj
 0001:000434e5       ??YDName@@QAEAAV0@D@Z      100444e5 f   libvcruntime:undname.obj
 0001:0004353a       ??YDName@@QAEAAV0@PAV0@@Z  1004453a f   libvcruntime:undname.obj
 0001:0004359e       ??YDName@@QAEAAV0@W4DNameStatus@@@Z 1004459e f   libvcruntime:undname.obj
 0001:000435de       ??YReplicator@@QAEAAV0@ABVDName@@@Z 100445de f   libvcruntime:undname.obj
 0001:0004361e       ??_5DName@@QAEAAV0@ABV0@@Z 1004461e f   libvcruntime:undname.obj
 0001:0004363a       ??__K_l@@YA?AUStringLiteral@@PBDI@Z 1004463a f i libvcruntime:undname.obj
 0001:00043645       ?Constructor@_HeapManager@@QAEXP6APAXI@ZP6AXPAX@Z@Z 10044645 f i libvcruntime:undname.obj
 0001:00043662       ?Destructor@_HeapManager@@QAEXXZ 10044662 f i libvcruntime:undname.obj
 0001:000436a6       ?UScore@UnDecorator@@SA?AUStringLiteral@@W4Tokens@@@Z 100446a6 f   libvcruntime:undname.obj
 0001:000436cd       ?composeDeclaration@UnDecorator@@CA?AVDName@@ABV2@@Z 100446cd f i libvcruntime:undname.obj
 0001:000443c5       ?doAccessSpecifiers@UnDecorator@@SAHXZ 100453c5 f i libvcruntime:undname.obj
 0001:000443d3       ?doAllocationLanguage@UnDecorator@@SAHXZ 100453d3 f i libvcruntime:undname.obj
 0001:000443e1       ?doAllocationModel@UnDecorator@@SAHXZ 100453e1 f i libvcruntime:undname.obj
 0001:000443ef       ?doEcsu@UnDecorator@@SAHXZ 100453ef f i libvcruntime:undname.obj
 0001:000443fd       ?doEllipsis@UnDecorator@@SAHXZ 100453fd f i libvcruntime:undname.obj
 0001:0004440b       ?doFunctionReturns@UnDecorator@@SAHXZ 1004540b f i libvcruntime:undname.obj
 0001:00044419       ?doMSKeywords@UnDecorator@@SAHXZ 10045419 f i libvcruntime:undname.obj
 0001:00044426       ?doMemberTypes@UnDecorator@@SAHXZ 10045426 f i libvcruntime:undname.obj
 0001:00044434       ?doNameOnly@UnDecorator@@SAHXZ 10045434 f i libvcruntime:undname.obj
 0001:0004443f       ?doNoIdentCharCheck@UnDecorator@@SAHXZ 1004543f f i libvcruntime:undname.obj
 0001:0004444a       ?doPchar@DName@@AAEXD@Z    1004544a f   libvcruntime:undname.obj
 0001:00044482       ?doPtr64@UnDecorator@@SAHXZ 10045482 f i libvcruntime:undname.obj
 0001:00044490       ?doRestrictionSpec@UnDecorator@@SAHXZ 10045490 f i libvcruntime:undname.obj
 0001:0004449e       ?doThisTypes@UnDecorator@@SAHXZ 1004549e f i libvcruntime:undname.obj
 0001:000444b0       ?doThrowTypes@UnDecorator@@SAHXZ 100454b0 f i libvcruntime:undname.obj
 0001:000444be       ?doTypeOnly@UnDecorator@@SAHXZ 100454be f i libvcruntime:undname.obj
 0001:000444c9       ?doUnderScore@UnDecorator@@SAHXZ 100454c9 f i libvcruntime:undname.obj
 0001:000444d4       ?getAddressOf@UnDecorator@@CA?AVDName@@XZ 100454d4 f   libvcruntime:undname.obj
 0001:0004453c       ?getArgumentList@UnDecorator@@CA?AVDName@@XZ 1004553c f   libvcruntime:undname.obj
 0001:000446a6       ?getArgumentTypes@UnDecorator@@CA?AVDName@@XZ 100456a6 f   libvcruntime:undname.obj
 0001:000447ae       ?getArrayAccess@UnDecorator@@CA?AVDName@@XZ 100457ae f   libvcruntime:undname.obj
 0001:00044822       ?getArrayObject@UnDecorator@@CA?AVDName@@XZ 10045822 f   libvcruntime:undname.obj
 0001:000448ad       ?getArrayType@UnDecorator@@CA?AVDName@@ABV2@@Z 100458ad f i libvcruntime:undname.obj
 0001:00044a4a       ?getBasedType@UnDecorator@@CA?AVDName@@XZ 10045a4a f   libvcruntime:undname.obj
 0001:00044b00       ?getBasicDataType@UnDecorator@@CA?AVDName@@ABV2@@Z 10045b00 f   libvcruntime:undname.obj
 0001:00045068       ?getCHPEName@UnDecorator@@QAEPADPADH@Z 10046068 f i libvcruntime:undname.obj
 0001:00045145       ?getCallIndex@UnDecorator@@CA?AVDName@@XZ 10046145 f i libvcruntime:undname.obj
 0001:00045159       ?getCallingConvention@UnDecorator@@CA?AVDName@@XZ 10046159 f   libvcruntime:undname.obj
 0001:0004522e       ?getDataIndirectType@UnDecorator@@CA?AVDName@@ABV2@W4IndirectionKind@@0H@Z 1004622e f   libvcruntime:undname.obj
 0001:000459cb       ?getDataIndirectType@UnDecorator@@CA?AVDName@@XZ 100469cb f i libvcruntime:undname.obj
 0001:000459f9       ?getDataType@UnDecorator@@CA?AVDName@@PAV2@@Z 100469f9 f   libvcruntime:undname.obj
 0001:00045ad0       ?getDecoratedName@UnDecorator@@CA?AVDName@@XZ 10046ad0 f   libvcruntime:undname.obj
 0001:00045d24       ?getDimension@UnDecorator@@CA?AVDName@@_N@Z 10046d24 f   libvcruntime:undname.obj
 0001:00045e32       ?getDispatchTarget@UnDecorator@@CA?AVDName@@XZ 10046e32 f   libvcruntime:undname.obj
 0001:00045e85       ?getDisplacement@UnDecorator@@CA?AVDName@@XZ 10046e85 f i libvcruntime:undname.obj
 0001:00045e99       ?getECSUDataType@UnDecorator@@CA?AVDName@@XZ 10046e99 f   libvcruntime:undname.obj
 0001:0004602b       ?getECSUName@UnDecorator@@CA?AVDName@@XZ 1004702b f i libvcruntime:undname.obj
 0001:0004603c       ?getEnumType@UnDecorator@@CA?AVDName@@XZ 1004703c f i libvcruntime:undname.obj
 0001:00046150       ?getExtendedDataIndirectType@UnDecorator@@CA?AVDName@@AAW4IndirectionKind@@AA_NH@Z 10047150 f   libvcruntime:undname.obj
 0001:000462fb       ?getExternalDataType@UnDecorator@@CA?AVDName@@ABV2@@Z 100472fb f i libvcruntime:undname.obj
 0001:00046360       ?getFloatingPoint@UnDecorator@@CA?AVDName@@H@Z 10047360 f   libvcruntime:undname.obj
 0001:0004641e       ?getFunctionIndirectType@UnDecorator@@CA?AVDName@@ABV2@@Z 1004741e f   libvcruntime:undname.obj
 0001:000467c8       ?getGuardNumber@UnDecorator@@CA?AVDName@@XZ 100477c8 f i libvcruntime:undname.obj
 0001:000467dc       ?getLastChar@DName@@QBEDXZ 100477dc f i libvcruntime:undname.obj
 0001:000467fc       ?getLastChar@DNameStatusNode@@UBEDXZ 100477fc f i libvcruntime:undname.obj
 0001:00046808       ?getLastChar@charNode@@UBEDXZ 10047808 f i libvcruntime:undname.obj
 0001:0004680c       ?getLastChar@pDNameNode@@UBEDXZ 1004780c f i libvcruntime:undname.obj
 0001:0004681a       ?getLastChar@pairNode@@UBEDXZ 1004781a f i libvcruntime:undname.obj
 0001:0004684f       ?getLastChar@pcharNode@@UBEDXZ 1004784f f i libvcruntime:undname.obj
 0001:00046861       ?getLexicalFrame@UnDecorator@@CA?AVDName@@XZ 10047861 f i libvcruntime:undname.obj
 0001:00046892       ?getMemberAccess@UnDecorator@@CA?AVDName@@XZ 10047892 f   libvcruntime:undname.obj
 0001:00046902       ?getMemoryWithBuffer@_HeapManager@@QAEPAXI@Z 10047902 f   libvcruntime:undname.obj
 0001:0004696c       ?getMemoryWithoutBuffer@_HeapManager@@QAEPAXI@Z 1004796c f   libvcruntime:undname.obj
 0001:0004698c       ?getNoexcept@UnDecorator@@CA?AVDName@@XZ 1004798c f   libvcruntime:undname.obj
 0001:000469e0       ?getNumberOfDimensions@UnDecorator@@CAHXZ 100479e0 f   libvcruntime:undname.obj
 0001:00046a42       ?getOperatorName@UnDecorator@@CA?AVDName@@_NPA_N@Z 10047a42 f i libvcruntime:undname.obj
 0001:00047358       ?getPointerToMember@UnDecorator@@CA?AVDName@@XZ 10048358 f   libvcruntime:undname.obj
 0001:00047414       ?getPointerType@UnDecorator@@CA?AVDName@@ABV2@0@Z 10048414 f i libvcruntime:undname.obj
 0001:0004742f       ?getPointerTypeArray@UnDecorator@@CA?AVDName@@ABV2@0@Z 1004842f f i libvcruntime:undname.obj
 0001:0004744a       ?getPrimaryDataType@UnDecorator@@CA?AVDName@@ABV2@@Z 1004844a f   libvcruntime:undname.obj
 0001:00047698       ?getPtrRefDataType@UnDecorator@@CA?AVDName@@ABV2@H@Z 10048698 f   libvcruntime:undname.obj
 0001:00047805       ?getPtrRefType@UnDecorator@@CA?AVDName@@ABV2@0W4IndirectionKind@@@Z 10048805 f   libvcruntime:undname.obj
 0001:00047916       ?getReferenceType@UnDecorator@@CA?AVDName@@ABV2@0W4IndirectionKind@@@Z 10048916 f i libvcruntime:undname.obj
 0001:00047932       ?getRestrictionSpec@UnDecorator@@CA?AVDName@@XZ 10048932 f   libvcruntime:undname.obj
 0001:00047a57       ?getReturnType@UnDecorator@@CA?AVDName@@PAV2@@Z 10048a57 f   libvcruntime:undname.obj
 0001:00047a86       ?getScope@UnDecorator@@CA?AVDName@@XZ 10048a86 f   libvcruntime:undname.obj
 0001:00047e44       ?getScopedName@UnDecorator@@CA?AVDName@@XZ 10048e44 f   libvcruntime:undname.obj
 0001:00047f37       ?getSignedDimension@UnDecorator@@CA?AVDName@@XZ 10048f37 f   libvcruntime:undname.obj
 0001:00047f88       ?getStorageConvention@UnDecorator@@CA?AVDName@@XZ 10048f88 f i libvcruntime:undname.obj
 0001:00047f99       ?getString@DName@@QBEPADPAD0@Z 10048f99 f i libvcruntime:undname.obj
 0001:00047fc6       ?getString@DName@@QBEPADPADH@Z 10048fc6 f i libvcruntime:undname.obj
 0001:0004801b       ?getString@DNameStatusNode@@UBEPADPAD0@Z 1004901b f i libvcruntime:undname.obj
 0001:00048062       ?getString@charNode@@UBEPADPAD0@Z 10049062 f i libvcruntime:undname.obj
 0001:00048077       ?getString@pDNameNode@@UBEPADPAD0@Z 10049077 f i libvcruntime:undname.obj
 0001:0004808e       ?getString@pairNode@@UBEPADPAD0@Z 1004908e f i libvcruntime:undname.obj
 0001:000480d4       ?getString@pcharNode@@UBEPADPAD0@Z 100490d4 f i libvcruntime:undname.obj
 0001:000480ef       ?getStringEncoding@UnDecorator@@CA?AVDName@@W4PrefixKind@@H@Z 100490ef f   libvcruntime:undname.obj
 0001:0004818c       ?getStringHelper@@YAPADPADPBD1H@Z 1004918c f i libvcruntime:undname.obj
 0001:000481b6       ?getStringObject@UnDecorator@@CA?AVDName@@XZ 100491b6 f   libvcruntime:undname.obj
 0001:00048201       ?getSymbolName@UnDecorator@@CA?AVDName@@XZ 10049201 f i libvcruntime:undname.obj
 0001:00048249       ?getTemplateArgumentList@UnDecorator@@CA?AVDName@@XZ 10049249 f   libvcruntime:undname.obj
 0001:000483f9       ?getTemplateName@UnDecorator@@CA?AVDName@@_N@Z 100493f9 f   libvcruntime:undname.obj
 0001:00048559       ?getTemplateNonTypeArgument@UnDecorator@@CA?AVDName@@XZ 10049559 f   libvcruntime:undname.obj
 0001:00048931       ?getTemplateTypeArgument@UnDecorator@@CA?AVDName@@XZ 10049931 f   libvcruntime:undname.obj
 0001:00048a42       ?getThisType@UnDecorator@@CA?AVDName@@XZ 10049a42 f i libvcruntime:undname.obj
 0001:00048a71       ?getThrowTypes@UnDecorator@@CA?AVDName@@XZ 10049a71 f   libvcruntime:undname.obj
 0001:00048a94       ?getTypeEncoding@UnDecorator@@CAHXZ 10049a94 f i libvcruntime:undname.obj
 0001:00048dcc       ?getUndecoratedName@UnDecorator@@QAEPADPADH@Z 10049dcc f i libvcruntime:undname.obj
 0001:00048eeb       ?getUnionObject@UnDecorator@@CA?AVDName@@XZ 10049eeb f   libvcruntime:undname.obj
 0001:00048f92       ?getVCallThunkType@UnDecorator@@CA?AVDName@@XZ 10049f92 f i libvcruntime:undname.obj
 0001:00048fdc       ?getValue@UnDecorator@@CA?AV?$optional@_K@std@@XZ 10049fdc f   libvcruntime:undname.obj
 0001:00049064       ?getValueObject@UnDecorator@@CA?AVDName@@XZ 1004a064 f   libvcruntime:undname.obj
 0001:0004915e       ?getVbTableType@UnDecorator@@CA?AVDName@@ABV2@@Z 1004a15e f i libvcruntime:undname.obj
 0001:00049173       ?getVdispMapType@UnDecorator@@CA?AVDName@@ABV2@@Z 1004a173 f i libvcruntime:undname.obj
 0001:000491d4       ?getVfTableType@UnDecorator@@CA?AVDName@@ABV2@@Z 1004a1d4 f i libvcruntime:undname.obj
 0001:00049328       ?getZName@UnDecorator@@CA?AVDName@@_N0@Z 1004a328 f   libvcruntime:undname.obj
 0001:00049546       ?haveTemplateParameters@UnDecorator@@SAHXZ 1004a546 f i libvcruntime:undname.obj
 0001:00049551       ?isArray@DName@@QBEHXZ     1004a551 f i libvcruntime:undname.obj
 0001:0004955b       ?isComArray@DName@@QBEHXZ  1004a55b f i libvcruntime:undname.obj
 0001:00049565       ?isEmpty@DName@@QBEHXZ     1004a565 f i libvcruntime:undname.obj
 0001:0004956d       ?isFull@Replicator@@QBEHXZ 1004a56d f i libvcruntime:undname.obj
 0001:00049576       ?isNoTE@DName@@QBEHXZ      1004a576 f i libvcruntime:undname.obj
 0001:00049580       ?isPinPtr@DName@@QBEHXZ    1004a580 f i libvcruntime:undname.obj
 0001:0004958a       ?isPtrRef@DName@@QBEHXZ    1004a58a f i libvcruntime:undname.obj
 0001:00049594       ?isUDC@DName@@QBEHXZ       1004a594 f i libvcruntime:undname.obj
 0001:000495a5       ?isUDTThunk@DName@@QBEHXZ  1004a5a5 f i libvcruntime:undname.obj
 0001:000495b6       ?isVCallThunk@DName@@QBEHXZ 1004a5b6 f i libvcruntime:undname.obj
 0001:000495c0       ?isValid@DName@@QBEHXZ     1004a5c0 f i libvcruntime:undname.obj
 0001:000495ca       ?length@DName@@QBEHXZ      1004a5ca f i libvcruntime:undname.obj
 0001:000495e9       ?length@DNameStatusNode@@UBEHXZ 1004a5e9 f i libvcruntime:undname.obj
 0001:000495ed       ?length@charNode@@UBEHXZ   1004a5ed f i libvcruntime:undname.obj
 0001:000495f1       ?length@pDNameNode@@UBEHXZ 1004a5f1 f i libvcruntime:undname.obj
 0001:000495ff       ?length@pairNode@@UBEHXZ   1004a5ff f i libvcruntime:undname.obj
 0001:00049648       ?length@pcharNode@@UBEHXZ  1004a648 f i libvcruntime:undname.obj
 0001:0004964c       ?make@DNameStatusNode@@SAPBV1@W4DNameStatus@@@Z 1004a64c f i libvcruntime:undname.obj
 0001:00049668       ?parseDecoratedName@UnDecorator@@CA?AVDName@@XZ 1004a668 f   libvcruntime:undname.obj
 0001:00049762       ?raw_length@DNameStatusNode@@UBEHXZ 1004a762 f i libvcruntime:undname.obj
 0001:00049766       ?raw_length@charNode@@UBEHXZ 1004a766 f i libvcruntime:undname.obj
 0001:0004976a       ?raw_length@pDNameNode@@UBEHXZ 1004a76a f i libvcruntime:undname.obj
 0001:0004976e       ?raw_length@pairNode@@UBEHXZ 1004a76e f i libvcruntime:undname.obj
 0001:00049772       ?raw_length@pcharNode@@UBEHXZ 1004a772 f i libvcruntime:undname.obj
 0001:00049776       ?setIsArray@DName@@QAEXXZ  1004a776 f i libvcruntime:undname.obj
 0001:0004977e       ?setIsComArray@DName@@QAEXXZ 1004a77e f i libvcruntime:undname.obj
 0001:00049786       ?setIsNoTE@DName@@QAEXXZ   1004a786 f i libvcruntime:undname.obj
 0001:0004978e       ?setIsPinPtr@DName@@QAEXXZ 1004a78e f i libvcruntime:undname.obj
 0001:00049796       ?setIsUDC@DName@@QAEXXZ    1004a796 f i libvcruntime:undname.obj
 0001:000497a3       ?setIsVCallThunk@DName@@QAEXXZ 1004a7a3 f i libvcruntime:undname.obj
 0001:000497ab       ?setPtrRef@DName@@QAEAAV1@XZ 1004a7ab f i libvcruntime:undname.obj
 0001:000497b5       ?status@DName@@QBE?AW4DNameStatus@@XZ 1004a7b5 f i libvcruntime:undname.obj
 0001:00049821       ___unDName                 1004a821 f   libvcruntime:undname.obj
 0001:00049844       ___unDNameEx               1004a844 f   libvcruntime:undname.obj
 0001:000498e3       _snprintf                  1004a8e3 f i libvcruntime:undname.obj
 0001:000498fd       _unDNameGenerateCHPE       1004a8fd f   libvcruntime:undname.obj
 0001:0004999a       _vsnprintf                 1004a99a f i libvcruntime:undname.obj
 0001:000499ca       ___vcrt_initialize_locks   1004a9ca f   libvcruntime:locks.obj
 0001:00049a06       ___vcrt_lock               1004aa06 f   libvcruntime:locks.obj
 0001:00049a1b       ___vcrt_uninitialize_locks 1004aa1b f   libvcruntime:locks.obj
 0001:00049a4a       ___vcrt_unlock             1004aa4a f   libvcruntime:locks.obj
 0001:00049a5f       ??$__crt_interlocked_exchange_pointer@UHINSTANCE__@@PAU1@@@YAPAUHINSTANCE__@@PDSAU0@QAU0@@Z 1004aa5f f i libvcruntime:winapi_downlevel.obj
 0001:00049a6c       ??$__crt_interlocked_exchange_pointer@UHINSTANCE__@@PAX@@YAPAUHINSTANCE__@@PDSAU0@QAX@Z 1004aa6c f i libvcruntime:winapi_downlevel.obj
 0001:00049a79       ??$__crt_interlocked_exchange_pointer@XPAX@@YAPAXPDSAXQAX@Z 1004aa79 f i libvcruntime:winapi_downlevel.obj
 0001:00049a86       ??$__crt_interlocked_read_pointer@UHINSTANCE__@@@@YAPAUHINSTANCE__@@PDSAU0@@Z 1004aa86 f i libvcruntime:winapi_downlevel.obj
 0001:00049a91       ??$__crt_interlocked_read_pointer@X@@YAPAXPDSAX@Z 1004aa91 f i libvcruntime:winapi_downlevel.obj
 0001:00049d1d       ___vcrt_FlsAlloc           1004ad1d f   libvcruntime:winapi_downlevel.obj
 0001:00049d58       ___vcrt_FlsFree            1004ad58 f   libvcruntime:winapi_downlevel.obj
 0001:00049d93       ___vcrt_FlsGetValue        1004ad93 f   libvcruntime:winapi_downlevel.obj
 0001:00049dce       ___vcrt_FlsSetValue        1004adce f   libvcruntime:winapi_downlevel.obj
 0001:00049e0c       ___vcrt_InitializeCriticalSectionEx 1004ae0c f   libvcruntime:winapi_downlevel.obj
 0001:00049e67       __get_unexpected           1004ae67 f   libvcruntime:unexpected.obj
 0001:00049e79       _set_unexpected            1004ae79 f   libvcruntime:unexpected.obj
 0001:00049e97       _unexpected                1004ae97 f   libvcruntime:unexpected.obj
 0001:00049eb4       ?GetCurrentState@__FrameHandler3@@SAHPAUEHRegistrationNode@@PAXPBU_s_FuncInfo@@@Z 1004aeb4 f   libvcruntime:ehstate.obj
 0001:00049ed1       ?SetState@__FrameHandler3@@SAXPAUEHRegistrationNode@@PBU_s_FuncInfo@@H@Z 1004aed1 f   libvcruntime:ehstate.obj
 0001:00049ee0       __global_unwind2           1004aee0 f   libvcruntime:exsup.obj
 0001:00049f60       __local_unwind2            1004af60 f   libvcruntime:exsup.obj
 0001:0004a000       __abnormal_termination     1004b000 f   libvcruntime:exsup.obj
 0001:0004a030       __NLG_Notify1              1004b030 f   libvcruntime:exsup.obj
 0001:0004a040       __NLG_Notify               1004b040 f   libvcruntime:exsup.obj
 0001:0004a057       __NLG_Dispatch             1004b057     libvcruntime:exsup.obj
 0001:0004a057       __NLG_Dispatch2            1004b057     libvcruntime:exsup.obj
 0001:0004a060       __NLG_Call                 1004b060 f   libvcruntime:exsup.obj
 0001:0004a062       __NLG_Return2              1004b062     libvcruntime:exsup.obj
 0001:0004a063       ??$__crt_interlocked_exchange_pointer@$$A6AXXZP6AXXZ@@YAP6AXXZPDS6AXXZQ6AXXZ@Z 1004b063 f i libvcruntime:purevirt.obj
 0001:0004a070       ??$__crt_interlocked_read_pointer@$$A6AXXZ@@YAP6AXXZPDS6AXXZ@Z 1004b070 f i libvcruntime:purevirt.obj
 0001:0004a07b       __get_purecall_handler     1004b07b f   libvcruntime:purevirt.obj
 0001:0004a082       __purecall                 1004b082 f   libvcruntime:purevirt.obj
 0001:0004a09e       __set_purecall_handler     1004b09e f   libvcruntime:purevirt.obj
 0001:0004a0ad       _malloc                    1004b0ad f   libucrt:malloc.obj
 0001:0004a0b8       _labs                      1004b0b8 f   libucrt:labs.obj
 0001:0004a0c7       ??$__crt_fast_decode_pointer@P6AXPB_W00II@Z@@YAP6AXPB_W00II@ZQ6AX000II@Z@Z 1004b0c7 f i libucrt:invalid_parameter.obj
 0001:0004a0dd       ??$__crt_fast_encode_pointer@P6AXPB_W00II@Z@@YAP6AXPB_W00II@ZQ6AX000II@Z@Z 1004b0dd f i libucrt:invalid_parameter.obj
 0001:0004a0fc       ??$initialize_from_array@$$BY00Q6AXPB_W00II@Z@?$dual_state_global@P6AXPB_W00II@Z@__crt_state_management@@QAAXAAY00Q6AXPB_W00II@Z@Z 1004b0fc f i libucrt:invalid_parameter.obj
 0001:0004a10d       ?__crt_rotate_pointer_value@@YAIIH@Z 1004b10d f i libucrt:invalid_parameter.obj
 0001:0004a11c       ?dangerous_get_state_array@?$dual_state_global@P6AXPB_W00II@Z@__crt_state_management@@QAEPAP6AXPB_W00II@ZXZ 1004b11c f i libucrt:invalid_parameter.obj
 0001:0004a11f       ?get_current_state_index@__crt_state_management@@YAIXZ 1004b11f f i libucrt:invalid_parameter.obj
 0001:0004a122       ?value@?$dual_state_global@P6AXPB_W00II@Z@__crt_state_management@@QAEAAP6AXPB_W00II@ZXZ 1004b122 f i libucrt:invalid_parameter.obj
 0001:0004a125       ___acrt_call_reportfault   1004b125 f   libucrt:invalid_parameter.obj
 0001:0004a25e       ___acrt_initialize_invalid_parameter_handler 1004b25e f   libucrt:invalid_parameter.obj
 0001:0004a26d       __get_invalid_parameter_handler 1004b26d f   libucrt:invalid_parameter.obj
 0001:0004a280       __get_thread_local_invalid_parameter_handler 1004b280 f   libucrt:invalid_parameter.obj
 0001:0004a291       __invalid_parameter        1004b291 f   libucrt:invalid_parameter.obj
 0001:0004a2f5       __invalid_parameter_noinfo 1004b2f5 f   libucrt:invalid_parameter.obj
 0001:0004a305       __invalid_parameter_noinfo_noreturn 1004b305 f   libucrt:invalid_parameter.obj
 0001:0004a322       __invoke_watson            1004b322 f   libucrt:invalid_parameter.obj
 0001:0004a356       __set_invalid_parameter_handler 1004b356 f   libucrt:invalid_parameter.obj
 0001:0004a386       __set_thread_local_invalid_parameter_handler 1004b386 f   libucrt:invalid_parameter.obj
 0001:0004a3a3       _free                      1004b3a3 f   libucrt:free.obj
 0001:0004a3c0       _sqrt                      1004b3c0 f   libucrt:sqrt.obj
 0001:0004a3ce       ??$?0ABV?$stream_output_adapter@D@__crt_stdio_output@@AB_KABQBDABQAU__crt_locale_pointers@@ABQAD@?$format_validation_base@DV?$stream_output_adapter@D@__crt_stdio_output@@@__crt_stdio_output@@IAE@ABV?$stream_output_adapter@D@1@AB_KABQBDABQAU__crt_locale_pointers@@ABQAD@Z 1004b3ce f i libucrt:output.obj
 0001:0004a3f1       ??$?0ABV?$stream_output_adapter@D@__crt_stdio_output@@AB_KABQBDABQAU__crt_locale_pointers@@ABQAD@?$positional_parameter_base@DV?$stream_output_adapter@D@__crt_stdio_output@@@__crt_stdio_output@@IAE@ABV?$stream_output_adapter@D@1@AB_KABQBDABQAU__crt_locale_pointers@@ABQAD@Z 1004b3f1 f i libucrt:output.obj
 0001:0004a439       ??$?0ABV?$stream_output_adapter@D@__crt_stdio_output@@AB_KABQBDABQAU__crt_locale_pointers@@ABQAD@?$standard_base@DV?$stream_output_adapter@D@__crt_stdio_output@@@__crt_stdio_output@@IAE@ABV?$stream_output_adapter@D@1@AB_KABQBDABQAU__crt_locale_pointers@@ABQAD@Z 1004b439 f i libucrt:output.obj
 0001:0004a46e       ??$?0ABV?$stream_output_adapter@_W@__crt_stdio_output@@AB_KABQB_WABQAU__crt_locale_pointers@@ABQAD@?$format_validation_base@_WV?$stream_output_adapter@_W@__crt_stdio_output@@@__crt_stdio_output@@IAE@ABV?$stream_output_adapter@_W@1@AB_KABQB_WABQAU__crt_locale_pointers@@ABQAD@Z 1004b46e f i libucrt:output.obj
 0001:0004a491       ??$?0ABV?$stream_output_adapter@_W@__crt_stdio_output@@AB_KABQB_WABQAU__crt_locale_pointers@@ABQAD@?$positional_parameter_base@_WV?$stream_output_adapter@_W@__crt_stdio_output@@@__crt_stdio_output@@IAE@ABV?$stream_output_adapter@_W@1@AB_KABQB_WABQAU__crt_locale_pointers@@ABQAD@Z 1004b491 f i libucrt:output.obj
 0001:0004a4d9       ??$?0ABV?$stream_output_adapter@_W@__crt_stdio_output@@AB_KABQB_WABQAU__crt_locale_pointers@@ABQAD@?$standard_base@_WV?$stream_output_adapter@_W@__crt_stdio_output@@@__crt_stdio_output@@IAE@ABV?$stream_output_adapter@_W@1@AB_KABQB_WABQAU__crt_locale_pointers@@ABQAD@Z 1004b4d9 f i libucrt:output.obj
 0001:0004a50e       ??$?0ABV?$string_output_adapter@D@__crt_stdio_output@@AB_KABQBDABQAU__crt_locale_pointers@@ABQAD@?$format_validation_base@DV?$string_output_adapter@D@__crt_stdio_output@@@__crt_stdio_output@@IAE@ABV?$string_output_adapter@D@1@AB_KABQBDABQAU__crt_locale_pointers@@ABQAD@Z 1004b50e f i libucrt:output.obj
 0001:0004a531       ??$?0ABV?$string_output_adapter@D@__crt_stdio_output@@AB_KABQBDABQAU__crt_locale_pointers@@ABQAD@?$positional_parameter_base@DV?$string_output_adapter@D@__crt_stdio_output@@@__crt_stdio_output@@IAE@ABV?$string_output_adapter@D@1@AB_KABQBDABQAU__crt_locale_pointers@@ABQAD@Z 1004b531 f i libucrt:output.obj
 0001:0004a579       ??$?0ABV?$string_output_adapter@D@__crt_stdio_output@@AB_KABQBDABQAU__crt_locale_pointers@@ABQAD@?$standard_base@DV?$string_output_adapter@D@__crt_stdio_output@@@__crt_stdio_output@@IAE@ABV?$string_output_adapter@D@1@AB_KABQBDABQAU__crt_locale_pointers@@ABQAD@Z 1004b579 f i libucrt:output.obj
 0001:0004a5ae       ??$?0ABV?$string_output_adapter@_W@__crt_stdio_output@@AB_KABQB_WABQAU__crt_locale_pointers@@ABQAD@?$format_validation_base@_WV?$string_output_adapter@_W@__crt_stdio_output@@@__crt_stdio_output@@IAE@ABV?$string_output_adapter@_W@1@AB_KABQB_WABQAU__crt_locale_pointers@@ABQAD@Z 1004b5ae f i libucrt:output.obj
 0001:0004a5d1       ??$?0ABV?$string_output_adapter@_W@__crt_stdio_output@@AB_KABQB_WABQAU__crt_locale_pointers@@ABQAD@?$positional_parameter_base@_WV?$string_output_adapter@_W@__crt_stdio_output@@@__crt_stdio_output@@IAE@ABV?$string_output_adapter@_W@1@AB_KABQB_WABQAU__crt_locale_pointers@@ABQAD@Z 1004b5d1 f i libucrt:output.obj
 0001:0004a619       ??$?0ABV?$string_output_adapter@_W@__crt_stdio_output@@AB_KABQB_WABQAU__crt_locale_pointers@@ABQAD@?$standard_base@_WV?$string_output_adapter@_W@__crt_stdio_output@@@__crt_stdio_output@@IAE@ABV?$string_output_adapter@_W@1@AB_KABQB_WABQAU__crt_locale_pointers@@ABQAD@Z 1004b619 f i libucrt:output.obj
 0001:0004a954       ??$__crt_interlocked_read@J@@YAJPDJ@Z 1004b954 f i libucrt:output.obj
 0001:0004b820       ??$count@D@formatting_buffer@__crt_stdio_output@@QBEIXZ 1004c820 f i libucrt:output.obj
 0001:0004b838       ??$count@_W@formatting_buffer@__crt_stdio_output@@QBEIXZ 1004c838 f i libucrt:output.obj
 0001:0004b851       ??$data@D@formatting_buffer@__crt_stdio_output@@QAEPADXZ 1004c851 f i libucrt:output.obj
 0001:0004b85e       ??$data@_W@formatting_buffer@__crt_stdio_output@@QAEPA_WXZ 1004c85e f i libucrt:output.obj
 0001:0004b86b       ??$ensure_buffer_is_big_enough@D@formatting_buffer@__crt_stdio_output@@QAE_NI@Z 1004c86b f i libucrt:output.obj
 0001:0004b8e8       ??$ensure_buffer_is_big_enough@_W@formatting_buffer@__crt_stdio_output@@QAE_NI@Z 1004c8e8 f i libucrt:output.obj
 0001:0004b966       ??$extract_argument_from_va_list@C_J@?$positional_parameter_base@DV?$stream_output_adapter@D@__crt_stdio_output@@@__crt_stdio_output@@IAE_NAA_J@Z 1004c966 f i libucrt:output.obj
 0001:0004b9df       ??$extract_argument_from_va_list@C_J@?$positional_parameter_base@DV?$string_output_adapter@D@__crt_stdio_output@@@__crt_stdio_output@@IAE_NAA_J@Z 1004c9df f i libucrt:output.obj
 0001:0004ba58       ??$extract_argument_from_va_list@C_J@?$positional_parameter_base@_WV?$stream_output_adapter@_W@__crt_stdio_output@@@__crt_stdio_output@@IAE_NAA_J@Z 1004ca58 f i libucrt:output.obj
 0001:0004bad1       ??$extract_argument_from_va_list@C_J@?$positional_parameter_base@_WV?$string_output_adapter@_W@__crt_stdio_output@@@__crt_stdio_output@@IAE_NAA_J@Z 1004cad1 f i libucrt:output.obj
 0001:0004bb4a       ??$extract_argument_from_va_list@C_J@?$standard_base@DV?$stream_output_adapter@D@__crt_stdio_output@@@__crt_stdio_output@@IAE_NAA_J@Z 1004cb4a f i libucrt:output.obj
 0001:0004bb69       ??$extract_argument_from_va_list@C_J@?$standard_base@DV?$string_output_adapter@D@__crt_stdio_output@@@__crt_stdio_output@@IAE_NAA_J@Z 1004cb69 f i libucrt:output.obj
 0001:0004bb88       ??$extract_argument_from_va_list@C_J@?$standard_base@_WV?$stream_output_adapter@_W@__crt_stdio_output@@@__crt_stdio_output@@IAE_NAA_J@Z 1004cb88 f i libucrt:output.obj
 0001:0004bba7       ??$extract_argument_from_va_list@C_J@?$standard_base@_WV?$string_output_adapter@_W@__crt_stdio_output@@@__crt_stdio_output@@IAE_NAA_J@Z 1004cba7 f i libucrt:output.obj
 0001:0004bbc6       ??$extract_argument_from_va_list@E_J@?$positional_parameter_base@DV?$stream_output_adapter@D@__crt_stdio_output@@@__crt_stdio_output@@IAE_NAA_J@Z 1004cbc6 f i libucrt:output.obj
 0001:0004bc3f       ??$extract_argument_from_va_list@E_J@?$positional_parameter_base@DV?$string_output_adapter@D@__crt_stdio_output@@@__crt_stdio_output@@IAE_NAA_J@Z 1004cc3f f i libucrt:output.obj
 0001:0004bcb8       ??$extract_argument_from_va_list@E_J@?$positional_parameter_base@_WV?$stream_output_adapter@_W@__crt_stdio_output@@@__crt_stdio_output@@IAE_NAA_J@Z 1004ccb8 f i libucrt:output.obj
 0001:0004bd31       ??$extract_argument_from_va_list@E_J@?$positional_parameter_base@_WV?$string_output_adapter@_W@__crt_stdio_output@@@__crt_stdio_output@@IAE_NAA_J@Z 1004cd31 f i libucrt:output.obj
 0001:0004bdaa       ??$extract_argument_from_va_list@E_J@?$standard_base@DV?$stream_output_adapter@D@__crt_stdio_output@@@__crt_stdio_output@@IAE_NAA_J@Z 1004cdaa f i libucrt:output.obj
 0001:0004bdc9       ??$extract_argument_from_va_list@E_J@?$standard_base@DV?$string_output_adapter@D@__crt_stdio_output@@@__crt_stdio_output@@IAE_NAA_J@Z 1004cdc9 f i libucrt:output.obj
 0001:0004bde8       ??$extract_argument_from_va_list@E_J@?$standard_base@_WV?$stream_output_adapter@_W@__crt_stdio_output@@@__crt_stdio_output@@IAE_NAA_J@Z 1004cde8 f i libucrt:output.obj
 0001:0004be07       ??$extract_argument_from_va_list@E_J@?$standard_base@_WV?$string_output_adapter@_W@__crt_stdio_output@@@__crt_stdio_output@@IAE_NAA_J@Z 1004ce07 f i libucrt:output.obj
 0001:0004be26       ??$extract_argument_from_va_list@F_J@?$positional_parameter_base@DV?$stream_output_adapter@D@__crt_stdio_output@@@__crt_stdio_output@@IAE_NAA_J@Z 1004ce26 f i libucrt:output.obj
 0001:0004be9f       ??$extract_argument_from_va_list@F_J@?$positional_parameter_base@DV?$string_output_adapter@D@__crt_stdio_output@@@__crt_stdio_output@@IAE_NAA_J@Z 1004ce9f f i libucrt:output.obj
 0001:0004bf18       ??$extract_argument_from_va_list@F_J@?$positional_parameter_base@_WV?$stream_output_adapter@_W@__crt_stdio_output@@@__crt_stdio_output@@IAE_NAA_J@Z 1004cf18 f i libucrt:output.obj
 0001:0004bf91       ??$extract_argument_from_va_list@F_J@?$positional_parameter_base@_WV?$string_output_adapter@_W@__crt_stdio_output@@@__crt_stdio_output@@IAE_NAA_J@Z 1004cf91 f i libucrt:output.obj
 0001:0004c00a       ??$extract_argument_from_va_list@F_J@?$standard_base@DV?$stream_output_adapter@D@__crt_stdio_output@@@__crt_stdio_output@@IAE_NAA_J@Z 1004d00a f i libucrt:output.obj
 0001:0004c029       ??$extract_argument_from_va_list@F_J@?$standard_base@DV?$string_output_adapter@D@__crt_stdio_output@@@__crt_stdio_output@@IAE_NAA_J@Z 1004d029 f i libucrt:output.obj
 0001:0004c048       ??$extract_argument_from_va_list@F_J@?$standard_base@_WV?$stream_output_adapter@_W@__crt_stdio_output@@@__crt_stdio_output@@IAE_NAA_J@Z 1004d048 f i libucrt:output.obj
 0001:0004c067       ??$extract_argument_from_va_list@F_J@?$standard_base@_WV?$string_output_adapter@_W@__crt_stdio_output@@@__crt_stdio_output@@IAE_NAA_J@Z 1004d067 f i libucrt:output.obj
 0001:0004c086       ??$extract_argument_from_va_list@GD@?$positional_parameter_base@DV?$stream_output_adapter@D@__crt_stdio_output@@@__crt_stdio_output@@IAE_NAAD@Z 1004d086 f i libucrt:output.obj
 0001:0004c0fe       ??$extract_argument_from_va_list@GD@?$positional_parameter_base@DV?$string_output_adapter@D@__crt_stdio_output@@@__crt_stdio_output@@IAE_NAAD@Z 1004d0fe f i libucrt:output.obj
 0001:0004c176       ??$extract_argument_from_va_list@GD@?$standard_base@DV?$stream_output_adapter@D@__crt_stdio_output@@@__crt_stdio_output@@IAE_NAAD@Z 1004d176 f i libucrt:output.obj
 0001:0004c190       ??$extract_argument_from_va_list@GD@?$standard_base@DV?$string_output_adapter@D@__crt_stdio_output@@@__crt_stdio_output@@IAE_NAAD@Z 1004d190 f i libucrt:output.obj
 0001:0004c1aa       ??$extract_argument_from_va_list@G_J@?$positional_parameter_base@DV?$stream_output_adapter@D@__crt_stdio_output@@@__crt_stdio_output@@IAE_NAA_J@Z 1004d1aa f i libucrt:output.obj
 0001:0004c223       ??$extract_argument_from_va_list@G_J@?$positional_parameter_base@DV?$string_output_adapter@D@__crt_stdio_output@@@__crt_stdio_output@@IAE_NAA_J@Z 1004d223 f i libucrt:output.obj
 0001:0004c29c       ??$extract_argument_from_va_list@G_J@?$positional_parameter_base@_WV?$stream_output_adapter@_W@__crt_stdio_output@@@__crt_stdio_output@@IAE_NAA_J@Z 1004d29c f i libucrt:output.obj
 0001:0004c315       ??$extract_argument_from_va_list@G_J@?$positional_parameter_base@_WV?$string_output_adapter@_W@__crt_stdio_output@@@__crt_stdio_output@@IAE_NAA_J@Z 1004d315 f i libucrt:output.obj
 0001:0004c38e       ??$extract_argument_from_va_list@G_J@?$standard_base@DV?$stream_output_adapter@D@__crt_stdio_output@@@__crt_stdio_output@@IAE_NAA_J@Z 1004d38e f i libucrt:output.obj
 0001:0004c3ad       ??$extract_argument_from_va_list@G_J@?$standard_base@DV?$string_output_adapter@D@__crt_stdio_output@@@__crt_stdio_output@@IAE_NAA_J@Z 1004d3ad f i libucrt:output.obj
 0001:0004c3cc       ??$extract_argument_from_va_list@G_J@?$standard_base@_WV?$stream_output_adapter@_W@__crt_stdio_output@@@__crt_stdio_output@@IAE_NAA_J@Z 1004d3cc f i libucrt:output.obj
 0001:0004c3eb       ??$extract_argument_from_va_list@G_J@?$standard_base@_WV?$string_output_adapter@_W@__crt_stdio_output@@@__crt_stdio_output@@IAE_NAA_J@Z 1004d3eb f i libucrt:output.obj
 0001:0004c40a       ??$extract_argument_from_va_list@H_J@?$positional_parameter_base@DV?$stream_output_adapter@D@__crt_stdio_output@@@__crt_stdio_output@@IAE_NAA_J@Z 1004d40a f i libucrt:output.obj
 0001:0004c481       ??$extract_argument_from_va_list@H_J@?$positional_parameter_base@DV?$string_output_adapter@D@__crt_stdio_output@@@__crt_stdio_output@@IAE_NAA_J@Z 1004d481 f i libucrt:output.obj
 0001:0004c4f8       ??$extract_argument_from_va_list@H_J@?$positional_parameter_base@_WV?$stream_output_adapter@_W@__crt_stdio_output@@@__crt_stdio_output@@IAE_NAA_J@Z 1004d4f8 f i libucrt:output.obj
 0001:0004c56f       ??$extract_argument_from_va_list@H_J@?$positional_parameter_base@_WV?$string_output_adapter@_W@__crt_stdio_output@@@__crt_stdio_output@@IAE_NAA_J@Z 1004d56f f i libucrt:output.obj
 0001:0004c5e6       ??$extract_argument_from_va_list@H_J@?$standard_base@DV?$stream_output_adapter@D@__crt_stdio_output@@@__crt_stdio_output@@IAE_NAA_J@Z 1004d5e6 f i libucrt:output.obj
 0001:0004c604       ??$extract_argument_from_va_list@H_J@?$standard_base@DV?$string_output_adapter@D@__crt_stdio_output@@@__crt_stdio_output@@IAE_NAA_J@Z 1004d604 f i libucrt:output.obj
 0001:0004c622       ??$extract_argument_from_va_list@H_J@?$standard_base@_WV?$stream_output_adapter@_W@__crt_stdio_output@@@__crt_stdio_output@@IAE_NAA_J@Z 1004d622 f i libucrt:output.obj
 0001:0004c640       ??$extract_argument_from_va_list@H_J@?$standard_base@_WV?$string_output_adapter@_W@__crt_stdio_output@@@__crt_stdio_output@@IAE_NAA_J@Z 1004d640 f i libucrt:output.obj
 0001:0004c65e       ??$extract_argument_from_va_list@I_J@?$positional_parameter_base@DV?$stream_output_adapter@D@__crt_stdio_output@@@__crt_stdio_output@@IAE_NAA_J@Z 1004d65e f i libucrt:output.obj
 0001:0004c6de       ??$extract_argument_from_va_list@I_J@?$positional_parameter_base@DV?$string_output_adapter@D@__crt_stdio_output@@@__crt_stdio_output@@IAE_NAA_J@Z 1004d6de f i libucrt:output.obj
 0001:0004c75e       ??$extract_argument_from_va_list@I_J@?$positional_parameter_base@_WV?$stream_output_adapter@_W@__crt_stdio_output@@@__crt_stdio_output@@IAE_NAA_J@Z 1004d75e f i libucrt:output.obj
 0001:0004c7de       ??$extract_argument_from_va_list@I_J@?$positional_parameter_base@_WV?$string_output_adapter@_W@__crt_stdio_output@@@__crt_stdio_output@@IAE_NAA_J@Z 1004d7de f i libucrt:output.obj
 0001:0004c85e       ??$extract_argument_from_va_list@I_J@?$standard_base@DV?$stream_output_adapter@D@__crt_stdio_output@@@__crt_stdio_output@@IAE_NAA_J@Z 1004d85e f i libucrt:output.obj
 0001:0004c87c       ??$extract_argument_from_va_list@I_J@?$standard_base@DV?$string_output_adapter@D@__crt_stdio_output@@@__crt_stdio_output@@IAE_NAA_J@Z 1004d87c f i libucrt:output.obj
 0001:0004c89a       ??$extract_argument_from_va_list@I_J@?$standard_base@_WV?$stream_output_adapter@_W@__crt_stdio_output@@@__crt_stdio_output@@IAE_NAA_J@Z 1004d89a f i libucrt:output.obj
 0001:0004c8b8       ??$extract_argument_from_va_list@I_J@?$standard_base@_WV?$string_output_adapter@_W@__crt_stdio_output@@@__crt_stdio_output@@IAE_NAA_J@Z 1004d8b8 f i libucrt:output.obj
 0001:0004c8d6       ??$extract_argument_from_va_list@PADPAD@?$positional_parameter_base@DV?$stream_output_adapter@D@__crt_stdio_output@@@__crt_stdio_output@@IAE_NAAPAD@Z 1004d8d6 f i libucrt:output.obj
 0001:0004c94e       ??$extract_argument_from_va_list@PADPAD@?$positional_parameter_base@DV?$string_output_adapter@D@__crt_stdio_output@@@__crt_stdio_output@@IAE_NAAPAD@Z 1004d94e f i libucrt:output.obj
 0001:0004c9c6       ??$extract_argument_from_va_list@PADPAD@?$positional_parameter_base@_WV?$stream_output_adapter@_W@__crt_stdio_output@@@__crt_stdio_output@@IAE_NAAPAD@Z 1004d9c6 f i libucrt:output.obj
 0001:0004ca3e       ??$extract_argument_from_va_list@PADPAD@?$positional_parameter_base@_WV?$string_output_adapter@_W@__crt_stdio_output@@@__crt_stdio_output@@IAE_NAAPAD@Z 1004da3e f i libucrt:output.obj
 0001:0004cab6       ??$extract_argument_from_va_list@PADPAD@?$standard_base@DV?$stream_output_adapter@D@__crt_stdio_output@@@__crt_stdio_output@@IAE_NAAPAD@Z 1004dab6 f i libucrt:output.obj
 0001:0004cad0       ??$extract_argument_from_va_list@PADPAD@?$standard_base@DV?$string_output_adapter@D@__crt_stdio_output@@@__crt_stdio_output@@IAE_NAAPAD@Z 1004dad0 f i libucrt:output.obj
 0001:0004caea       ??$extract_argument_from_va_list@PADPAD@?$standard_base@_WV?$stream_output_adapter@_W@__crt_stdio_output@@@__crt_stdio_output@@IAE_NAAPAD@Z 1004daea f i libucrt:output.obj
 0001:0004cb04       ??$extract_argument_from_va_list@PADPAD@?$standard_base@_WV?$string_output_adapter@_W@__crt_stdio_output@@@__crt_stdio_output@@IAE_NAAPAD@Z 1004db04 f i libucrt:output.obj
 0001:0004cb1e       ??$extract_argument_from_va_list@PAUansi_string@?1??type_case_Z@?$output_processor@DV?$stream_output_adapter@D@__crt_stdio_output@@V?$format_validation_base@DV?$stream_output_adapter@D@__crt_stdio_output@@@2@@__crt_stdio_output@@AAE_NXZ@PAU1?1??234@AAE_NXZ@@?$standard_base@DV?$stream_output_adapter@D@__crt_stdio_output@@@__crt_stdio_output@@IAE_NAAPAUansi_string@?1??type_case_Z@?$output_processor@DV?$stream_output_adapter@D@__crt_stdio_output@@V?$format_validation_base@DV?$stream_output_adapter@D@__crt_stdio_output@@@2@@1@AAE_NXZ@@Z 1004db1e f i libucrt:output.obj
 0001:0004cb38       ??$extract_argument_from_va_list@PAUansi_string@?1??type_case_Z@?$output_processor@DV?$stream_output_adapter@D@__crt_stdio_output@@V?$positional_parameter_base@DV?$stream_output_adapter@D@__crt_stdio_output@@@2@@__crt_stdio_output@@AAE_NXZ@PAU1?1??234@AAE_NXZ@@?$positional_parameter_base@DV?$stream_output_adapter@D@__crt_stdio_output@@@__crt_stdio_output@@IAE_NAAPAUansi_string@?1??type_case_Z@?$output_processor@DV?$stream_output_adapter@D@__crt_stdio_output@@V?$positional_parameter_base@DV?$stream_output_adapter@D@__crt_stdio_output@@@2@@1@AAE_NXZ@@Z 1004db38 f i libucrt:output.obj
 0001:0004cbb0       ??$extract_argument_from_va_list@PAUansi_string@?1??type_case_Z@?$output_processor@DV?$stream_output_adapter@D@__crt_stdio_output@@V?$positional_parameter_base@DV?$stream_output_adapter@D@__crt_stdio_output@@@2@@__crt_stdio_output@@AAE_NXZ@PAU1?1??234@AAE_NXZ@@?$standard_base@DV?$stream_output_adapter@D@__crt_stdio_output@@@__crt_stdio_output@@IAE_NAAPAUansi_string@?1??type_case_Z@?$output_processor@DV?$stream_output_adapter@D@__crt_stdio_output@@V?$positional_parameter_base@DV?$stream_output_adapter@D@__crt_stdio_output@@@2@@1@AAE_NXZ@@Z 1004dbb0 f i libucrt:output.obj
 0001:0004cbca       ??$extract_argument_from_va_list@PAUansi_string@?1??type_case_Z@?$output_processor@DV?$stream_output_adapter@D@__crt_stdio_output@@V?$standard_base@DV?$stream_output_adapter@D@__crt_stdio_output@@@2@@__crt_stdio_output@@AAE_NXZ@PAU1?1??234@AAE_NXZ@@?$standard_base@DV?$stream_output_adapter@D@__crt_stdio_output@@@__crt_stdio_output@@IAE_NAAPAUansi_string@?1??type_case_Z@?$output_processor@DV?$stream_output_adapter@D@__crt_stdio_output@@V?$standard_base@DV?$stream_output_adapter@D@__crt_stdio_output@@@2@@1@AAE_NXZ@@Z 1004dbca f i libucrt:output.obj
 0001:0004cbe4       ??$extract_argument_from_va_list@PAUansi_string@?1??type_case_Z@?$output_processor@DV?$string_output_adapter@D@__crt_stdio_output@@V?$format_validation_base@DV?$string_output_adapter@D@__crt_stdio_output@@@2@@__crt_stdio_output@@AAE_NXZ@PAU1?1??234@AAE_NXZ@@?$standard_base@DV?$string_output_adapter@D@__crt_stdio_output@@@__crt_stdio_output@@IAE_NAAPAUansi_string@?1??type_case_Z@?$output_processor@DV?$string_output_adapter@D@__crt_stdio_output@@V?$format_validation_base@DV?$string_output_adapter@D@__crt_stdio_output@@@2@@1@AAE_NXZ@@Z 1004dbe4 f i libucrt:output.obj
 0001:0004cbfe       ??$extract_argument_from_va_list@PAUansi_string@?1??type_case_Z@?$output_processor@DV?$string_output_adapter@D@__crt_stdio_output@@V?$positional_parameter_base@DV?$string_output_adapter@D@__crt_stdio_output@@@2@@__crt_stdio_output@@AAE_NXZ@PAU1?1??234@AAE_NXZ@@?$positional_parameter_base@DV?$string_output_adapter@D@__crt_stdio_output@@@__crt_stdio_output@@IAE_NAAPAUansi_string@?1??type_case_Z@?$output_processor@DV?$string_output_adapter@D@__crt_stdio_output@@V?$positional_parameter_base@DV?$string_output_adapter@D@__crt_stdio_output@@@2@@1@AAE_NXZ@@Z 1004dbfe f i libucrt:output.obj
 0001:0004cc76       ??$extract_argument_from_va_list@PAUansi_string@?1??type_case_Z@?$output_processor@DV?$string_output_adapter@D@__crt_stdio_output@@V?$positional_parameter_base@DV?$string_output_adapter@D@__crt_stdio_output@@@2@@__crt_stdio_output@@AAE_NXZ@PAU1?1??234@AAE_NXZ@@?$standard_base@DV?$string_output_adapter@D@__crt_stdio_output@@@__crt_stdio_output@@IAE_NAAPAUansi_string@?1??type_case_Z@?$output_processor@DV?$string_output_adapter@D@__crt_stdio_output@@V?$positional_parameter_base@DV?$string_output_adapter@D@__crt_stdio_output@@@2@@1@AAE_NXZ@@Z 1004dc76 f i libucrt:output.obj
 0001:0004cc90       ??$extract_argument_from_va_list@PAUansi_string@?1??type_case_Z@?$output_processor@DV?$string_output_adapter@D@__crt_stdio_output@@V?$standard_base@DV?$string_output_adapter@D@__crt_stdio_output@@@2@@__crt_stdio_output@@AAE_NXZ@PAU1?1??234@AAE_NXZ@@?$standard_base@DV?$string_output_adapter@D@__crt_stdio_output@@@__crt_stdio_output@@IAE_NAAPAUansi_string@?1??type_case_Z@?$output_processor@DV?$string_output_adapter@D@__crt_stdio_output@@V?$standard_base@DV?$string_output_adapter@D@__crt_stdio_output@@@2@@1@AAE_NXZ@@Z 1004dc90 f i libucrt:output.obj
 0001:0004ccaa       ??$extract_argument_from_va_list@PAUansi_string@?1??type_case_Z@?$output_processor@_WV?$stream_output_adapter@_W@__crt_stdio_output@@V?$format_validation_base@_WV?$stream_output_adapter@_W@__crt_stdio_output@@@2@@__crt_stdio_output@@AAE_NXZ@PAU1?1??234@AAE_NXZ@@?$standard_base@_WV?$stream_output_adapter@_W@__crt_stdio_output@@@__crt_stdio_output@@IAE_NAAPAUansi_string@?1??type_case_Z@?$output_processor@_WV?$stream_output_adapter@_W@__crt_stdio_output@@V?$format_validation_base@_WV?$stream_output_adapter@_W@__crt_stdio_output@@@2@@1@AAE_NXZ@@Z 1004dcaa f i libucrt:output.obj
 0001:0004ccc4       ??$extract_argument_from_va_list@PAUansi_string@?1??type_case_Z@?$output_processor@_WV?$stream_output_adapter@_W@__crt_stdio_output@@V?$positional_parameter_base@_WV?$stream_output_adapter@_W@__crt_stdio_output@@@2@@__crt_stdio_output@@AAE_NXZ@PAU1?1??234@AAE_NXZ@@?$positional_parameter_base@_WV?$stream_output_adapter@_W@__crt_stdio_output@@@__crt_stdio_output@@IAE_NAAPAUansi_string@?1??type_case_Z@?$output_processor@_WV?$stream_output_adapter@_W@__crt_stdio_output@@V?$positional_parameter_base@_WV?$stream_output_adapter@_W@__crt_stdio_output@@@2@@1@AAE_NXZ@@Z 1004dcc4 f i libucrt:output.obj
 0001:0004cd3c       ??$extract_argument_from_va_list@PAUansi_string@?1??type_case_Z@?$output_processor@_WV?$stream_output_adapter@_W@__crt_stdio_output@@V?$positional_parameter_base@_WV?$stream_output_adapter@_W@__crt_stdio_output@@@2@@__crt_stdio_output@@AAE_NXZ@PAU1?1??234@AAE_NXZ@@?$standard_base@_WV?$stream_output_adapter@_W@__crt_stdio_output@@@__crt_stdio_output@@IAE_NAAPAUansi_string@?1??type_case_Z@?$output_processor@_WV?$stream_output_adapter@_W@__crt_stdio_output@@V?$positional_parameter_base@_WV?$stream_output_adapter@_W@__crt_stdio_output@@@2@@1@AAE_NXZ@@Z 1004dd3c f i libucrt:output.obj
 0001:0004cd56       ??$extract_argument_from_va_list@PAUansi_string@?1??type_case_Z@?$output_processor@_WV?$stream_output_adapter@_W@__crt_stdio_output@@V?$standard_base@_WV?$stream_output_adapter@_W@__crt_stdio_output@@@2@@__crt_stdio_output@@AAE_NXZ@PAU1?1??234@AAE_NXZ@@?$standard_base@_WV?$stream_output_adapter@_W@__crt_stdio_output@@@__crt_stdio_output@@IAE_NAAPAUansi_string@?1??type_case_Z@?$output_processor@_WV?$stream_output_adapter@_W@__crt_stdio_output@@V?$standard_base@_WV?$stream_output_adapter@_W@__crt_stdio_output@@@2@@1@AAE_NXZ@@Z 1004dd56 f i libucrt:output.obj
 0001:0004cd70       ??$extract_argument_from_va_list@PAUansi_string@?1??type_case_Z@?$output_processor@_WV?$string_output_adapter@_W@__crt_stdio_output@@V?$format_validation_base@_WV?$string_output_adapter@_W@__crt_stdio_output@@@2@@__crt_stdio_output@@AAE_NXZ@PAU1?1??234@AAE_NXZ@@?$standard_base@_WV?$string_output_adapter@_W@__crt_stdio_output@@@__crt_stdio_output@@IAE_NAAPAUansi_string@?1??type_case_Z@?$output_processor@_WV?$string_output_adapter@_W@__crt_stdio_output@@V?$format_validation_base@_WV?$string_output_adapter@_W@__crt_stdio_output@@@2@@1@AAE_NXZ@@Z 1004dd70 f i libucrt:output.obj
 0001:0004cd8a       ??$extract_argument_from_va_list@PAUansi_string@?1??type_case_Z@?$output_processor@_WV?$string_output_adapter@_W@__crt_stdio_output@@V?$positional_parameter_base@_WV?$string_output_adapter@_W@__crt_stdio_output@@@2@@__crt_stdio_output@@AAE_NXZ@PAU1?1??234@AAE_NXZ@@?$positional_parameter_base@_WV?$string_output_adapter@_W@__crt_stdio_output@@@__crt_stdio_output@@IAE_NAAPAUansi_string@?1??type_case_Z@?$output_processor@_WV?$string_output_adapter@_W@__crt_stdio_output@@V?$positional_parameter_base@_WV?$string_output_adapter@_W@__crt_stdio_output@@@2@@1@AAE_NXZ@@Z 1004dd8a f i libucrt:output.obj
 0001:0004ce02       ??$extract_argument_from_va_list@PAUansi_string@?1??type_case_Z@?$output_processor@_WV?$string_output_adapter@_W@__crt_stdio_output@@V?$positional_parameter_base@_WV?$string_output_adapter@_W@__crt_stdio_output@@@2@@__crt_stdio_output@@AAE_NXZ@PAU1?1??234@AAE_NXZ@@?$standard_base@_WV?$string_output_adapter@_W@__crt_stdio_output@@@__crt_stdio_output@@IAE_NAAPAUansi_string@?1??type_case_Z@?$output_processor@_WV?$string_output_adapter@_W@__crt_stdio_output@@V?$positional_parameter_base@_WV?$string_output_adapter@_W@__crt_stdio_output@@@2@@1@AAE_NXZ@@Z 1004de02 f i libucrt:output.obj
 0001:0004ce1c       ??$extract_argument_from_va_list@PAUansi_string@?1??type_case_Z@?$output_processor@_WV?$string_output_adapter@_W@__crt_stdio_output@@V?$standard_base@_WV?$string_output_adapter@_W@__crt_stdio_output@@@2@@__crt_stdio_output@@AAE_NXZ@PAU1?1??234@AAE_NXZ@@?$standard_base@_WV?$string_output_adapter@_W@__crt_stdio_output@@@__crt_stdio_output@@IAE_NAAPAUansi_string@?1??type_case_Z@?$output_processor@_WV?$string_output_adapter@_W@__crt_stdio_output@@V?$standard_base@_WV?$string_output_adapter@_W@__crt_stdio_output@@@2@@1@AAE_NXZ@@Z 1004de1c f i libucrt:output.obj
 0001:0004ce36       ??$extract_argument_from_va_list@PAXPAX@?$positional_parameter_base@DV?$stream_output_adapter@D@__crt_stdio_output@@@__crt_stdio_output@@IAE_NAAPAX@Z 1004de36 f i libucrt:output.obj
 0001:0004ceae       ??$extract_argument_from_va_list@PAXPAX@?$positional_parameter_base@DV?$string_output_adapter@D@__crt_stdio_output@@@__crt_stdio_output@@IAE_NAAPAX@Z 1004deae f i libucrt:output.obj
 0001:0004cf26       ??$extract_argument_from_va_list@PAXPAX@?$positional_parameter_base@_WV?$stream_output_adapter@_W@__crt_stdio_output@@@__crt_stdio_output@@IAE_NAAPAX@Z 1004df26 f i libucrt:output.obj
 0001:0004cf9e       ??$extract_argument_from_va_list@PAXPAX@?$positional_parameter_base@_WV?$string_output_adapter@_W@__crt_stdio_output@@@__crt_stdio_output@@IAE_NAAPAX@Z 1004df9e f i libucrt:output.obj
 0001:0004d016       ??$extract_argument_from_va_list@PAXPAX@?$standard_base@DV?$stream_output_adapter@D@__crt_stdio_output@@@__crt_stdio_output@@IAE_NAAPAX@Z 1004e016 f i libucrt:output.obj
 0001:0004d030       ??$extract_argument_from_va_list@PAXPAX@?$standard_base@DV?$string_output_adapter@D@__crt_stdio_output@@@__crt_stdio_output@@IAE_NAAPAX@Z 1004e030 f i libucrt:output.obj
 0001:0004d04a       ??$extract_argument_from_va_list@PAXPAX@?$standard_base@_WV?$stream_output_adapter@_W@__crt_stdio_output@@@__crt_stdio_output@@IAE_NAAPAX@Z 1004e04a f i libucrt:output.obj
 0001:0004d064       ??$extract_argument_from_va_list@PAXPAX@?$standard_base@_WV?$string_output_adapter@_W@__crt_stdio_output@@@__crt_stdio_output@@IAE_NAAPAX@Z 1004e064 f i libucrt:output.obj
 0001:0004d07e       ??$extract_argument_from_va_list@U_CRT_DOUBLE@@U1@@?$positional_parameter_base@DV?$stream_output_adapter@D@__crt_stdio_output@@@__crt_stdio_output@@IAE_NAAU_CRT_DOUBLE@@@Z 1004e07e f i libucrt:output.obj
 0001:0004d104       ??$extract_argument_from_va_list@U_CRT_DOUBLE@@U1@@?$positional_parameter_base@DV?$string_output_adapter@D@__crt_stdio_output@@@__crt_stdio_output@@IAE_NAAU_CRT_DOUBLE@@@Z 1004e104 f i libucrt:output.obj
 0001:0004d18a       ??$extract_argument_from_va_list@U_CRT_DOUBLE@@U1@@?$positional_parameter_base@_WV?$stream_output_adapter@_W@__crt_stdio_output@@@__crt_stdio_output@@IAE_NAAU_CRT_DOUBLE@@@Z 1004e18a f i libucrt:output.obj
 0001:0004d210       ??$extract_argument_from_va_list@U_CRT_DOUBLE@@U1@@?$positional_parameter_base@_WV?$string_output_adapter@_W@__crt_stdio_output@@@__crt_stdio_output@@IAE_NAAU_CRT_DOUBLE@@@Z 1004e210 f i libucrt:output.obj
 0001:0004d296       ??$extract_argument_from_va_list@U_CRT_DOUBLE@@U1@@?$standard_base@DV?$stream_output_adapter@D@__crt_stdio_output@@@__crt_stdio_output@@IAE_NAAU_CRT_DOUBLE@@@Z 1004e296 f i libucrt:output.obj
 0001:0004d2b6       ??$extract_argument_from_va_list@U_CRT_DOUBLE@@U1@@?$standard_base@DV?$string_output_adapter@D@__crt_stdio_output@@@__crt_stdio_output@@IAE_NAAU_CRT_DOUBLE@@@Z 1004e2b6 f i libucrt:output.obj
 0001:0004d2d6       ??$extract_argument_from_va_list@U_CRT_DOUBLE@@U1@@?$standard_base@_WV?$stream_output_adapter@_W@__crt_stdio_output@@@__crt_stdio_output@@IAE_NAAU_CRT_DOUBLE@@@Z 1004e2d6 f i libucrt:output.obj
 0001:0004d2f6       ??$extract_argument_from_va_list@U_CRT_DOUBLE@@U1@@?$standard_base@_WV?$string_output_adapter@_W@__crt_stdio_output@@@__crt_stdio_output@@IAE_NAAU_CRT_DOUBLE@@@Z 1004e2f6 f i libucrt:output.obj
 0001:0004d316       ??$extract_argument_from_va_list@_J_J@?$positional_parameter_base@DV?$stream_output_adapter@D@__crt_stdio_output@@@__crt_stdio_output@@IAE_NAA_J@Z 1004e316 f i libucrt:output.obj
 0001:0004d39c       ??$extract_argument_from_va_list@_J_J@?$positional_parameter_base@DV?$string_output_adapter@D@__crt_stdio_output@@@__crt_stdio_output@@IAE_NAA_J@Z 1004e39c f i libucrt:output.obj
 0001:0004d422       ??$extract_argument_from_va_list@_J_J@?$positional_parameter_base@_WV?$stream_output_adapter@_W@__crt_stdio_output@@@__crt_stdio_output@@IAE_NAA_J@Z 1004e422 f i libucrt:output.obj
 0001:0004d4a8       ??$extract_argument_from_va_list@_J_J@?$positional_parameter_base@_WV?$string_output_adapter@_W@__crt_stdio_output@@@__crt_stdio_output@@IAE_NAA_J@Z 1004e4a8 f i libucrt:output.obj
 0001:0004d52e       ??$extract_argument_from_va_list@_J_J@?$standard_base@DV?$stream_output_adapter@D@__crt_stdio_output@@@__crt_stdio_output@@IAE_NAA_J@Z 1004e52e f i libucrt:output.obj
 0001:0004d54e       ??$extract_argument_from_va_list@_J_J@?$standard_base@DV?$string_output_adapter@D@__crt_stdio_output@@@__crt_stdio_output@@IAE_NAA_J@Z 1004e54e f i libucrt:output.obj
 0001:0004d56e       ??$extract_argument_from_va_list@_J_J@?$standard_base@_WV?$stream_output_adapter@_W@__crt_stdio_output@@@__crt_stdio_output@@IAE_NAA_J@Z 1004e56e f i libucrt:output.obj
 0001:0004d58e       ??$extract_argument_from_va_list@_J_J@?$standard_base@_WV?$string_output_adapter@_W@__crt_stdio_output@@@__crt_stdio_output@@IAE_NAA_J@Z 1004e58e f i libucrt:output.obj
 0001:0004d5ae       ??$extract_argument_from_va_list@_K_J@?$positional_parameter_base@DV?$stream_output_adapter@D@__crt_stdio_output@@@__crt_stdio_output@@IAE_NAA_J@Z 1004e5ae f i libucrt:output.obj
 0001:0004d634       ??$extract_argument_from_va_list@_K_J@?$positional_parameter_base@DV?$string_output_adapter@D@__crt_stdio_output@@@__crt_stdio_output@@IAE_NAA_J@Z 1004e634 f i libucrt:output.obj
 0001:0004d6ba       ??$extract_argument_from_va_list@_K_J@?$positional_parameter_base@_WV?$stream_output_adapter@_W@__crt_stdio_output@@@__crt_stdio_output@@IAE_NAA_J@Z 1004e6ba f i libucrt:output.obj
 0001:0004d740       ??$extract_argument_from_va_list@_K_J@?$positional_parameter_base@_WV?$string_output_adapter@_W@__crt_stdio_output@@@__crt_stdio_output@@IAE_NAA_J@Z 1004e740 f i libucrt:output.obj
 0001:0004d7c6       ??$extract_argument_from_va_list@_K_J@?$standard_base@DV?$stream_output_adapter@D@__crt_stdio_output@@@__crt_stdio_output@@IAE_NAA_J@Z 1004e7c6 f i libucrt:output.obj
 0001:0004d7e6       ??$extract_argument_from_va_list@_K_J@?$standard_base@DV?$string_output_adapter@D@__crt_stdio_output@@@__crt_stdio_output@@IAE_NAA_J@Z 1004e7e6 f i libucrt:output.obj
 0001:0004d806       ??$extract_argument_from_va_list@_K_J@?$standard_base@_WV?$stream_output_adapter@_W@__crt_stdio_output@@@__crt_stdio_output@@IAE_NAA_J@Z 1004e806 f i libucrt:output.obj
 0001:0004d826       ??$extract_argument_from_va_list@_K_J@?$standard_base@_WV?$string_output_adapter@_W@__crt_stdio_output@@@__crt_stdio_output@@IAE_NAA_J@Z 1004e826 f i libucrt:output.obj
 0001:0004d846       ??$extract_argument_from_va_list@_W_W@?$positional_parameter_base@DV?$stream_output_adapter@D@__crt_stdio_output@@@__crt_stdio_output@@IAE_NAA_W@Z 1004e846 f i libucrt:output.obj
 0001:0004d8c2       ??$extract_argument_from_va_list@_W_W@?$positional_parameter_base@DV?$string_output_adapter@D@__crt_stdio_output@@@__crt_stdio_output@@IAE_NAA_W@Z 1004e8c2 f i libucrt:output.obj
 0001:0004d93e       ??$extract_argument_from_va_list@_W_W@?$positional_parameter_base@_WV?$stream_output_adapter@_W@__crt_stdio_output@@@__crt_stdio_output@@IAE_NAA_W@Z 1004e93e f i libucrt:output.obj
 0001:0004d9ba       ??$extract_argument_from_va_list@_W_W@?$positional_parameter_base@_WV?$string_output_adapter@_W@__crt_stdio_output@@@__crt_stdio_output@@IAE_NAA_W@Z 1004e9ba f i libucrt:output.obj
 0001:0004da36       ??$extract_argument_from_va_list@_W_W@?$standard_base@DV?$stream_output_adapter@D@__crt_stdio_output@@@__crt_stdio_output@@IAE_NAA_W@Z 1004ea36 f i libucrt:output.obj
 0001:0004da52       ??$extract_argument_from_va_list@_W_W@?$standard_base@DV?$string_output_adapter@D@__crt_stdio_output@@@__crt_stdio_output@@IAE_NAA_W@Z 1004ea52 f i libucrt:output.obj
 0001:0004da6e       ??$extract_argument_from_va_list@_W_W@?$standard_base@_WV?$stream_output_adapter@_W@__crt_stdio_output@@@__crt_stdio_output@@IAE_NAA_W@Z 1004ea6e f i libucrt:output.obj
 0001:0004da8a       ??$extract_argument_from_va_list@_W_W@?$standard_base@_WV?$string_output_adapter@_W@__crt_stdio_output@@@__crt_stdio_output@@IAE_NAA_W@Z 1004ea8a f i libucrt:output.obj
 0001:0004daa6       ??$get_parameter_type@D@?$positional_parameter_base@DV?$stream_output_adapter@D@__crt_stdio_output@@@__crt_stdio_output@@CA?AW4parameter_type@01@PAD@Z 1004eaa6 f i libucrt:output.obj
 0001:0004daaa       ??$get_parameter_type@D@?$positional_parameter_base@DV?$string_output_adapter@D@__crt_stdio_output@@@__crt_stdio_output@@CA?AW4parameter_type@01@PAD@Z 1004eaaa f i libucrt:output.obj
 0001:0004daae       ??$get_parameter_type@D@?$positional_parameter_base@_WV?$stream_output_adapter@_W@__crt_stdio_output@@@__crt_stdio_output@@CA?AW4parameter_type@01@PAD@Z 1004eaae f i libucrt:output.obj
 0001:0004dab2       ??$get_parameter_type@D@?$positional_parameter_base@_WV?$string_output_adapter@_W@__crt_stdio_output@@@__crt_stdio_output@@CA?AW4parameter_type@01@PAD@Z 1004eab2 f i libucrt:output.obj
 0001:0004dab6       ??$get_parameter_type@Uansi_string@?1??type_case_Z@?$output_processor@DV?$stream_output_adapter@D@__crt_stdio_output@@V?$positional_parameter_base@DV?$stream_output_adapter@D@__crt_stdio_output@@@2@@__crt_stdio_output@@AAE_NXZ@@?$positional_parameter_base@DV?$stream_output_adapter@D@__crt_stdio_output@@@__crt_stdio_output@@CA?AW4parameter_type@01@PAUansi_string@?1??type_case_Z@?$output_processor@DV?$stream_output_adapter@D@__crt_stdio_output@@V?$positional_parameter_base@DV?$stream_output_adapter@D@__crt_stdio_output@@@2@@1@AAE_NXZ@@Z 1004eab6 f i libucrt:output.obj
 0001:0004daba       ??$get_parameter_type@Uansi_string@?1??type_case_Z@?$output_processor@DV?$string_output_adapter@D@__crt_stdio_output@@V?$positional_parameter_base@DV?$string_output_adapter@D@__crt_stdio_output@@@2@@__crt_stdio_output@@AAE_NXZ@@?$positional_parameter_base@DV?$string_output_adapter@D@__crt_stdio_output@@@__crt_stdio_output@@CA?AW4parameter_type@01@PAUansi_string@?1??type_case_Z@?$output_processor@DV?$string_output_adapter@D@__crt_stdio_output@@V?$positional_parameter_base@DV?$string_output_adapter@D@__crt_stdio_output@@@2@@1@AAE_NXZ@@Z 1004eaba f i libucrt:output.obj
 0001:0004dabe       ??$get_parameter_type@Uansi_string@?1??type_case_Z@?$output_processor@_WV?$stream_output_adapter@_W@__crt_stdio_output@@V?$positional_parameter_base@_WV?$stream_output_adapter@_W@__crt_stdio_output@@@2@@__crt_stdio_output@@AAE_NXZ@@?$positional_parameter_base@_WV?$stream_output_adapter@_W@__crt_stdio_output@@@__crt_stdio_output@@CA?AW4parameter_type@01@PAUansi_string@?1??type_case_Z@?$output_processor@_WV?$stream_output_adapter@_W@__crt_stdio_output@@V?$positional_parameter_base@_WV?$stream_output_adapter@_W@__crt_stdio_output@@@2@@1@AAE_NXZ@@Z 1004eabe f i libucrt:output.obj
 0001:0004dac2       ??$get_parameter_type@Uansi_string@?1??type_case_Z@?$output_processor@_WV?$string_output_adapter@_W@__crt_stdio_output@@V?$positional_parameter_base@_WV?$string_output_adapter@_W@__crt_stdio_output@@@2@@__crt_stdio_output@@AAE_NXZ@@?$positional_parameter_base@_WV?$string_output_adapter@_W@__crt_stdio_output@@@__crt_stdio_output@@CA?AW4parameter_type@01@PAUansi_string@?1??type_case_Z@?$output_processor@_WV?$string_output_adapter@_W@__crt_stdio_output@@V?$positional_parameter_base@_WV?$string_output_adapter@_W@__crt_stdio_output@@@2@@1@AAE_NXZ@@Z 1004eac2 f i libucrt:output.obj
 0001:0004dac6       ??$get_parameter_type@X@?$positional_parameter_base@DV?$stream_output_adapter@D@__crt_stdio_output@@@__crt_stdio_output@@CA?AW4parameter_type@01@PAX@Z 1004eac6 f i libucrt:output.obj
 0001:0004daca       ??$get_parameter_type@X@?$positional_parameter_base@DV?$string_output_adapter@D@__crt_stdio_output@@@__crt_stdio_output@@CA?AW4parameter_type@01@PAX@Z 1004eaca f i libucrt:output.obj
 0001:0004dace       ??$get_parameter_type@X@?$positional_parameter_base@_WV?$stream_output_adapter@_W@__crt_stdio_output@@@__crt_stdio_output@@CA?AW4parameter_type@01@PAX@Z 1004eace f i libucrt:output.obj
 0001:0004dad2       ??$get_parameter_type@X@?$positional_parameter_base@_WV?$string_output_adapter@_W@__crt_stdio_output@@@__crt_stdio_output@@CA?AW4parameter_type@01@PAX@Z 1004ead2 f i libucrt:output.obj
 0001:0004dad6       ??$is_character_specifier@D@?$positional_parameter_base@DV?$stream_output_adapter@D@__crt_stdio_output@@@__crt_stdio_output@@CA_ND@Z 1004ead6 f i libucrt:output.obj
 0001:0004daee       ??$is_character_specifier@D@?$positional_parameter_base@DV?$string_output_adapter@D@__crt_stdio_output@@@__crt_stdio_output@@CA_ND@Z 1004eaee f i libucrt:output.obj
 0001:0004db06       ??$is_character_specifier@_W@?$positional_parameter_base@_WV?$stream_output_adapter@_W@__crt_stdio_output@@@__crt_stdio_output@@CA_N_W@Z 1004eb06 f i libucrt:output.obj
 0001:0004db21       ??$is_character_specifier@_W@?$positional_parameter_base@_WV?$string_output_adapter@_W@__crt_stdio_output@@@__crt_stdio_output@@CA_N_W@Z 1004eb21 f i libucrt:output.obj
 0001:0004db3c       ??$is_integral_specifier@D@?$positional_parameter_base@DV?$stream_output_adapter@D@__crt_stdio_output@@@__crt_stdio_output@@CA_ND@Z 1004eb3c f i libucrt:output.obj
 0001:0004db68       ??$is_integral_specifier@D@?$positional_parameter_base@DV?$string_output_adapter@D@__crt_stdio_output@@@__crt_stdio_output@@CA_ND@Z 1004eb68 f i libucrt:output.obj
 0001:0004db94       ??$is_integral_specifier@_W@?$positional_parameter_base@_WV?$stream_output_adapter@_W@__crt_stdio_output@@@__crt_stdio_output@@CA_N_W@Z 1004eb94 f i libucrt:output.obj
 0001:0004dbcf       ??$is_integral_specifier@_W@?$positional_parameter_base@_WV?$string_output_adapter@_W@__crt_stdio_output@@@__crt_stdio_output@@CA_N_W@Z 1004ebcf f i libucrt:output.obj
 0001:0004dc0a       ??$is_pointer_specifier@D@?$positional_parameter_base@DV?$stream_output_adapter@D@__crt_stdio_output@@@__crt_stdio_output@@CA_ND@Z 1004ec0a f i libucrt:output.obj
 0001:0004dc18       ??$is_pointer_specifier@D@?$positional_parameter_base@DV?$string_output_adapter@D@__crt_stdio_output@@@__crt_stdio_output@@CA_ND@Z 1004ec18 f i libucrt:output.obj
 0001:0004dc26       ??$is_pointer_specifier@_W@?$positional_parameter_base@_WV?$stream_output_adapter@_W@__crt_stdio_output@@@__crt_stdio_output@@CA_N_W@Z 1004ec26 f i libucrt:output.obj
 0001:0004dc35       ??$is_pointer_specifier@_W@?$positional_parameter_base@_WV?$string_output_adapter@_W@__crt_stdio_output@@@__crt_stdio_output@@CA_N_W@Z 1004ec35 f i libucrt:output.obj
 0001:0004dc44       ??$is_string_specifier@D@?$positional_parameter_base@DV?$stream_output_adapter@D@__crt_stdio_output@@@__crt_stdio_output@@CA_ND@Z 1004ec44 f i libucrt:output.obj
 0001:0004dc5c       ??$is_string_specifier@D@?$positional_parameter_base@DV?$string_output_adapter@D@__crt_stdio_output@@@__crt_stdio_output@@CA_ND@Z 1004ec5c f i libucrt:output.obj
 0001:0004dc74       ??$is_string_specifier@_W@?$positional_parameter_base@_WV?$stream_output_adapter@_W@__crt_stdio_output@@@__crt_stdio_output@@CA_N_W@Z 1004ec74 f i libucrt:output.obj
 0001:0004dc8f       ??$is_string_specifier@_W@?$positional_parameter_base@_WV?$string_output_adapter@_W@__crt_stdio_output@@@__crt_stdio_output@@CA_N_W@Z 1004ec8f f i libucrt:output.obj
 0001:0004dcaa       ??$is_wide_character_specifier@D@__crt_stdio_output@@YA_N_KDW4length_modifier@0@@Z 1004ecaa f i libucrt:output.obj
 0001:0004dcdb       ??$is_wide_character_specifier@_W@__crt_stdio_output@@YA_N_K_WW4length_modifier@0@@Z 1004ecdb f i libucrt:output.obj
 0001:0004dd29       ??$peek_va_arg@C@__crt_stdio_output@@YACPAD@Z 1004ed29 f i libucrt:output.obj
 0001:0004dd35       ??$peek_va_arg@E@__crt_stdio_output@@YAEPAD@Z 1004ed35 f i libucrt:output.obj
 0001:0004dd41       ??$peek_va_arg@F@__crt_stdio_output@@YAFPAD@Z 1004ed41 f i libucrt:output.obj
 0001:0004dd4e       ??$peek_va_arg@G@__crt_stdio_output@@YAGPAD@Z 1004ed4e f i libucrt:output.obj
 0001:0004dd5b       ??$peek_va_arg@H@__crt_stdio_output@@YAHPAD@Z 1004ed5b f i libucrt:output.obj
 0001:0004dd67       ??$peek_va_arg@I@__crt_stdio_output@@YAIPAD@Z 1004ed67 f i libucrt:output.obj
 0001:0004dd73       ??$peek_va_arg@PAD@__crt_stdio_output@@YAPADPAD@Z 1004ed73 f i libucrt:output.obj
 0001:0004dd7f       ??$peek_va_arg@PAUansi_string@?1??type_case_Z@?$output_processor@DV?$stream_output_adapter@D@__crt_stdio_output@@V?$positional_parameter_base@DV?$stream_output_adapter@D@__crt_stdio_output@@@2@@__crt_stdio_output@@AAE_NXZ@@__crt_stdio_output@@YAPAUansi_string@?1??type_case_Z@?$output_processor@DV?$stream_output_adapter@D@__crt_stdio_output@@V?$positional_parameter_base@DV?$stream_output_adapter@D@__crt_stdio_output@@@2@@0@AAE_NXZ@PAD@Z 1004ed7f f i libucrt:output.obj
 0001:0004dd8b       ??$peek_va_arg@PAUansi_string@?1??type_case_Z@?$output_processor@DV?$string_output_adapter@D@__crt_stdio_output@@V?$positional_parameter_base@DV?$string_output_adapter@D@__crt_stdio_output@@@2@@__crt_stdio_output@@AAE_NXZ@@__crt_stdio_output@@YAPAUansi_string@?1??type_case_Z@?$output_processor@DV?$string_output_adapter@D@__crt_stdio_output@@V?$positional_parameter_base@DV?$string_output_adapter@D@__crt_stdio_output@@@2@@0@AAE_NXZ@PAD@Z 1004ed8b f i libucrt:output.obj
 0001:0004dd97       ??$peek_va_arg@PAUansi_string@?1??type_case_Z@?$output_processor@_WV?$stream_output_adapter@_W@__crt_stdio_output@@V?$positional_parameter_base@_WV?$stream_output_adapter@_W@__crt_stdio_output@@@2@@__crt_stdio_output@@AAE_NXZ@@__crt_stdio_output@@YAPAUansi_string@?1??type_case_Z@?$output_processor@_WV?$stream_output_adapter@_W@__crt_stdio_output@@V?$positional_parameter_base@_WV?$stream_output_adapter@_W@__crt_stdio_output@@@2@@0@AAE_NXZ@PAD@Z 1004ed97 f i libucrt:output.obj
 0001:0004dda3       ??$peek_va_arg@PAUansi_string@?1??type_case_Z@?$output_processor@_WV?$string_output_adapter@_W@__crt_stdio_output@@V?$positional_parameter_base@_WV?$string_output_adapter@_W@__crt_stdio_output@@@2@@__crt_stdio_output@@AAE_NXZ@@__crt_stdio_output@@YAPAUansi_string@?1??type_case_Z@?$output_processor@_WV?$string_output_adapter@_W@__crt_stdio_output@@V?$positional_parameter_base@_WV?$string_output_adapter@_W@__crt_stdio_output@@@2@@0@AAE_NXZ@PAD@Z 1004eda3 f i libucrt:output.obj
 0001:0004ddaf       ??$peek_va_arg@PAX@__crt_stdio_output@@YAPAXPAD@Z 1004edaf f i libucrt:output.obj
 0001:0004ddbb       ??$peek_va_arg@U_CRT_DOUBLE@@@__crt_stdio_output@@YA?AU_CRT_DOUBLE@@PAD@Z 1004edbb f i libucrt:output.obj
 0001:0004ddca       ??$peek_va_arg@_J@__crt_stdio_output@@YA_JPAD@Z 1004edca f i libucrt:output.obj
 0001:0004ddd9       ??$peek_va_arg@_K@__crt_stdio_output@@YA_KPAD@Z 1004edd9 f i libucrt:output.obj
 0001:0004dde8       ??$peek_va_arg@_W@__crt_stdio_output@@YA_WPAD@Z 1004ede8 f i libucrt:output.obj
 0001:0004ddf5       ??$puttc_nolock@ABDPAU_iobuf@@@?$__crt_char_traits@D@@SAHABD$$QAPAU_iobuf@@@Z 1004edf5 f i libucrt:output.obj
 0001:0004de0f       ??$puttc_nolock@AB_WPAU_iobuf@@@?$__crt_char_traits@_W@@SAGAB_W$$QAPAU_iobuf@@@Z 1004ee0f f i libucrt:output.obj
 0001:0004de29       ??$read_va_arg@C@__crt_stdio_output@@YACAAPAD@Z 1004ee29 f i libucrt:output.obj
 0001:0004de3b       ??$read_va_arg@E@__crt_stdio_output@@YAEAAPAD@Z 1004ee3b f i libucrt:output.obj
 0001:0004de4d       ??$read_va_arg@F@__crt_stdio_output@@YAFAAPAD@Z 1004ee4d f i libucrt:output.obj
 0001:0004de60       ??$read_va_arg@G@__crt_stdio_output@@YAGAAPAD@Z 1004ee60 f i libucrt:output.obj
 0001:0004de73       ??$read_va_arg@H@__crt_stdio_output@@YAHAAPAD@Z 1004ee73 f i libucrt:output.obj
 0001:0004de85       ??$read_va_arg@I@__crt_stdio_output@@YAIAAPAD@Z 1004ee85 f i libucrt:output.obj
 0001:0004de97       ??$read_va_arg@PAD@__crt_stdio_output@@YAPADAAPAD@Z 1004ee97 f i libucrt:output.obj
 0001:0004dea9       ??$read_va_arg@PAUansi_string@?1??type_case_Z@?$output_processor@DV?$stream_output_adapter@D@__crt_stdio_output@@V?$format_validation_base@DV?$stream_output_adapter@D@__crt_stdio_output@@@2@@__crt_stdio_output@@AAE_NXZ@@__crt_stdio_output@@YAPAUansi_string@?1??type_case_Z@?$output_processor@DV?$stream_output_adapter@D@__crt_stdio_output@@V?$format_validation_base@DV?$stream_output_adapter@D@__crt_stdio_output@@@2@@0@AAE_NXZ@AAPAD@Z 1004eea9 f i libucrt:output.obj
 0001:0004debb       ??$read_va_arg@PAUansi_string@?1??type_case_Z@?$output_processor@DV?$stream_output_adapter@D@__crt_stdio_output@@V?$positional_parameter_base@DV?$stream_output_adapter@D@__crt_stdio_output@@@2@@__crt_stdio_output@@AAE_NXZ@@__crt_stdio_output@@YAPAUansi_string@?1??type_case_Z@?$output_processor@DV?$stream_output_adapter@D@__crt_stdio_output@@V?$positional_parameter_base@DV?$stream_output_adapter@D@__crt_stdio_output@@@2@@0@AAE_NXZ@AAPAD@Z 1004eebb f i libucrt:output.obj
 0001:0004decd       ??$read_va_arg@PAUansi_string@?1??type_case_Z@?$output_processor@DV?$stream_output_adapter@D@__crt_stdio_output@@V?$standard_base@DV?$stream_output_adapter@D@__crt_stdio_output@@@2@@__crt_stdio_output@@AAE_NXZ@@__crt_stdio_output@@YAPAUansi_string@?1??type_case_Z@?$output_processor@DV?$stream_output_adapter@D@__crt_stdio_output@@V?$standard_base@DV?$stream_output_adapter@D@__crt_stdio_output@@@2@@0@AAE_NXZ@AAPAD@Z 1004eecd f i libucrt:output.obj
 0001:0004dedf       ??$read_va_arg@PAUansi_string@?1??type_case_Z@?$output_processor@DV?$string_output_adapter@D@__crt_stdio_output@@V?$format_validation_base@DV?$string_output_adapter@D@__crt_stdio_output@@@2@@__crt_stdio_output@@AAE_NXZ@@__crt_stdio_output@@YAPAUansi_string@?1??type_case_Z@?$output_processor@DV?$string_output_adapter@D@__crt_stdio_output@@V?$format_validation_base@DV?$string_output_adapter@D@__crt_stdio_output@@@2@@0@AAE_NXZ@AAPAD@Z 1004eedf f i libucrt:output.obj
 0001:0004def1       ??$read_va_arg@PAUansi_string@?1??type_case_Z@?$output_processor@DV?$string_output_adapter@D@__crt_stdio_output@@V?$positional_parameter_base@DV?$string_output_adapter@D@__crt_stdio_output@@@2@@__crt_stdio_output@@AAE_NXZ@@__crt_stdio_output@@YAPAUansi_string@?1??type_case_Z@?$output_processor@DV?$string_output_adapter@D@__crt_stdio_output@@V?$positional_parameter_base@DV?$string_output_adapter@D@__crt_stdio_output@@@2@@0@AAE_NXZ@AAPAD@Z 1004eef1 f i libucrt:output.obj
 0001:0004df03       ??$read_va_arg@PAUansi_string@?1??type_case_Z@?$output_processor@DV?$string_output_adapter@D@__crt_stdio_output@@V?$standard_base@DV?$string_output_adapter@D@__crt_stdio_output@@@2@@__crt_stdio_output@@AAE_NXZ@@__crt_stdio_output@@YAPAUansi_string@?1??type_case_Z@?$output_processor@DV?$string_output_adapter@D@__crt_stdio_output@@V?$standard_base@DV?$string_output_adapter@D@__crt_stdio_output@@@2@@0@AAE_NXZ@AAPAD@Z 1004ef03 f i libucrt:output.obj
 0001:0004df15       ??$read_va_arg@PAUansi_string@?1??type_case_Z@?$output_processor@_WV?$stream_output_adapter@_W@__crt_stdio_output@@V?$format_validation_base@_WV?$stream_output_adapter@_W@__crt_stdio_output@@@2@@__crt_stdio_output@@AAE_NXZ@@__crt_stdio_output@@YAPAUansi_string@?1??type_case_Z@?$output_processor@_WV?$stream_output_adapter@_W@__crt_stdio_output@@V?$format_validation_base@_WV?$stream_output_adapter@_W@__crt_stdio_output@@@2@@0@AAE_NXZ@AAPAD@Z 1004ef15 f i libucrt:output.obj
 0001:0004df27       ??$read_va_arg@PAUansi_string@?1??type_case_Z@?$output_processor@_WV?$stream_output_adapter@_W@__crt_stdio_output@@V?$positional_parameter_base@_WV?$stream_output_adapter@_W@__crt_stdio_output@@@2@@__crt_stdio_output@@AAE_NXZ@@__crt_stdio_output@@YAPAUansi_string@?1??type_case_Z@?$output_processor@_WV?$stream_output_adapter@_W@__crt_stdio_output@@V?$positional_parameter_base@_WV?$stream_output_adapter@_W@__crt_stdio_output@@@2@@0@AAE_NXZ@AAPAD@Z 1004ef27 f i libucrt:output.obj
 0001:0004df39       ??$read_va_arg@PAUansi_string@?1??type_case_Z@?$output_processor@_WV?$stream_output_adapter@_W@__crt_stdio_output@@V?$standard_base@_WV?$stream_output_adapter@_W@__crt_stdio_output@@@2@@__crt_stdio_output@@AAE_NXZ@@__crt_stdio_output@@YAPAUansi_string@?1??type_case_Z@?$output_processor@_WV?$stream_output_adapter@_W@__crt_stdio_output@@V?$standard_base@_WV?$stream_output_adapter@_W@__crt_stdio_output@@@2@@0@AAE_NXZ@AAPAD@Z 1004ef39 f i libucrt:output.obj
 0001:0004df4b       ??$read_va_arg@PAUansi_string@?1??type_case_Z@?$output_processor@_WV?$string_output_adapter@_W@__crt_stdio_output@@V?$format_validation_base@_WV?$string_output_adapter@_W@__crt_stdio_output@@@2@@__crt_stdio_output@@AAE_NXZ@@__crt_stdio_output@@YAPAUansi_string@?1??type_case_Z@?$output_processor@_WV?$string_output_adapter@_W@__crt_stdio_output@@V?$format_validation_base@_WV?$string_output_adapter@_W@__crt_stdio_output@@@2@@0@AAE_NXZ@AAPAD@Z 1004ef4b f i libucrt:output.obj
 0001:0004df5d       ??$read_va_arg@PAUansi_string@?1??type_case_Z@?$output_processor@_WV?$string_output_adapter@_W@__crt_stdio_output@@V?$positional_parameter_base@_WV?$string_output_adapter@_W@__crt_stdio_output@@@2@@__crt_stdio_output@@AAE_NXZ@@__crt_stdio_output@@YAPAUansi_string@?1??type_case_Z@?$output_processor@_WV?$string_output_adapter@_W@__crt_stdio_output@@V?$positional_parameter_base@_WV?$string_output_adapter@_W@__crt_stdio_output@@@2@@0@AAE_NXZ@AAPAD@Z 1004ef5d f i libucrt:output.obj
 0001:0004df6f       ??$read_va_arg@PAUansi_string@?1??type_case_Z@?$output_processor@_WV?$string_output_adapter@_W@__crt_stdio_output@@V?$standard_base@_WV?$string_output_adapter@_W@__crt_stdio_output@@@2@@__crt_stdio_output@@AAE_NXZ@@__crt_stdio_output@@YAPAUansi_string@?1??type_case_Z@?$output_processor@_WV?$string_output_adapter@_W@__crt_stdio_output@@V?$standard_base@_WV?$string_output_adapter@_W@__crt_stdio_output@@@2@@0@AAE_NXZ@AAPAD@Z 1004ef6f f i libucrt:output.obj
 0001:0004df81       ??$read_va_arg@PAX@__crt_stdio_output@@YAPAXAAPAD@Z 1004ef81 f i libucrt:output.obj
 0001:0004df93       ??$read_va_arg@U_CRT_DOUBLE@@@__crt_stdio_output@@YA?AU_CRT_DOUBLE@@AAPAD@Z 1004ef93 f i libucrt:output.obj
 0001:0004dfa9       ??$read_va_arg@_J@__crt_stdio_output@@YA_JAAPAD@Z 1004efa9 f i libucrt:output.obj
 0001:0004dfbe       ??$read_va_arg@_K@__crt_stdio_output@@YA_KAAPAD@Z 1004efbe f i libucrt:output.obj
 0001:0004dfd3       ??$read_va_arg@_W@__crt_stdio_output@@YA_WAAPAD@Z 1004efd3 f i libucrt:output.obj
 0001:0004dfe6       ??$scratch_count@D@formatting_buffer@__crt_stdio_output@@QBEIXZ 1004efe6 f i libucrt:output.obj
 0001:0004dfeb       ??$scratch_data@D@formatting_buffer@__crt_stdio_output@@QAEPADXZ 1004efeb f i libucrt:output.obj
 0001:0004e009       ??$tcstol@AAPBDPAPADH@?$__crt_char_traits@D@@SAJAAPBD$$QAPAPAD$$QAH@Z 1004f009 f i libucrt:output.obj
 0001:0004e027       ??$tcstol@AAPB_WPAPA_WH@?$__crt_char_traits@_W@@SAJAAPB_W$$QAPAPA_W$$QAH@Z 1004f027 f i libucrt:output.obj
 0001:0004e045       ??$tcstol@PBDPAPADH@?$__crt_char_traits@D@@SAJ$$QAPBD$$QAPAPAD$$QAH@Z 1004f045 f i libucrt:output.obj
 0001:0004e063       ??$tcstol@PB_WPAPA_WH@?$__crt_char_traits@_W@@SAJ$$QAPB_W$$QAPAPA_W$$QAH@Z 1004f063 f i libucrt:output.obj
 0001:0004e081       ??$type_case_integer_parse_into_buffer@I@?$output_processor@DV?$stream_output_adapter@D@__crt_stdio_output@@V?$format_validation_base@DV?$stream_output_adapter@D@__crt_stdio_output@@@2@@__crt_stdio_output@@AAEXII_N@Z 1004f081 f i libucrt:output.obj
 0001:0004e0f4       ??$type_case_integer_parse_into_buffer@I@?$output_processor@DV?$stream_output_adapter@D@__crt_stdio_output@@V?$positional_parameter_base@DV?$stream_output_adapter@D@__crt_stdio_output@@@2@@__crt_stdio_output@@AAEXII_N@Z 1004f0f4 f i libucrt:output.obj
 0001:0004e167       ??$type_case_integer_parse_into_buffer@I@?$output_processor@DV?$stream_output_adapter@D@__crt_stdio_output@@V?$standard_base@DV?$stream_output_adapter@D@__crt_stdio_output@@@2@@__crt_stdio_output@@AAEXII_N@Z 1004f167 f i libucrt:output.obj
 0001:0004e1da       ??$type_case_integer_parse_into_buffer@I@?$output_processor@DV?$string_output_adapter@D@__crt_stdio_output@@V?$format_validation_base@DV?$string_output_adapter@D@__crt_stdio_output@@@2@@__crt_stdio_output@@AAEXII_N@Z 1004f1da f i libucrt:output.obj
 0001:0004e24d       ??$type_case_integer_parse_into_buffer@I@?$output_processor@DV?$string_output_adapter@D@__crt_stdio_output@@V?$positional_parameter_base@DV?$string_output_adapter@D@__crt_stdio_output@@@2@@__crt_stdio_output@@AAEXII_N@Z 1004f24d f i libucrt:output.obj
 0001:0004e2c0       ??$type_case_integer_parse_into_buffer@I@?$output_processor@DV?$string_output_adapter@D@__crt_stdio_output@@V?$standard_base@DV?$string_output_adapter@D@__crt_stdio_output@@@2@@__crt_stdio_output@@AAEXII_N@Z 1004f2c0 f i libucrt:output.obj
 0001:0004e333       ??$type_case_integer_parse_into_buffer@I@?$output_processor@_WV?$stream_output_adapter@_W@__crt_stdio_output@@V?$format_validation_base@_WV?$stream_output_adapter@_W@__crt_stdio_output@@@2@@__crt_stdio_output@@AAEXII_N@Z 1004f333 f i libucrt:output.obj
 0001:0004e3ba       ??$type_case_integer_parse_into_buffer@I@?$output_processor@_WV?$stream_output_adapter@_W@__crt_stdio_output@@V?$positional_parameter_base@_WV?$stream_output_adapter@_W@__crt_stdio_output@@@2@@__crt_stdio_output@@AAEXII_N@Z 1004f3ba f i libucrt:output.obj
 0001:0004e441       ??$type_case_integer_parse_into_buffer@I@?$output_processor@_WV?$stream_output_adapter@_W@__crt_stdio_output@@V?$standard_base@_WV?$stream_output_adapter@_W@__crt_stdio_output@@@2@@__crt_stdio_output@@AAEXII_N@Z 1004f441 f i libucrt:output.obj
 0001:0004e4c8       ??$type_case_integer_parse_into_buffer@I@?$output_processor@_WV?$string_output_adapter@_W@__crt_stdio_output@@V?$format_validation_base@_WV?$string_output_adapter@_W@__crt_stdio_output@@@2@@__crt_stdio_output@@AAEXII_N@Z 1004f4c8 f i libucrt:output.obj
 0001:0004e54f       ??$type_case_integer_parse_into_buffer@I@?$output_processor@_WV?$string_output_adapter@_W@__crt_stdio_output@@V?$positional_parameter_base@_WV?$string_output_adapter@_W@__crt_stdio_output@@@2@@__crt_stdio_output@@AAEXII_N@Z 1004f54f f i libucrt:output.obj
 0001:0004e5d6       ??$type_case_integer_parse_into_buffer@I@?$output_processor@_WV?$string_output_adapter@_W@__crt_stdio_output@@V?$standard_base@_WV?$string_output_adapter@_W@__crt_stdio_output@@@2@@__crt_stdio_output@@AAEXII_N@Z 1004f5d6 f i libucrt:output.obj
 0001:0004e65d       ??$type_case_integer_parse_into_buffer@_K@?$output_processor@DV?$stream_output_adapter@D@__crt_stdio_output@@V?$format_validation_base@DV?$stream_output_adapter@D@__crt_stdio_output@@@2@@__crt_stdio_output@@AAEX_KI_N@Z 1004f65d f i libucrt:output.obj
 0001:0004e6eb       ??$type_case_integer_parse_into_buffer@_K@?$output_processor@DV?$stream_output_adapter@D@__crt_stdio_output@@V?$positional_parameter_base@DV?$stream_output_adapter@D@__crt_stdio_output@@@2@@__crt_stdio_output@@AAEX_KI_N@Z 1004f6eb f i libucrt:output.obj
 0001:0004e779       ??$type_case_integer_parse_into_buffer@_K@?$output_processor@DV?$stream_output_adapter@D@__crt_stdio_output@@V?$standard_base@DV?$stream_output_adapter@D@__crt_stdio_output@@@2@@__crt_stdio_output@@AAEX_KI_N@Z 1004f779 f i libucrt:output.obj
 0001:0004e807       ??$type_case_integer_parse_into_buffer@_K@?$output_processor@DV?$string_output_adapter@D@__crt_stdio_output@@V?$format_validation_base@DV?$string_output_adapter@D@__crt_stdio_output@@@2@@__crt_stdio_output@@AAEX_KI_N@Z 1004f807 f i libucrt:output.obj
 0001:0004e895       ??$type_case_integer_parse_into_buffer@_K@?$output_processor@DV?$string_output_adapter@D@__crt_stdio_output@@V?$positional_parameter_base@DV?$string_output_adapter@D@__crt_stdio_output@@@2@@__crt_stdio_output@@AAEX_KI_N@Z 1004f895 f i libucrt:output.obj
 0001:0004e923       ??$type_case_integer_parse_into_buffer@_K@?$output_processor@DV?$string_output_adapter@D@__crt_stdio_output@@V?$standard_base@DV?$string_output_adapter@D@__crt_stdio_output@@@2@@__crt_stdio_output@@AAEX_KI_N@Z 1004f923 f i libucrt:output.obj
 0001:0004e9b1       ??$type_case_integer_parse_into_buffer@_K@?$output_processor@_WV?$stream_output_adapter@_W@__crt_stdio_output@@V?$format_validation_base@_WV?$stream_output_adapter@_W@__crt_stdio_output@@@2@@__crt_stdio_output@@AAEX_KI_N@Z 1004f9b1 f i libucrt:output.obj
 0001:0004ea53       ??$type_case_integer_parse_into_buffer@_K@?$output_processor@_WV?$stream_output_adapter@_W@__crt_stdio_output@@V?$positional_parameter_base@_WV?$stream_output_adapter@_W@__crt_stdio_output@@@2@@__crt_stdio_output@@AAEX_KI_N@Z 1004fa53 f i libucrt:output.obj
 0001:0004eaf5       ??$type_case_integer_parse_into_buffer@_K@?$output_processor@_WV?$stream_output_adapter@_W@__crt_stdio_output@@V?$standard_base@_WV?$stream_output_adapter@_W@__crt_stdio_output@@@2@@__crt_stdio_output@@AAEX_KI_N@Z 1004faf5 f i libucrt:output.obj
 0001:0004eb97       ??$type_case_integer_parse_into_buffer@_K@?$output_processor@_WV?$string_output_adapter@_W@__crt_stdio_output@@V?$format_validation_base@_WV?$string_output_adapter@_W@__crt_stdio_output@@@2@@__crt_stdio_output@@AAEX_KI_N@Z 1004fb97 f i libucrt:output.obj
 0001:0004ec39       ??$type_case_integer_parse_into_buffer@_K@?$output_processor@_WV?$string_output_adapter@_W@__crt_stdio_output@@V?$positional_parameter_base@_WV?$string_output_adapter@_W@__crt_stdio_output@@@2@@__crt_stdio_output@@AAEX_KI_N@Z 1004fc39 f i libucrt:output.obj
 0001:0004ecdb       ??$type_case_integer_parse_into_buffer@_K@?$output_processor@_WV?$string_output_adapter@_W@__crt_stdio_output@@V?$standard_base@_WV?$string_output_adapter@_W@__crt_stdio_output@@@2@@__crt_stdio_output@@AAEX_KI_N@Z 1004fcdb f i libucrt:output.obj
 0001:0004ed7d       ??$write_multiple_characters@V?$stream_output_adapter@D@__crt_stdio_output@@D@__crt_stdio_output@@YAXABV?$stream_output_adapter@D@0@DHQAH@Z 1004fd7d f i libucrt:output.obj
 0001:0004edb8       ??$write_multiple_characters@V?$stream_output_adapter@_W@__crt_stdio_output@@D@__crt_stdio_output@@YAXABV?$stream_output_adapter@_W@0@DHQAH@Z 1004fdb8 f i libucrt:output.obj
 0001:0004edf8       ??$write_multiple_characters@V?$string_output_adapter@D@__crt_stdio_output@@D@__crt_stdio_output@@YAXABV?$string_output_adapter@D@0@DHQAH@Z 1004fdf8 f i libucrt:output.obj
 0001:0004ee24       ??$write_multiple_characters@V?$string_output_adapter@_W@__crt_stdio_output@@D@__crt_stdio_output@@YAXABV?$string_output_adapter@_W@0@DHQAH@Z 1004fe24 f i libucrt:output.obj
 0001:0004f01d       ??0?$common_data@D@__crt_stdio_output@@IAE@XZ 1005001d f i libucrt:output.obj
 0001:0004f062       ??0?$common_data@_W@__crt_stdio_output@@IAE@XZ 10050062 f i libucrt:output.obj
 0001:0004f0ac       ??0?$output_adapter_data@DV?$stream_output_adapter@D@__crt_stdio_output@@@__crt_stdio_output@@IAE@ABV?$stream_output_adapter@D@1@_KQBDQAU__crt_locale_pointers@@QAD@Z 100500ac f i libucrt:output.obj
 0001:0004f0e8       ??0?$output_adapter_data@DV?$string_output_adapter@D@__crt_stdio_output@@@__crt_stdio_output@@IAE@ABV?$string_output_adapter@D@1@_KQBDQAU__crt_locale_pointers@@QAD@Z 100500e8 f i libucrt:output.obj
 0001:0004f124       ??0?$output_adapter_data@_WV?$stream_output_adapter@_W@__crt_stdio_output@@@__crt_stdio_output@@IAE@ABV?$stream_output_adapter@_W@1@_KQB_WQAU__crt_locale_pointers@@QAD@Z 10050124 f i libucrt:output.obj
 0001:0004f160       ??0?$output_adapter_data@_WV?$string_output_adapter@_W@__crt_stdio_output@@@__crt_stdio_output@@IAE@ABV?$string_output_adapter@_W@1@_KQB_WQAU__crt_locale_pointers@@QAD@Z 10050160 f i libucrt:output.obj
 0001:0004f19c       ??0?$output_processor@DV?$stream_output_adapter@D@__crt_stdio_output@@V?$format_validation_base@DV?$stream_output_adapter@D@__crt_stdio_output@@@2@@__crt_stdio_output@@QAE@ABV?$stream_output_adapter@D@1@_KQBDQAU__crt_locale_pointers@@QAD@Z 1005019c f i libucrt:output.obj
 0001:0004f1c9       ??0?$output_processor@DV?$stream_output_adapter@D@__crt_stdio_output@@V?$positional_parameter_base@DV?$stream_output_adapter@D@__crt_stdio_output@@@2@@__crt_stdio_output@@QAE@ABV?$stream_output_adapter@D@1@_KQBDQAU__crt_locale_pointers@@QAD@Z 100501c9 f i libucrt:output.obj
 0001:0004f1f0       ??0?$output_processor@DV?$stream_output_adapter@D@__crt_stdio_output@@V?$standard_base@DV?$stream_output_adapter@D@__crt_stdio_output@@@2@@__crt_stdio_output@@QAE@ABV?$stream_output_adapter@D@1@_KQBDQAU__crt_locale_pointers@@QAD@Z 100501f0 f i libucrt:output.obj
 0001:0004f21d       ??0?$output_processor@DV?$string_output_adapter@D@__crt_stdio_output@@V?$format_validation_base@DV?$string_output_adapter@D@__crt_stdio_output@@@2@@__crt_stdio_output@@QAE@ABV?$string_output_adapter@D@1@_KQBDQAU__crt_locale_pointers@@QAD@Z 1005021d f i libucrt:output.obj
 0001:0004f24a       ??0?$output_processor@DV?$string_output_adapter@D@__crt_stdio_output@@V?$positional_parameter_base@DV?$string_output_adapter@D@__crt_stdio_output@@@2@@__crt_stdio_output@@QAE@ABV?$string_output_adapter@D@1@_KQBDQAU__crt_locale_pointers@@QAD@Z 1005024a f i libucrt:output.obj
 0001:0004f271       ??0?$output_processor@DV?$string_output_adapter@D@__crt_stdio_output@@V?$standard_base@DV?$string_output_adapter@D@__crt_stdio_output@@@2@@__crt_stdio_output@@QAE@ABV?$string_output_adapter@D@1@_KQBDQAU__crt_locale_pointers@@QAD@Z 10050271 f i libucrt:output.obj
 0001:0004f29e       ??0?$output_processor@_WV?$stream_output_adapter@_W@__crt_stdio_output@@V?$format_validation_base@_WV?$stream_output_adapter@_W@__crt_stdio_output@@@2@@__crt_stdio_output@@QAE@ABV?$stream_output_adapter@_W@1@_KQB_WQAU__crt_locale_pointers@@QAD@Z 1005029e f i libucrt:output.obj
 0001:0004f2cb       ??0?$output_processor@_WV?$stream_output_adapter@_W@__crt_stdio_output@@V?$positional_parameter_base@_WV?$stream_output_adapter@_W@__crt_stdio_output@@@2@@__crt_stdio_output@@QAE@ABV?$stream_output_adapter@_W@1@_KQB_WQAU__crt_locale_pointers@@QAD@Z 100502cb f i libucrt:output.obj
 0001:0004f2f2       ??0?$output_processor@_WV?$stream_output_adapter@_W@__crt_stdio_output@@V?$standard_base@_WV?$stream_output_adapter@_W@__crt_stdio_output@@@2@@__crt_stdio_output@@QAE@ABV?$stream_output_adapter@_W@1@_KQB_WQAU__crt_locale_pointers@@QAD@Z 100502f2 f i libucrt:output.obj
 0001:0004f31f       ??0?$output_processor@_WV?$string_output_adapter@_W@__crt_stdio_output@@V?$format_validation_base@_WV?$string_output_adapter@_W@__crt_stdio_output@@@2@@__crt_stdio_output@@QAE@ABV?$string_output_adapter@_W@1@_KQB_WQAU__crt_locale_pointers@@QAD@Z 1005031f f i libucrt:output.obj
 0001:0004f34c       ??0?$output_processor@_WV?$string_output_adapter@_W@__crt_stdio_output@@V?$positional_parameter_base@_WV?$string_output_adapter@_W@__crt_stdio_output@@@2@@__crt_stdio_output@@QAE@ABV?$string_output_adapter@_W@1@_KQB_WQAU__crt_locale_pointers@@QAD@Z 1005034c f i libucrt:output.obj
 0001:0004f373       ??0?$output_processor@_WV?$string_output_adapter@_W@__crt_stdio_output@@V?$standard_base@_WV?$string_output_adapter@_W@__crt_stdio_output@@@2@@__crt_stdio_output@@QAE@ABV?$string_output_adapter@_W@1@_KQB_WQAU__crt_locale_pointers@@QAD@Z 10050373 f i libucrt:output.obj
 0001:0004f3a0       ??0?$stream_output_adapter@D@__crt_stdio_output@@QAE@QAU_iobuf@@@Z 100503a0 f i libucrt:output.obj
 0001:0004f3b0       ??0?$stream_output_adapter@_W@__crt_stdio_output@@QAE@QAU_iobuf@@@Z 100503b0 f i libucrt:output.obj
 0001:0004f3c0       ??0?$string_output_adapter@D@__crt_stdio_output@@QAE@QAU?$string_output_adapter_context@D@1@@Z 100503c0 f i libucrt:output.obj
 0001:0004f3d0       ??0?$string_output_adapter@_W@__crt_stdio_output@@QAE@QAU?$string_output_adapter_context@_W@1@@Z 100503d0 f i libucrt:output.obj
 0001:0004f3e0       ??0_LocaleUpdate@@QAE@QAU__crt_locale_pointers@@@Z 100503e0 f i libucrt:output.obj
 0001:0004f463       ??0__acrt_stdio_temporary_buffering_guard@@QAE@QAU_iobuf@@@Z 10050463 f i libucrt:output.obj
 0001:0004f481       ??0__crt_deferred_errno_cache@@QAE@XZ 10050481 f i libucrt:output.obj
 0001:0004f487       ??0__crt_errno_guard@@QAE@QAH@Z 10050487 f i libucrt:output.obj
 0001:0004f49f       ??0__crt_stdio_stream@@QAE@QAU_iobuf@@@Z 1005049f f i libucrt:output.obj
 0001:0004f4b0       ??0formatting_buffer@__crt_stdio_output@@QAE@XZ 100504b0 f i libucrt:output.obj
 0001:0004f4c7       ??1?$common_data@D@__crt_stdio_output@@QAE@XZ 100504c7 f i libucrt:output.obj
 0001:0004f4cf       ??1?$common_data@_W@__crt_stdio_output@@QAE@XZ 100504cf f i libucrt:output.obj
 0001:0004f4d7       ??1?$format_validation_base@DV?$stream_output_adapter@D@__crt_stdio_output@@@__crt_stdio_output@@QAE@XZ 100504d7 f i libucrt:output.obj
 0001:0004f4df       ??1?$format_validation_base@DV?$string_output_adapter@D@__crt_stdio_output@@@__crt_stdio_output@@QAE@XZ 100504df f i libucrt:output.obj
 0001:0004f4e7       ??1?$format_validation_base@_WV?$stream_output_adapter@_W@__crt_stdio_output@@@__crt_stdio_output@@QAE@XZ 100504e7 f i libucrt:output.obj
 0001:0004f4ef       ??1?$format_validation_base@_WV?$string_output_adapter@_W@__crt_stdio_output@@@__crt_stdio_output@@QAE@XZ 100504ef f i libucrt:output.obj
 0001:0004f4f7       ??1?$output_adapter_data@DV?$stream_output_adapter@D@__crt_stdio_output@@@__crt_stdio_output@@QAE@XZ 100504f7 f i libucrt:output.obj
 0001:0004f4ff       ??1?$output_adapter_data@DV?$string_output_adapter@D@__crt_stdio_output@@@__crt_stdio_output@@QAE@XZ 100504ff f i libucrt:output.obj
 0001:0004f507       ??1?$output_adapter_data@_WV?$stream_output_adapter@_W@__crt_stdio_output@@@__crt_stdio_output@@QAE@XZ 10050507 f i libucrt:output.obj
 0001:0004f50f       ??1?$output_adapter_data@_WV?$string_output_adapter@_W@__crt_stdio_output@@@__crt_stdio_output@@QAE@XZ 1005050f f i libucrt:output.obj
 0001:0004f517       ??1?$output_processor@DV?$stream_output_adapter@D@__crt_stdio_output@@V?$format_validation_base@DV?$stream_output_adapter@D@__crt_stdio_output@@@2@@__crt_stdio_output@@QAE@XZ 10050517 f i libucrt:output.obj
 0001:0004f51f       ??1?$output_processor@DV?$stream_output_adapter@D@__crt_stdio_output@@V?$positional_parameter_base@DV?$stream_output_adapter@D@__crt_stdio_output@@@2@@__crt_stdio_output@@QAE@XZ 1005051f f i libucrt:output.obj
 0001:0004f527       ??1?$output_processor@DV?$stream_output_adapter@D@__crt_stdio_output@@V?$standard_base@DV?$stream_output_adapter@D@__crt_stdio_output@@@2@@__crt_stdio_output@@QAE@XZ 10050527 f i libucrt:output.obj
 0001:0004f52f       ??1?$output_processor@DV?$string_output_adapter@D@__crt_stdio_output@@V?$format_validation_base@DV?$string_output_adapter@D@__crt_stdio_output@@@2@@__crt_stdio_output@@QAE@XZ 1005052f f i libucrt:output.obj
 0001:0004f537       ??1?$output_processor@DV?$string_output_adapter@D@__crt_stdio_output@@V?$positional_parameter_base@DV?$string_output_adapter@D@__crt_stdio_output@@@2@@__crt_stdio_output@@QAE@XZ 10050537 f i libucrt:output.obj
 0001:0004f53f       ??1?$output_processor@DV?$string_output_adapter@D@__crt_stdio_output@@V?$standard_base@DV?$string_output_adapter@D@__crt_stdio_output@@@2@@__crt_stdio_output@@QAE@XZ 1005053f f i libucrt:output.obj
 0001:0004f547       ??1?$output_processor@_WV?$stream_output_adapter@_W@__crt_stdio_output@@V?$format_validation_base@_WV?$stream_output_adapter@_W@__crt_stdio_output@@@2@@__crt_stdio_output@@QAE@XZ 10050547 f i libucrt:output.obj
 0001:0004f54f       ??1?$output_processor@_WV?$stream_output_adapter@_W@__crt_stdio_output@@V?$positional_parameter_base@_WV?$stream_output_adapter@_W@__crt_stdio_output@@@2@@__crt_stdio_output@@QAE@XZ 1005054f f i libucrt:output.obj
 0001:0004f557       ??1?$output_processor@_WV?$stream_output_adapter@_W@__crt_stdio_output@@V?$standard_base@_WV?$stream_output_adapter@_W@__crt_stdio_output@@@2@@__crt_stdio_output@@QAE@XZ 10050557 f i libucrt:output.obj
 0001:0004f55f       ??1?$output_processor@_WV?$string_output_adapter@_W@__crt_stdio_output@@V?$format_validation_base@_WV?$string_output_adapter@_W@__crt_stdio_output@@@2@@__crt_stdio_output@@QAE@XZ 1005055f f i libucrt:output.obj
 0001:0004f567       ??1?$output_processor@_WV?$string_output_adapter@_W@__crt_stdio_output@@V?$positional_parameter_base@_WV?$string_output_adapter@_W@__crt_stdio_output@@@2@@__crt_stdio_output@@QAE@XZ 10050567 f i libucrt:output.obj
 0001:0004f56f       ??1?$output_processor@_WV?$string_output_adapter@_W@__crt_stdio_output@@V?$standard_base@_WV?$string_output_adapter@_W@__crt_stdio_output@@@2@@__crt_stdio_output@@QAE@XZ 1005056f f i libucrt:output.obj
 0001:0004f577       ??1?$positional_parameter_base@DV?$stream_output_adapter@D@__crt_stdio_output@@@__crt_stdio_output@@QAE@XZ 10050577 f i libucrt:output.obj
 0001:0004f57f       ??1?$positional_parameter_base@DV?$string_output_adapter@D@__crt_stdio_output@@@__crt_stdio_output@@QAE@XZ 1005057f f i libucrt:output.obj
 0001:0004f587       ??1?$positional_parameter_base@_WV?$stream_output_adapter@_W@__crt_stdio_output@@@__crt_stdio_output@@QAE@XZ 10050587 f i libucrt:output.obj
 0001:0004f58f       ??1?$positional_parameter_base@_WV?$string_output_adapter@_W@__crt_stdio_output@@@__crt_stdio_output@@QAE@XZ 1005058f f i libucrt:output.obj
 0001:0004f597       ??1?$standard_base@DV?$stream_output_adapter@D@__crt_stdio_output@@@__crt_stdio_output@@QAE@XZ 10050597 f i libucrt:output.obj
 0001:0004f59f       ??1?$standard_base@DV?$string_output_adapter@D@__crt_stdio_output@@@__crt_stdio_output@@QAE@XZ 1005059f f i libucrt:output.obj
 0001:0004f5a7       ??1?$standard_base@_WV?$stream_output_adapter@_W@__crt_stdio_output@@@__crt_stdio_output@@QAE@XZ 100505a7 f i libucrt:output.obj
 0001:0004f5af       ??1?$standard_base@_WV?$string_output_adapter@_W@__crt_stdio_output@@@__crt_stdio_output@@QAE@XZ 100505af f i libucrt:output.obj
 0001:0004f5b7       ??1_LocaleUpdate@@QAE@XZ   100505b7 f i libucrt:output.obj
 0001:0004f5c7       ??1__acrt_stdio_temporary_buffering_guard@@QAE@XZ 100505c7 f i libucrt:output.obj
 0001:0004f5d6       ??1__crt_errno_guard@@QAE@XZ 100505d6 f i libucrt:output.obj
 0001:0004f5e7       ??1formatting_buffer@__crt_stdio_output@@QAE@XZ 100505e7 f i libucrt:output.obj
 0001:0004f601       ??4?$__crt_unique_heap_ptr@DU__crt_internal_free_policy@@@@QAEAAV0@$$QAV0@@Z 10050601 f i libucrt:output.obj
 0001:0004f625       ??A?$spectre_mitigated_lookup_table@Ustate_transition_pair@__crt_stdio_output@@$0IA@@__crt_stdio_output@@QBEABUstate_transition_pair@1@I@Z 10050625 f i libucrt:output.obj
 0001:0004f637       ??C__crt_stdio_stream@@QBEPAU__crt_stdio_stream_data@@XZ 10050637 f i libucrt:output.obj
 0001:0004fb8a       ?GetLocaleT@_LocaleUpdate@@QAEPAU__crt_locale_pointers@@XZ 10050b8a f i libucrt:output.obj
 0001:0004fb8e       ?adjust_hexit@?$output_processor@DV?$stream_output_adapter@D@__crt_stdio_output@@V?$format_validation_base@DV?$stream_output_adapter@D@__crt_stdio_output@@@2@@__crt_stdio_output@@CADH_N@Z 10050b8e f i libucrt:output.obj
 0001:0004fba2       ?adjust_hexit@?$output_processor@DV?$stream_output_adapter@D@__crt_stdio_output@@V?$positional_parameter_base@DV?$stream_output_adapter@D@__crt_stdio_output@@@2@@__crt_stdio_output@@CADH_N@Z 10050ba2 f i libucrt:output.obj
 0001:0004fbb6       ?adjust_hexit@?$output_processor@DV?$stream_output_adapter@D@__crt_stdio_output@@V?$standard_base@DV?$stream_output_adapter@D@__crt_stdio_output@@@2@@__crt_stdio_output@@CADH_N@Z 10050bb6 f i libucrt:output.obj
 0001:0004fbca       ?adjust_hexit@?$output_processor@DV?$string_output_adapter@D@__crt_stdio_output@@V?$format_validation_base@DV?$string_output_adapter@D@__crt_stdio_output@@@2@@__crt_stdio_output@@CADH_N@Z 10050bca f i libucrt:output.obj
 0001:0004fbde       ?adjust_hexit@?$output_processor@DV?$string_output_adapter@D@__crt_stdio_output@@V?$positional_parameter_base@DV?$string_output_adapter@D@__crt_stdio_output@@@2@@__crt_stdio_output@@CADH_N@Z 10050bde f i libucrt:output.obj
 0001:0004fbf2       ?adjust_hexit@?$output_processor@DV?$string_output_adapter@D@__crt_stdio_output@@V?$standard_base@DV?$string_output_adapter@D@__crt_stdio_output@@@2@@__crt_stdio_output@@CADH_N@Z 10050bf2 f i libucrt:output.obj
 0001:0004fc06       ?adjust_hexit@?$output_processor@_WV?$stream_output_adapter@_W@__crt_stdio_output@@V?$format_validation_base@_WV?$stream_output_adapter@_W@__crt_stdio_output@@@2@@__crt_stdio_output@@CADH_N@Z 10050c06 f i libucrt:output.obj
 0001:0004fc1a       ?adjust_hexit@?$output_processor@_WV?$stream_output_adapter@_W@__crt_stdio_output@@V?$positional_parameter_base@_WV?$stream_output_adapter@_W@__crt_stdio_output@@@2@@__crt_stdio_output@@CADH_N@Z 10050c1a f i libucrt:output.obj
 0001:0004fc2e       ?adjust_hexit@?$output_processor@_WV?$stream_output_adapter@_W@__crt_stdio_output@@V?$standard_base@_WV?$stream_output_adapter@_W@__crt_stdio_output@@@2@@__crt_stdio_output@@CADH_N@Z 10050c2e f i libucrt:output.obj
 0001:0004fc42       ?adjust_hexit@?$output_processor@_WV?$string_output_adapter@_W@__crt_stdio_output@@V?$format_validation_base@_WV?$string_output_adapter@_W@__crt_stdio_output@@@2@@__crt_stdio_output@@CADH_N@Z 10050c42 f i libucrt:output.obj
 0001:0004fc56       ?adjust_hexit@?$output_processor@_WV?$string_output_adapter@_W@__crt_stdio_output@@V?$positional_parameter_base@_WV?$string_output_adapter@_W@__crt_stdio_output@@@2@@__crt_stdio_output@@CADH_N@Z 10050c56 f i libucrt:output.obj
 0001:0004fc6a       ?adjust_hexit@?$output_processor@_WV?$string_output_adapter@_W@__crt_stdio_output@@V?$standard_base@_WV?$string_output_adapter@_W@__crt_stdio_output@@@2@@__crt_stdio_output@@CADH_N@Z 10050c6a f i libucrt:output.obj
 0001:0004fc7e       ?advance_to_next_pass@?$positional_parameter_base@DV?$stream_output_adapter@D@__crt_stdio_output@@@__crt_stdio_output@@IAE_NXZ 10050c7e f i libucrt:output.obj
 0001:0004fcca       ?advance_to_next_pass@?$positional_parameter_base@DV?$string_output_adapter@D@__crt_stdio_output@@@__crt_stdio_output@@IAE_NXZ 10050cca f i libucrt:output.obj
 0001:0004fd16       ?advance_to_next_pass@?$positional_parameter_base@_WV?$stream_output_adapter@_W@__crt_stdio_output@@@__crt_stdio_output@@IAE_NXZ 10050d16 f i libucrt:output.obj
 0001:0004fd62       ?advance_to_next_pass@?$positional_parameter_base@_WV?$string_output_adapter@_W@__crt_stdio_output@@@__crt_stdio_output@@IAE_NXZ 10050d62 f i libucrt:output.obj
 0001:0004fdae       ?advance_to_next_pass@?$standard_base@DV?$stream_output_adapter@D@__crt_stdio_output@@@__crt_stdio_output@@IAE_NXZ 10050dae f i libucrt:output.obj
 0001:0004fdbf       ?advance_to_next_pass@?$standard_base@DV?$string_output_adapter@D@__crt_stdio_output@@@__crt_stdio_output@@IAE_NXZ 10050dbf f i libucrt:output.obj
 0001:0004fdd0       ?advance_to_next_pass@?$standard_base@_WV?$stream_output_adapter@_W@__crt_stdio_output@@@__crt_stdio_output@@IAE_NXZ 10050dd0 f i libucrt:output.obj
 0001:0004fde1       ?advance_to_next_pass@?$standard_base@_WV?$string_output_adapter@_W@__crt_stdio_output@@@__crt_stdio_output@@IAE_NXZ 10050de1 f i libucrt:output.obj
 0001:0004fe00       ?crop_zeroes@__crt_stdio_output@@YAXPADQAU__crt_locale_pointers@@@Z 10050e00 f i libucrt:output.obj
 0001:0004fe81       ?find_next_state@?$output_processor@DV?$stream_output_adapter@D@__crt_stdio_output@@V?$format_validation_base@DV?$stream_output_adapter@D@__crt_stdio_output@@@2@@__crt_stdio_output@@ABE?AW4state@2@DW432@@Z 10050e81 f i libucrt:output.obj
 0001:0004feb8       ?find_next_state@?$output_processor@DV?$stream_output_adapter@D@__crt_stdio_output@@V?$positional_parameter_base@DV?$stream_output_adapter@D@__crt_stdio_output@@@2@@__crt_stdio_output@@ABE?AW4state@2@DW432@@Z 10050eb8 f i libucrt:output.obj
 0001:0004feef       ?find_next_state@?$output_processor@DV?$stream_output_adapter@D@__crt_stdio_output@@V?$standard_base@DV?$stream_output_adapter@D@__crt_stdio_output@@@2@@__crt_stdio_output@@ABE?AW4state@2@DW432@@Z 10050eef f i libucrt:output.obj
 0001:0004ff26       ?find_next_state@?$output_processor@DV?$string_output_adapter@D@__crt_stdio_output@@V?$format_validation_base@DV?$string_output_adapter@D@__crt_stdio_output@@@2@@__crt_stdio_output@@ABE?AW4state@2@DW432@@Z 10050f26 f i libucrt:output.obj
 0001:0004ff5d       ?find_next_state@?$output_processor@DV?$string_output_adapter@D@__crt_stdio_output@@V?$positional_parameter_base@DV?$string_output_adapter@D@__crt_stdio_output@@@2@@__crt_stdio_output@@ABE?AW4state@2@DW432@@Z 10050f5d f i libucrt:output.obj
 0001:0004ff94       ?find_next_state@?$output_processor@DV?$string_output_adapter@D@__crt_stdio_output@@V?$standard_base@DV?$string_output_adapter@D@__crt_stdio_output@@@2@@__crt_stdio_output@@ABE?AW4state@2@DW432@@Z 10050f94 f i libucrt:output.obj
 0001:0004ffcb       ?find_next_state@?$output_processor@_WV?$stream_output_adapter@_W@__crt_stdio_output@@V?$format_validation_base@_WV?$stream_output_adapter@_W@__crt_stdio_output@@@2@@__crt_stdio_output@@ABE?AW4state@2@_WW432@@Z 10050fcb f i libucrt:output.obj
 0001:00050001       ?find_next_state@?$output_processor@_WV?$stream_output_adapter@_W@__crt_stdio_output@@V?$positional_parameter_base@_WV?$stream_output_adapter@_W@__crt_stdio_output@@@2@@__crt_stdio_output@@ABE?AW4state@2@_WW432@@Z 10051001 f i libucrt:output.obj
 0001:00050037       ?find_next_state@?$output_processor@_WV?$stream_output_adapter@_W@__crt_stdio_output@@V?$standard_base@_WV?$stream_output_adapter@_W@__crt_stdio_output@@@2@@__crt_stdio_output@@ABE?AW4state@2@_WW432@@Z 10051037 f i libucrt:output.obj
 0001:0005006d       ?find_next_state@?$output_processor@_WV?$string_output_adapter@_W@__crt_stdio_output@@V?$format_validation_base@_WV?$string_output_adapter@_W@__crt_stdio_output@@@2@@__crt_stdio_output@@ABE?AW4state@2@_WW432@@Z 1005106d f i libucrt:output.obj
 0001:000500a3       ?find_next_state@?$output_processor@_WV?$string_output_adapter@_W@__crt_stdio_output@@V?$positional_parameter_base@_WV?$string_output_adapter@_W@__crt_stdio_output@@@2@@__crt_stdio_output@@ABE?AW4state@2@_WW432@@Z 100510a3 f i libucrt:output.obj
 0001:000500d9       ?find_next_state@?$output_processor@_WV?$string_output_adapter@_W@__crt_stdio_output@@V?$standard_base@_WV?$string_output_adapter@_W@__crt_stdio_output@@@2@@__crt_stdio_output@@ABE?AW4state@2@_WW432@@Z 100510d9 f i libucrt:output.obj
 0001:00050110       ?force_decimal_point@__crt_stdio_output@@YAXPADQAU__crt_locale_pointers@@@Z 10051110 f i libucrt:output.obj
 0001:00050175       ?get@__crt_deferred_errno_cache@@QAEAAHXZ 10051175 f i libucrt:output.obj
 0001:00050189       ?get_flags@__crt_stdio_stream@@QBEJXZ 10051189 f i libucrt:output.obj
 0001:00050190       ?get_parameter_type@?$positional_parameter_base@DV?$stream_output_adapter@D@__crt_stdio_output@@@__crt_stdio_output@@CA?AW4parameter_type@12@F@Z 10051190 f i libucrt:output.obj
 0001:00050194       ?get_parameter_type@?$positional_parameter_base@DV?$stream_output_adapter@D@__crt_stdio_output@@@__crt_stdio_output@@CA?AW4parameter_type@12@G@Z 10051194 f i libucrt:output.obj
 0001:00050198       ?get_parameter_type@?$positional_parameter_base@DV?$stream_output_adapter@D@__crt_stdio_output@@@__crt_stdio_output@@CA?AW4parameter_type@12@H@Z 10051198 f i libucrt:output.obj
 0001:0005019c       ?get_parameter_type@?$positional_parameter_base@DV?$stream_output_adapter@D@__crt_stdio_output@@@__crt_stdio_output@@CA?AW4parameter_type@12@I@Z 1005119c f i libucrt:output.obj
 0001:000501a0       ?get_parameter_type@?$positional_parameter_base@DV?$stream_output_adapter@D@__crt_stdio_output@@@__crt_stdio_output@@CA?AW4parameter_type@12@U_CRT_DOUBLE@@@Z 100511a0 f i libucrt:output.obj
 0001:000501a4       ?get_parameter_type@?$positional_parameter_base@DV?$stream_output_adapter@D@__crt_stdio_output@@@__crt_stdio_output@@CA?AW4parameter_type@12@_J@Z 100511a4 f i libucrt:output.obj
 0001:000501a8       ?get_parameter_type@?$positional_parameter_base@DV?$stream_output_adapter@D@__crt_stdio_output@@@__crt_stdio_output@@CA?AW4parameter_type@12@_K@Z 100511a8 f i libucrt:output.obj
 0001:000501ac       ?get_parameter_type@?$positional_parameter_base@DV?$stream_output_adapter@D@__crt_stdio_output@@@__crt_stdio_output@@CA?AW4parameter_type@12@_W@Z 100511ac f i libucrt:output.obj
 0001:000501b0       ?get_parameter_type@?$positional_parameter_base@DV?$string_output_adapter@D@__crt_stdio_output@@@__crt_stdio_output@@CA?AW4parameter_type@12@F@Z 100511b0 f i libucrt:output.obj
 0001:000501b4       ?get_parameter_type@?$positional_parameter_base@DV?$string_output_adapter@D@__crt_stdio_output@@@__crt_stdio_output@@CA?AW4parameter_type@12@G@Z 100511b4 f i libucrt:output.obj
 0001:000501b8       ?get_parameter_type@?$positional_parameter_base@DV?$string_output_adapter@D@__crt_stdio_output@@@__crt_stdio_output@@CA?AW4parameter_type@12@H@Z 100511b8 f i libucrt:output.obj
 0001:000501bc       ?get_parameter_type@?$positional_parameter_base@DV?$string_output_adapter@D@__crt_stdio_output@@@__crt_stdio_output@@CA?AW4parameter_type@12@I@Z 100511bc f i libucrt:output.obj
 0001:000501c0       ?get_parameter_type@?$positional_parameter_base@DV?$string_output_adapter@D@__crt_stdio_output@@@__crt_stdio_output@@CA?AW4parameter_type@12@U_CRT_DOUBLE@@@Z 100511c0 f i libucrt:output.obj
 0001:000501c4       ?get_parameter_type@?$positional_parameter_base@DV?$string_output_adapter@D@__crt_stdio_output@@@__crt_stdio_output@@CA?AW4parameter_type@12@_J@Z 100511c4 f i libucrt:output.obj
 0001:000501c8       ?get_parameter_type@?$positional_parameter_base@DV?$string_output_adapter@D@__crt_stdio_output@@@__crt_stdio_output@@CA?AW4parameter_type@12@_K@Z 100511c8 f i libucrt:output.obj
 0001:000501cc       ?get_parameter_type@?$positional_parameter_base@DV?$string_output_adapter@D@__crt_stdio_output@@@__crt_stdio_output@@CA?AW4parameter_type@12@_W@Z 100511cc f i libucrt:output.obj
 0001:000501d0       ?get_parameter_type@?$positional_parameter_base@_WV?$stream_output_adapter@_W@__crt_stdio_output@@@__crt_stdio_output@@CA?AW4parameter_type@12@F@Z 100511d0 f i libucrt:output.obj
 0001:000501d4       ?get_parameter_type@?$positional_parameter_base@_WV?$stream_output_adapter@_W@__crt_stdio_output@@@__crt_stdio_output@@CA?AW4parameter_type@12@G@Z 100511d4 f i libucrt:output.obj
 0001:000501d8       ?get_parameter_type@?$positional_parameter_base@_WV?$stream_output_adapter@_W@__crt_stdio_output@@@__crt_stdio_output@@CA?AW4parameter_type@12@H@Z 100511d8 f i libucrt:output.obj
 0001:000501dc       ?get_parameter_type@?$positional_parameter_base@_WV?$stream_output_adapter@_W@__crt_stdio_output@@@__crt_stdio_output@@CA?AW4parameter_type@12@I@Z 100511dc f i libucrt:output.obj
 0001:000501e0       ?get_parameter_type@?$positional_parameter_base@_WV?$stream_output_adapter@_W@__crt_stdio_output@@@__crt_stdio_output@@CA?AW4parameter_type@12@U_CRT_DOUBLE@@@Z 100511e0 f i libucrt:output.obj
 0001:000501e4       ?get_parameter_type@?$positional_parameter_base@_WV?$stream_output_adapter@_W@__crt_stdio_output@@@__crt_stdio_output@@CA?AW4parameter_type@12@_J@Z 100511e4 f i libucrt:output.obj
 0001:000501e8       ?get_parameter_type@?$positional_parameter_base@_WV?$stream_output_adapter@_W@__crt_stdio_output@@@__crt_stdio_output@@CA?AW4parameter_type@12@_K@Z 100511e8 f i libucrt:output.obj
 0001:000501ec       ?get_parameter_type@?$positional_parameter_base@_WV?$stream_output_adapter@_W@__crt_stdio_output@@@__crt_stdio_output@@CA?AW4parameter_type@12@_W@Z 100511ec f i libucrt:output.obj
 0001:000501f0       ?get_parameter_type@?$positional_parameter_base@_WV?$string_output_adapter@_W@__crt_stdio_output@@@__crt_stdio_output@@CA?AW4parameter_type@12@F@Z 100511f0 f i libucrt:output.obj
 0001:000501f4       ?get_parameter_type@?$positional_parameter_base@_WV?$string_output_adapter@_W@__crt_stdio_output@@@__crt_stdio_output@@CA?AW4parameter_type@12@G@Z 100511f4 f i libucrt:output.obj
 0001:000501f8       ?get_parameter_type@?$positional_parameter_base@_WV?$string_output_adapter@_W@__crt_stdio_output@@@__crt_stdio_output@@CA?AW4parameter_type@12@H@Z 100511f8 f i libucrt:output.obj
 0001:000501fc       ?get_parameter_type@?$positional_parameter_base@_WV?$string_output_adapter@_W@__crt_stdio_output@@@__crt_stdio_output@@CA?AW4parameter_type@12@I@Z 100511fc f i libucrt:output.obj
 0001:00050200       ?get_parameter_type@?$positional_parameter_base@_WV?$string_output_adapter@_W@__crt_stdio_output@@@__crt_stdio_output@@CA?AW4parameter_type@12@U_CRT_DOUBLE@@@Z 10051200 f i libucrt:output.obj
 0001:00050204       ?get_parameter_type@?$positional_parameter_base@_WV?$string_output_adapter@_W@__crt_stdio_output@@@__crt_stdio_output@@CA?AW4parameter_type@12@_J@Z 10051204 f i libucrt:output.obj
 0001:00050208       ?get_parameter_type@?$positional_parameter_base@_WV?$string_output_adapter@_W@__crt_stdio_output@@@__crt_stdio_output@@CA?AW4parameter_type@12@_K@Z 10051208 f i libucrt:output.obj
 0001:0005020c       ?get_parameter_type@?$positional_parameter_base@_WV?$string_output_adapter@_W@__crt_stdio_output@@@__crt_stdio_output@@CA?AW4parameter_type@12@_W@Z 1005120c f i libucrt:output.obj
 0001:00050210       ?has_flag@?$output_processor@DV?$stream_output_adapter@D@__crt_stdio_output@@V?$format_validation_base@DV?$stream_output_adapter@D@__crt_stdio_output@@@2@@__crt_stdio_output@@ABE_NI@Z 10051210 f i libucrt:output.obj
 0001:00050222       ?has_flag@?$output_processor@DV?$stream_output_adapter@D@__crt_stdio_output@@V?$positional_parameter_base@DV?$stream_output_adapter@D@__crt_stdio_output@@@2@@__crt_stdio_output@@ABE_NI@Z 10051222 f i libucrt:output.obj
 0001:00050234       ?has_flag@?$output_processor@DV?$stream_output_adapter@D@__crt_stdio_output@@V?$standard_base@DV?$stream_output_adapter@D@__crt_stdio_output@@@2@@__crt_stdio_output@@ABE_NI@Z 10051234 f i libucrt:output.obj
 0001:00050246       ?has_flag@?$output_processor@DV?$string_output_adapter@D@__crt_stdio_output@@V?$format_validation_base@DV?$string_output_adapter@D@__crt_stdio_output@@@2@@__crt_stdio_output@@ABE_NI@Z 10051246 f i libucrt:output.obj
 0001:00050258       ?has_flag@?$output_processor@DV?$string_output_adapter@D@__crt_stdio_output@@V?$positional_parameter_base@DV?$string_output_adapter@D@__crt_stdio_output@@@2@@__crt_stdio_output@@ABE_NI@Z 10051258 f i libucrt:output.obj
 0001:0005026a       ?has_flag@?$output_processor@DV?$string_output_adapter@D@__crt_stdio_output@@V?$standard_base@DV?$string_output_adapter@D@__crt_stdio_output@@@2@@__crt_stdio_output@@ABE_NI@Z 1005126a f i libucrt:output.obj
 0001:0005027c       ?has_flag@?$output_processor@_WV?$stream_output_adapter@_W@__crt_stdio_output@@V?$format_validation_base@_WV?$stream_output_adapter@_W@__crt_stdio_output@@@2@@__crt_stdio_output@@ABE_NI@Z 1005127c f i libucrt:output.obj
 0001:0005028e       ?has_flag@?$output_processor@_WV?$stream_output_adapter@_W@__crt_stdio_output@@V?$positional_parameter_base@_WV?$stream_output_adapter@_W@__crt_stdio_output@@@2@@__crt_stdio_output@@ABE_NI@Z 1005128e f i libucrt:output.obj
 0001:000502a0       ?has_flag@?$output_processor@_WV?$stream_output_adapter@_W@__crt_stdio_output@@V?$standard_base@_WV?$stream_output_adapter@_W@__crt_stdio_output@@@2@@__crt_stdio_output@@ABE_NI@Z 100512a0 f i libucrt:output.obj
 0001:000502b2       ?has_flag@?$output_processor@_WV?$string_output_adapter@_W@__crt_stdio_output@@V?$format_validation_base@_WV?$string_output_adapter@_W@__crt_stdio_output@@@2@@__crt_stdio_output@@ABE_NI@Z 100512b2 f i libucrt:output.obj
 0001:000502c4       ?has_flag@?$output_processor@_WV?$string_output_adapter@_W@__crt_stdio_output@@V?$positional_parameter_base@_WV?$string_output_adapter@_W@__crt_stdio_output@@@2@@__crt_stdio_output@@ABE_NI@Z 100512c4 f i libucrt:output.obj
 0001:000502d6       ?has_flag@?$output_processor@_WV?$string_output_adapter@_W@__crt_stdio_output@@V?$standard_base@_WV?$string_output_adapter@_W@__crt_stdio_output@@@2@@__crt_stdio_output@@ABE_NI@Z 100512d6 f i libucrt:output.obj
 0001:000502e8       ?is_positional_parameter_reappearance_consistent@?$positional_parameter_base@DV?$stream_output_adapter@D@__crt_stdio_output@@@__crt_stdio_output@@AAE_NABUparameter_data@12@W4parameter_type@12@DW4length_modifier@2@@Z 100512e8 f i libucrt:output.obj
 0001:00050402       ?is_positional_parameter_reappearance_consistent@?$positional_parameter_base@DV?$string_output_adapter@D@__crt_stdio_output@@@__crt_stdio_output@@AAE_NABUparameter_data@12@W4parameter_type@12@DW4length_modifier@2@@Z 10051402 f i libucrt:output.obj
 0001:0005051c       ?is_positional_parameter_reappearance_consistent@?$positional_parameter_base@_WV?$stream_output_adapter@_W@__crt_stdio_output@@@__crt_stdio_output@@AAE_NABUparameter_data@12@W4parameter_type@12@_WW4length_modifier@2@@Z 1005151c f i libucrt:output.obj
 0001:00050637       ?is_positional_parameter_reappearance_consistent@?$positional_parameter_base@_WV?$string_output_adapter@_W@__crt_stdio_output@@@__crt_stdio_output@@AAE_NABUparameter_data@12@W4parameter_type@12@_WW4length_modifier@2@@Z 10051637 f i libucrt:output.obj
 0001:00050752       ?is_string_backed@__crt_stdio_stream@@QBE_NXZ 10051752 f i libucrt:output.obj
 0001:0005075e       ?narrow_null_string@?$output_processor@DV?$stream_output_adapter@D@__crt_stdio_output@@V?$format_validation_base@DV?$stream_output_adapter@D@__crt_stdio_output@@@2@@__crt_stdio_output@@CAPADXZ 1005175e f i libucrt:output.obj
 0001:00050764       ?narrow_null_string@?$output_processor@DV?$stream_output_adapter@D@__crt_stdio_output@@V?$positional_parameter_base@DV?$stream_output_adapter@D@__crt_stdio_output@@@2@@__crt_stdio_output@@CAPADXZ 10051764 f i libucrt:output.obj
 0001:0005076a       ?narrow_null_string@?$output_processor@DV?$stream_output_adapter@D@__crt_stdio_output@@V?$standard_base@DV?$stream_output_adapter@D@__crt_stdio_output@@@2@@__crt_stdio_output@@CAPADXZ 1005176a f i libucrt:output.obj
 0001:00050770       ?narrow_null_string@?$output_processor@DV?$string_output_adapter@D@__crt_stdio_output@@V?$format_validation_base@DV?$string_output_adapter@D@__crt_stdio_output@@@2@@__crt_stdio_output@@CAPADXZ 10051770 f i libucrt:output.obj
 0001:00050776       ?narrow_null_string@?$output_processor@DV?$string_output_adapter@D@__crt_stdio_output@@V?$positional_parameter_base@DV?$string_output_adapter@D@__crt_stdio_output@@@2@@__crt_stdio_output@@CAPADXZ 10051776 f i libucrt:output.obj
 0001:0005077c       ?narrow_null_string@?$output_processor@DV?$string_output_adapter@D@__crt_stdio_output@@V?$standard_base@DV?$string_output_adapter@D@__crt_stdio_output@@@2@@__crt_stdio_output@@CAPADXZ 1005177c f i libucrt:output.obj
 0001:00050782       ?narrow_null_string@?$output_processor@_WV?$stream_output_adapter@_W@__crt_stdio_output@@V?$format_validation_base@_WV?$stream_output_adapter@_W@__crt_stdio_output@@@2@@__crt_stdio_output@@CAPADXZ 10051782 f i libucrt:output.obj
 0001:00050788       ?narrow_null_string@?$output_processor@_WV?$stream_output_adapter@_W@__crt_stdio_output@@V?$positional_parameter_base@_WV?$stream_output_adapter@_W@__crt_stdio_output@@@2@@__crt_stdio_output@@CAPADXZ 10051788 f i libucrt:output.obj
 0001:0005078e       ?narrow_null_string@?$output_processor@_WV?$stream_output_adapter@_W@__crt_stdio_output@@V?$standard_base@_WV?$stream_output_adapter@_W@__crt_stdio_output@@@2@@__crt_stdio_output@@CAPADXZ 1005178e f i libucrt:output.obj
 0001:00050794       ?narrow_null_string@?$output_processor@_WV?$string_output_adapter@_W@__crt_stdio_output@@V?$format_validation_base@_WV?$string_output_adapter@_W@__crt_stdio_output@@@2@@__crt_stdio_output@@CAPADXZ 10051794 f i libucrt:output.obj
 0001:0005079a       ?narrow_null_string@?$output_processor@_WV?$string_output_adapter@_W@__crt_stdio_output@@V?$positional_parameter_base@_WV?$string_output_adapter@_W@__crt_stdio_output@@@2@@__crt_stdio_output@@CAPADXZ 1005179a f i libucrt:output.obj
 0001:000507a0       ?narrow_null_string@?$output_processor@_WV?$string_output_adapter@_W@__crt_stdio_output@@V?$standard_base@_WV?$string_output_adapter@_W@__crt_stdio_output@@@2@@__crt_stdio_output@@CAPADXZ 100517a0 f i libucrt:output.obj
 0001:000507a6       ?parse_int_from_format_string@?$output_processor@DV?$stream_output_adapter@D@__crt_stdio_output@@V?$format_validation_base@DV?$stream_output_adapter@D@__crt_stdio_output@@@2@@__crt_stdio_output@@AAE_NQAH@Z 100517a6 f i libucrt:output.obj
 0001:0005081a       ?parse_int_from_format_string@?$output_processor@DV?$stream_output_adapter@D@__crt_stdio_output@@V?$positional_parameter_base@DV?$stream_output_adapter@D@__crt_stdio_output@@@2@@__crt_stdio_output@@AAE_NQAH@Z 1005181a f i libucrt:output.obj
 0001:0005088e       ?parse_int_from_format_string@?$output_processor@DV?$stream_output_adapter@D@__crt_stdio_output@@V?$standard_base@DV?$stream_output_adapter@D@__crt_stdio_output@@@2@@__crt_stdio_output@@AAE_NQAH@Z 1005188e f i libucrt:output.obj
 0001:00050902       ?parse_int_from_format_string@?$output_processor@DV?$string_output_adapter@D@__crt_stdio_output@@V?$format_validation_base@DV?$string_output_adapter@D@__crt_stdio_output@@@2@@__crt_stdio_output@@AAE_NQAH@Z 10051902 f i libucrt:output.obj
 0001:00050976       ?parse_int_from_format_string@?$output_processor@DV?$string_output_adapter@D@__crt_stdio_output@@V?$positional_parameter_base@DV?$string_output_adapter@D@__crt_stdio_output@@@2@@__crt_stdio_output@@AAE_NQAH@Z 10051976 f i libucrt:output.obj
 0001:000509ea       ?parse_int_from_format_string@?$output_processor@DV?$string_output_adapter@D@__crt_stdio_output@@V?$standard_base@DV?$string_output_adapter@D@__crt_stdio_output@@@2@@__crt_stdio_output@@AAE_NQAH@Z 100519ea f i libucrt:output.obj
 0001:00050a5e       ?parse_int_from_format_string@?$output_processor@_WV?$stream_output_adapter@_W@__crt_stdio_output@@V?$format_validation_base@_WV?$stream_output_adapter@_W@__crt_stdio_output@@@2@@__crt_stdio_output@@AAE_NQAH@Z 10051a5e f i libucrt:output.obj
 0001:00050ad4       ?parse_int_from_format_string@?$output_processor@_WV?$stream_output_adapter@_W@__crt_stdio_output@@V?$positional_parameter_base@_WV?$stream_output_adapter@_W@__crt_stdio_output@@@2@@__crt_stdio_output@@AAE_NQAH@Z 10051ad4 f i libucrt:output.obj
 0001:00050b4a       ?parse_int_from_format_string@?$output_processor@_WV?$stream_output_adapter@_W@__crt_stdio_output@@V?$standard_base@_WV?$stream_output_adapter@_W@__crt_stdio_output@@@2@@__crt_stdio_output@@AAE_NQAH@Z 10051b4a f i libucrt:output.obj
 0001:00050bc0       ?parse_int_from_format_string@?$output_processor@_WV?$string_output_adapter@_W@__crt_stdio_output@@V?$format_validation_base@_WV?$string_output_adapter@_W@__crt_stdio_output@@@2@@__crt_stdio_output@@AAE_NQAH@Z 10051bc0 f i libucrt:output.obj
 0001:00050c36       ?parse_int_from_format_string@?$output_processor@_WV?$string_output_adapter@_W@__crt_stdio_output@@V?$positional_parameter_base@_WV?$string_output_adapter@_W@__crt_stdio_output@@@2@@__crt_stdio_output@@AAE_NQAH@Z 10051c36 f i libucrt:output.obj
 0001:00050cac       ?parse_int_from_format_string@?$output_processor@_WV?$string_output_adapter@_W@__crt_stdio_output@@V?$standard_base@_WV?$string_output_adapter@_W@__crt_stdio_output@@@2@@__crt_stdio_output@@AAE_NQAH@Z 10051cac f i libucrt:output.obj
 0001:00050d22       ?process@?$output_processor@DV?$stream_output_adapter@D@__crt_stdio_output@@V?$format_validation_base@DV?$stream_output_adapter@D@__crt_stdio_output@@@2@@__crt_stdio_output@@QAEHXZ 10051d22 f i libucrt:output.obj
 0001:00050e46       ?process@?$output_processor@DV?$stream_output_adapter@D@__crt_stdio_output@@V?$positional_parameter_base@DV?$stream_output_adapter@D@__crt_stdio_output@@@2@@__crt_stdio_output@@QAEHXZ 10051e46 f i libucrt:output.obj
 0001:00050f76       ?process@?$output_processor@DV?$stream_output_adapter@D@__crt_stdio_output@@V?$standard_base@DV?$stream_output_adapter@D@__crt_stdio_output@@@2@@__crt_stdio_output@@QAEHXZ 10051f76 f i libucrt:output.obj
 0001:0005108a       ?process@?$output_processor@DV?$string_output_adapter@D@__crt_stdio_output@@V?$format_validation_base@DV?$string_output_adapter@D@__crt_stdio_output@@@2@@__crt_stdio_output@@QAEHXZ 1005208a f i libucrt:output.obj
 0001:000511ae       ?process@?$output_processor@DV?$string_output_adapter@D@__crt_stdio_output@@V?$positional_parameter_base@DV?$string_output_adapter@D@__crt_stdio_output@@@2@@__crt_stdio_output@@QAEHXZ 100521ae f i libucrt:output.obj
 0001:000512de       ?process@?$output_processor@DV?$string_output_adapter@D@__crt_stdio_output@@V?$standard_base@DV?$string_output_adapter@D@__crt_stdio_output@@@2@@__crt_stdio_output@@QAEHXZ 100522de f i libucrt:output.obj
 0001:000513f2       ?process@?$output_processor@_WV?$stream_output_adapter@_W@__crt_stdio_output@@V?$format_validation_base@_WV?$stream_output_adapter@_W@__crt_stdio_output@@@2@@__crt_stdio_output@@QAEHXZ 100523f2 f i libucrt:output.obj
 0001:0005151a       ?process@?$output_processor@_WV?$stream_output_adapter@_W@__crt_stdio_output@@V?$positional_parameter_base@_WV?$stream_output_adapter@_W@__crt_stdio_output@@@2@@__crt_stdio_output@@QAEHXZ 1005251a f i libucrt:output.obj
 0001:0005164e       ?process@?$output_processor@_WV?$stream_output_adapter@_W@__crt_stdio_output@@V?$standard_base@_WV?$stream_output_adapter@_W@__crt_stdio_output@@@2@@__crt_stdio_output@@QAEHXZ 1005264e f i libucrt:output.obj
 0001:0005176a       ?process@?$output_processor@_WV?$string_output_adapter@_W@__crt_stdio_output@@V?$format_validation_base@_WV?$string_output_adapter@_W@__crt_stdio_output@@@2@@__crt_stdio_output@@QAEHXZ 1005276a f i libucrt:output.obj
 0001:00051892       ?process@?$output_processor@_WV?$string_output_adapter@_W@__crt_stdio_output@@V?$positional_parameter_base@_WV?$string_output_adapter@_W@__crt_stdio_output@@@2@@__crt_stdio_output@@QAEHXZ 10052892 f i libucrt:output.obj
 0001:000519c6       ?process@?$output_processor@_WV?$string_output_adapter@_W@__crt_stdio_output@@V?$standard_base@_WV?$string_output_adapter@_W@__crt_stdio_output@@@2@@__crt_stdio_output@@QAEHXZ 100529c6 f i libucrt:output.obj
 0001:00051ae2       ?public_stream@__crt_stdio_stream@@QBEPAU_iobuf@@XZ 10052ae2 f i libucrt:output.obj
 0001:00051ae5       ?set_flag@?$output_processor@DV?$stream_output_adapter@D@__crt_stdio_output@@V?$format_validation_base@DV?$stream_output_adapter@D@__crt_stdio_output@@@2@@__crt_stdio_output@@AAEXI@Z 10052ae5 f i libucrt:output.obj
 0001:00051af4       ?set_flag@?$output_processor@DV?$stream_output_adapter@D@__crt_stdio_output@@V?$positional_parameter_base@DV?$stream_output_adapter@D@__crt_stdio_output@@@2@@__crt_stdio_output@@AAEXI@Z 10052af4 f i libucrt:output.obj
 0001:00051b03       ?set_flag@?$output_processor@DV?$stream_output_adapter@D@__crt_stdio_output@@V?$standard_base@DV?$stream_output_adapter@D@__crt_stdio_output@@@2@@__crt_stdio_output@@AAEXI@Z 10052b03 f i libucrt:output.obj
 0001:00051b12       ?set_flag@?$output_processor@DV?$string_output_adapter@D@__crt_stdio_output@@V?$format_validation_base@DV?$string_output_adapter@D@__crt_stdio_output@@@2@@__crt_stdio_output@@AAEXI@Z 10052b12 f i libucrt:output.obj
 0001:00051b21       ?set_flag@?$output_processor@DV?$string_output_adapter@D@__crt_stdio_output@@V?$positional_parameter_base@DV?$string_output_adapter@D@__crt_stdio_output@@@2@@__crt_stdio_output@@AAEXI@Z 10052b21 f i libucrt:output.obj
 0001:00051b30       ?set_flag@?$output_processor@DV?$string_output_adapter@D@__crt_stdio_output@@V?$standard_base@DV?$string_output_adapter@D@__crt_stdio_output@@@2@@__crt_stdio_output@@AAEXI@Z 10052b30 f i libucrt:output.obj
 0001:00051b3f       ?set_flag@?$output_processor@_WV?$stream_output_adapter@_W@__crt_stdio_output@@V?$format_validation_base@_WV?$stream_output_adapter@_W@__crt_stdio_output@@@2@@__crt_stdio_output@@AAEXI@Z 10052b3f f i libucrt:output.obj
 0001:00051b4e       ?set_flag@?$output_processor@_WV?$stream_output_adapter@_W@__crt_stdio_output@@V?$positional_parameter_base@_WV?$stream_output_adapter@_W@__crt_stdio_output@@@2@@__crt_stdio_output@@AAEXI@Z 10052b4e f i libucrt:output.obj
 0001:00051b5d       ?set_flag@?$output_processor@_WV?$stream_output_adapter@_W@__crt_stdio_output@@V?$standard_base@_WV?$stream_output_adapter@_W@__crt_stdio_output@@@2@@__crt_stdio_output@@AAEXI@Z 10052b5d f i libucrt:output.obj
 0001:00051b6c       ?set_flag@?$output_processor@_WV?$string_output_adapter@_W@__crt_stdio_output@@V?$format_validation_base@_WV?$string_output_adapter@_W@__crt_stdio_output@@@2@@__crt_stdio_output@@AAEXI@Z 10052b6c f i libucrt:output.obj
 0001:00051b7b       ?set_flag@?$output_processor@_WV?$string_output_adapter@_W@__crt_stdio_output@@V?$positional_parameter_base@_WV?$string_output_adapter@_W@__crt_stdio_output@@@2@@__crt_stdio_output@@AAEXI@Z 10052b7b f i libucrt:output.obj
 0001:00051b8a       ?set_flag@?$output_processor@_WV?$string_output_adapter@_W@__crt_stdio_output@@V?$standard_base@_WV?$string_output_adapter@_W@__crt_stdio_output@@@2@@__crt_stdio_output@@AAEXI@Z 10052b8a f i libucrt:output.obj
 0001:00051b99       ?should_format@?$positional_parameter_base@DV?$stream_output_adapter@D@__crt_stdio_output@@@__crt_stdio_output@@IAE_NXZ 10052b99 f i libucrt:output.obj
 0001:00051baf       ?should_format@?$positional_parameter_base@DV?$string_output_adapter@D@__crt_stdio_output@@@__crt_stdio_output@@IAE_NXZ 10052baf f i libucrt:output.obj
 0001:00051bc5       ?should_format@?$positional_parameter_base@_WV?$stream_output_adapter@_W@__crt_stdio_output@@@__crt_stdio_output@@IAE_NXZ 10052bc5 f i libucrt:output.obj
 0001:00051bdb       ?should_format@?$positional_parameter_base@_WV?$string_output_adapter@_W@__crt_stdio_output@@@__crt_stdio_output@@IAE_NXZ 10052bdb f i libucrt:output.obj
 0001:00051bf1       ?should_format@?$standard_base@DV?$stream_output_adapter@D@__crt_stdio_output@@@__crt_stdio_output@@IAE_NXZ 10052bf1 f i libucrt:output.obj
 0001:00051bf4       ?should_format@?$standard_base@DV?$string_output_adapter@D@__crt_stdio_output@@@__crt_stdio_output@@IAE_NXZ 10052bf4 f i libucrt:output.obj
 0001:00051bf7       ?should_format@?$standard_base@_WV?$stream_output_adapter@_W@__crt_stdio_output@@@__crt_stdio_output@@IAE_NXZ 10052bf7 f i libucrt:output.obj
 0001:00051bfa       ?should_format@?$standard_base@_WV?$string_output_adapter@_W@__crt_stdio_output@@@__crt_stdio_output@@IAE_NXZ 10052bfa f i libucrt:output.obj
 0001:00051bfd       ?should_skip_normal_state_processing@?$positional_parameter_base@DV?$stream_output_adapter@D@__crt_stdio_output@@@__crt_stdio_output@@IAE_NXZ 10052bfd f i libucrt:output.obj
 0001:00051c25       ?should_skip_normal_state_processing@?$positional_parameter_base@DV?$string_output_adapter@D@__crt_stdio_output@@@__crt_stdio_output@@IAE_NXZ 10052c25 f i libucrt:output.obj
 0001:00051c4d       ?should_skip_normal_state_processing@?$positional_parameter_base@_WV?$stream_output_adapter@_W@__crt_stdio_output@@@__crt_stdio_output@@IAE_NXZ 10052c4d f i libucrt:output.obj
 0001:00051c75       ?should_skip_normal_state_processing@?$positional_parameter_base@_WV?$string_output_adapter@_W@__crt_stdio_output@@@__crt_stdio_output@@IAE_NXZ 10052c75 f i libucrt:output.obj
 0001:00051c9d       ?should_skip_normal_state_processing@?$standard_base@DV?$stream_output_adapter@D@__crt_stdio_output@@@__crt_stdio_output@@IAE_NXZ 10052c9d f i libucrt:output.obj
 0001:00051ca0       ?should_skip_normal_state_processing@?$standard_base@DV?$string_output_adapter@D@__crt_stdio_output@@@__crt_stdio_output@@IAE_NXZ 10052ca0 f i libucrt:output.obj
 0001:00051ca3       ?should_skip_normal_state_processing@?$standard_base@_WV?$stream_output_adapter@_W@__crt_stdio_output@@@__crt_stdio_output@@IAE_NXZ 10052ca3 f i libucrt:output.obj
 0001:00051ca6       ?should_skip_normal_state_processing@?$standard_base@_WV?$string_output_adapter@_W@__crt_stdio_output@@@__crt_stdio_output@@IAE_NXZ 10052ca6 f i libucrt:output.obj
 0001:00051ca9       ?should_skip_type_state_output@?$positional_parameter_base@DV?$stream_output_adapter@D@__crt_stdio_output@@@__crt_stdio_output@@IBE_NXZ 10052ca9 f i libucrt:output.obj
 0001:00051cc0       ?should_skip_type_state_output@?$positional_parameter_base@DV?$string_output_adapter@D@__crt_stdio_output@@@__crt_stdio_output@@IBE_NXZ 10052cc0 f i libucrt:output.obj
 0001:00051cd7       ?should_skip_type_state_output@?$positional_parameter_base@_WV?$stream_output_adapter@_W@__crt_stdio_output@@@__crt_stdio_output@@IBE_NXZ 10052cd7 f i libucrt:output.obj
 0001:00051cee       ?should_skip_type_state_output@?$positional_parameter_base@_WV?$string_output_adapter@_W@__crt_stdio_output@@@__crt_stdio_output@@IBE_NXZ 10052cee f i libucrt:output.obj
 0001:00051d05       ?should_skip_type_state_output@?$standard_base@DV?$stream_output_adapter@D@__crt_stdio_output@@@__crt_stdio_output@@IBE_NXZ 10052d05 f i libucrt:output.obj
 0001:00051d08       ?should_skip_type_state_output@?$standard_base@DV?$string_output_adapter@D@__crt_stdio_output@@@__crt_stdio_output@@IBE_NXZ 10052d08 f i libucrt:output.obj
 0001:00051d0b       ?should_skip_type_state_output@?$standard_base@_WV?$stream_output_adapter@_W@__crt_stdio_output@@@__crt_stdio_output@@IBE_NXZ 10052d0b f i libucrt:output.obj
 0001:00051d0e       ?should_skip_type_state_output@?$standard_base@_WV?$string_output_adapter@_W@__crt_stdio_output@@@__crt_stdio_output@@IBE_NXZ 10052d0e f i libucrt:output.obj
 0001:00051d11       ?state_case_dot@?$output_processor@DV?$stream_output_adapter@D@__crt_stdio_output@@V?$format_validation_base@DV?$stream_output_adapter@D@__crt_stdio_output@@@2@@__crt_stdio_output@@AAE_NXZ 10052d11 f i libucrt:output.obj
 0001:00051d18       ?state_case_dot@?$output_processor@DV?$stream_output_adapter@D@__crt_stdio_output@@V?$positional_parameter_base@DV?$stream_output_adapter@D@__crt_stdio_output@@@2@@__crt_stdio_output@@AAE_NXZ 10052d18 f i libucrt:output.obj
 0001:00051d1f       ?state_case_dot@?$output_processor@DV?$stream_output_adapter@D@__crt_stdio_output@@V?$standard_base@DV?$stream_output_adapter@D@__crt_stdio_output@@@2@@__crt_stdio_output@@AAE_NXZ 10052d1f f i libucrt:output.obj
 0001:00051d26       ?state_case_dot@?$output_processor@DV?$string_output_adapter@D@__crt_stdio_output@@V?$format_validation_base@DV?$string_output_adapter@D@__crt_stdio_output@@@2@@__crt_stdio_output@@AAE_NXZ 10052d26 f i libucrt:output.obj
 0001:00051d2d       ?state_case_dot@?$output_processor@DV?$string_output_adapter@D@__crt_stdio_output@@V?$positional_parameter_base@DV?$string_output_adapter@D@__crt_stdio_output@@@2@@__crt_stdio_output@@AAE_NXZ 10052d2d f i libucrt:output.obj
 0001:00051d34       ?state_case_dot@?$output_processor@DV?$string_output_adapter@D@__crt_stdio_output@@V?$standard_base@DV?$string_output_adapter@D@__crt_stdio_output@@@2@@__crt_stdio_output@@AAE_NXZ 10052d34 f i libucrt:output.obj
 0001:00051d3b       ?state_case_dot@?$output_processor@_WV?$stream_output_adapter@_W@__crt_stdio_output@@V?$format_validation_base@_WV?$stream_output_adapter@_W@__crt_stdio_output@@@2@@__crt_stdio_output@@AAE_NXZ 10052d3b f i libucrt:output.obj
 0001:00051d42       ?state_case_dot@?$output_processor@_WV?$stream_output_adapter@_W@__crt_stdio_output@@V?$positional_parameter_base@_WV?$stream_output_adapter@_W@__crt_stdio_output@@@2@@__crt_stdio_output@@AAE_NXZ 10052d42 f i libucrt:output.obj
 0001:00051d49       ?state_case_dot@?$output_processor@_WV?$stream_output_adapter@_W@__crt_stdio_output@@V?$standard_base@_WV?$stream_output_adapter@_W@__crt_stdio_output@@@2@@__crt_stdio_output@@AAE_NXZ 10052d49 f i libucrt:output.obj
 0001:00051d50       ?state_case_dot@?$output_processor@_WV?$string_output_adapter@_W@__crt_stdio_output@@V?$format_validation_base@_WV?$string_output_adapter@_W@__crt_stdio_output@@@2@@__crt_stdio_output@@AAE_NXZ 10052d50 f i libucrt:output.obj
 0001:00051d57       ?state_case_dot@?$output_processor@_WV?$string_output_adapter@_W@__crt_stdio_output@@V?$positional_parameter_base@_WV?$string_output_adapter@_W@__crt_stdio_output@@@2@@__crt_stdio_output@@AAE_NXZ 10052d57 f i libucrt:output.obj
 0001:00051d5e       ?state_case_dot@?$output_processor@_WV?$string_output_adapter@_W@__crt_stdio_output@@V?$standard_base@_WV?$string_output_adapter@_W@__crt_stdio_output@@@2@@__crt_stdio_output@@AAE_NXZ 10052d5e f i libucrt:output.obj
 0001:00051d65       ?state_case_flag@?$output_processor@DV?$stream_output_adapter@D@__crt_stdio_output@@V?$format_validation_base@DV?$stream_output_adapter@D@__crt_stdio_output@@@2@@__crt_stdio_output@@AAE_NXZ 10052d65 f i libucrt:output.obj
 0001:00051da2       ?state_case_flag@?$output_processor@DV?$stream_output_adapter@D@__crt_stdio_output@@V?$positional_parameter_base@DV?$stream_output_adapter@D@__crt_stdio_output@@@2@@__crt_stdio_output@@AAE_NXZ 10052da2 f i libucrt:output.obj
 0001:00051ddf       ?state_case_flag@?$output_processor@DV?$stream_output_adapter@D@__crt_stdio_output@@V?$standard_base@DV?$stream_output_adapter@D@__crt_stdio_output@@@2@@__crt_stdio_output@@AAE_NXZ 10052ddf f i libucrt:output.obj
 0001:00051e1c       ?state_case_flag@?$output_processor@DV?$string_output_adapter@D@__crt_stdio_output@@V?$format_validation_base@DV?$string_output_adapter@D@__crt_stdio_output@@@2@@__crt_stdio_output@@AAE_NXZ 10052e1c f i libucrt:output.obj
 0001:00051e59       ?state_case_flag@?$output_processor@DV?$string_output_adapter@D@__crt_stdio_output@@V?$positional_parameter_base@DV?$string_output_adapter@D@__crt_stdio_output@@@2@@__crt_stdio_output@@AAE_NXZ 10052e59 f i libucrt:output.obj
 0001:00051e96       ?state_case_flag@?$output_processor@DV?$string_output_adapter@D@__crt_stdio_output@@V?$standard_base@DV?$string_output_adapter@D@__crt_stdio_output@@@2@@__crt_stdio_output@@AAE_NXZ 10052e96 f i libucrt:output.obj
 0001:00051ed3       ?state_case_flag@?$output_processor@_WV?$stream_output_adapter@_W@__crt_stdio_output@@V?$format_validation_base@_WV?$stream_output_adapter@_W@__crt_stdio_output@@@2@@__crt_stdio_output@@AAE_NXZ 10052ed3 f i libucrt:output.obj
 0001:00051f10       ?state_case_flag@?$output_processor@_WV?$stream_output_adapter@_W@__crt_stdio_output@@V?$positional_parameter_base@_WV?$stream_output_adapter@_W@__crt_stdio_output@@@2@@__crt_stdio_output@@AAE_NXZ 10052f10 f i libucrt:output.obj
 0001:00051f4d       ?state_case_flag@?$output_processor@_WV?$stream_output_adapter@_W@__crt_stdio_output@@V?$standard_base@_WV?$stream_output_adapter@_W@__crt_stdio_output@@@2@@__crt_stdio_output@@AAE_NXZ 10052f4d f i libucrt:output.obj
 0001:00051f8a       ?state_case_flag@?$output_processor@_WV?$string_output_adapter@_W@__crt_stdio_output@@V?$format_validation_base@_WV?$string_output_adapter@_W@__crt_stdio_output@@@2@@__crt_stdio_output@@AAE_NXZ 10052f8a f i libucrt:output.obj
 0001:00051fc7       ?state_case_flag@?$output_processor@_WV?$string_output_adapter@_W@__crt_stdio_output@@V?$positional_parameter_base@_WV?$string_output_adapter@_W@__crt_stdio_output@@@2@@__crt_stdio_output@@AAE_NXZ 10052fc7 f i libucrt:output.obj
 0001:00052004       ?state_case_flag@?$output_processor@_WV?$string_output_adapter@_W@__crt_stdio_output@@V?$standard_base@_WV?$string_output_adapter@_W@__crt_stdio_output@@@2@@__crt_stdio_output@@AAE_NXZ 10053004 f i libucrt:output.obj
 0001:00052041       ?state_case_normal@?$output_processor@DV?$stream_output_adapter@D@__crt_stdio_output@@V?$format_validation_base@DV?$stream_output_adapter@D@__crt_stdio_output@@@2@@__crt_stdio_output@@AAE_NXZ 10053041 f i libucrt:output.obj
 0001:00052060       ?state_case_normal@?$output_processor@DV?$stream_output_adapter@D@__crt_stdio_output@@V?$positional_parameter_base@DV?$stream_output_adapter@D@__crt_stdio_output@@@2@@__crt_stdio_output@@AAE_NXZ 10053060 f i libucrt:output.obj
 0001:00052091       ?state_case_normal@?$output_processor@DV?$stream_output_adapter@D@__crt_stdio_output@@V?$standard_base@DV?$stream_output_adapter@D@__crt_stdio_output@@@2@@__crt_stdio_output@@AAE_NXZ 10053091 f i libucrt:output.obj
 0001:000520b0       ?state_case_normal@?$output_processor@DV?$string_output_adapter@D@__crt_stdio_output@@V?$format_validation_base@DV?$string_output_adapter@D@__crt_stdio_output@@@2@@__crt_stdio_output@@AAE_NXZ 100530b0 f i libucrt:output.obj
 0001:000520cf       ?state_case_normal@?$output_processor@DV?$string_output_adapter@D@__crt_stdio_output@@V?$positional_parameter_base@DV?$string_output_adapter@D@__crt_stdio_output@@@2@@__crt_stdio_output@@AAE_NXZ 100530cf f i libucrt:output.obj
 0001:00052100       ?state_case_normal@?$output_processor@DV?$string_output_adapter@D@__crt_stdio_output@@V?$standard_base@DV?$string_output_adapter@D@__crt_stdio_output@@@2@@__crt_stdio_output@@AAE_NXZ 10053100 f i libucrt:output.obj
 0001:0005211f       ?state_case_normal@?$output_processor@_WV?$stream_output_adapter@_W@__crt_stdio_output@@V?$format_validation_base@_WV?$stream_output_adapter@_W@__crt_stdio_output@@@2@@__crt_stdio_output@@AAE_NXZ 1005311f f i libucrt:output.obj
 0001:0005213e       ?state_case_normal@?$output_processor@_WV?$stream_output_adapter@_W@__crt_stdio_output@@V?$positional_parameter_base@_WV?$stream_output_adapter@_W@__crt_stdio_output@@@2@@__crt_stdio_output@@AAE_NXZ 1005313e f i libucrt:output.obj
 0001:0005216f       ?state_case_normal@?$output_processor@_WV?$stream_output_adapter@_W@__crt_stdio_output@@V?$standard_base@_WV?$stream_output_adapter@_W@__crt_stdio_output@@@2@@__crt_stdio_output@@AAE_NXZ 1005316f f i libucrt:output.obj
 0001:0005218e       ?state_case_normal@?$output_processor@_WV?$string_output_adapter@_W@__crt_stdio_output@@V?$format_validation_base@_WV?$string_output_adapter@_W@__crt_stdio_output@@@2@@__crt_stdio_output@@AAE_NXZ 1005318e f i libucrt:output.obj
 0001:000521ad       ?state_case_normal@?$output_processor@_WV?$string_output_adapter@_W@__crt_stdio_output@@V?$positional_parameter_base@_WV?$string_output_adapter@_W@__crt_stdio_output@@@2@@__crt_stdio_output@@AAE_NXZ 100531ad f i libucrt:output.obj
 0001:000521de       ?state_case_normal@?$output_processor@_WV?$string_output_adapter@_W@__crt_stdio_output@@V?$standard_base@_WV?$string_output_adapter@_W@__crt_stdio_output@@@2@@__crt_stdio_output@@AAE_NXZ 100531de f i libucrt:output.obj
 0001:000521fd       ?state_case_normal_common@?$output_processor@DV?$stream_output_adapter@D@__crt_stdio_output@@V?$format_validation_base@DV?$stream_output_adapter@D@__crt_stdio_output@@@2@@__crt_stdio_output@@AAE_NXZ 100531fd f i libucrt:output.obj
 0001:00052237       ?state_case_normal_common@?$output_processor@DV?$stream_output_adapter@D@__crt_stdio_output@@V?$positional_parameter_base@DV?$stream_output_adapter@D@__crt_stdio_output@@@2@@__crt_stdio_output@@AAE_NXZ 10053237 f i libucrt:output.obj
 0001:00052271       ?state_case_normal_common@?$output_processor@DV?$stream_output_adapter@D@__crt_stdio_output@@V?$standard_base@DV?$stream_output_adapter@D@__crt_stdio_output@@@2@@__crt_stdio_output@@AAE_NXZ 10053271 f i libucrt:output.obj
 0001:000522ab       ?state_case_normal_common@?$output_processor@DV?$string_output_adapter@D@__crt_stdio_output@@V?$format_validation_base@DV?$string_output_adapter@D@__crt_stdio_output@@@2@@__crt_stdio_output@@AAE_NXZ 100532ab f i libucrt:output.obj
 0001:000522d5       ?state_case_normal_common@?$output_processor@DV?$string_output_adapter@D@__crt_stdio_output@@V?$positional_parameter_base@DV?$string_output_adapter@D@__crt_stdio_output@@@2@@__crt_stdio_output@@AAE_NXZ 100532d5 f i libucrt:output.obj
 0001:000522ff       ?state_case_normal_common@?$output_processor@DV?$string_output_adapter@D@__crt_stdio_output@@V?$standard_base@DV?$string_output_adapter@D@__crt_stdio_output@@@2@@__crt_stdio_output@@AAE_NXZ 100532ff f i libucrt:output.obj
 0001:00052329       ?state_case_normal_common@?$output_processor@_WV?$stream_output_adapter@_W@__crt_stdio_output@@V?$format_validation_base@_WV?$stream_output_adapter@_W@__crt_stdio_output@@@2@@__crt_stdio_output@@AAE_NXZ 10053329 f i libucrt:output.obj
 0001:00052353       ?state_case_normal_common@?$output_processor@_WV?$stream_output_adapter@_W@__crt_stdio_output@@V?$positional_parameter_base@_WV?$stream_output_adapter@_W@__crt_stdio_output@@@2@@__crt_stdio_output@@AAE_NXZ 10053353 f i libucrt:output.obj
 0001:0005237d       ?state_case_normal_common@?$output_processor@_WV?$stream_output_adapter@_W@__crt_stdio_output@@V?$standard_base@_WV?$stream_output_adapter@_W@__crt_stdio_output@@@2@@__crt_stdio_output@@AAE_NXZ 1005337d f i libucrt:output.obj
 0001:000523a7       ?state_case_normal_common@?$output_processor@_WV?$string_output_adapter@_W@__crt_stdio_output@@V?$format_validation_base@_WV?$string_output_adapter@_W@__crt_stdio_output@@@2@@__crt_stdio_output@@AAE_NXZ 100533a7 f i libucrt:output.obj
 0001:000523c2       ?state_case_normal_common@?$output_processor@_WV?$string_output_adapter@_W@__crt_stdio_output@@V?$positional_parameter_base@_WV?$string_output_adapter@_W@__crt_stdio_output@@@2@@__crt_stdio_output@@AAE_NXZ 100533c2 f i libucrt:output.obj
 0001:000523dd       ?state_case_normal_common@?$output_processor@_WV?$string_output_adapter@_W@__crt_stdio_output@@V?$standard_base@_WV?$string_output_adapter@_W@__crt_stdio_output@@@2@@__crt_stdio_output@@AAE_NXZ 100533dd f i libucrt:output.obj
 0001:000523f8       ?state_case_normal_tchar@?$output_processor@DV?$stream_output_adapter@D@__crt_stdio_output@@V?$format_validation_base@DV?$stream_output_adapter@D@__crt_stdio_output@@@2@@__crt_stdio_output@@AAE_ND@Z 100533f8 f i libucrt:output.obj
 0001:00052465       ?state_case_normal_tchar@?$output_processor@DV?$stream_output_adapter@D@__crt_stdio_output@@V?$positional_parameter_base@DV?$stream_output_adapter@D@__crt_stdio_output@@@2@@__crt_stdio_output@@AAE_ND@Z 10053465 f i libucrt:output.obj
 0001:000524d2       ?state_case_normal_tchar@?$output_processor@DV?$stream_output_adapter@D@__crt_stdio_output@@V?$standard_base@DV?$stream_output_adapter@D@__crt_stdio_output@@@2@@__crt_stdio_output@@AAE_ND@Z 100534d2 f i libucrt:output.obj
 0001:0005253f       ?state_case_normal_tchar@?$output_processor@DV?$string_output_adapter@D@__crt_stdio_output@@V?$format_validation_base@DV?$string_output_adapter@D@__crt_stdio_output@@@2@@__crt_stdio_output@@AAE_ND@Z 1005353f f i libucrt:output.obj
 0001:000525a3       ?state_case_normal_tchar@?$output_processor@DV?$string_output_adapter@D@__crt_stdio_output@@V?$positional_parameter_base@DV?$string_output_adapter@D@__crt_stdio_output@@@2@@__crt_stdio_output@@AAE_ND@Z 100535a3 f i libucrt:output.obj
 0001:00052607       ?state_case_normal_tchar@?$output_processor@DV?$string_output_adapter@D@__crt_stdio_output@@V?$standard_base@DV?$string_output_adapter@D@__crt_stdio_output@@@2@@__crt_stdio_output@@AAE_ND@Z 10053607 f i libucrt:output.obj
 0001:0005266b       ?state_case_normal_tchar@?$output_processor@_WV?$stream_output_adapter@_W@__crt_stdio_output@@V?$format_validation_base@_WV?$stream_output_adapter@_W@__crt_stdio_output@@@2@@__crt_stdio_output@@AAE_N_W@Z 1005366b f i libucrt:output.obj
 0001:00052674       ?state_case_normal_tchar@?$output_processor@_WV?$stream_output_adapter@_W@__crt_stdio_output@@V?$positional_parameter_base@_WV?$stream_output_adapter@_W@__crt_stdio_output@@@2@@__crt_stdio_output@@AAE_N_W@Z 10053674 f i libucrt:output.obj
 0001:0005267d       ?state_case_normal_tchar@?$output_processor@_WV?$stream_output_adapter@_W@__crt_stdio_output@@V?$standard_base@_WV?$stream_output_adapter@_W@__crt_stdio_output@@@2@@__crt_stdio_output@@AAE_N_W@Z 1005367d f i libucrt:output.obj
 0001:00052686       ?state_case_normal_tchar@?$output_processor@_WV?$string_output_adapter@_W@__crt_stdio_output@@V?$format_validation_base@_WV?$string_output_adapter@_W@__crt_stdio_output@@@2@@__crt_stdio_output@@AAE_N_W@Z 10053686 f i libucrt:output.obj
 0001:0005268f       ?state_case_normal_tchar@?$output_processor@_WV?$string_output_adapter@_W@__crt_stdio_output@@V?$positional_parameter_base@_WV?$string_output_adapter@_W@__crt_stdio_output@@@2@@__crt_stdio_output@@AAE_N_W@Z 1005368f f i libucrt:output.obj
 0001:00052698       ?state_case_normal_tchar@?$output_processor@_WV?$string_output_adapter@_W@__crt_stdio_output@@V?$standard_base@_WV?$string_output_adapter@_W@__crt_stdio_output@@@2@@__crt_stdio_output@@AAE_N_W@Z 10053698 f i libucrt:output.obj
 0001:000526a1       ?state_case_percent@?$output_processor@DV?$stream_output_adapter@D@__crt_stdio_output@@V?$format_validation_base@DV?$stream_output_adapter@D@__crt_stdio_output@@@2@@__crt_stdio_output@@AAE_NXZ 100536a1 f i libucrt:output.obj
 0001:000526b9       ?state_case_percent@?$output_processor@DV?$stream_output_adapter@D@__crt_stdio_output@@V?$positional_parameter_base@DV?$stream_output_adapter@D@__crt_stdio_output@@@2@@__crt_stdio_output@@AAE_NXZ 100536b9 f i libucrt:output.obj
 0001:000526d1       ?state_case_percent@?$output_processor@DV?$stream_output_adapter@D@__crt_stdio_output@@V?$standard_base@DV?$stream_output_adapter@D@__crt_stdio_output@@@2@@__crt_stdio_output@@AAE_NXZ 100536d1 f i libucrt:output.obj
 0001:000526e9       ?state_case_percent@?$output_processor@DV?$string_output_adapter@D@__crt_stdio_output@@V?$format_validation_base@DV?$string_output_adapter@D@__crt_stdio_output@@@2@@__crt_stdio_output@@AAE_NXZ 100536e9 f i libucrt:output.obj
 0001:00052701       ?state_case_percent@?$output_processor@DV?$string_output_adapter@D@__crt_stdio_output@@V?$positional_parameter_base@DV?$string_output_adapter@D@__crt_stdio_output@@@2@@__crt_stdio_output@@AAE_NXZ 10053701 f i libucrt:output.obj
 0001:00052719       ?state_case_percent@?$output_processor@DV?$string_output_adapter@D@__crt_stdio_output@@V?$standard_base@DV?$string_output_adapter@D@__crt_stdio_output@@@2@@__crt_stdio_output@@AAE_NXZ 10053719 f i libucrt:output.obj
 0001:00052731       ?state_case_percent@?$output_processor@_WV?$stream_output_adapter@_W@__crt_stdio_output@@V?$format_validation_base@_WV?$stream_output_adapter@_W@__crt_stdio_output@@@2@@__crt_stdio_output@@AAE_NXZ 10053731 f i libucrt:output.obj
 0001:00052749       ?state_case_percent@?$output_processor@_WV?$stream_output_adapter@_W@__crt_stdio_output@@V?$positional_parameter_base@_WV?$stream_output_adapter@_W@__crt_stdio_output@@@2@@__crt_stdio_output@@AAE_NXZ 10053749 f i libucrt:output.obj
 0001:00052761       ?state_case_percent@?$output_processor@_WV?$stream_output_adapter@_W@__crt_stdio_output@@V?$standard_base@_WV?$stream_output_adapter@_W@__crt_stdio_output@@@2@@__crt_stdio_output@@AAE_NXZ 10053761 f i libucrt:output.obj
 0001:00052779       ?state_case_percent@?$output_processor@_WV?$string_output_adapter@_W@__crt_stdio_output@@V?$format_validation_base@_WV?$string_output_adapter@_W@__crt_stdio_output@@@2@@__crt_stdio_output@@AAE_NXZ 10053779 f i libucrt:output.obj
 0001:00052791       ?state_case_percent@?$output_processor@_WV?$string_output_adapter@_W@__crt_stdio_output@@V?$positional_parameter_base@_WV?$string_output_adapter@_W@__crt_stdio_output@@@2@@__crt_stdio_output@@AAE_NXZ 10053791 f i libucrt:output.obj
 0001:000527a9       ?state_case_percent@?$output_processor@_WV?$string_output_adapter@_W@__crt_stdio_output@@V?$standard_base@_WV?$string_output_adapter@_W@__crt_stdio_output@@@2@@__crt_stdio_output@@AAE_NXZ 100537a9 f i libucrt:output.obj
 0001:000527c1       ?state_case_precision@?$output_processor@DV?$stream_output_adapter@D@__crt_stdio_output@@V?$format_validation_base@DV?$stream_output_adapter@D@__crt_stdio_output@@@2@@__crt_stdio_output@@AAE_NXZ 100537c1 f i libucrt:output.obj
 0001:000527e7       ?state_case_precision@?$output_processor@DV?$stream_output_adapter@D@__crt_stdio_output@@V?$positional_parameter_base@DV?$stream_output_adapter@D@__crt_stdio_output@@@2@@__crt_stdio_output@@AAE_NXZ 100537e7 f i libucrt:output.obj
 0001:00052821       ?state_case_precision@?$output_processor@DV?$stream_output_adapter@D@__crt_stdio_output@@V?$standard_base@DV?$stream_output_adapter@D@__crt_stdio_output@@@2@@__crt_stdio_output@@AAE_NXZ 10053821 f i libucrt:output.obj
 0001:00052847       ?state_case_precision@?$output_processor@DV?$string_output_adapter@D@__crt_stdio_output@@V?$format_validation_base@DV?$string_output_adapter@D@__crt_stdio_output@@@2@@__crt_stdio_output@@AAE_NXZ 10053847 f i libucrt:output.obj
 0001:0005286d       ?state_case_precision@?$output_processor@DV?$string_output_adapter@D@__crt_stdio_output@@V?$positional_parameter_base@DV?$string_output_adapter@D@__crt_stdio_output@@@2@@__crt_stdio_output@@AAE_NXZ 1005386d f i libucrt:output.obj
 0001:000528a7       ?state_case_precision@?$output_processor@DV?$string_output_adapter@D@__crt_stdio_output@@V?$standard_base@DV?$string_output_adapter@D@__crt_stdio_output@@@2@@__crt_stdio_output@@AAE_NXZ 100538a7 f i libucrt:output.obj
 0001:000528cd       ?state_case_precision@?$output_processor@_WV?$stream_output_adapter@_W@__crt_stdio_output@@V?$format_validation_base@_WV?$stream_output_adapter@_W@__crt_stdio_output@@@2@@__crt_stdio_output@@AAE_NXZ 100538cd f i libucrt:output.obj
 0001:000528f4       ?state_case_precision@?$output_processor@_WV?$stream_output_adapter@_W@__crt_stdio_output@@V?$positional_parameter_base@_WV?$stream_output_adapter@_W@__crt_stdio_output@@@2@@__crt_stdio_output@@AAE_NXZ 100538f4 f i libucrt:output.obj
 0001:0005292f       ?state_case_precision@?$output_processor@_WV?$stream_output_adapter@_W@__crt_stdio_output@@V?$standard_base@_WV?$stream_output_adapter@_W@__crt_stdio_output@@@2@@__crt_stdio_output@@AAE_NXZ 1005392f f i libucrt:output.obj
 0001:00052956       ?state_case_precision@?$output_processor@_WV?$string_output_adapter@_W@__crt_stdio_output@@V?$format_validation_base@_WV?$string_output_adapter@_W@__crt_stdio_output@@@2@@__crt_stdio_output@@AAE_NXZ 10053956 f i libucrt:output.obj
 0001:0005297d       ?state_case_precision@?$output_processor@_WV?$string_output_adapter@_W@__crt_stdio_output@@V?$positional_parameter_base@_WV?$string_output_adapter@_W@__crt_stdio_output@@@2@@__crt_stdio_output@@AAE_NXZ 1005397d f i libucrt:output.obj
 0001:000529b8       ?state_case_precision@?$output_processor@_WV?$string_output_adapter@_W@__crt_stdio_output@@V?$standard_base@_WV?$string_output_adapter@_W@__crt_stdio_output@@@2@@__crt_stdio_output@@AAE_NXZ 100539b8 f i libucrt:output.obj
 0001:000529df       ?state_case_size@?$output_processor@DV?$stream_output_adapter@D@__crt_stdio_output@@V?$format_validation_base@DV?$stream_output_adapter@D@__crt_stdio_output@@@2@@__crt_stdio_output@@AAE_NXZ 100539df f i libucrt:output.obj
 0001:00052b2d       ?state_case_size@?$output_processor@DV?$stream_output_adapter@D@__crt_stdio_output@@V?$positional_parameter_base@DV?$stream_output_adapter@D@__crt_stdio_output@@@2@@__crt_stdio_output@@AAE_NXZ 10053b2d f i libucrt:output.obj
 0001:00052c7b       ?state_case_size@?$output_processor@DV?$stream_output_adapter@D@__crt_stdio_output@@V?$standard_base@DV?$stream_output_adapter@D@__crt_stdio_output@@@2@@__crt_stdio_output@@AAE_NXZ 10053c7b f i libucrt:output.obj
 0001:00052dc9       ?state_case_size@?$output_processor@DV?$string_output_adapter@D@__crt_stdio_output@@V?$format_validation_base@DV?$string_output_adapter@D@__crt_stdio_output@@@2@@__crt_stdio_output@@AAE_NXZ 10053dc9 f i libucrt:output.obj
 0001:00052f17       ?state_case_size@?$output_processor@DV?$string_output_adapter@D@__crt_stdio_output@@V?$positional_parameter_base@DV?$string_output_adapter@D@__crt_stdio_output@@@2@@__crt_stdio_output@@AAE_NXZ 10053f17 f i libucrt:output.obj
 0001:00053065       ?state_case_size@?$output_processor@DV?$string_output_adapter@D@__crt_stdio_output@@V?$standard_base@DV?$string_output_adapter@D@__crt_stdio_output@@@2@@__crt_stdio_output@@AAE_NXZ 10054065 f i libucrt:output.obj
 0001:000531b3       ?state_case_size@?$output_processor@_WV?$stream_output_adapter@_W@__crt_stdio_output@@V?$format_validation_base@_WV?$stream_output_adapter@_W@__crt_stdio_output@@@2@@__crt_stdio_output@@AAE_NXZ 100541b3 f i libucrt:output.obj
 0001:0005332b       ?state_case_size@?$output_processor@_WV?$stream_output_adapter@_W@__crt_stdio_output@@V?$positional_parameter_base@_WV?$stream_output_adapter@_W@__crt_stdio_output@@@2@@__crt_stdio_output@@AAE_NXZ 1005432b f i libucrt:output.obj
 0001:000534a3       ?state_case_size@?$output_processor@_WV?$stream_output_adapter@_W@__crt_stdio_output@@V?$standard_base@_WV?$stream_output_adapter@_W@__crt_stdio_output@@@2@@__crt_stdio_output@@AAE_NXZ 100544a3 f i libucrt:output.obj
 0001:0005361b       ?state_case_size@?$output_processor@_WV?$string_output_adapter@_W@__crt_stdio_output@@V?$format_validation_base@_WV?$string_output_adapter@_W@__crt_stdio_output@@@2@@__crt_stdio_output@@AAE_NXZ 1005461b f i libucrt:output.obj
 0001:00053793       ?state_case_size@?$output_processor@_WV?$string_output_adapter@_W@__crt_stdio_output@@V?$positional_parameter_base@_WV?$string_output_adapter@_W@__crt_stdio_output@@@2@@__crt_stdio_output@@AAE_NXZ 10054793 f i libucrt:output.obj
 0001:0005390b       ?state_case_size@?$output_processor@_WV?$string_output_adapter@_W@__crt_stdio_output@@V?$standard_base@_WV?$string_output_adapter@_W@__crt_stdio_output@@@2@@__crt_stdio_output@@AAE_NXZ 1005490b f i libucrt:output.obj
 0001:00053a83       ?state_case_type@?$output_processor@DV?$stream_output_adapter@D@__crt_stdio_output@@V?$format_validation_base@DV?$stream_output_adapter@D@__crt_stdio_output@@@2@@__crt_stdio_output@@AAE_NXZ 10054a83 f i libucrt:output.obj
 0001:00053cb5       ?state_case_type@?$output_processor@DV?$stream_output_adapter@D@__crt_stdio_output@@V?$positional_parameter_base@DV?$stream_output_adapter@D@__crt_stdio_output@@@2@@__crt_stdio_output@@AAE_NXZ 10054cb5 f i libucrt:output.obj
 0001:00053ef6       ?state_case_type@?$output_processor@DV?$stream_output_adapter@D@__crt_stdio_output@@V?$standard_base@DV?$stream_output_adapter@D@__crt_stdio_output@@@2@@__crt_stdio_output@@AAE_NXZ 10054ef6 f i libucrt:output.obj
 0001:00054128       ?state_case_type@?$output_processor@DV?$string_output_adapter@D@__crt_stdio_output@@V?$format_validation_base@DV?$string_output_adapter@D@__crt_stdio_output@@@2@@__crt_stdio_output@@AAE_NXZ 10055128 f i libucrt:output.obj
 0001:0005435a       ?state_case_type@?$output_processor@DV?$string_output_adapter@D@__crt_stdio_output@@V?$positional_parameter_base@DV?$string_output_adapter@D@__crt_stdio_output@@@2@@__crt_stdio_output@@AAE_NXZ 1005535a f i libucrt:output.obj
 0001:0005459b       ?state_case_type@?$output_processor@DV?$string_output_adapter@D@__crt_stdio_output@@V?$standard_base@DV?$string_output_adapter@D@__crt_stdio_output@@@2@@__crt_stdio_output@@AAE_NXZ 1005559b f i libucrt:output.obj
 0001:000547cd       ?state_case_type@?$output_processor@_WV?$stream_output_adapter@_W@__crt_stdio_output@@V?$format_validation_base@_WV?$stream_output_adapter@_W@__crt_stdio_output@@@2@@__crt_stdio_output@@AAE_NXZ 100557cd f i libucrt:output.obj
 0001:00054a2a       ?state_case_type@?$output_processor@_WV?$stream_output_adapter@_W@__crt_stdio_output@@V?$positional_parameter_base@_WV?$stream_output_adapter@_W@__crt_stdio_output@@@2@@__crt_stdio_output@@AAE_NXZ 10055a2a f i libucrt:output.obj
 0001:00054c96       ?state_case_type@?$output_processor@_WV?$stream_output_adapter@_W@__crt_stdio_output@@V?$standard_base@_WV?$stream_output_adapter@_W@__crt_stdio_output@@@2@@__crt_stdio_output@@AAE_NXZ 10055c96 f i libucrt:output.obj
 0001:00054ef3       ?state_case_type@?$output_processor@_WV?$string_output_adapter@_W@__crt_stdio_output@@V?$format_validation_base@_WV?$string_output_adapter@_W@__crt_stdio_output@@@2@@__crt_stdio_output@@AAE_NXZ 10055ef3 f i libucrt:output.obj
 0001:00055150       ?state_case_type@?$output_processor@_WV?$string_output_adapter@_W@__crt_stdio_output@@V?$positional_parameter_base@_WV?$string_output_adapter@_W@__crt_stdio_output@@@2@@__crt_stdio_output@@AAE_NXZ 10056150 f i libucrt:output.obj
 0001:000553bc       ?state_case_type@?$output_processor@_WV?$string_output_adapter@_W@__crt_stdio_output@@V?$standard_base@_WV?$string_output_adapter@_W@__crt_stdio_output@@@2@@__crt_stdio_output@@AAE_NXZ 100563bc f i libucrt:output.obj
 0001:00055619       ?state_case_width@?$output_processor@DV?$stream_output_adapter@D@__crt_stdio_output@@V?$format_validation_base@DV?$stream_output_adapter@D@__crt_stdio_output@@@2@@__crt_stdio_output@@AAE_NXZ 10056619 f i libucrt:output.obj
 0001:00055644       ?state_case_width@?$output_processor@DV?$stream_output_adapter@D@__crt_stdio_output@@V?$positional_parameter_base@DV?$stream_output_adapter@D@__crt_stdio_output@@@2@@__crt_stdio_output@@AAE_NXZ 10056644 f i libucrt:output.obj
 0001:00055684       ?state_case_width@?$output_processor@DV?$stream_output_adapter@D@__crt_stdio_output@@V?$standard_base@DV?$stream_output_adapter@D@__crt_stdio_output@@@2@@__crt_stdio_output@@AAE_NXZ 10056684 f i libucrt:output.obj
 0001:000556af       ?state_case_width@?$output_processor@DV?$string_output_adapter@D@__crt_stdio_output@@V?$format_validation_base@DV?$string_output_adapter@D@__crt_stdio_output@@@2@@__crt_stdio_output@@AAE_NXZ 100566af f i libucrt:output.obj
 0001:000556da       ?state_case_width@?$output_processor@DV?$string_output_adapter@D@__crt_stdio_output@@V?$positional_parameter_base@DV?$string_output_adapter@D@__crt_stdio_output@@@2@@__crt_stdio_output@@AAE_NXZ 100566da f i libucrt:output.obj
 0001:0005571a       ?state_case_width@?$output_processor@DV?$string_output_adapter@D@__crt_stdio_output@@V?$standard_base@DV?$string_output_adapter@D@__crt_stdio_output@@@2@@__crt_stdio_output@@AAE_NXZ 1005671a f i libucrt:output.obj
 0001:00055745       ?state_case_width@?$output_processor@_WV?$stream_output_adapter@_W@__crt_stdio_output@@V?$format_validation_base@_WV?$stream_output_adapter@_W@__crt_stdio_output@@@2@@__crt_stdio_output@@AAE_NXZ 10056745 f i libucrt:output.obj
 0001:00055771       ?state_case_width@?$output_processor@_WV?$stream_output_adapter@_W@__crt_stdio_output@@V?$positional_parameter_base@_WV?$stream_output_adapter@_W@__crt_stdio_output@@@2@@__crt_stdio_output@@AAE_NXZ 10056771 f i libucrt:output.obj
 0001:000557b2       ?state_case_width@?$output_processor@_WV?$stream_output_adapter@_W@__crt_stdio_output@@V?$standard_base@_WV?$stream_output_adapter@_W@__crt_stdio_output@@@2@@__crt_stdio_output@@AAE_NXZ 100567b2 f i libucrt:output.obj
 0001:000557de       ?state_case_width@?$output_processor@_WV?$string_output_adapter@_W@__crt_stdio_output@@V?$format_validation_base@_WV?$string_output_adapter@_W@__crt_stdio_output@@@2@@__crt_stdio_output@@AAE_NXZ 100567de f i libucrt:output.obj
 0001:0005580a       ?state_case_width@?$output_processor@_WV?$string_output_adapter@_W@__crt_stdio_output@@V?$positional_parameter_base@_WV?$string_output_adapter@_W@__crt_stdio_output@@@2@@__crt_stdio_output@@AAE_NXZ 1005680a f i libucrt:output.obj
 0001:0005584b       ?state_case_width@?$output_processor@_WV?$string_output_adapter@_W@__crt_stdio_output@@V?$standard_base@_WV?$string_output_adapter@_W@__crt_stdio_output@@@2@@__crt_stdio_output@@AAE_NXZ 1005684b f i libucrt:output.obj
 0001:00055877       ?state_count@?$format_validation_base@DV?$stream_output_adapter@D@__crt_stdio_output@@@__crt_stdio_output@@KAIXZ 10056877 f i libucrt:output.obj
 0001:0005587b       ?state_count@?$format_validation_base@DV?$string_output_adapter@D@__crt_stdio_output@@@__crt_stdio_output@@KAIXZ 1005687b f i libucrt:output.obj
 0001:0005587f       ?state_count@?$format_validation_base@_WV?$stream_output_adapter@_W@__crt_stdio_output@@@__crt_stdio_output@@KAIXZ 1005687f f i libucrt:output.obj
 0001:00055883       ?state_count@?$format_validation_base@_WV?$string_output_adapter@_W@__crt_stdio_output@@@__crt_stdio_output@@KAIXZ 10056883 f i libucrt:output.obj
 0001:00055887       ?state_count@?$standard_base@DV?$stream_output_adapter@D@__crt_stdio_output@@@__crt_stdio_output@@KAIXZ 10056887 f i libucrt:output.obj
 0001:0005588b       ?state_count@?$standard_base@DV?$string_output_adapter@D@__crt_stdio_output@@@__crt_stdio_output@@KAIXZ 1005688b f i libucrt:output.obj
 0001:0005588f       ?state_count@?$standard_base@_WV?$stream_output_adapter@_W@__crt_stdio_output@@@__crt_stdio_output@@KAIXZ 1005688f f i libucrt:output.obj
 0001:00055893       ?state_count@?$standard_base@_WV?$string_output_adapter@_W@__crt_stdio_output@@@__crt_stdio_output@@KAIXZ 10056893 f i libucrt:output.obj
 0001:00055897       ?state_transition_table@?$format_validation_base@DV?$stream_output_adapter@D@__crt_stdio_output@@@__crt_stdio_output@@KAABV?$spectre_mitigated_lookup_table@Ustate_transition_pair@__crt_stdio_output@@$0IA@@2@XZ 10056897 f i libucrt:output.obj
 0001:0005589d       ?state_transition_table@?$format_validation_base@DV?$string_output_adapter@D@__crt_stdio_output@@@__crt_stdio_output@@KAABV?$spectre_mitigated_lookup_table@Ustate_transition_pair@__crt_stdio_output@@$0IA@@2@XZ 1005689d f i libucrt:output.obj
 0001:000558a3       ?state_transition_table@?$format_validation_base@_WV?$stream_output_adapter@_W@__crt_stdio_output@@@__crt_stdio_output@@KAABV?$spectre_mitigated_lookup_table@Ustate_transition_pair@__crt_stdio_output@@$0IA@@2@XZ 100568a3 f i libucrt:output.obj
 0001:000558a9       ?state_transition_table@?$format_validation_base@_WV?$string_output_adapter@_W@__crt_stdio_output@@@__crt_stdio_output@@KAABV?$spectre_mitigated_lookup_table@Ustate_transition_pair@__crt_stdio_output@@$0IA@@2@XZ 100568a9 f i libucrt:output.obj
 0001:000558af       ?state_transition_table@?$standard_base@DV?$stream_output_adapter@D@__crt_stdio_output@@@__crt_stdio_output@@KAABV?$spectre_mitigated_lookup_table@Ustate_transition_pair@__crt_stdio_output@@$0IA@@2@XZ 100568af f i libucrt:output.obj
 0001:000558b5       ?state_transition_table@?$standard_base@DV?$string_output_adapter@D@__crt_stdio_output@@@__crt_stdio_output@@KAABV?$spectre_mitigated_lookup_table@Ustate_transition_pair@__crt_stdio_output@@$0IA@@2@XZ 100568b5 f i libucrt:output.obj
 0001:000558bb       ?state_transition_table@?$standard_base@_WV?$stream_output_adapter@_W@__crt_stdio_output@@@__crt_stdio_output@@KAABV?$spectre_mitigated_lookup_table@Ustate_transition_pair@__crt_stdio_output@@$0IA@@2@XZ 100568bb f i libucrt:output.obj
 0001:000558c1       ?state_transition_table@?$standard_base@_WV?$string_output_adapter@_W@__crt_stdio_output@@@__crt_stdio_output@@KAABV?$spectre_mitigated_lookup_table@Ustate_transition_pair@__crt_stdio_output@@$0IA@@2@XZ 100568c1 f i libucrt:output.obj
 0001:000558c7       ?tchar_string@?$common_data@D@__crt_stdio_output@@IAEAAPADD@Z 100568c7 f i libucrt:output.obj
 0001:000558cd       ?tchar_string@?$common_data@D@__crt_stdio_output@@IAEAAPADXZ 100568cd f i libucrt:output.obj
 0001:000558d1       ?tchar_string@?$common_data@_W@__crt_stdio_output@@IAEAAPA_WXZ 100568d1 f i libucrt:output.obj
 0001:000558d5       ?tchar_string@?$common_data@_W@__crt_stdio_output@@IAEAAPA_W_W@Z 100568d5 f i libucrt:output.obj
 0001:000558e0       ?to_integer_size@__crt_stdio_output@@YAIW4length_modifier@1@@Z 100568e0 f i libucrt:output.obj
 0001:0005593c       ?type_case_X@?$output_processor@DV?$stream_output_adapter@D@__crt_stdio_output@@V?$format_validation_base@DV?$stream_output_adapter@D@__crt_stdio_output@@@2@@__crt_stdio_output@@AAE_NXZ 1005693c f i libucrt:output.obj
 0001:00055946       ?type_case_X@?$output_processor@DV?$stream_output_adapter@D@__crt_stdio_output@@V?$positional_parameter_base@DV?$stream_output_adapter@D@__crt_stdio_output@@@2@@__crt_stdio_output@@AAE_NXZ 10056946 f i libucrt:output.obj
 0001:00055950       ?type_case_X@?$output_processor@DV?$stream_output_adapter@D@__crt_stdio_output@@V?$standard_base@DV?$stream_output_adapter@D@__crt_stdio_output@@@2@@__crt_stdio_output@@AAE_NXZ 10056950 f i libucrt:output.obj
 0001:0005595a       ?type_case_X@?$output_processor@DV?$string_output_adapter@D@__crt_stdio_output@@V?$format_validation_base@DV?$string_output_adapter@D@__crt_stdio_output@@@2@@__crt_stdio_output@@AAE_NXZ 1005695a f i libucrt:output.obj
 0001:00055964       ?type_case_X@?$output_processor@DV?$string_output_adapter@D@__crt_stdio_output@@V?$positional_parameter_base@DV?$string_output_adapter@D@__crt_stdio_output@@@2@@__crt_stdio_output@@AAE_NXZ 10056964 f i libucrt:output.obj
 0001:0005596e       ?type_case_X@?$output_processor@DV?$string_output_adapter@D@__crt_stdio_output@@V?$standard_base@DV?$string_output_adapter@D@__crt_stdio_output@@@2@@__crt_stdio_output@@AAE_NXZ 1005696e f i libucrt:output.obj
 0001:00055978       ?type_case_X@?$output_processor@_WV?$stream_output_adapter@_W@__crt_stdio_output@@V?$format_validation_base@_WV?$stream_output_adapter@_W@__crt_stdio_output@@@2@@__crt_stdio_output@@AAE_NXZ 10056978 f i libucrt:output.obj
 0001:00055982       ?type_case_X@?$output_processor@_WV?$stream_output_adapter@_W@__crt_stdio_output@@V?$positional_parameter_base@_WV?$stream_output_adapter@_W@__crt_stdio_output@@@2@@__crt_stdio_output@@AAE_NXZ 10056982 f i libucrt:output.obj
 0001:0005598c       ?type_case_X@?$output_processor@_WV?$stream_output_adapter@_W@__crt_stdio_output@@V?$standard_base@_WV?$stream_output_adapter@_W@__crt_stdio_output@@@2@@__crt_stdio_output@@AAE_NXZ 1005698c f i libucrt:output.obj
 0001:00055996       ?type_case_X@?$output_processor@_WV?$string_output_adapter@_W@__crt_stdio_output@@V?$format_validation_base@_WV?$string_output_adapter@_W@__crt_stdio_output@@@2@@__crt_stdio_output@@AAE_NXZ 10056996 f i libucrt:output.obj
 0001:000559a0       ?type_case_X@?$output_processor@_WV?$string_output_adapter@_W@__crt_stdio_output@@V?$positional_parameter_base@_WV?$string_output_adapter@_W@__crt_stdio_output@@@2@@__crt_stdio_output@@AAE_NXZ 100569a0 f i libucrt:output.obj
 0001:000559aa       ?type_case_X@?$output_processor@_WV?$string_output_adapter@_W@__crt_stdio_output@@V?$standard_base@_WV?$string_output_adapter@_W@__crt_stdio_output@@@2@@__crt_stdio_output@@AAE_NXZ 100569aa f i libucrt:output.obj
 0001:000559b4       ?type_case_Z@?$output_processor@DV?$stream_output_adapter@D@__crt_stdio_output@@V?$format_validation_base@DV?$stream_output_adapter@D@__crt_stdio_output@@@2@@__crt_stdio_output@@AAE_NXZ 100569b4 f i libucrt:output.obj
 0001:00055a0e       ?type_case_Z@?$output_processor@DV?$stream_output_adapter@D@__crt_stdio_output@@V?$positional_parameter_base@DV?$stream_output_adapter@D@__crt_stdio_output@@@2@@__crt_stdio_output@@AAE_NXZ 10056a0e f i libucrt:output.obj
 0001:00055a82       ?type_case_Z@?$output_processor@DV?$stream_output_adapter@D@__crt_stdio_output@@V?$standard_base@DV?$stream_output_adapter@D@__crt_stdio_output@@@2@@__crt_stdio_output@@AAE_NXZ 10056a82 f i libucrt:output.obj
 0001:00055adc       ?type_case_Z@?$output_processor@DV?$string_output_adapter@D@__crt_stdio_output@@V?$format_validation_base@DV?$string_output_adapter@D@__crt_stdio_output@@@2@@__crt_stdio_output@@AAE_NXZ 10056adc f i libucrt:output.obj
 0001:00055b36       ?type_case_Z@?$output_processor@DV?$string_output_adapter@D@__crt_stdio_output@@V?$positional_parameter_base@DV?$string_output_adapter@D@__crt_stdio_output@@@2@@__crt_stdio_output@@AAE_NXZ 10056b36 f i libucrt:output.obj
 0001:00055baa       ?type_case_Z@?$output_processor@DV?$string_output_adapter@D@__crt_stdio_output@@V?$standard_base@DV?$string_output_adapter@D@__crt_stdio_output@@@2@@__crt_stdio_output@@AAE_NXZ 10056baa f i libucrt:output.obj
 0001:00055c04       ?type_case_Z@?$output_processor@_WV?$stream_output_adapter@_W@__crt_stdio_output@@V?$format_validation_base@_WV?$stream_output_adapter@_W@__crt_stdio_output@@@2@@__crt_stdio_output@@AAE_NXZ 10056c04 f i libucrt:output.obj
 0001:00055c5e       ?type_case_Z@?$output_processor@_WV?$stream_output_adapter@_W@__crt_stdio_output@@V?$positional_parameter_base@_WV?$stream_output_adapter@_W@__crt_stdio_output@@@2@@__crt_stdio_output@@AAE_NXZ 10056c5e f i libucrt:output.obj
 0001:00055cd2       ?type_case_Z@?$output_processor@_WV?$stream_output_adapter@_W@__crt_stdio_output@@V?$standard_base@_WV?$stream_output_adapter@_W@__crt_stdio_output@@@2@@__crt_stdio_output@@AAE_NXZ 10056cd2 f i libucrt:output.obj
 0001:00055d2c       ?type_case_Z@?$output_processor@_WV?$string_output_adapter@_W@__crt_stdio_output@@V?$format_validation_base@_WV?$string_output_adapter@_W@__crt_stdio_output@@@2@@__crt_stdio_output@@AAE_NXZ 10056d2c f i libucrt:output.obj
 0001:00055d86       ?type_case_Z@?$output_processor@_WV?$string_output_adapter@_W@__crt_stdio_output@@V?$positional_parameter_base@_WV?$string_output_adapter@_W@__crt_stdio_output@@@2@@__crt_stdio_output@@AAE_NXZ 10056d86 f i libucrt:output.obj
 0001:00055dfa       ?type_case_Z@?$output_processor@_WV?$string_output_adapter@_W@__crt_stdio_output@@V?$standard_base@_WV?$string_output_adapter@_W@__crt_stdio_output@@@2@@__crt_stdio_output@@AAE_NXZ 10056dfa f i libucrt:output.obj
 0001:00055e54       ?type_case_a@?$output_processor@DV?$stream_output_adapter@D@__crt_stdio_output@@V?$format_validation_base@DV?$stream_output_adapter@D@__crt_stdio_output@@@2@@__crt_stdio_output@@AAE_NXZ 10056e54 f i libucrt:output.obj
 0001:00055fa5       ?type_case_a@?$output_processor@DV?$stream_output_adapter@D@__crt_stdio_output@@V?$positional_parameter_base@DV?$stream_output_adapter@D@__crt_stdio_output@@@2@@__crt_stdio_output@@AAE_NXZ 10056fa5 f i libucrt:output.obj
 0001:00056122       ?type_case_a@?$output_processor@DV?$stream_output_adapter@D@__crt_stdio_output@@V?$standard_base@DV?$stream_output_adapter@D@__crt_stdio_output@@@2@@__crt_stdio_output@@AAE_NXZ 10057122 f i libucrt:output.obj
 0001:00056273       ?type_case_a@?$output_processor@DV?$string_output_adapter@D@__crt_stdio_output@@V?$format_validation_base@DV?$string_output_adapter@D@__crt_stdio_output@@@2@@__crt_stdio_output@@AAE_NXZ 10057273 f i libucrt:output.obj
 0001:000563c4       ?type_case_a@?$output_processor@DV?$string_output_adapter@D@__crt_stdio_output@@V?$positional_parameter_base@DV?$string_output_adapter@D@__crt_stdio_output@@@2@@__crt_stdio_output@@AAE_NXZ 100573c4 f i libucrt:output.obj
 0001:00056541       ?type_case_a@?$output_processor@DV?$string_output_adapter@D@__crt_stdio_output@@V?$standard_base@DV?$string_output_adapter@D@__crt_stdio_output@@@2@@__crt_stdio_output@@AAE_NXZ 10057541 f i libucrt:output.obj
 0001:00056692       ?type_case_a@?$output_processor@_WV?$stream_output_adapter@_W@__crt_stdio_output@@V?$format_validation_base@_WV?$stream_output_adapter@_W@__crt_stdio_output@@@2@@__crt_stdio_output@@AAE_NXZ 10057692 f i libucrt:output.obj
 0001:000567f9       ?type_case_a@?$output_processor@_WV?$stream_output_adapter@_W@__crt_stdio_output@@V?$positional_parameter_base@_WV?$stream_output_adapter@_W@__crt_stdio_output@@@2@@__crt_stdio_output@@AAE_NXZ 100577f9 f i libucrt:output.obj
 0001:0005698c       ?type_case_a@?$output_processor@_WV?$stream_output_adapter@_W@__crt_stdio_output@@V?$standard_base@_WV?$stream_output_adapter@_W@__crt_stdio_output@@@2@@__crt_stdio_output@@AAE_NXZ 1005798c f i libucrt:output.obj
 0001:00056af3       ?type_case_a@?$output_processor@_WV?$string_output_adapter@_W@__crt_stdio_output@@V?$format_validation_base@_WV?$string_output_adapter@_W@__crt_stdio_output@@@2@@__crt_stdio_output@@AAE_NXZ 10057af3 f i libucrt:output.obj
 0001:00056c5a       ?type_case_a@?$output_processor@_WV?$string_output_adapter@_W@__crt_stdio_output@@V?$positional_parameter_base@_WV?$string_output_adapter@_W@__crt_stdio_output@@@2@@__crt_stdio_output@@AAE_NXZ 10057c5a f i libucrt:output.obj
 0001:00056ded       ?type_case_a@?$output_processor@_WV?$string_output_adapter@_W@__crt_stdio_output@@V?$standard_base@_WV?$string_output_adapter@_W@__crt_stdio_output@@@2@@__crt_stdio_output@@AAE_NXZ 10057ded f i libucrt:output.obj
 0001:00056f54       ?type_case_c@?$output_processor@DV?$stream_output_adapter@D@__crt_stdio_output@@V?$format_validation_base@DV?$stream_output_adapter@D@__crt_stdio_output@@@2@@__crt_stdio_output@@AAE_NXZ 10057f54 f i libucrt:output.obj
 0001:00056f5c       ?type_case_c@?$output_processor@DV?$stream_output_adapter@D@__crt_stdio_output@@V?$positional_parameter_base@DV?$stream_output_adapter@D@__crt_stdio_output@@@2@@__crt_stdio_output@@AAE_NXZ 10057f5c f i libucrt:output.obj
 0001:00056f64       ?type_case_c@?$output_processor@DV?$stream_output_adapter@D@__crt_stdio_output@@V?$standard_base@DV?$stream_output_adapter@D@__crt_stdio_output@@@2@@__crt_stdio_output@@AAE_NXZ 10057f64 f i libucrt:output.obj
 0001:00056f6c       ?type_case_c@?$output_processor@DV?$string_output_adapter@D@__crt_stdio_output@@V?$format_validation_base@DV?$string_output_adapter@D@__crt_stdio_output@@@2@@__crt_stdio_output@@AAE_NXZ 10057f6c f i libucrt:output.obj
 0001:00056f74       ?type_case_c@?$output_processor@DV?$string_output_adapter@D@__crt_stdio_output@@V?$positional_parameter_base@DV?$string_output_adapter@D@__crt_stdio_output@@@2@@__crt_stdio_output@@AAE_NXZ 10057f74 f i libucrt:output.obj
 0001:00056f7c       ?type_case_c@?$output_processor@DV?$string_output_adapter@D@__crt_stdio_output@@V?$standard_base@DV?$string_output_adapter@D@__crt_stdio_output@@@2@@__crt_stdio_output@@AAE_NXZ 10057f7c f i libucrt:output.obj
 0001:00056f84       ?type_case_c@?$output_processor@_WV?$stream_output_adapter@_W@__crt_stdio_output@@V?$format_validation_base@_WV?$stream_output_adapter@_W@__crt_stdio_output@@@2@@__crt_stdio_output@@AAE_NXZ 10057f84 f i libucrt:output.obj
 0001:00056f8c       ?type_case_c@?$output_processor@_WV?$stream_output_adapter@_W@__crt_stdio_output@@V?$positional_parameter_base@_WV?$stream_output_adapter@_W@__crt_stdio_output@@@2@@__crt_stdio_output@@AAE_NXZ 10057f8c f i libucrt:output.obj
 0001:00056f94       ?type_case_c@?$output_processor@_WV?$stream_output_adapter@_W@__crt_stdio_output@@V?$standard_base@_WV?$stream_output_adapter@_W@__crt_stdio_output@@@2@@__crt_stdio_output@@AAE_NXZ 10057f94 f i libucrt:output.obj
 0001:00056f9c       ?type_case_c@?$output_processor@_WV?$string_output_adapter@_W@__crt_stdio_output@@V?$format_validation_base@_WV?$string_output_adapter@_W@__crt_stdio_output@@@2@@__crt_stdio_output@@AAE_NXZ 10057f9c f i libucrt:output.obj
 0001:00056fa4       ?type_case_c@?$output_processor@_WV?$string_output_adapter@_W@__crt_stdio_output@@V?$positional_parameter_base@_WV?$string_output_adapter@_W@__crt_stdio_output@@@2@@__crt_stdio_output@@AAE_NXZ 10057fa4 f i libucrt:output.obj
 0001:00056fac       ?type_case_c@?$output_processor@_WV?$string_output_adapter@_W@__crt_stdio_output@@V?$standard_base@_WV?$string_output_adapter@_W@__crt_stdio_output@@@2@@__crt_stdio_output@@AAE_NXZ 10057fac f i libucrt:output.obj
 0001:00056fb4       ?type_case_c_tchar@?$output_processor@DV?$stream_output_adapter@D@__crt_stdio_output@@V?$format_validation_base@DV?$stream_output_adapter@D@__crt_stdio_output@@@2@@__crt_stdio_output@@AAE_ND@Z 10057fb4 f i libucrt:output.obj
 0001:00057047       ?type_case_c_tchar@?$output_processor@DV?$stream_output_adapter@D@__crt_stdio_output@@V?$positional_parameter_base@DV?$stream_output_adapter@D@__crt_stdio_output@@@2@@__crt_stdio_output@@AAE_ND@Z 10058047 f i libucrt:output.obj
 0001:00057108       ?type_case_c_tchar@?$output_processor@DV?$stream_output_adapter@D@__crt_stdio_output@@V?$standard_base@DV?$stream_output_adapter@D@__crt_stdio_output@@@2@@__crt_stdio_output@@AAE_ND@Z 10058108 f i libucrt:output.obj
 0001:0005719b       ?type_case_c_tchar@?$output_processor@DV?$string_output_adapter@D@__crt_stdio_output@@V?$format_validation_base@DV?$string_output_adapter@D@__crt_stdio_output@@@2@@__crt_stdio_output@@AAE_ND@Z 1005819b f i libucrt:output.obj
 0001:0005722e       ?type_case_c_tchar@?$output_processor@DV?$string_output_adapter@D@__crt_stdio_output@@V?$positional_parameter_base@DV?$string_output_adapter@D@__crt_stdio_output@@@2@@__crt_stdio_output@@AAE_ND@Z 1005822e f i libucrt:output.obj
 0001:000572ef       ?type_case_c_tchar@?$output_processor@DV?$string_output_adapter@D@__crt_stdio_output@@V?$standard_base@DV?$string_output_adapter@D@__crt_stdio_output@@@2@@__crt_stdio_output@@AAE_ND@Z 100582ef f i libucrt:output.obj
 0001:00057382       ?type_case_c_tchar@?$output_processor@_WV?$stream_output_adapter@_W@__crt_stdio_output@@V?$format_validation_base@_WV?$stream_output_adapter@_W@__crt_stdio_output@@@2@@__crt_stdio_output@@AAE_N_W@Z 10058382 f i libucrt:output.obj
 0001:00057418       ?type_case_c_tchar@?$output_processor@_WV?$stream_output_adapter@_W@__crt_stdio_output@@V?$positional_parameter_base@_WV?$stream_output_adapter@_W@__crt_stdio_output@@@2@@__crt_stdio_output@@AAE_N_W@Z 10058418 f i libucrt:output.obj
 0001:000574c5       ?type_case_c_tchar@?$output_processor@_WV?$stream_output_adapter@_W@__crt_stdio_output@@V?$standard_base@_WV?$stream_output_adapter@_W@__crt_stdio_output@@@2@@__crt_stdio_output@@AAE_N_W@Z 100584c5 f i libucrt:output.obj
 0001:0005755b       ?type_case_c_tchar@?$output_processor@_WV?$string_output_adapter@_W@__crt_stdio_output@@V?$format_validation_base@_WV?$string_output_adapter@_W@__crt_stdio_output@@@2@@__crt_stdio_output@@AAE_N_W@Z 1005855b f i libucrt:output.obj
 0001:000575f1       ?type_case_c_tchar@?$output_processor@_WV?$string_output_adapter@_W@__crt_stdio_output@@V?$positional_parameter_base@_WV?$string_output_adapter@_W@__crt_stdio_output@@@2@@__crt_stdio_output@@AAE_N_W@Z 100585f1 f i libucrt:output.obj
 0001:0005769e       ?type_case_c_tchar@?$output_processor@_WV?$string_output_adapter@_W@__crt_stdio_output@@V?$standard_base@_WV?$string_output_adapter@_W@__crt_stdio_output@@@2@@__crt_stdio_output@@AAE_N_W@Z 1005869e f i libucrt:output.obj
 0001:00057734       ?type_case_d@?$output_processor@DV?$stream_output_adapter@D@__crt_stdio_output@@V?$format_validation_base@DV?$stream_output_adapter@D@__crt_stdio_output@@@2@@__crt_stdio_output@@AAE_NXZ 10058734 f i libucrt:output.obj
 0001:00057742       ?type_case_d@?$output_processor@DV?$stream_output_adapter@D@__crt_stdio_output@@V?$positional_parameter_base@DV?$stream_output_adapter@D@__crt_stdio_output@@@2@@__crt_stdio_output@@AAE_NXZ 10058742 f i libucrt:output.obj
 0001:00057750       ?type_case_d@?$output_processor@DV?$stream_output_adapter@D@__crt_stdio_output@@V?$standard_base@DV?$stream_output_adapter@D@__crt_stdio_output@@@2@@__crt_stdio_output@@AAE_NXZ 10058750 f i libucrt:output.obj
 0001:0005775e       ?type_case_d@?$output_processor@DV?$string_output_adapter@D@__crt_stdio_output@@V?$format_validation_base@DV?$string_output_adapter@D@__crt_stdio_output@@@2@@__crt_stdio_output@@AAE_NXZ 1005875e f i libucrt:output.obj
 0001:0005776c       ?type_case_d@?$output_processor@DV?$string_output_adapter@D@__crt_stdio_output@@V?$positional_parameter_base@DV?$string_output_adapter@D@__crt_stdio_output@@@2@@__crt_stdio_output@@AAE_NXZ 1005876c f i libucrt:output.obj
 0001:0005777a       ?type_case_d@?$output_processor@DV?$string_output_adapter@D@__crt_stdio_output@@V?$standard_base@DV?$string_output_adapter@D@__crt_stdio_output@@@2@@__crt_stdio_output@@AAE_NXZ 1005877a f i libucrt:output.obj
 0001:00057788       ?type_case_d@?$output_processor@_WV?$stream_output_adapter@_W@__crt_stdio_output@@V?$format_validation_base@_WV?$stream_output_adapter@_W@__crt_stdio_output@@@2@@__crt_stdio_output@@AAE_NXZ 10058788 f i libucrt:output.obj
 0001:00057796       ?type_case_d@?$output_processor@_WV?$stream_output_adapter@_W@__crt_stdio_output@@V?$positional_parameter_base@_WV?$stream_output_adapter@_W@__crt_stdio_output@@@2@@__crt_stdio_output@@AAE_NXZ 10058796 f i libucrt:output.obj
 0001:000577a4       ?type_case_d@?$output_processor@_WV?$stream_output_adapter@_W@__crt_stdio_output@@V?$standard_base@_WV?$stream_output_adapter@_W@__crt_stdio_output@@@2@@__crt_stdio_output@@AAE_NXZ 100587a4 f i libucrt:output.obj
 0001:000577b2       ?type_case_d@?$output_processor@_WV?$string_output_adapter@_W@__crt_stdio_output@@V?$format_validation_base@_WV?$string_output_adapter@_W@__crt_stdio_output@@@2@@__crt_stdio_output@@AAE_NXZ 100587b2 f i libucrt:output.obj
 0001:000577c0       ?type_case_d@?$output_processor@_WV?$string_output_adapter@_W@__crt_stdio_output@@V?$positional_parameter_base@_WV?$string_output_adapter@_W@__crt_stdio_output@@@2@@__crt_stdio_output@@AAE_NXZ 100587c0 f i libucrt:output.obj
 0001:000577ce       ?type_case_d@?$output_processor@_WV?$string_output_adapter@_W@__crt_stdio_output@@V?$standard_base@_WV?$string_output_adapter@_W@__crt_stdio_output@@@2@@__crt_stdio_output@@AAE_NXZ 100587ce f i libucrt:output.obj
 0001:000577dc       ?type_case_integer@?$output_processor@DV?$stream_output_adapter@D@__crt_stdio_output@@V?$format_validation_base@DV?$stream_output_adapter@D@__crt_stdio_output@@@2@@__crt_stdio_output@@AAE_NI_N@Z 100587dc f i libucrt:output.obj
 0001:0005792d       ?type_case_integer@?$output_processor@DV?$stream_output_adapter@D@__crt_stdio_output@@V?$positional_parameter_base@DV?$stream_output_adapter@D@__crt_stdio_output@@@2@@__crt_stdio_output@@AAE_NI_N@Z 1005892d f i libucrt:output.obj
 0001:00057aae       ?type_case_integer@?$output_processor@DV?$stream_output_adapter@D@__crt_stdio_output@@V?$standard_base@DV?$stream_output_adapter@D@__crt_stdio_output@@@2@@__crt_stdio_output@@AAE_NI_N@Z 10058aae f i libucrt:output.obj
 0001:00057bff       ?type_case_integer@?$output_processor@DV?$string_output_adapter@D@__crt_stdio_output@@V?$format_validation_base@DV?$string_output_adapter@D@__crt_stdio_output@@@2@@__crt_stdio_output@@AAE_NI_N@Z 10058bff f i libucrt:output.obj
 0001:00057d50       ?type_case_integer@?$output_processor@DV?$string_output_adapter@D@__crt_stdio_output@@V?$positional_parameter_base@DV?$string_output_adapter@D@__crt_stdio_output@@@2@@__crt_stdio_output@@AAE_NI_N@Z 10058d50 f i libucrt:output.obj
 0001:00057ed1       ?type_case_integer@?$output_processor@DV?$string_output_adapter@D@__crt_stdio_output@@V?$standard_base@DV?$string_output_adapter@D@__crt_stdio_output@@@2@@__crt_stdio_output@@AAE_NI_N@Z 10058ed1 f i libucrt:output.obj
 0001:00058022       ?type_case_integer@?$output_processor@_WV?$stream_output_adapter@_W@__crt_stdio_output@@V?$format_validation_base@_WV?$stream_output_adapter@_W@__crt_stdio_output@@@2@@__crt_stdio_output@@AAE_NI_N@Z 10059022 f i libucrt:output.obj
 0001:00058177       ?type_case_integer@?$output_processor@_WV?$stream_output_adapter@_W@__crt_stdio_output@@V?$positional_parameter_base@_WV?$stream_output_adapter@_W@__crt_stdio_output@@@2@@__crt_stdio_output@@AAE_NI_N@Z 10059177 f i libucrt:output.obj
 0001:000582fc       ?type_case_integer@?$output_processor@_WV?$stream_output_adapter@_W@__crt_stdio_output@@V?$standard_base@_WV?$stream_output_adapter@_W@__crt_stdio_output@@@2@@__crt_stdio_output@@AAE_NI_N@Z 100592fc f i libucrt:output.obj
 0001:00058451       ?type_case_integer@?$output_processor@_WV?$string_output_adapter@_W@__crt_stdio_output@@V?$format_validation_base@_WV?$string_output_adapter@_W@__crt_stdio_output@@@2@@__crt_stdio_output@@AAE_NI_N@Z 10059451 f i libucrt:output.obj
 0001:000585a6       ?type_case_integer@?$output_processor@_WV?$string_output_adapter@_W@__crt_stdio_output@@V?$positional_parameter_base@_WV?$string_output_adapter@_W@__crt_stdio_output@@@2@@__crt_stdio_output@@AAE_NI_N@Z 100595a6 f i libucrt:output.obj
 0001:0005872b       ?type_case_integer@?$output_processor@_WV?$string_output_adapter@_W@__crt_stdio_output@@V?$standard_base@_WV?$string_output_adapter@_W@__crt_stdio_output@@@2@@__crt_stdio_output@@AAE_NI_N@Z 1005972b f i libucrt:output.obj
 0001:00058880       ?type_case_n@?$output_processor@DV?$stream_output_adapter@D@__crt_stdio_output@@V?$format_validation_base@DV?$stream_output_adapter@D@__crt_stdio_output@@@2@@__crt_stdio_output@@AAE_NXZ 10059880 f i libucrt:output.obj
 0001:000588f4       ?type_case_n@?$output_processor@DV?$stream_output_adapter@D@__crt_stdio_output@@V?$positional_parameter_base@DV?$stream_output_adapter@D@__crt_stdio_output@@@2@@__crt_stdio_output@@AAE_NXZ 100598f4 f i libucrt:output.obj
 0001:0005898b       ?type_case_n@?$output_processor@DV?$stream_output_adapter@D@__crt_stdio_output@@V?$standard_base@DV?$stream_output_adapter@D@__crt_stdio_output@@@2@@__crt_stdio_output@@AAE_NXZ 1005998b f i libucrt:output.obj
 0001:000589ff       ?type_case_n@?$output_processor@DV?$string_output_adapter@D@__crt_stdio_output@@V?$format_validation_base@DV?$string_output_adapter@D@__crt_stdio_output@@@2@@__crt_stdio_output@@AAE_NXZ 100599ff f i libucrt:output.obj
 0001:00058a73       ?type_case_n@?$output_processor@DV?$string_output_adapter@D@__crt_stdio_output@@V?$positional_parameter_base@DV?$string_output_adapter@D@__crt_stdio_output@@@2@@__crt_stdio_output@@AAE_NXZ 10059a73 f i libucrt:output.obj
 0001:00058b0a       ?type_case_n@?$output_processor@DV?$string_output_adapter@D@__crt_stdio_output@@V?$standard_base@DV?$string_output_adapter@D@__crt_stdio_output@@@2@@__crt_stdio_output@@AAE_NXZ 10059b0a f i libucrt:output.obj
 0001:00058b7e       ?type_case_n@?$output_processor@_WV?$stream_output_adapter@_W@__crt_stdio_output@@V?$format_validation_base@_WV?$stream_output_adapter@_W@__crt_stdio_output@@@2@@__crt_stdio_output@@AAE_NXZ 10059b7e f i libucrt:output.obj
 0001:00058bf2       ?type_case_n@?$output_processor@_WV?$stream_output_adapter@_W@__crt_stdio_output@@V?$positional_parameter_base@_WV?$stream_output_adapter@_W@__crt_stdio_output@@@2@@__crt_stdio_output@@AAE_NXZ 10059bf2 f i libucrt:output.obj
 0001:00058c89       ?type_case_n@?$output_processor@_WV?$stream_output_adapter@_W@__crt_stdio_output@@V?$standard_base@_WV?$stream_output_adapter@_W@__crt_stdio_output@@@2@@__crt_stdio_output@@AAE_NXZ 10059c89 f i libucrt:output.obj
 0001:00058cfd       ?type_case_n@?$output_processor@_WV?$string_output_adapter@_W@__crt_stdio_output@@V?$format_validation_base@_WV?$string_output_adapter@_W@__crt_stdio_output@@@2@@__crt_stdio_output@@AAE_NXZ 10059cfd f i libucrt:output.obj
 0001:00058d71       ?type_case_n@?$output_processor@_WV?$string_output_adapter@_W@__crt_stdio_output@@V?$positional_parameter_base@_WV?$string_output_adapter@_W@__crt_stdio_output@@@2@@__crt_stdio_output@@AAE_NXZ 10059d71 f i libucrt:output.obj
 0001:00058e08       ?type_case_n@?$output_processor@_WV?$string_output_adapter@_W@__crt_stdio_output@@V?$standard_base@_WV?$string_output_adapter@_W@__crt_stdio_output@@@2@@__crt_stdio_output@@AAE_NXZ 10059e08 f i libucrt:output.obj
 0001:00058e7c       ?type_case_o@?$output_processor@DV?$stream_output_adapter@D@__crt_stdio_output@@V?$format_validation_base@DV?$stream_output_adapter@D@__crt_stdio_output@@@2@@__crt_stdio_output@@AAE_NXZ 10059e7c f i libucrt:output.obj
 0001:00058e9b       ?type_case_o@?$output_processor@DV?$stream_output_adapter@D@__crt_stdio_output@@V?$positional_parameter_base@DV?$stream_output_adapter@D@__crt_stdio_output@@@2@@__crt_stdio_output@@AAE_NXZ 10059e9b f i libucrt:output.obj
 0001:00058eba       ?type_case_o@?$output_processor@DV?$stream_output_adapter@D@__crt_stdio_output@@V?$standard_base@DV?$stream_output_adapter@D@__crt_stdio_output@@@2@@__crt_stdio_output@@AAE_NXZ 10059eba f i libucrt:output.obj
 0001:00058ed9       ?type_case_o@?$output_processor@DV?$string_output_adapter@D@__crt_stdio_output@@V?$format_validation_base@DV?$string_output_adapter@D@__crt_stdio_output@@@2@@__crt_stdio_output@@AAE_NXZ 10059ed9 f i libucrt:output.obj
 0001:00058ef8       ?type_case_o@?$output_processor@DV?$string_output_adapter@D@__crt_stdio_output@@V?$positional_parameter_base@DV?$string_output_adapter@D@__crt_stdio_output@@@2@@__crt_stdio_output@@AAE_NXZ 10059ef8 f i libucrt:output.obj
 0001:00058f17       ?type_case_o@?$output_processor@DV?$string_output_adapter@D@__crt_stdio_output@@V?$standard_base@DV?$string_output_adapter@D@__crt_stdio_output@@@2@@__crt_stdio_output@@AAE_NXZ 10059f17 f i libucrt:output.obj
 0001:00058f36       ?type_case_o@?$output_processor@_WV?$stream_output_adapter@_W@__crt_stdio_output@@V?$format_validation_base@_WV?$stream_output_adapter@_W@__crt_stdio_output@@@2@@__crt_stdio_output@@AAE_NXZ 10059f36 f i libucrt:output.obj
 0001:00058f55       ?type_case_o@?$output_processor@_WV?$stream_output_adapter@_W@__crt_stdio_output@@V?$positional_parameter_base@_WV?$stream_output_adapter@_W@__crt_stdio_output@@@2@@__crt_stdio_output@@AAE_NXZ 10059f55 f i libucrt:output.obj
 0001:00058f74       ?type_case_o@?$output_processor@_WV?$stream_output_adapter@_W@__crt_stdio_output@@V?$standard_base@_WV?$stream_output_adapter@_W@__crt_stdio_output@@@2@@__crt_stdio_output@@AAE_NXZ 10059f74 f i libucrt:output.obj
 0001:00058f93       ?type_case_o@?$output_processor@_WV?$string_output_adapter@_W@__crt_stdio_output@@V?$format_validation_base@_WV?$string_output_adapter@_W@__crt_stdio_output@@@2@@__crt_stdio_output@@AAE_NXZ 10059f93 f i libucrt:output.obj
 0001:00058fb2       ?type_case_o@?$output_processor@_WV?$string_output_adapter@_W@__crt_stdio_output@@V?$positional_parameter_base@_WV?$string_output_adapter@_W@__crt_stdio_output@@@2@@__crt_stdio_output@@AAE_NXZ 10059fb2 f i libucrt:output.obj
 0001:00058fd1       ?type_case_o@?$output_processor@_WV?$string_output_adapter@_W@__crt_stdio_output@@V?$standard_base@_WV?$string_output_adapter@_W@__crt_stdio_output@@@2@@__crt_stdio_output@@AAE_NXZ 10059fd1 f i libucrt:output.obj
 0001:00058ff0       ?type_case_p@?$output_processor@DV?$stream_output_adapter@D@__crt_stdio_output@@V?$format_validation_base@DV?$stream_output_adapter@D@__crt_stdio_output@@@2@@__crt_stdio_output@@AAE_NXZ 10059ff0 f i libucrt:output.obj
 0001:00059008       ?type_case_p@?$output_processor@DV?$stream_output_adapter@D@__crt_stdio_output@@V?$positional_parameter_base@DV?$stream_output_adapter@D@__crt_stdio_output@@@2@@__crt_stdio_output@@AAE_NXZ 1005a008 f i libucrt:output.obj
 0001:00059020       ?type_case_p@?$output_processor@DV?$stream_output_adapter@D@__crt_stdio_output@@V?$standard_base@DV?$stream_output_adapter@D@__crt_stdio_output@@@2@@__crt_stdio_output@@AAE_NXZ 1005a020 f i libucrt:output.obj
 0001:00059038       ?type_case_p@?$output_processor@DV?$string_output_adapter@D@__crt_stdio_output@@V?$format_validation_base@DV?$string_output_adapter@D@__crt_stdio_output@@@2@@__crt_stdio_output@@AAE_NXZ 1005a038 f i libucrt:output.obj
 0001:00059050       ?type_case_p@?$output_processor@DV?$string_output_adapter@D@__crt_stdio_output@@V?$positional_parameter_base@DV?$string_output_adapter@D@__crt_stdio_output@@@2@@__crt_stdio_output@@AAE_NXZ 1005a050 f i libucrt:output.obj
 0001:00059068       ?type_case_p@?$output_processor@DV?$string_output_adapter@D@__crt_stdio_output@@V?$standard_base@DV?$string_output_adapter@D@__crt_stdio_output@@@2@@__crt_stdio_output@@AAE_NXZ 1005a068 f i libucrt:output.obj
 0001:00059080       ?type_case_p@?$output_processor@_WV?$stream_output_adapter@_W@__crt_stdio_output@@V?$format_validation_base@_WV?$stream_output_adapter@_W@__crt_stdio_output@@@2@@__crt_stdio_output@@AAE_NXZ 1005a080 f i libucrt:output.obj
 0001:00059098       ?type_case_p@?$output_processor@_WV?$stream_output_adapter@_W@__crt_stdio_output@@V?$positional_parameter_base@_WV?$stream_output_adapter@_W@__crt_stdio_output@@@2@@__crt_stdio_output@@AAE_NXZ 1005a098 f i libucrt:output.obj
 0001:000590b0       ?type_case_p@?$output_processor@_WV?$stream_output_adapter@_W@__crt_stdio_output@@V?$standard_base@_WV?$stream_output_adapter@_W@__crt_stdio_output@@@2@@__crt_stdio_output@@AAE_NXZ 1005a0b0 f i libucrt:output.obj
 0001:000590c8       ?type_case_p@?$output_processor@_WV?$string_output_adapter@_W@__crt_stdio_output@@V?$format_validation_base@_WV?$string_output_adapter@_W@__crt_stdio_output@@@2@@__crt_stdio_output@@AAE_NXZ 1005a0c8 f i libucrt:output.obj
 0001:000590e0       ?type_case_p@?$output_processor@_WV?$string_output_adapter@_W@__crt_stdio_output@@V?$positional_parameter_base@_WV?$string_output_adapter@_W@__crt_stdio_output@@@2@@__crt_stdio_output@@AAE_NXZ 1005a0e0 f i libucrt:output.obj
 0001:000590f8       ?type_case_p@?$output_processor@_WV?$string_output_adapter@_W@__crt_stdio_output@@V?$standard_base@_WV?$string_output_adapter@_W@__crt_stdio_output@@@2@@__crt_stdio_output@@AAE_NXZ 1005a0f8 f i libucrt:output.obj
 0001:00059110       ?type_case_s@?$output_processor@DV?$stream_output_adapter@D@__crt_stdio_output@@V?$format_validation_base@DV?$stream_output_adapter@D@__crt_stdio_output@@@2@@__crt_stdio_output@@AAE_NXZ 1005a110 f i libucrt:output.obj
 0001:00059181       ?type_case_s@?$output_processor@DV?$stream_output_adapter@D@__crt_stdio_output@@V?$positional_parameter_base@DV?$stream_output_adapter@D@__crt_stdio_output@@@2@@__crt_stdio_output@@AAE_NXZ 1005a181 f i libucrt:output.obj
 0001:000591ff       ?type_case_s@?$output_processor@DV?$stream_output_adapter@D@__crt_stdio_output@@V?$standard_base@DV?$stream_output_adapter@D@__crt_stdio_output@@@2@@__crt_stdio_output@@AAE_NXZ 1005a1ff f i libucrt:output.obj
 0001:00059270       ?type_case_s@?$output_processor@DV?$string_output_adapter@D@__crt_stdio_output@@V?$format_validation_base@DV?$string_output_adapter@D@__crt_stdio_output@@@2@@__crt_stdio_output@@AAE_NXZ 1005a270 f i libucrt:output.obj
 0001:000592e1       ?type_case_s@?$output_processor@DV?$string_output_adapter@D@__crt_stdio_output@@V?$positional_parameter_base@DV?$string_output_adapter@D@__crt_stdio_output@@@2@@__crt_stdio_output@@AAE_NXZ 1005a2e1 f i libucrt:output.obj
 0001:0005935f       ?type_case_s@?$output_processor@DV?$string_output_adapter@D@__crt_stdio_output@@V?$standard_base@DV?$string_output_adapter@D@__crt_stdio_output@@@2@@__crt_stdio_output@@AAE_NXZ 1005a35f f i libucrt:output.obj
 0001:000593d0       ?type_case_s@?$output_processor@_WV?$stream_output_adapter@_W@__crt_stdio_output@@V?$format_validation_base@_WV?$stream_output_adapter@_W@__crt_stdio_output@@@2@@__crt_stdio_output@@AAE_NXZ 1005a3d0 f i libucrt:output.obj
 0001:00059443       ?type_case_s@?$output_processor@_WV?$stream_output_adapter@_W@__crt_stdio_output@@V?$positional_parameter_base@_WV?$stream_output_adapter@_W@__crt_stdio_output@@@2@@__crt_stdio_output@@AAE_NXZ 1005a443 f i libucrt:output.obj
 0001:000594c3       ?type_case_s@?$output_processor@_WV?$stream_output_adapter@_W@__crt_stdio_output@@V?$standard_base@_WV?$stream_output_adapter@_W@__crt_stdio_output@@@2@@__crt_stdio_output@@AAE_NXZ 1005a4c3 f i libucrt:output.obj
 0001:00059536       ?type_case_s@?$output_processor@_WV?$string_output_adapter@_W@__crt_stdio_output@@V?$format_validation_base@_WV?$string_output_adapter@_W@__crt_stdio_output@@@2@@__crt_stdio_output@@AAE_NXZ 1005a536 f i libucrt:output.obj
 0001:000595a9       ?type_case_s@?$output_processor@_WV?$string_output_adapter@_W@__crt_stdio_output@@V?$positional_parameter_base@_WV?$string_output_adapter@_W@__crt_stdio_output@@@2@@__crt_stdio_output@@AAE_NXZ 1005a5a9 f i libucrt:output.obj
 0001:00059629       ?type_case_s@?$output_processor@_WV?$string_output_adapter@_W@__crt_stdio_output@@V?$standard_base@_WV?$string_output_adapter@_W@__crt_stdio_output@@@2@@__crt_stdio_output@@AAE_NXZ 1005a629 f i libucrt:output.obj
 0001:0005969c       ?type_case_s_compute_narrow_string_length@?$output_processor@DV?$stream_output_adapter@D@__crt_stdio_output@@V?$format_validation_base@DV?$stream_output_adapter@D@__crt_stdio_output@@@2@@__crt_stdio_output@@ABEHHD@Z 1005a69c f i libucrt:output.obj
 0001:000596b2       ?type_case_s_compute_narrow_string_length@?$output_processor@DV?$stream_output_adapter@D@__crt_stdio_output@@V?$positional_parameter_base@DV?$stream_output_adapter@D@__crt_stdio_output@@@2@@__crt_stdio_output@@ABEHHD@Z 1005a6b2 f i libucrt:output.obj
 0001:000596c8       ?type_case_s_compute_narrow_string_length@?$output_processor@DV?$stream_output_adapter@D@__crt_stdio_output@@V?$standard_base@DV?$stream_output_adapter@D@__crt_stdio_output@@@2@@__crt_stdio_output@@ABEHHD@Z 1005a6c8 f i libucrt:output.obj
 0001:000596de       ?type_case_s_compute_narrow_string_length@?$output_processor@DV?$string_output_adapter@D@__crt_stdio_output@@V?$format_validation_base@DV?$string_output_adapter@D@__crt_stdio_output@@@2@@__crt_stdio_output@@ABEHHD@Z 1005a6de f i libucrt:output.obj
 0001:000596f4       ?type_case_s_compute_narrow_string_length@?$output_processor@DV?$string_output_adapter@D@__crt_stdio_output@@V?$positional_parameter_base@DV?$string_output_adapter@D@__crt_stdio_output@@@2@@__crt_stdio_output@@ABEHHD@Z 1005a6f4 f i libucrt:output.obj
 0001:0005970a       ?type_case_s_compute_narrow_string_length@?$output_processor@DV?$string_output_adapter@D@__crt_stdio_output@@V?$standard_base@DV?$string_output_adapter@D@__crt_stdio_output@@@2@@__crt_stdio_output@@ABEHHD@Z 1005a70a f i libucrt:output.obj
 0001:00059720       ?type_case_s_compute_narrow_string_length@?$output_processor@_WV?$stream_output_adapter@_W@__crt_stdio_output@@V?$format_validation_base@_WV?$stream_output_adapter@_W@__crt_stdio_output@@@2@@__crt_stdio_output@@ABEHH_W@Z 1005a720 f i libucrt:output.obj
 0001:00059767       ?type_case_s_compute_narrow_string_length@?$output_processor@_WV?$stream_output_adapter@_W@__crt_stdio_output@@V?$positional_parameter_base@_WV?$stream_output_adapter@_W@__crt_stdio_output@@@2@@__crt_stdio_output@@ABEHH_W@Z 1005a767 f i libucrt:output.obj
 0001:000597ae       ?type_case_s_compute_narrow_string_length@?$output_processor@_WV?$stream_output_adapter@_W@__crt_stdio_output@@V?$standard_base@_WV?$stream_output_adapter@_W@__crt_stdio_output@@@2@@__crt_stdio_output@@ABEHH_W@Z 1005a7ae f i libucrt:output.obj
 0001:000597f5       ?type_case_s_compute_narrow_string_length@?$output_processor@_WV?$string_output_adapter@_W@__crt_stdio_output@@V?$format_validation_base@_WV?$string_output_adapter@_W@__crt_stdio_output@@@2@@__crt_stdio_output@@ABEHH_W@Z 1005a7f5 f i libucrt:output.obj
 0001:0005983c       ?type_case_s_compute_narrow_string_length@?$output_processor@_WV?$string_output_adapter@_W@__crt_stdio_output@@V?$positional_parameter_base@_WV?$string_output_adapter@_W@__crt_stdio_output@@@2@@__crt_stdio_output@@ABEHH_W@Z 1005a83c f i libucrt:output.obj
 0001:00059883       ?type_case_s_compute_narrow_string_length@?$output_processor@_WV?$string_output_adapter@_W@__crt_stdio_output@@V?$standard_base@_WV?$string_output_adapter@_W@__crt_stdio_output@@@2@@__crt_stdio_output@@ABEHH_W@Z 1005a883 f i libucrt:output.obj
 0001:000598ca       ?type_case_u@?$output_processor@DV?$stream_output_adapter@D@__crt_stdio_output@@V?$format_validation_base@DV?$stream_output_adapter@D@__crt_stdio_output@@@2@@__crt_stdio_output@@AAE_NXZ 1005a8ca f i libucrt:output.obj
 0001:000598d4       ?type_case_u@?$output_processor@DV?$stream_output_adapter@D@__crt_stdio_output@@V?$positional_parameter_base@DV?$stream_output_adapter@D@__crt_stdio_output@@@2@@__crt_stdio_output@@AAE_NXZ 1005a8d4 f i libucrt:output.obj
 0001:000598de       ?type_case_u@?$output_processor@DV?$stream_output_adapter@D@__crt_stdio_output@@V?$standard_base@DV?$stream_output_adapter@D@__crt_stdio_output@@@2@@__crt_stdio_output@@AAE_NXZ 1005a8de f i libucrt:output.obj
 0001:000598e8       ?type_case_u@?$output_processor@DV?$string_output_adapter@D@__crt_stdio_output@@V?$format_validation_base@DV?$string_output_adapter@D@__crt_stdio_output@@@2@@__crt_stdio_output@@AAE_NXZ 1005a8e8 f i libucrt:output.obj
 0001:000598f2       ?type_case_u@?$output_processor@DV?$string_output_adapter@D@__crt_stdio_output@@V?$positional_parameter_base@DV?$string_output_adapter@D@__crt_stdio_output@@@2@@__crt_stdio_output@@AAE_NXZ 1005a8f2 f i libucrt:output.obj
 0001:000598fc       ?type_case_u@?$output_processor@DV?$string_output_adapter@D@__crt_stdio_output@@V?$standard_base@DV?$string_output_adapter@D@__crt_stdio_output@@@2@@__crt_stdio_output@@AAE_NXZ 1005a8fc f i libucrt:output.obj
 0001:00059906       ?type_case_u@?$output_processor@_WV?$stream_output_adapter@_W@__crt_stdio_output@@V?$format_validation_base@_WV?$stream_output_adapter@_W@__crt_stdio_output@@@2@@__crt_stdio_output@@AAE_NXZ 1005a906 f i libucrt:output.obj
 0001:00059910       ?type_case_u@?$output_processor@_WV?$stream_output_adapter@_W@__crt_stdio_output@@V?$positional_parameter_base@_WV?$stream_output_adapter@_W@__crt_stdio_output@@@2@@__crt_stdio_output@@AAE_NXZ 1005a910 f i libucrt:output.obj
 0001:0005991a       ?type_case_u@?$output_processor@_WV?$stream_output_adapter@_W@__crt_stdio_output@@V?$standard_base@_WV?$stream_output_adapter@_W@__crt_stdio_output@@@2@@__crt_stdio_output@@AAE_NXZ 1005a91a f i libucrt:output.obj
 0001:00059924       ?type_case_u@?$output_processor@_WV?$string_output_adapter@_W@__crt_stdio_output@@V?$format_validation_base@_WV?$string_output_adapter@_W@__crt_stdio_output@@@2@@__crt_stdio_output@@AAE_NXZ 1005a924 f i libucrt:output.obj
 0001:0005992e       ?type_case_u@?$output_processor@_WV?$string_output_adapter@_W@__crt_stdio_output@@V?$positional_parameter_base@_WV?$string_output_adapter@_W@__crt_stdio_output@@@2@@__crt_stdio_output@@AAE_NXZ 1005a92e f i libucrt:output.obj
 0001:00059938       ?type_case_u@?$output_processor@_WV?$string_output_adapter@_W@__crt_stdio_output@@V?$standard_base@_WV?$string_output_adapter@_W@__crt_stdio_output@@@2@@__crt_stdio_output@@AAE_NXZ 1005a938 f i libucrt:output.obj
 0001:00059942       ?type_case_x@?$output_processor@DV?$stream_output_adapter@D@__crt_stdio_output@@V?$format_validation_base@DV?$stream_output_adapter@D@__crt_stdio_output@@@2@@__crt_stdio_output@@AAE_NXZ 1005a942 f i libucrt:output.obj
 0001:0005994c       ?type_case_x@?$output_processor@DV?$stream_output_adapter@D@__crt_stdio_output@@V?$positional_parameter_base@DV?$stream_output_adapter@D@__crt_stdio_output@@@2@@__crt_stdio_output@@AAE_NXZ 1005a94c f i libucrt:output.obj
 0001:00059956       ?type_case_x@?$output_processor@DV?$stream_output_adapter@D@__crt_stdio_output@@V?$standard_base@DV?$stream_output_adapter@D@__crt_stdio_output@@@2@@__crt_stdio_output@@AAE_NXZ 1005a956 f i libucrt:output.obj
 0001:00059960       ?type_case_x@?$output_processor@DV?$string_output_adapter@D@__crt_stdio_output@@V?$format_validation_base@DV?$string_output_adapter@D@__crt_stdio_output@@@2@@__crt_stdio_output@@AAE_NXZ 1005a960 f i libucrt:output.obj
 0001:0005996a       ?type_case_x@?$output_processor@DV?$string_output_adapter@D@__crt_stdio_output@@V?$positional_parameter_base@DV?$string_output_adapter@D@__crt_stdio_output@@@2@@__crt_stdio_output@@AAE_NXZ 1005a96a f i libucrt:output.obj
 0001:00059974       ?type_case_x@?$output_processor@DV?$string_output_adapter@D@__crt_stdio_output@@V?$standard_base@DV?$string_output_adapter@D@__crt_stdio_output@@@2@@__crt_stdio_output@@AAE_NXZ 1005a974 f i libucrt:output.obj
 0001:0005997e       ?type_case_x@?$output_processor@_WV?$stream_output_adapter@_W@__crt_stdio_output@@V?$format_validation_base@_WV?$stream_output_adapter@_W@__crt_stdio_output@@@2@@__crt_stdio_output@@AAE_NXZ 1005a97e f i libucrt:output.obj
 0001:00059988       ?type_case_x@?$output_processor@_WV?$stream_output_adapter@_W@__crt_stdio_output@@V?$positional_parameter_base@_WV?$stream_output_adapter@_W@__crt_stdio_output@@@2@@__crt_stdio_output@@AAE_NXZ 1005a988 f i libucrt:output.obj
 0001:00059992       ?type_case_x@?$output_processor@_WV?$stream_output_adapter@_W@__crt_stdio_output@@V?$standard_base@_WV?$stream_output_adapter@_W@__crt_stdio_output@@@2@@__crt_stdio_output@@AAE_NXZ 1005a992 f i libucrt:output.obj
 0001:0005999c       ?type_case_x@?$output_processor@_WV?$string_output_adapter@_W@__crt_stdio_output@@V?$format_validation_base@_WV?$string_output_adapter@_W@__crt_stdio_output@@@2@@__crt_stdio_output@@AAE_NXZ 1005a99c f i libucrt:output.obj
 0001:000599a6       ?type_case_x@?$output_processor@_WV?$string_output_adapter@_W@__crt_stdio_output@@V?$positional_parameter_base@_WV?$string_output_adapter@_W@__crt_stdio_output@@@2@@__crt_stdio_output@@AAE_NXZ 1005a9a6 f i libucrt:output.obj
 0001:000599b0       ?type_case_x@?$output_processor@_WV?$string_output_adapter@_W@__crt_stdio_output@@V?$standard_base@_WV?$string_output_adapter@_W@__crt_stdio_output@@@2@@__crt_stdio_output@@AAE_NXZ 1005a9b0 f i libucrt:output.obj
 0001:000599ba       ?unset_flag@?$output_processor@DV?$stream_output_adapter@D@__crt_stdio_output@@V?$format_validation_base@DV?$stream_output_adapter@D@__crt_stdio_output@@@2@@__crt_stdio_output@@AAEXI@Z 1005a9ba f i libucrt:output.obj
 0001:000599cb       ?unset_flag@?$output_processor@DV?$stream_output_adapter@D@__crt_stdio_output@@V?$positional_parameter_base@DV?$stream_output_adapter@D@__crt_stdio_output@@@2@@__crt_stdio_output@@AAEXI@Z 1005a9cb f i libucrt:output.obj
 0001:000599dc       ?unset_flag@?$output_processor@DV?$stream_output_adapter@D@__crt_stdio_output@@V?$standard_base@DV?$stream_output_adapter@D@__crt_stdio_output@@@2@@__crt_stdio_output@@AAEXI@Z 1005a9dc f i libucrt:output.obj
 0001:000599ed       ?unset_flag@?$output_processor@DV?$string_output_adapter@D@__crt_stdio_output@@V?$format_validation_base@DV?$string_output_adapter@D@__crt_stdio_output@@@2@@__crt_stdio_output@@AAEXI@Z 1005a9ed f i libucrt:output.obj
 0001:000599fe       ?unset_flag@?$output_processor@DV?$string_output_adapter@D@__crt_stdio_output@@V?$positional_parameter_base@DV?$string_output_adapter@D@__crt_stdio_output@@@2@@__crt_stdio_output@@AAEXI@Z 1005a9fe f i libucrt:output.obj
 0001:00059a0f       ?unset_flag@?$output_processor@DV?$string_output_adapter@D@__crt_stdio_output@@V?$standard_base@DV?$string_output_adapter@D@__crt_stdio_output@@@2@@__crt_stdio_output@@AAEXI@Z 1005aa0f f i libucrt:output.obj
 0001:00059a20       ?unset_flag@?$output_processor@_WV?$stream_output_adapter@_W@__crt_stdio_output@@V?$format_validation_base@_WV?$stream_output_adapter@_W@__crt_stdio_output@@@2@@__crt_stdio_output@@AAEXI@Z 1005aa20 f i libucrt:output.obj
 0001:00059a31       ?unset_flag@?$output_processor@_WV?$stream_output_adapter@_W@__crt_stdio_output@@V?$positional_parameter_base@_WV?$stream_output_adapter@_W@__crt_stdio_output@@@2@@__crt_stdio_output@@AAEXI@Z 1005aa31 f i libucrt:output.obj
 0001:00059a42       ?unset_flag@?$output_processor@_WV?$stream_output_adapter@_W@__crt_stdio_output@@V?$standard_base@_WV?$stream_output_adapter@_W@__crt_stdio_output@@@2@@__crt_stdio_output@@AAEXI@Z 1005aa42 f i libucrt:output.obj
 0001:00059a53       ?unset_flag@?$output_processor@_WV?$string_output_adapter@_W@__crt_stdio_output@@V?$format_validation_base@_WV?$string_output_adapter@_W@__crt_stdio_output@@@2@@__crt_stdio_output@@AAEXI@Z 1005aa53 f i libucrt:output.obj
 0001:00059a64       ?unset_flag@?$output_processor@_WV?$string_output_adapter@_W@__crt_stdio_output@@V?$positional_parameter_base@_WV?$string_output_adapter@_W@__crt_stdio_output@@@2@@__crt_stdio_output@@AAEXI@Z 1005aa64 f i libucrt:output.obj
 0001:00059a75       ?unset_flag@?$output_processor@_WV?$string_output_adapter@_W@__crt_stdio_output@@V?$standard_base@_WV?$string_output_adapter@_W@__crt_stdio_output@@@2@@__crt_stdio_output@@AAEXI@Z 1005aa75 f i libucrt:output.obj
 0001:00059a86       ?update_field_width@?$positional_parameter_base@DV?$stream_output_adapter@D@__crt_stdio_output@@@__crt_stdio_output@@IAE_NXZ 1005aa86 f i libucrt:output.obj
 0001:00059b3a       ?update_field_width@?$positional_parameter_base@DV?$string_output_adapter@D@__crt_stdio_output@@@__crt_stdio_output@@IAE_NXZ 1005ab3a f i libucrt:output.obj
 0001:00059bee       ?update_field_width@?$positional_parameter_base@_WV?$stream_output_adapter@_W@__crt_stdio_output@@@__crt_stdio_output@@IAE_NXZ 1005abee f i libucrt:output.obj
 0001:00059ca3       ?update_field_width@?$positional_parameter_base@_WV?$string_output_adapter@_W@__crt_stdio_output@@@__crt_stdio_output@@IAE_NXZ 1005aca3 f i libucrt:output.obj
 0001:00059d58       ?update_field_width@?$standard_base@DV?$stream_output_adapter@D@__crt_stdio_output@@@__crt_stdio_output@@IAE_NXZ 1005ad58 f i libucrt:output.obj
 0001:00059d68       ?update_field_width@?$standard_base@DV?$string_output_adapter@D@__crt_stdio_output@@@__crt_stdio_output@@IAE_NXZ 1005ad68 f i libucrt:output.obj
 0001:00059d78       ?update_field_width@?$standard_base@_WV?$stream_output_adapter@_W@__crt_stdio_output@@@__crt_stdio_output@@IAE_NXZ 1005ad78 f i libucrt:output.obj
 0001:00059d88       ?update_field_width@?$standard_base@_WV?$string_output_adapter@_W@__crt_stdio_output@@@__crt_stdio_output@@IAE_NXZ 1005ad88 f i libucrt:output.obj
 0001:00059d98       ?update_precision@?$positional_parameter_base@DV?$stream_output_adapter@D@__crt_stdio_output@@@__crt_stdio_output@@IAE_NXZ 1005ad98 f i libucrt:output.obj
 0001:00059e4c       ?update_precision@?$positional_parameter_base@DV?$string_output_adapter@D@__crt_stdio_output@@@__crt_stdio_output@@IAE_NXZ 1005ae4c f i libucrt:output.obj
 0001:00059f00       ?update_precision@?$positional_parameter_base@_WV?$stream_output_adapter@_W@__crt_stdio_output@@@__crt_stdio_output@@IAE_NXZ 1005af00 f i libucrt:output.obj
 0001:00059fb5       ?update_precision@?$positional_parameter_base@_WV?$string_output_adapter@_W@__crt_stdio_output@@@__crt_stdio_output@@IAE_NXZ 1005afb5 f i libucrt:output.obj
 0001:0005a06a       ?update_precision@?$standard_base@DV?$stream_output_adapter@D@__crt_stdio_output@@@__crt_stdio_output@@IAE_NXZ 1005b06a f i libucrt:output.obj
 0001:0005a07a       ?update_precision@?$standard_base@DV?$string_output_adapter@D@__crt_stdio_output@@@__crt_stdio_output@@IAE_NXZ 1005b07a f i libucrt:output.obj
 0001:0005a08a       ?update_precision@?$standard_base@_WV?$stream_output_adapter@_W@__crt_stdio_output@@@__crt_stdio_output@@IAE_NXZ 1005b08a f i libucrt:output.obj
 0001:0005a09a       ?update_precision@?$standard_base@_WV?$string_output_adapter@_W@__crt_stdio_output@@@__crt_stdio_output@@IAE_NXZ 1005b09a f i libucrt:output.obj
 0001:0005a0aa       ?valid@__crt_stdio_stream@@QBE_NXZ 1005b0aa f i libucrt:output.obj
 0001:0005a0b1       ?validate@?$stream_output_adapter@D@__crt_stdio_output@@QBE_NXZ 1005b0b1 f i libucrt:output.obj
 0001:0005a0d2       ?validate@?$stream_output_adapter@_W@__crt_stdio_output@@QBE_NXZ 1005b0d2 f i libucrt:output.obj
 0001:0005a0ed       ?validate@?$string_output_adapter@D@__crt_stdio_output@@QBE_NXZ 1005b0ed f i libucrt:output.obj
 0001:0005a108       ?validate@?$string_output_adapter@_W@__crt_stdio_output@@QBE_NXZ 1005b108 f i libucrt:output.obj
 0001:0005a123       ?validate_and_store_parameter_data@?$positional_parameter_base@DV?$stream_output_adapter@D@__crt_stdio_output@@@__crt_stdio_output@@AAE_NAAUparameter_data@12@W4parameter_type@12@DW4length_modifier@2@@Z 1005b123 f i libucrt:output.obj
 0001:0005a16e       ?validate_and_store_parameter_data@?$positional_parameter_base@DV?$string_output_adapter@D@__crt_stdio_output@@@__crt_stdio_output@@AAE_NAAUparameter_data@12@W4parameter_type@12@DW4length_modifier@2@@Z 1005b16e f i libucrt:output.obj
 0001:0005a1b9       ?validate_and_store_parameter_data@?$positional_parameter_base@_WV?$stream_output_adapter@_W@__crt_stdio_output@@@__crt_stdio_output@@AAE_NAAUparameter_data@12@W4parameter_type@12@_WW4length_modifier@2@@Z 1005b1b9 f i libucrt:output.obj
 0001:0005a206       ?validate_and_store_parameter_data@?$positional_parameter_base@_WV?$string_output_adapter@_W@__crt_stdio_output@@@__crt_stdio_output@@AAE_NAAUparameter_data@12@W4parameter_type@12@_WW4length_modifier@2@@Z 1005b206 f i libucrt:output.obj
 0001:0005a253       ?validate_and_update_state_at_beginning_of_format_character@?$positional_parameter_base@DV?$stream_output_adapter@D@__crt_stdio_output@@@__crt_stdio_output@@IAE_NXZ 1005b253 f i libucrt:output.obj
 0001:0005a34b       ?validate_and_update_state_at_beginning_of_format_character@?$positional_parameter_base@DV?$string_output_adapter@D@__crt_stdio_output@@@__crt_stdio_output@@IAE_NXZ 1005b34b f i libucrt:output.obj
 0001:0005a443       ?validate_and_update_state_at_beginning_of_format_character@?$positional_parameter_base@_WV?$stream_output_adapter@_W@__crt_stdio_output@@@__crt_stdio_output@@IAE_NXZ 1005b443 f i libucrt:output.obj
 0001:0005a544       ?validate_and_update_state_at_beginning_of_format_character@?$positional_parameter_base@_WV?$string_output_adapter@_W@__crt_stdio_output@@@__crt_stdio_output@@IAE_NXZ 1005b544 f i libucrt:output.obj
 0001:0005a645       ?validate_and_update_state_at_beginning_of_format_character@?$standard_base@DV?$stream_output_adapter@D@__crt_stdio_output@@@__crt_stdio_output@@IAE_NXZ 1005b645 f i libucrt:output.obj
 0001:0005a648       ?validate_and_update_state_at_beginning_of_format_character@?$standard_base@DV?$string_output_adapter@D@__crt_stdio_output@@@__crt_stdio_output@@IAE_NXZ 1005b648 f i libucrt:output.obj
 0001:0005a64b       ?validate_and_update_state_at_beginning_of_format_character@?$standard_base@_WV?$stream_output_adapter@_W@__crt_stdio_output@@@__crt_stdio_output@@IAE_NXZ 1005b64b f i libucrt:output.obj
 0001:0005a64e       ?validate_and_update_state_at_beginning_of_format_character@?$standard_base@_WV?$string_output_adapter@_W@__crt_stdio_output@@@__crt_stdio_output@@IAE_NXZ 1005b64e f i libucrt:output.obj
 0001:0005a651       ?validate_and_update_state_at_end_of_format_string@?$format_validation_base@DV?$stream_output_adapter@D@__crt_stdio_output@@@__crt_stdio_output@@IBE_NXZ 1005b651 f i libucrt:output.obj
 0001:0005a673       ?validate_and_update_state_at_end_of_format_string@?$format_validation_base@DV?$string_output_adapter@D@__crt_stdio_output@@@__crt_stdio_output@@IBE_NXZ 1005b673 f i libucrt:output.obj
 0001:0005a695       ?validate_and_update_state_at_end_of_format_string@?$format_validation_base@_WV?$stream_output_adapter@_W@__crt_stdio_output@@@__crt_stdio_output@@IBE_NXZ 1005b695 f i libucrt:output.obj
 0001:0005a6b7       ?validate_and_update_state_at_end_of_format_string@?$format_validation_base@_WV?$string_output_adapter@_W@__crt_stdio_output@@@__crt_stdio_output@@IBE_NXZ 1005b6b7 f i libucrt:output.obj
 0001:0005a6d9       ?validate_and_update_state_at_end_of_format_string@?$positional_parameter_base@DV?$stream_output_adapter@D@__crt_stdio_output@@@__crt_stdio_output@@IAE_NXZ 1005b6d9 f i libucrt:output.obj
 0001:0005a769       ?validate_and_update_state_at_end_of_format_string@?$positional_parameter_base@DV?$string_output_adapter@D@__crt_stdio_output@@@__crt_stdio_output@@IAE_NXZ 1005b769 f i libucrt:output.obj
 0001:0005a7f9       ?validate_and_update_state_at_end_of_format_string@?$positional_parameter_base@_WV?$stream_output_adapter@_W@__crt_stdio_output@@@__crt_stdio_output@@IAE_NXZ 1005b7f9 f i libucrt:output.obj
 0001:0005a889       ?validate_and_update_state_at_end_of_format_string@?$positional_parameter_base@_WV?$string_output_adapter@_W@__crt_stdio_output@@@__crt_stdio_output@@IAE_NXZ 1005b889 f i libucrt:output.obj
 0001:0005a919       ?validate_and_update_state_at_end_of_format_string@?$standard_base@DV?$stream_output_adapter@D@__crt_stdio_output@@@__crt_stdio_output@@IBE_NXZ 1005b919 f i libucrt:output.obj
 0001:0005a91c       ?validate_and_update_state_at_end_of_format_string@?$standard_base@DV?$string_output_adapter@D@__crt_stdio_output@@@__crt_stdio_output@@IBE_NXZ 1005b91c f i libucrt:output.obj
 0001:0005a91f       ?validate_and_update_state_at_end_of_format_string@?$standard_base@_WV?$stream_output_adapter@_W@__crt_stdio_output@@@__crt_stdio_output@@IBE_NXZ 1005b91f f i libucrt:output.obj
 0001:0005a922       ?validate_and_update_state_at_end_of_format_string@?$standard_base@_WV?$string_output_adapter@_W@__crt_stdio_output@@@__crt_stdio_output@@IBE_NXZ 1005b922 f i libucrt:output.obj
 0001:0005a925       ?validate_state_for_type_case_a@?$positional_parameter_base@DV?$stream_output_adapter@D@__crt_stdio_output@@@__crt_stdio_output@@IAE_NXZ 1005b925 f i libucrt:output.obj
 0001:0005a974       ?validate_state_for_type_case_a@?$positional_parameter_base@DV?$string_output_adapter@D@__crt_stdio_output@@@__crt_stdio_output@@IAE_NXZ 1005b974 f i libucrt:output.obj
 0001:0005a9c3       ?validate_state_for_type_case_a@?$positional_parameter_base@_WV?$stream_output_adapter@_W@__crt_stdio_output@@@__crt_stdio_output@@IAE_NXZ 1005b9c3 f i libucrt:output.obj
 0001:0005aa12       ?validate_state_for_type_case_a@?$positional_parameter_base@_WV?$string_output_adapter@_W@__crt_stdio_output@@@__crt_stdio_output@@IAE_NXZ 1005ba12 f i libucrt:output.obj
 0001:0005aa61       ?validate_state_for_type_case_a@?$standard_base@DV?$stream_output_adapter@D@__crt_stdio_output@@@__crt_stdio_output@@IBE_NXZ 1005ba61 f i libucrt:output.obj
 0001:0005aa64       ?validate_state_for_type_case_a@?$standard_base@DV?$string_output_adapter@D@__crt_stdio_output@@@__crt_stdio_output@@IBE_NXZ 1005ba64 f i libucrt:output.obj
 0001:0005aa67       ?validate_state_for_type_case_a@?$standard_base@_WV?$stream_output_adapter@_W@__crt_stdio_output@@@__crt_stdio_output@@IBE_NXZ 1005ba67 f i libucrt:output.obj
 0001:0005aa6a       ?validate_state_for_type_case_a@?$standard_base@_WV?$string_output_adapter@_W@__crt_stdio_output@@@__crt_stdio_output@@IBE_NXZ 1005ba6a f i libucrt:output.obj
 0001:0005aa6d       ?validate_stream_is_ansi_if_required@?$__acrt_stdio_char_traits@D@@SA_NQAU_iobuf@@@Z 1005ba6d f i libucrt:output.obj
 0001:0005aaf4       ?validate_stream_is_ansi_if_required@?$__acrt_stdio_char_traits@_W@@SA_NQAU_iobuf@@@Z 1005baf4 f i libucrt:output.obj
 0001:0005aaf7       ?wide_null_string@?$output_processor@DV?$stream_output_adapter@D@__crt_stdio_output@@V?$format_validation_base@DV?$stream_output_adapter@D@__crt_stdio_output@@@2@@__crt_stdio_output@@CAPA_WXZ 1005baf7 f i libucrt:output.obj
 0001:0005aafd       ?wide_null_string@?$output_processor@DV?$stream_output_adapter@D@__crt_stdio_output@@V?$positional_parameter_base@DV?$stream_output_adapter@D@__crt_stdio_output@@@2@@__crt_stdio_output@@CAPA_WXZ 1005bafd f i libucrt:output.obj
 0001:0005ab03       ?wide_null_string@?$output_processor@DV?$stream_output_adapter@D@__crt_stdio_output@@V?$standard_base@DV?$stream_output_adapter@D@__crt_stdio_output@@@2@@__crt_stdio_output@@CAPA_WXZ 1005bb03 f i libucrt:output.obj
 0001:0005ab09       ?wide_null_string@?$output_processor@DV?$string_output_adapter@D@__crt_stdio_output@@V?$format_validation_base@DV?$string_output_adapter@D@__crt_stdio_output@@@2@@__crt_stdio_output@@CAPA_WXZ 1005bb09 f i libucrt:output.obj
 0001:0005ab0f       ?wide_null_string@?$output_processor@DV?$string_output_adapter@D@__crt_stdio_output@@V?$positional_parameter_base@DV?$string_output_adapter@D@__crt_stdio_output@@@2@@__crt_stdio_output@@CAPA_WXZ 1005bb0f f i libucrt:output.obj
 0001:0005ab15       ?wide_null_string@?$output_processor@DV?$string_output_adapter@D@__crt_stdio_output@@V?$standard_base@DV?$string_output_adapter@D@__crt_stdio_output@@@2@@__crt_stdio_output@@CAPA_WXZ 1005bb15 f i libucrt:output.obj
 0001:0005ab1b       ?wide_null_string@?$output_processor@_WV?$stream_output_adapter@_W@__crt_stdio_output@@V?$format_validation_base@_WV?$stream_output_adapter@_W@__crt_stdio_output@@@2@@__crt_stdio_output@@CAPA_WXZ 1005bb1b f i libucrt:output.obj
 0001:0005ab21       ?wide_null_string@?$output_processor@_WV?$stream_output_adapter@_W@__crt_stdio_output@@V?$positional_parameter_base@_WV?$stream_output_adapter@_W@__crt_stdio_output@@@2@@__crt_stdio_output@@CAPA_WXZ 1005bb21 f i libucrt:output.obj
 0001:0005ab27       ?wide_null_string@?$output_processor@_WV?$stream_output_adapter@_W@__crt_stdio_output@@V?$standard_base@_WV?$stream_output_adapter@_W@__crt_stdio_output@@@2@@__crt_stdio_output@@CAPA_WXZ 1005bb27 f i libucrt:output.obj
 0001:0005ab2d       ?wide_null_string@?$output_processor@_WV?$string_output_adapter@_W@__crt_stdio_output@@V?$format_validation_base@_WV?$string_output_adapter@_W@__crt_stdio_output@@@2@@__crt_stdio_output@@CAPA_WXZ 1005bb2d f i libucrt:output.obj
 0001:0005ab33       ?wide_null_string@?$output_processor@_WV?$string_output_adapter@_W@__crt_stdio_output@@V?$positional_parameter_base@_WV?$string_output_adapter@_W@__crt_stdio_output@@@2@@__crt_stdio_output@@CAPA_WXZ 1005bb33 f i libucrt:output.obj
 0001:0005ab39       ?wide_null_string@?$output_processor@_WV?$string_output_adapter@_W@__crt_stdio_output@@V?$standard_base@_WV?$string_output_adapter@_W@__crt_stdio_output@@@2@@__crt_stdio_output@@CAPA_WXZ 1005bb39 f i libucrt:output.obj
 0001:0005ab3f       ?write_character@?$output_adapter_common@DV?$stream_output_adapter@D@__crt_stdio_output@@@__crt_stdio_output@@QBEXDQAH@Z 1005bb3f f i libucrt:output.obj
 0001:0005ab5e       ?write_character@?$output_adapter_common@_WV?$stream_output_adapter@_W@__crt_stdio_output@@@__crt_stdio_output@@QBEX_WQAH@Z 1005bb5e f i libucrt:output.obj
 0001:0005ab7d       ?write_character@?$string_output_adapter@D@__crt_stdio_output@@QBE_NDQAH@Z 1005bb7d f i libucrt:output.obj
 0001:0005abbf       ?write_character@?$string_output_adapter@_W@__crt_stdio_output@@QBE_N_WQAH@Z 1005bbbf f i libucrt:output.obj
 0001:0005ac04       ?write_character_without_count_update@?$stream_output_adapter@D@__crt_stdio_output@@QBE_ND@Z 1005bc04 f i libucrt:output.obj
 0001:0005ac3a       ?write_character_without_count_update@?$stream_output_adapter@_W@__crt_stdio_output@@QBE_N_W@Z 1005bc3a f i libucrt:output.obj
 0001:0005ac73       ?write_stored_string_tchar@?$output_processor@DV?$stream_output_adapter@D@__crt_stdio_output@@V?$format_validation_base@DV?$stream_output_adapter@D@__crt_stdio_output@@@2@@__crt_stdio_output@@AAE_ND@Z 1005bc73 f i libucrt:output.obj
 0001:0005ad18       ?write_stored_string_tchar@?$output_processor@DV?$stream_output_adapter@D@__crt_stdio_output@@V?$positional_parameter_base@DV?$stream_output_adapter@D@__crt_stdio_output@@@2@@__crt_stdio_output@@AAE_ND@Z 1005bd18 f i libucrt:output.obj
 0001:0005adbd       ?write_stored_string_tchar@?$output_processor@DV?$stream_output_adapter@D@__crt_stdio_output@@V?$standard_base@DV?$stream_output_adapter@D@__crt_stdio_output@@@2@@__crt_stdio_output@@AAE_ND@Z 1005bdbd f i libucrt:output.obj
 0001:0005ae62       ?write_stored_string_tchar@?$output_processor@DV?$string_output_adapter@D@__crt_stdio_output@@V?$format_validation_base@DV?$string_output_adapter@D@__crt_stdio_output@@@2@@__crt_stdio_output@@AAE_ND@Z 1005be62 f i libucrt:output.obj
 0001:0005af07       ?write_stored_string_tchar@?$output_processor@DV?$string_output_adapter@D@__crt_stdio_output@@V?$positional_parameter_base@DV?$string_output_adapter@D@__crt_stdio_output@@@2@@__crt_stdio_output@@AAE_ND@Z 1005bf07 f i libucrt:output.obj
 0001:0005afac       ?write_stored_string_tchar@?$output_processor@DV?$string_output_adapter@D@__crt_stdio_output@@V?$standard_base@DV?$string_output_adapter@D@__crt_stdio_output@@@2@@__crt_stdio_output@@AAE_ND@Z 1005bfac f i libucrt:output.obj
 0001:0005b051       ?write_stored_string_tchar@?$output_processor@_WV?$stream_output_adapter@_W@__crt_stdio_output@@V?$format_validation_base@_WV?$stream_output_adapter@_W@__crt_stdio_output@@@2@@__crt_stdio_output@@AAE_N_W@Z 1005c051 f i libucrt:output.obj
 0001:0005b0de       ?write_stored_string_tchar@?$output_processor@_WV?$stream_output_adapter@_W@__crt_stdio_output@@V?$positional_parameter_base@_WV?$stream_output_adapter@_W@__crt_stdio_output@@@2@@__crt_stdio_output@@AAE_N_W@Z 1005c0de f i libucrt:output.obj
 0001:0005b16b       ?write_stored_string_tchar@?$output_processor@_WV?$stream_output_adapter@_W@__crt_stdio_output@@V?$standard_base@_WV?$stream_output_adapter@_W@__crt_stdio_output@@@2@@__crt_stdio_output@@AAE_N_W@Z 1005c16b f i libucrt:output.obj
 0001:0005b1f8       ?write_stored_string_tchar@?$output_processor@_WV?$string_output_adapter@_W@__crt_stdio_output@@V?$format_validation_base@_WV?$string_output_adapter@_W@__crt_stdio_output@@@2@@__crt_stdio_output@@AAE_N_W@Z 1005c1f8 f i libucrt:output.obj
 0001:0005b285       ?write_stored_string_tchar@?$output_processor@_WV?$string_output_adapter@_W@__crt_stdio_output@@V?$positional_parameter_base@_WV?$string_output_adapter@_W@__crt_stdio_output@@@2@@__crt_stdio_output@@AAE_N_W@Z 1005c285 f i libucrt:output.obj
 0001:0005b312       ?write_stored_string_tchar@?$output_processor@_WV?$string_output_adapter@_W@__crt_stdio_output@@V?$standard_base@_WV?$string_output_adapter@_W@__crt_stdio_output@@@2@@__crt_stdio_output@@AAE_N_W@Z 1005c312 f i libucrt:output.obj
 0001:0005b39f       ?write_string@?$stream_output_adapter@D@__crt_stdio_output@@QBEXQBDHQAHAAV__crt_deferred_errno_cache@@@Z 1005c39f f i libucrt:output.obj
 0001:0005b3cb       ?write_string@?$stream_output_adapter@_W@__crt_stdio_output@@QBEXQB_WHQAHAAV__crt_deferred_errno_cache@@@Z 1005c3cb f i libucrt:output.obj
 0001:0005b3f7       ?write_string@?$string_output_adapter@D@__crt_stdio_output@@QBEXQBDHQAHAAV__crt_deferred_errno_cache@@@Z 1005c3f7 f i libucrt:output.obj
 0001:0005b45e       ?write_string@?$string_output_adapter@_W@__crt_stdio_output@@QBEXQB_WHQAHAAV__crt_deferred_errno_cache@@@Z 1005c45e f i libucrt:output.obj
 0001:0005b4cf       ?write_string_impl@?$output_adapter_common@DV?$stream_output_adapter@D@__crt_stdio_output@@@__crt_stdio_output@@IBEXQBDHQAHAAV__crt_deferred_errno_cache@@@Z 1005c4cf f i libucrt:output.obj
 0001:0005b56d       ?write_string_impl@?$output_adapter_common@_WV?$stream_output_adapter@_W@__crt_stdio_output@@@__crt_stdio_output@@IBEXQB_WHQAHAAV__crt_deferred_errno_cache@@@Z 1005c56d f i libucrt:output.obj
 0001:0005b60e       ___acrt_disable_global_locale_sync 1005c60e f i libucrt:output.obj
 0001:0005b621       ___acrt_enable_global_locale_sync 1005c621 f i libucrt:output.obj
 0001:0005b636       ___acrt_isleadbyte_l_noupdate 1005c636 f i libucrt:output.obj
 0001:0005b654       ___acrt_locale_changed     1005c654 f i libucrt:output.obj
 0001:0005b65f       ___acrt_locale_get_ctype_array_value 1005c65f f i libucrt:output.obj
 0001:0005b681       ___stdio_common_vfprintf   1005c681 f   libucrt:output.obj
 0001:0005b704       ___stdio_common_vfprintf_p 1005c704 f   libucrt:output.obj
 0001:0005b787       ___stdio_common_vfprintf_s 1005c787 f   libucrt:output.obj
 0001:0005b80a       ___stdio_common_vfwprintf  1005c80a f   libucrt:output.obj
 0001:0005b88d       ___stdio_common_vfwprintf_p 1005c88d f   libucrt:output.obj
 0001:0005b910       ___stdio_common_vfwprintf_s 1005c910 f   libucrt:output.obj
 0001:0005b993       ___stdio_common_vsnprintf_s 1005c993 f   libucrt:output.obj
 0001:0005b9ba       ___stdio_common_vsnwprintf_s 1005c9ba f   libucrt:output.obj
 0001:0005b9e1       ___stdio_common_vsprintf   1005c9e1 f   libucrt:output.obj
 0001:0005ba05       ___stdio_common_vsprintf_p 1005ca05 f   libucrt:output.obj
 0001:0005ba29       ___stdio_common_vsprintf_s 1005ca29 f   libucrt:output.obj
 0001:0005ba4d       ___stdio_common_vswprintf  1005ca4d f   libucrt:output.obj
 0001:0005ba71       ___stdio_common_vswprintf_p 1005ca71 f   libucrt:output.obj
 0001:0005ba95       ___stdio_common_vswprintf_s 1005ca95 f   libucrt:output.obj
 0001:0005bab9       __ctype_fast_check_internal 1005cab9 f i libucrt:output.obj
 0001:0005bad3       __isdigit_fast_internal    1005cad3 f i libucrt:output.obj
 0001:0005baed       __tolower_fast_internal    1005caed f i libucrt:output.obj
 0001:0005bb60       _strcpy_s                  1005cb60 f   libucrt:strcpy_s.obj
 0001:0005bbc0       _strcmp                    1005cbc0 f   libucrt:strcmp.obj
 0001:0005bc50       _strlen                    1005cc50 f   libucrt:strlen.obj
 0001:0005bcdb       ??0?$__crt_scoped_stack_ptr@D@@QAE@U?$__crt_scoped_stack_ptr_tag@D@@@Z 1005ccdb f i libucrt:strlwr.obj
 0001:0005bceb       ??0?$__crt_scoped_stack_ptr_tag@D@@QAE@QAD@Z 1005cceb f i libucrt:strlwr.obj
 0001:0005bcfb       ??1?$__crt_scoped_stack_ptr@D@@QAE@XZ 1005ccfb f i libucrt:strlwr.obj
 0001:0005bd04       ??B?$__crt_scoped_stack_ptr@D@@QBE_NXZ 1005cd04 f i libucrt:strlwr.obj
 0001:0005be77       ?get@?$__crt_scoped_stack_ptr@D@@QBEPADXZ 1005ce77 f i libucrt:strlwr.obj
 0001:0005be7a       __MallocaComputeSize       1005ce7a f i libucrt:strlwr.obj
 0001:0005be8d       __MarkAllocaS              1005ce8d f i libucrt:strlwr.obj
 0001:0005bea3       __freea_crt                1005cea3 f i libucrt:strlwr.obj
 0001:0005bec3       __strlwr                   1005cec3 f   libucrt:strlwr.obj
 0001:0005bf1f       __strlwr_l                 1005cf1f f   libucrt:strlwr.obj
 0001:0005bf39       __strlwr_s                 1005cf39 f   libucrt:strlwr.obj
 0001:0005bf50       __strlwr_s_l               1005cf50 f   libucrt:strlwr.obj
 0001:0005c47b       ??$gmtime_s@ABQAUtm@@ABQBJ@?$__crt_integer_traits@J@@SAHABQAUtm@@ABQBJ@Z 1005d47b f i libucrt:localtime.obj
 0001:0005c493       ??$gmtime_s@ABQAUtm@@ABQB_J@?$__crt_integer_traits@_J@@SAHABQAUtm@@ABQB_J@Z 1005d493 f i libucrt:localtime.obj
 0001:0005c4ab       ??$gmtime_s@ABQAUtm@@PAJ@?$__crt_integer_traits@J@@SAHABQAUtm@@$$QAPAJ@Z 1005d4ab f i libucrt:localtime.obj
 0001:0005c4c3       ??$gmtime_s@ABQAUtm@@PA_J@?$__crt_integer_traits@_J@@SAHABQAUtm@@$$QAPA_J@Z 1005d4c3 f i libucrt:localtime.obj
 0001:0005c4db       ??$localtime_s@ABQAUtm@@ABQBJ@?$__crt_integer_traits@J@@SAHABQAUtm@@ABQBJ@Z 1005d4db f i libucrt:localtime.obj
 0001:0005c4f4       ??$localtime_s@ABQAUtm@@ABQB_J@?$__crt_integer_traits@_J@@SAHABQAUtm@@ABQB_J@Z 1005d4f4 f i libucrt:localtime.obj
 0001:0005c50d       __invoke_watson_if_error   1005d50d f i libucrt:localtime.obj
 0001:0005c52f       __localtime32              1005d52f f   libucrt:localtime.obj
 0001:0005c556       __localtime32_s            1005d556 f   libucrt:localtime.obj
 0001:0005c561       __localtime64              1005d561 f   libucrt:localtime.obj
 0001:0005c588       __localtime64_s            1005d588 f   libucrt:localtime.obj
 0001:0005c593       ??$?R_W@__crt_internal_free_policy@@QBEXQB_W@Z 1005d593 f i libucrt:strftime.obj
 0001:0005c71e       ??$__acrt_mbs_to_wcs_cp@U__crt_win32_buffer_internal_dynamic_resizing@@@@YAHQBDAAV?$__crt_win32_buffer@_WU__crt_win32_buffer_internal_dynamic_resizing@@@@I@Z 1005d71e f i libucrt:strftime.obj
 0001:0005c73b       ??$__acrt_wcs_to_mbs_cp@U__crt_win32_buffer_no_resizing@@@@YAHQB_WAAV?$__crt_win32_buffer@DU__crt_win32_buffer_no_resizing@@@@I@Z 1005d73b f i libucrt:strftime.obj
 0001:0005c758       ??0?$__crt_unique_heap_ptr@_WU__crt_internal_free_policy@@@@QAE@QA_W@Z 1005d758 f i libucrt:strftime.obj
 0001:0005c768       ??0?$__crt_win32_buffer@DU__crt_win32_buffer_no_resizing@@@@QAE@QADI@Z 1005d768 f i libucrt:strftime.obj
 0001:0005c78c       ??0?$__crt_win32_buffer@_WU__crt_win32_buffer_internal_dynamic_resizing@@@@QAE@XZ 1005d78c f i libucrt:strftime.obj
 0001:0005c7a2       ??1?$__crt_unique_heap_ptr@_WU__crt_internal_free_policy@@@@QAE@XZ 1005d7a2 f i libucrt:strftime.obj
 0001:0005c7b4       ??1?$__crt_win32_buffer@DU__crt_win32_buffer_no_resizing@@@@QAE@XZ 1005d7b4 f i libucrt:strftime.obj
 0001:0005c7bf       ??1?$__crt_win32_buffer@_WU__crt_win32_buffer_internal_dynamic_resizing@@@@QAE@XZ 1005d7bf f i libucrt:strftime.obj
 0001:0005c809       ?_deallocate@?$__crt_win32_buffer@DU__crt_win32_buffer_no_resizing@@@@AAEXXZ 1005d809 f i libucrt:strftime.obj
 0001:0005c814       ?_deallocate@?$__crt_win32_buffer@_WU__crt_win32_buffer_internal_dynamic_resizing@@@@AAEXXZ 1005d814 f i libucrt:strftime.obj
 0001:0005c82e       ?allocate@?$__crt_win32_buffer@DU__crt_win32_buffer_no_resizing@@@@QAEHI@Z 1005d82e f i libucrt:strftime.obj
 0001:0005c855       ?allocate@?$__crt_win32_buffer@_WU__crt_win32_buffer_internal_dynamic_resizing@@@@QAEHI@Z 1005d855 f i libucrt:strftime.obj
 0001:0005c894       ?allocate@__crt_win32_buffer_internal_dynamic_resizing@@SAHQAPAXIABV__crt_win32_buffer_empty_debug_info@@@Z 1005d894 f i libucrt:strftime.obj
 0001:0005c8b3       ?allocate@__crt_win32_buffer_no_resizing@@SAHQAPAXIABV__crt_win32_buffer_empty_debug_info@@@Z 1005d8b3 f i libucrt:strftime.obj
 0001:0005c8c0       ?capacity@?$__crt_win32_buffer@DU__crt_win32_buffer_no_resizing@@@@QBEIXZ 1005d8c0 f i libucrt:strftime.obj
 0001:0005c8c4       ?capacity@?$__crt_win32_buffer@_WU__crt_win32_buffer_internal_dynamic_resizing@@@@QBEIXZ 1005d8c4 f i libucrt:strftime.obj
 0001:0005c8c8       ?data@?$__crt_win32_buffer@DU__crt_win32_buffer_no_resizing@@@@QAEPADXZ 1005d8c8 f i libucrt:strftime.obj
 0001:0005c8cc       ?data@?$__crt_win32_buffer@_WU__crt_win32_buffer_internal_dynamic_resizing@@@@QAEPA_WXZ 1005d8cc f i libucrt:strftime.obj
 0001:0005c8d0       ?deallocate@__crt_win32_buffer_internal_dynamic_resizing@@SAXQAXABV__crt_win32_buffer_empty_debug_info@@@Z 1005d8d0 f i libucrt:strftime.obj
 0001:0005c8e0       ?deallocate@__crt_win32_buffer_no_resizing@@SAXQAXABV__crt_win32_buffer_empty_debug_info@@@Z 1005d8e0 f i libucrt:strftime.obj
 0001:0005c8e3       ?debug_info@?$__crt_win32_buffer@DU__crt_win32_buffer_no_resizing@@@@QBEABV__crt_win32_buffer_empty_debug_info@@XZ 1005d8e3 f i libucrt:strftime.obj
 0001:0005c8e6       ?debug_info@?$__crt_win32_buffer@_WU__crt_win32_buffer_internal_dynamic_resizing@@@@QBEABV__crt_win32_buffer_empty_debug_info@@XZ 1005d8e6 f i libucrt:strftime.obj
 0001:0005c8e9       ?detach@?$__crt_unique_heap_ptr@DU__crt_internal_free_policy@@@@QAEPADXZ 1005d8e9 f i libucrt:strftime.obj
 0001:0005c8ef       ?get@?$__crt_unique_heap_ptr@_WU__crt_internal_free_policy@@@@QBEPA_WXZ 1005d8ef f i libucrt:strftime.obj
 0001:0005c8f2       ?release@?$__crt_unique_heap_ptr@_WU__crt_internal_free_policy@@@@QAEXXZ 1005d8f2 f i libucrt:strftime.obj
 0001:0005c904       ?set_to_nullptr@?$__crt_win32_buffer@DU__crt_win32_buffer_no_resizing@@@@QAEXXZ 1005d904 f i libucrt:strftime.obj
 0001:0005c918       ?set_to_nullptr@?$__crt_win32_buffer@_WU__crt_win32_buffer_internal_dynamic_resizing@@@@QAEXXZ 1005d918 f i libucrt:strftime.obj
 0001:0005c92f       ?size@?$__crt_win32_buffer@DU__crt_win32_buffer_no_resizing@@@@QAEXI@Z 1005d92f f i libucrt:strftime.obj
 0001:0005c93e       ?size@?$__crt_win32_buffer@DU__crt_win32_buffer_no_resizing@@@@QBEIXZ 1005d93e f i libucrt:strftime.obj
 0001:0005c942       ?size@?$__crt_win32_buffer@_WU__crt_win32_buffer_internal_dynamic_resizing@@@@QAEXI@Z 1005d942 f i libucrt:strftime.obj
 0001:0005c951       __Getdays                  1005d951 f   libucrt:strftime.obj
 0001:0005c95a       __Getdays_l                1005d95a f   libucrt:strftime.obj
 0001:0005ca60       __Getmonths                1005da60 f   libucrt:strftime.obj
 0001:0005ca69       __Getmonths_l              1005da69 f   libucrt:strftime.obj
 0001:0005cb7d       __Gettnames                1005db7d f   libucrt:strftime.obj
 0001:0005cb82       __Strftime                 1005db82 f   libucrt:strftime.obj
 0001:0005cba2       __Strftime_l               1005dba2 f   libucrt:strftime.obj
 0001:0005cc9f       __strftime_l               1005dc9f f   libucrt:strftime.obj
 0001:0005ccbf       _strftime                  1005dcbf f   libucrt:strftime.obj
 0001:0005cfcd       __time32                   1005dfcd f   libucrt:time.obj
 0001:0005d026       __time64                   1005e026 f   libucrt:time.obj
 0001:0005d084       __timespec32_get           1005e084 f   libucrt:time.obj
 0001:0005d08f       __timespec64_get           1005e08f f   libucrt:time.obj
 0001:0005d09a       ___acrt_errno_from_os_error 1005e09a f   libucrt:errno.obj
 0001:0005d0dd       ___acrt_errno_map_os_error 1005e0dd f   libucrt:errno.obj
 0001:0005d100       ___doserrno                1005e100 f   libucrt:errno.obj
 0001:0005d113       __errno                    1005e113 f   libucrt:errno.obj
 0001:0005d126       __get_doserrno             1005e126 f   libucrt:errno.obj
 0001:0005d14b       __get_errno                1005e14b f   libucrt:errno.obj
 0001:0005d170       __set_doserrno             1005e170 f   libucrt:errno.obj
 0001:0005d191       __set_errno                1005e191 f   libucrt:errno.obj
 0001:0005d1b2       ??$is_overflow_condition@K@__crt_strtox@@YA_NIK@Z 1005e1b2 f i libucrt:atox.obj
 0001:0005d1e3       ??$is_overflow_condition@_K@__crt_strtox@@YA_NI_K@Z 1005e1e3 f i libucrt:atox.obj
 0001:0005d224       ??$make_c_string_character_source@D$$T@__crt_strtox@@YA?AV?$c_string_character_source@D@0@QBD$$T@Z 1005e224 f i libucrt:atox.obj
 0001:0005d23f       ??$make_c_string_character_source@_W$$T@__crt_strtox@@YA?AV?$c_string_character_source@_W@0@QB_W$$T@Z 1005e23f f i libucrt:atox.obj
 0001:0005d25a       ??$parse_integer@KV?$c_string_character_source@D@__crt_strtox@@@__crt_strtox@@YAKQAU__crt_locale_pointers@@V?$c_string_character_source@D@0@H_N@Z 1005e25a f i libucrt:atox.obj
 0001:0005d47d       ??$parse_integer@KV?$c_string_character_source@_W@__crt_strtox@@@__crt_strtox@@YAKQAU__crt_locale_pointers@@V?$c_string_character_source@_W@0@H_N@Z 1005e47d f i libucrt:atox.obj
 0001:0005da85       ??$parse_integer@_KV?$c_string_character_source@D@__crt_strtox@@@__crt_strtox@@YA_KQAU__crt_locale_pointers@@V?$c_string_character_source@D@0@H_N@Z 1005ea85 f i libucrt:atox.obj
 0001:0005dd2b       ??$parse_integer@_KV?$c_string_character_source@_W@__crt_strtox@@@__crt_strtox@@YA_KQAU__crt_locale_pointers@@V?$c_string_character_source@_W@0@H_N@Z 1005ed2b f i libucrt:atox.obj
 0001:0005e3fc       ??$parse_integer_from_string@JD$$T@__crt_strtox@@YAJQBD$$THQAU__crt_locale_pointers@@@Z 1005f3fc f i libucrt:atox.obj
 0001:0005e427       ??$parse_integer_from_string@J_W$$T@__crt_strtox@@YAJQB_W$$THQAU__crt_locale_pointers@@@Z 1005f427 f i libucrt:atox.obj
 0001:0005e452       ??$parse_integer_from_string@_JD$$T@__crt_strtox@@YA_JQBD$$THQAU__crt_locale_pointers@@@Z 1005f452 f i libucrt:atox.obj
 0001:0005e47d       ??$parse_integer_from_string@_J_W$$T@__crt_strtox@@YA_JQB_W$$THQAU__crt_locale_pointers@@@Z 1005f47d f i libucrt:atox.obj
 0001:0005e4a8       ??0?$c_string_character_source@D@__crt_strtox@@QAE@QBDQAPBD@Z 1005f4a8 f i libucrt:atox.obj
 0001:0005e4c4       ??0?$c_string_character_source@_W@__crt_strtox@@QAE@QB_WQAPB_W@Z 1005f4c4 f i libucrt:atox.obj
 0001:0005e4e0       ??1?$c_string_character_source@D@__crt_strtox@@QAE@XZ 1005f4e0 f i libucrt:atox.obj
 0001:0005e4ec       ??1?$c_string_character_source@_W@__crt_strtox@@QAE@XZ 1005f4ec f i libucrt:atox.obj
 0001:0005e4f8       ?get@?$c_string_character_source@D@__crt_strtox@@QAEDXZ 1005f4f8 f i libucrt:atox.obj
 0001:0005e500       ?get@?$c_string_character_source@_W@__crt_strtox@@QAE_WXZ 1005f500 f i libucrt:atox.obj
 0001:0005e50b       ?is_space@__crt_strtox@@YA_NDQAU__crt_locale_pointers@@@Z 1005f50b f i libucrt:atox.obj
 0001:0005e529       ?is_space@__crt_strtox@@YA_N_WPAU__crt_locale_pointers@@@Z 1005f529 f i libucrt:atox.obj
 0001:0005e541       ?maximum_signed_value@__crt_strtox@@YAJK@Z 1005f541 f i libucrt:atox.obj
 0001:0005e547       ?maximum_signed_value@__crt_strtox@@YA_J_K@Z 1005f547 f i libucrt:atox.obj
 0001:0005e550       ?minimum_signed_value@__crt_strtox@@YAJK@Z 1005f550 f i libucrt:atox.obj
 0001:0005e556       ?minimum_signed_value@__crt_strtox@@YA_J_K@Z 1005f556 f i libucrt:atox.obj
 0001:0005e55e       ?parse_digit@__crt_strtox@@YAID@Z 1005f55e f i libucrt:atox.obj
 0001:0005e598       ?parse_digit@__crt_strtox@@YAI_W@Z 1005f598 f i libucrt:atox.obj
 0001:0005e777       ?restore_state@?$c_string_character_source@D@__crt_strtox@@QAE_NQBD@Z 1005f777 f i libucrt:atox.obj
 0001:0005e787       ?restore_state@?$c_string_character_source@_W@__crt_strtox@@QAE_NQB_W@Z 1005f787 f i libucrt:atox.obj
 0001:0005e797       ?save_state@?$c_string_character_source@D@__crt_strtox@@QBEPBDXZ 1005f797 f i libucrt:atox.obj
 0001:0005e79a       ?save_state@?$c_string_character_source@_W@__crt_strtox@@QBEPB_WXZ 1005f79a f i libucrt:atox.obj
 0001:0005e79d       ?unget@?$c_string_character_source@D@__crt_strtox@@QAEXD@Z 1005f79d f i libucrt:atox.obj
 0001:0005e7c6       ?unget@?$c_string_character_source@_W@__crt_strtox@@QAEX_W@Z 1005f7c6 f i libucrt:atox.obj
 0001:0005e7f4       ?validate@?$c_string_character_source@D@__crt_strtox@@QBE_NXZ 1005f7f4 f i libucrt:atox.obj
 0001:0005e80f       ?validate@?$c_string_character_source@_W@__crt_strtox@@QBE_NXZ 1005f80f f i libucrt:atox.obj
 0001:0005e82a       ?wide_character_to_digit@__crt_strtox@@YAH_W@Z 1005f82a f i libucrt:atox.obj
 0001:0005e9cb       ___acrt_get_locale_data_prefix 1005f9cb f i libucrt:atox.obj
 0001:0005e9d7       ___ascii_iswalpha          1005f9d7 f i libucrt:atox.obj
 0001:0005e9fa       ___ascii_toupper           1005f9fa f i libucrt:atox.obj
 0001:0005ea11       ___ascii_towupper          1005fa11 f i libucrt:atox.obj
 0001:0005ea28       __atoi64                   1005fa28 f   libucrt:atox.obj
 0001:0005ea4b       __atoi64_l                 1005fa4b f   libucrt:atox.obj
 0001:0005ea6f       __atoi_l                   1005fa6f f   libucrt:atox.obj
 0001:0005ea93       __atol_l                   1005fa93 f   libucrt:atox.obj
 0001:0005eab7       __atoll_l                  1005fab7 f   libucrt:atox.obj
 0001:0005eadb       __chvalidchk_l             1005fadb f i libucrt:atox.obj
 0001:0005eb03       __ischartype_l             1005fb03 f i libucrt:atox.obj
 0001:0005eb57       __wtoi                     1005fb57 f   libucrt:atox.obj
 0001:0005eb7a       __wtoi64                   1005fb7a f   libucrt:atox.obj
 0001:0005eb9d       __wtoi64_l                 1005fb9d f   libucrt:atox.obj
 0001:0005ebc1       __wtoi_l                   1005fbc1 f   libucrt:atox.obj
 0001:0005ebe5       __wtol                     1005fbe5 f   libucrt:atox.obj
 0001:0005ec08       __wtol_l                   1005fc08 f   libucrt:atox.obj
 0001:0005ec2c       __wtoll                    1005fc2c f   libucrt:atox.obj
 0001:0005ec4f       __wtoll_l                  1005fc4f f   libucrt:atox.obj
 0001:0005ec73       _atoi                      1005fc73 f   libucrt:atox.obj
 0001:0005ec96       _atol                      1005fc96 f   libucrt:atox.obj
 0001:0005ecb9       _atoll                     1005fcb9 f   libucrt:atox.obj
 0001:0005ed45       _strcat_s                  1005fd45 f   libucrt:strcat_s.obj
 0001:0005edb0       _strncmp                   1005fdb0 f   libucrt:strncmp.obj
 0001:0005ef94       __strupr                   1005ff94 f   libucrt:strupr.obj
 0001:0005eff0       __strupr_l                 1005fff0 f   libucrt:strupr.obj
 0001:0005f00a       __strupr_s                 1006000a f   libucrt:strupr.obj
 0001:0005f021       __strupr_s_l               10060021 f   libucrt:strupr.obj
 0001:0005f058       ??$make_c_string_character_source@DPAPAD@__crt_strtox@@YA?AV?$c_string_character_source@D@0@QBDQAPAD@Z 10060058 f i libucrt:strtox.obj
 0001:0005f073       ??$make_c_string_character_source@_WPAPA_W@__crt_strtox@@YA?AV?$c_string_character_source@_W@0@QB_WQAPA_W@Z 10060073 f i libucrt:strtox.obj
 0001:0005f08e       ??$parse_integer_from_string@JDPAPAD@__crt_strtox@@YAJQBDQAPADHQAU__crt_locale_pointers@@@Z 1006008e f i libucrt:strtox.obj
 0001:0005f0b9       ??$parse_integer_from_string@J_WPAPA_W@__crt_strtox@@YAJQB_WQAPA_WHQAU__crt_locale_pointers@@@Z 100600b9 f i libucrt:strtox.obj
 0001:0005f0e4       ??$parse_integer_from_string@KDPAPAD@__crt_strtox@@YAKQBDQAPADHQAU__crt_locale_pointers@@@Z 100600e4 f i libucrt:strtox.obj
 0001:0005f10f       ??$parse_integer_from_string@K_WPAPA_W@__crt_strtox@@YAKQB_WQAPA_WHQAU__crt_locale_pointers@@@Z 1006010f f i libucrt:strtox.obj
 0001:0005f13a       ??$parse_integer_from_string@_JDPAPAD@__crt_strtox@@YA_JQBDQAPADHQAU__crt_locale_pointers@@@Z 1006013a f i libucrt:strtox.obj
 0001:0005f165       ??$parse_integer_from_string@_J_WPAPA_W@__crt_strtox@@YA_JQB_WQAPA_WHQAU__crt_locale_pointers@@@Z 10060165 f i libucrt:strtox.obj
 0001:0005f190       ??$parse_integer_from_string@_KDPAPAD@__crt_strtox@@YA_KQBDQAPADHQAU__crt_locale_pointers@@@Z 10060190 f i libucrt:strtox.obj
 0001:0005f1bb       ??$parse_integer_from_string@_K_WPAPA_W@__crt_strtox@@YA_KQB_WQAPA_WHQAU__crt_locale_pointers@@@Z 100601bb f i libucrt:strtox.obj
 0001:0005f1e6       __strtoi64                 100601e6 f   libucrt:strtox.obj
 0001:0005f210       __strtoi64_l               10060210 f   libucrt:strtox.obj
 0001:0005f23b       __strtoimax_l              1006023b f   libucrt:strtox.obj
 0001:0005f266       __strtol_l                 10060266 f   libucrt:strtox.obj
 0001:0005f291       __strtoll_l                10060291 f   libucrt:strtox.obj
 0001:0005f2bc       __strtoui64                100602bc f   libucrt:strtox.obj
 0001:0005f2e6       __strtoui64_l              100602e6 f   libucrt:strtox.obj
 0001:0005f311       __strtoul_l                10060311 f   libucrt:strtox.obj
 0001:0005f33c       __strtoull_l               1006033c f   libucrt:strtox.obj
 0001:0005f367       __strtoumax_l              10060367 f   libucrt:strtox.obj
 0001:0005f392       __wcstoi64                 10060392 f   libucrt:strtox.obj
 0001:0005f3bc       __wcstoi64_l               100603bc f   libucrt:strtox.obj
 0001:0005f3e7       __wcstoimax_l              100603e7 f   libucrt:strtox.obj
 0001:0005f412       __wcstol_l                 10060412 f   libucrt:strtox.obj
 0001:0005f43d       __wcstoll_l                1006043d f   libucrt:strtox.obj
 0001:0005f468       __wcstoui64                10060468 f   libucrt:strtox.obj
 0001:0005f492       __wcstoui64_l              10060492 f   libucrt:strtox.obj
 0001:0005f4bd       __wcstoul_l                100604bd f   libucrt:strtox.obj
 0001:0005f4e8       __wcstoull_l               100604e8 f   libucrt:strtox.obj
 0001:0005f513       __wcstoumax_l              10060513 f   libucrt:strtox.obj
 0001:0005f53e       _strtoimax                 1006053e f   libucrt:strtox.obj
 0001:0005f568       _strtol                    10060568 f   libucrt:strtox.obj
 0001:0005f592       _strtoll                   10060592 f   libucrt:strtox.obj
 0001:0005f5bc       _strtoul                   100605bc f   libucrt:strtox.obj
 0001:0005f5e6       _strtoull                  100605e6 f   libucrt:strtox.obj
 0001:0005f610       _strtoumax                 10060610 f   libucrt:strtox.obj
 0001:0005f63a       _wcstoimax                 1006063a f   libucrt:strtox.obj
 0001:0005f664       _wcstol                    10060664 f   libucrt:strtox.obj
 0001:0005f68e       _wcstoll                   1006068e f   libucrt:strtox.obj
 0001:0005f6b8       _wcstoul                   100606b8 f   libucrt:strtox.obj
 0001:0005f6e2       _wcstoull                  100606e2 f   libucrt:strtox.obj
 0001:0005f70c       _wcstoumax                 1006070c f   libucrt:strtox.obj
 0001:0006014b       ??$tcsncpy_s@AAPADIAAPBDABI@?$__crt_char_traits@D@@SAHAAPAD$$QAIAAPBDABI@Z 1006114b f i libucrt:splitpath.obj
 0001:0006016e       ??$tcsncpy_s@AAPADIAAPBDH@?$__crt_char_traits@D@@SAHAAPAD$$QAIAAPBD$$QAH@Z 1006116e f i libucrt:splitpath.obj
 0001:00060191       ??$tcsncpy_s@AAPA_WIAAPB_WABI@?$__crt_char_traits@_W@@SAHAAPA_W$$QAIAAPB_WABI@Z 10061191 f i libucrt:splitpath.obj
 0001:000601b4       ??$tcsncpy_s@AAPA_WIAAPB_WH@?$__crt_char_traits@_W@@SAHAAPA_W$$QAIAAPB_W$$QAH@Z 100611b4 f i libucrt:splitpath.obj
 0001:00060271       __splitpath                10061271 f   libucrt:splitpath.obj
 0001:000602da       __splitpath_s              100612da f   libucrt:splitpath.obj
 0001:00060331       __wsplitpath               10061331 f   libucrt:splitpath.obj
 0001:0006039a       __wsplitpath_s             1006139a f   libucrt:splitpath.obj
 0001:00060bec       ??1?$__crt_simd_cleanup_guard@$00@@QAE@XZ 10061bec f i libucrt:strnlen.obj
 0001:00060bf0       ??1?$__crt_simd_cleanup_guard@$0A@@@QAE@XZ 10061bf0 f i libucrt:strnlen.obj
 0001:00060bf3       ?compare_equals@?$__crt_simd_traits@$00E@@SA?AT__m256i@@T2@0@Z 10061bf3 f i libucrt:strnlen.obj
 0001:00060bf8       ?compare_equals@?$__crt_simd_traits@$00G@@SA?AT__m256i@@T2@0@Z 10061bf8 f i libucrt:strnlen.obj
 0001:00060bfd       ?compare_equals@?$__crt_simd_traits@$0A@E@@SA?AT__m128i@@T2@0@Z 10061bfd f i libucrt:strnlen.obj
 0001:00060c02       ?compare_equals@?$__crt_simd_traits@$0A@G@@SA?AT__m128i@@T2@0@Z 10061c02 f i libucrt:strnlen.obj
 0001:00060c07       ?compute_byte_mask@?$__crt_simd_pack_traits@$00@@SAHT__m256i@@@Z 10061c07 f i libucrt:strnlen.obj
 0001:00060c0c       ?compute_byte_mask@?$__crt_simd_pack_traits@$0A@@@SAHT__m128i@@@Z 10061c0c f i libucrt:strnlen.obj
 0001:00060c11       ?get_zero_pack@?$__crt_simd_pack_traits@$00@@SA?AT__m256i@@XZ 10061c11 f i libucrt:strnlen.obj
 0001:00060c16       ?get_zero_pack@?$__crt_simd_pack_traits@$0A@@@SA?AT__m128i@@XZ 10061c16 f i libucrt:strnlen.obj
 0001:00060c1a       _strnlen                   10061c1a f   libucrt:strnlen.obj
 0001:00060d3c       _wcslen                    10061d3c f   libucrt:strnlen.obj
 0001:00060e64       _wcsnlen                   10061e64 f   libucrt:strnlen.obj
 0001:00061014       __abs64                    10062014 f   libucrt:abs.obj
 0001:0006102e       _abs                       1006202e f   libucrt:abs.obj
 0001:00061040       _cos                       10062040 f   libucrt:cos.obj
 0001:00061090       _sin                       10062090 f   libucrt:sin.obj
 0001:000610d3       ??$?B$$A6AHI@Z@__crt_fast_encoded_nullptr_t@@QBEP6AHI@ZXZ 100620d3 f i libucrt:new_handler.obj
 0001:000610d9       ??$__crt_fast_decode_pointer@P6AHI@Z@@YAP6AHI@ZQ6AHI@Z@Z 100620d9 f i libucrt:new_handler.obj
 0001:000610ef       ??$__crt_fast_encode_pointer@P6AHI@Z@@YAP6AHI@ZQ6AHI@Z@Z 100620ef f i libucrt:new_handler.obj
 0001:0006110e       ?__crt_fast_encode_pointer@@YA?AU__crt_fast_encoded_nullptr_t@@$$T@Z 1006210e f i libucrt:new_handler.obj
 0001:00061119       ?_set_new_handler@@YAP6AHI@ZH@Z 10062119 f   libucrt:new_handler.obj
 0001:00061126       ?initialize@?$dual_state_global@P6AHI@Z@__crt_state_management@@QAEXQ6AHI@Z@Z 10062126 f i libucrt:new_handler.obj
 0001:0006114c       ?value@?$dual_state_global@P6AHI@Z@__crt_state_management@@QAEAAP6AHI@ZXZ 1006214c f i libucrt:new_handler.obj
 0001:0006114f       ___acrt_initialize_new_handler 1006214f f   libucrt:new_handler.obj
 0001:0006115e       __callnewh                 1006215e f   libucrt:new_handler.obj
 0001:0006118b       __query_new_handler        1006218b f   libucrt:new_handler.obj
 0001:000611e7       __set_new_handler          100621e7 f   libucrt:new_handler.obj
 0001:00061251       ___ascii_stricmp           10062251 f   libucrt:stricmp.obj
 0001:0006128a       ___ascii_tolower           1006228a f i libucrt:stricmp.obj
 0001:000612a1       __strcmpi                  100622a1 f   libucrt:stricmp.obj
 0001:000612a1       __stricmp                  100622a1 f   libucrt:stricmp.obj
 0001:000612ea       __stricmp_l                100622ea f   libucrt:stricmp.obj
 0001:00061378       __errcode                  10062378 f   libucrt:fpexcept.obj
 0001:000613ac       __except1                  100623ac f   libucrt:fpexcept.obj
 0001:0006147a       __except2                  1006247a f   libucrt:fpexcept.obj
 0001:00061582       __handle_exc               10062582 f   libucrt:fpexcept.obj
 0001:0006176d       __handle_qnan2             1006276d f   libucrt:fpexcept.obj
 0001:0006177a       __raise_exc                1006277a f   libucrt:fpexcept.obj
 0001:0006179d       __raise_exc_ex             1006279d f   libucrt:fpexcept.obj
 0001:00061a93       __raise_excf               10062a93 f   libucrt:fpexcept.obj
 0001:00061ab6       __set_errno_from_matherr   10062ab6 f   libucrt:fpexcept.obj
 0001:00061ae5       __umatherr                 10062ae5 f   libucrt:fpexcept.obj
 0001:00061b9b       __get_terminate            10062b9b f   libucrt:terminate.obj
 0001:00061bad       _set_terminate             10062bad f   libucrt:terminate.obj
 0001:00061bcd       _terminate                 10062bcd f   libucrt:terminate.obj
 0001:00061c09       __initterm                 10062c09 f   libucrt:initterm.obj
 0001:00061c4e       __initterm_e               10062c4e f   libucrt:initterm.obj
 0001:00061ca0       __seh_filter_dll           10062ca0 f   libucrt:exception_filter.obj
 0001:00061cc0       __seh_filter_exe           10062cc0 f   libucrt:exception_filter.obj
 0001:00061e18       ??$?B$$A6GXPAXK0@Z@__crt_fast_encoded_nullptr_t@@QBEP6GXPAXK0@ZXZ 10062e18 f i libucrt:exit.obj
 0001:00061e91       ??$__crt_fast_decode_pointer@P6GXPAXK0@Z@@YAP6GXPAXK0@ZQ6GX0K0@Z@Z 10062e91 f i libucrt:exit.obj
 0001:00061ea7       ??$__crt_fast_encode_pointer@P6GXPAXK0@Z@@YAP6GXPAXK0@ZQ6GX0K0@Z@Z 10062ea7 f i libucrt:exit.obj
 0001:00061ec6       ??$__crt_get_proc_address@P6GXI@Z@@YAP6GXI@ZQAUHINSTANCE__@@QBD@Z 10062ec6 f i libucrt:exit.obj
 0001:00061f19       ??0?$__crt_unique_handle_t@U__crt_hmodule_traits@@@@QAE@QAUHINSTANCE__@@@Z 10062f19 f i libucrt:exit.obj
 0001:00061f29       ??1?$__crt_unique_handle_t@U__crt_hmodule_traits@@@@QAE@XZ 10062f29 f i libucrt:exit.obj
 0001:0006202c       ?__acrt_select_exit_lock@@YA?AW4__acrt_lock_id@@XZ 1006302c f i libucrt:exit.obj
 0001:00062043       ?close@?$__crt_unique_handle_t@U__crt_hmodule_traits@@@@QAEXXZ 10063043 f i libucrt:exit.obj
 0001:0006205a       ?close@__crt_hmodule_traits@@SA_NPAUHINSTANCE__@@@Z 1006305a f i libucrt:exit.obj
 0001:00062115       ?get@?$__crt_unique_handle_t@U__crt_hmodule_traits@@@@QBEPAUHINSTANCE__@@XZ 10063115 f i libucrt:exit.obj
 0001:00062118       ?get_address_of@?$__crt_unique_handle_t@U__crt_hmodule_traits@@@@QAEPAPAUHINSTANCE__@@XZ 10063118 f i libucrt:exit.obj
 0001:0006211b       ?get_invalid_value@__crt_hmodule_traits@@SAPAUHINSTANCE__@@XZ 1006311b f i libucrt:exit.obj
 0001:000621d6       __Exit                     100631d6 f   libucrt:exit.obj
 0001:000621ec       ___acrt_initialize_thread_local_exit_callback 100631ec f   libucrt:exit.obj
 0001:000621fb       __c_exit                   100631fb f   libucrt:exit.obj
 0001:0006220a       __cexit                    1006320a f   libucrt:exit.obj
 0001:00062219       __exit                     10063219 f   libucrt:exit.obj
 0001:0006222f       __is_c_termination_complete 1006322f f   libucrt:exit.obj
 0001:00062236       __register_thread_local_exe_atexit_callback 10063236 f   libucrt:exit.obj
 0001:0006225c       _exit                      1006325c f   libucrt:exit.obj
 0001:00062272       _quick_exit                10063272 f   libucrt:exit.obj
 0001:00062288       ??$?RE@__crt_internal_free_policy@@QBEXQBE@Z 10063288 f i libucrt:argv_parsing.obj
 0001:0006229a       ??$?RPAD@__crt_internal_free_policy@@QBEXQBQAD@Z 1006329a f i libucrt:argv_parsing.obj
 0001:000622ac       ??$?RPA_W@__crt_internal_free_policy@@QBEXQBQA_W@Z 100632ac f i libucrt:argv_parsing.obj
 0001:00062523       ??$get_module_file_name@$$TAAY0BAF@DH@?$__crt_char_traits@D@@SAK$$QA$$TAAY0BAF@D$$QAH@Z 10063523 f i libucrt:argv_parsing.obj
 0001:0006253f       ??$get_module_file_name@$$TAAY0BAF@_WH@?$__crt_char_traits@_W@@SAK$$QA$$TAAY0BAF@_W$$QAH@Z 1006353f f i libucrt:argv_parsing.obj
 0001:00062861       ??$set_program_name@PAD@?$__crt_char_traits@D@@SAX$$QAPAD@Z 10063861 f i libucrt:argv_parsing.obj
 0001:00062872       ??$set_program_name@PA_W@?$__crt_char_traits@_W@@SAX$$QAPA_W@Z 10063872 f i libucrt:argv_parsing.obj
 0001:000628a3       ??0?$__crt_unique_heap_ptr@EU__crt_internal_free_policy@@@@QAE@QAE@Z 100638a3 f i libucrt:argv_parsing.obj
 0001:000628b3       ??0?$__crt_unique_heap_ptr@PADU__crt_internal_free_policy@@@@QAE@QAPAD@Z 100638b3 f i libucrt:argv_parsing.obj
 0001:000628c3       ??0?$__crt_unique_heap_ptr@PA_WU__crt_internal_free_policy@@@@QAE@QAPA_W@Z 100638c3 f i libucrt:argv_parsing.obj
 0001:000628d3       ??1?$__crt_unique_heap_ptr@EU__crt_internal_free_policy@@@@QAE@XZ 100638d3 f i libucrt:argv_parsing.obj
 0001:000628e5       ??1?$__crt_unique_heap_ptr@PADU__crt_internal_free_policy@@@@QAE@XZ 100638e5 f i libucrt:argv_parsing.obj
 0001:000628f7       ??1?$__crt_unique_heap_ptr@PA_WU__crt_internal_free_policy@@@@QAE@XZ 100638f7 f i libucrt:argv_parsing.obj
 0001:00062909       ??B?$__crt_unique_heap_ptr@EU__crt_internal_free_policy@@@@QBE_NXZ 10063909 f i libucrt:argv_parsing.obj
 0001:0006293c       ?detach@?$__crt_unique_heap_ptr@EU__crt_internal_free_policy@@@@QAEPAEXZ 1006393c f i libucrt:argv_parsing.obj
 0001:00062942       ?detach@?$__crt_unique_heap_ptr@PADU__crt_internal_free_policy@@@@QAEPAPADXZ 10063942 f i libucrt:argv_parsing.obj
 0001:00062948       ?detach@?$__crt_unique_heap_ptr@PA_WU__crt_internal_free_policy@@@@QAEPAPA_WXZ 10063948 f i libucrt:argv_parsing.obj
 0001:0006296c       ?get@?$__crt_unique_heap_ptr@EU__crt_internal_free_policy@@@@QBEPAEXZ 1006396c f i libucrt:argv_parsing.obj
 0001:0006296f       ?get@?$__crt_unique_heap_ptr@PADU__crt_internal_free_policy@@@@QBEPAPADXZ 1006396f f i libucrt:argv_parsing.obj
 0001:00062972       ?get@?$__crt_unique_heap_ptr@PA_WU__crt_internal_free_policy@@@@QBEPAPA_WXZ 10063972 f i libucrt:argv_parsing.obj
 0001:00062975       ?get_address_of@?$__crt_unique_heap_ptr@PADU__crt_internal_free_policy@@@@QAEPAPAPADXZ 10063975 f i libucrt:argv_parsing.obj
 0001:00062978       ?get_address_of@?$__crt_unique_heap_ptr@PA_WU__crt_internal_free_policy@@@@QAEPAPAPA_WXZ 10063978 f i libucrt:argv_parsing.obj
 0001:00062993       ?is_valid@?$__crt_unique_heap_ptr@EU__crt_internal_free_policy@@@@QBE_NXZ 10063993 f i libucrt:argv_parsing.obj
 0001:0006299a       ?release@?$__crt_unique_heap_ptr@EU__crt_internal_free_policy@@@@QAEXXZ 1006399a f i libucrt:argv_parsing.obj
 0001:000629ac       ?release@?$__crt_unique_heap_ptr@PADU__crt_internal_free_policy@@@@QAEXXZ 100639ac f i libucrt:argv_parsing.obj
 0001:000629be       ?release@?$__crt_unique_heap_ptr@PA_WU__crt_internal_free_policy@@@@QAEXXZ 100639be f i libucrt:argv_parsing.obj
 0001:000629ea       ___acrt_allocate_buffer_for_argv 100639ea f   libucrt:argv_parsing.obj
 0001:00062a39       __configure_narrow_argv    10063a39 f   libucrt:argv_parsing.obj
 0001:00062a44       __configure_wide_argv      10063a44 f   libucrt:argv_parsing.obj
 0001:00062a4f       __set_pgmptr               10063a4f f i libucrt:argv_parsing.obj
 0001:00062a5e       __set_wpgmptr              10063a5e f i libucrt:argv_parsing.obj
 0001:00062e46       ??$get_environment_from_os@$$V@?$__crt_char_traits@D@@SAPADXZ 10063e46 f i libucrt:environment_initialization.obj
 0001:00062e4b       ??$get_environment_from_os@$$V@?$__crt_char_traits@_W@@SAPA_WXZ 10063e4b f i libucrt:environment_initialization.obj
 0001:00062f50       ??$set_variable_in_environment_nolock@PADH@?$__crt_char_traits@D@@SAH$$QAPAD$$QAH@Z 10063f50 f i libucrt:environment_initialization.obj
 0001:00062f68       ??$set_variable_in_environment_nolock@PA_WH@?$__crt_char_traits@_W@@SAH$$QAPA_W$$QAH@Z 10063f68 f i libucrt:environment_initialization.obj
 0001:00062f80       ??$tcscpy_s@PADABIAAPAD@?$__crt_char_traits@D@@SAH$$QAPADABIAAPAD@Z 10063f80 f i libucrt:environment_initialization.obj
 0001:00062f9e       ??$tcscpy_s@PA_WABIAAPA_W@?$__crt_char_traits@_W@@SAH$$QAPA_WABIAAPA_W@Z 10063f9e f i libucrt:environment_initialization.obj
 0001:00062fbc       ??$tcslen@AAPAD@?$__crt_char_traits@D@@SAIAAPAD@Z 10063fbc f i libucrt:environment_initialization.obj
 0001:00062fd4       ??$tcslen@AAPA_W@?$__crt_char_traits@_W@@SAIAAPA_W@Z 10063fd4 f i libucrt:environment_initialization.obj
 0001:00062ff2       ??$uninitialize@A6AXAAPAPAD@Z@?$dual_state_global@PAPAD@__crt_state_management@@QAEXA6AXAAPAPAD@Z@Z 10063ff2 f i libucrt:environment_initialization.obj
 0001:0006301b       ??$uninitialize@A6AXAAPAPA_W@Z@?$dual_state_global@PAPA_W@__crt_state_management@@QAEXA6AXAAPAPA_W@Z@Z 1006401b f i libucrt:environment_initialization.obj
 0001:0006307a       ??B?$__crt_unique_heap_ptr@PADU__crt_internal_free_policy@@@@QBE_NXZ 1006407a f i libucrt:environment_initialization.obj
 0001:00063081       ??B?$__crt_unique_heap_ptr@PA_WU__crt_internal_free_policy@@@@QBE_NXZ 10064081 f i libucrt:environment_initialization.obj
 0001:00063088       ??B?$__crt_unique_heap_ptr@_WU__crt_internal_free_policy@@@@QBE_NXZ 10064088 f i libucrt:environment_initialization.obj
 0001:0006308f       ?__crt_compute_required_transform_buffer_count@@YAIIQBD@Z 1006408f f i libucrt:environment_initialization.obj
 0001:000630ab       ?__crt_compute_required_transform_buffer_count@@YAIIQB_W@Z 100640ab f i libucrt:environment_initialization.obj
 0001:000630c9       ?__crt_transform_string@@YAIIQBDQA_WI@Z 100640c9 f i libucrt:environment_initialization.obj
 0001:000630e8       ?__crt_transform_string@@YAIIQB_WQADI@Z 100640e8 f i libucrt:environment_initialization.obj
 0001:0006310a       ?detach@?$__crt_unique_heap_ptr@_WU__crt_internal_free_policy@@@@QAEPA_WXZ 1006410a f i libucrt:environment_initialization.obj
 0001:00063134       ?initialize@?$dual_state_global@PAPAD@__crt_state_management@@QAEXQAPAD@Z 10064134 f i libucrt:environment_initialization.obj
 0001:0006315a       ?initialize@?$dual_state_global@PAPA_W@__crt_state_management@@QAEXQAPA_W@Z 1006415a f i libucrt:environment_initialization.obj
 0001:00063180       ?is_valid@?$__crt_unique_heap_ptr@PADU__crt_internal_free_policy@@@@QBE_NXZ 10064180 f i libucrt:environment_initialization.obj
 0001:00063187       ?is_valid@?$__crt_unique_heap_ptr@PA_WU__crt_internal_free_policy@@@@QBE_NXZ 10064187 f i libucrt:environment_initialization.obj
 0001:0006318e       ?is_valid@?$__crt_unique_heap_ptr@_WU__crt_internal_free_policy@@@@QBE_NXZ 1006418e f i libucrt:environment_initialization.obj
 0001:0006319d       ?value@?$dual_state_global@PAPAD@__crt_state_management@@QAEAAPAPADXZ 1006419d f i libucrt:environment_initialization.obj
 0001:000631a0       ?value@?$dual_state_global@PAPA_W@__crt_state_management@@QAEAAPAPA_WXZ 100641a0 f i libucrt:environment_initialization.obj
 0001:000631a3       ___dcrt_get_or_create_narrow_environment_nolock 100641a3 f   libucrt:environment_initialization.obj
 0001:000631a8       ___dcrt_get_or_create_wide_environment_nolock 100641a8 f   libucrt:environment_initialization.obj
 0001:000631ad       ___dcrt_uninitialize_environments_nolock 100641ad f   libucrt:environment_initialization.obj
 0001:000631e4       ___p__environ              100641e4 f   libucrt:environment_initialization.obj
 0001:000631ea       ___p__wenviron             100641ea f   libucrt:environment_initialization.obj
 0001:000631f0       __get_initial_narrow_environment 100641f0 f   libucrt:environment_initialization.obj
 0001:00063204       __get_initial_wide_environment 10064204 f   libucrt:environment_initialization.obj
 0001:00063218       __initialize_narrow_environment 10064218 f   libucrt:environment_initialization.obj
 0001:0006321d       __initialize_wide_environment 1006421d f   libucrt:environment_initialization.obj
 0001:00063222       ??$?B$$A6AXXZ@__crt_fast_encoded_nullptr_t@@QBEP6AXXZXZ 10064222 f i libucrt:onexit.obj
 0001:00063228       ??$?BP6AXXZ@__crt_fast_encoded_nullptr_t@@QBEPAP6AXXZXZ 10064228 f i libucrt:onexit.obj
 0001:0006322e       ??$?RP6AXXZ@__crt_internal_free_policy@@QBEXQBQ6AXXZ@Z 1006422e f i libucrt:onexit.obj
 0001:00063342       ??$__crt_fast_decode_pointer@P6AXXZ@@YAP6AXXZQ6AXXZ@Z 10064342 f i libucrt:onexit.obj
 0001:00063358       ??$__crt_fast_decode_pointer@PAP6AXXZ@@YAPAP6AXXZQAP6AXXZ@Z 10064358 f i libucrt:onexit.obj
 0001:0006336e       ??$__crt_fast_encode_pointer@P6AHXZ@@YAP6AHXZQ6AHXZ@Z 1006436e f i libucrt:onexit.obj
 0001:0006338d       ??$__crt_fast_encode_pointer@P6AXXZ@@YAP6AXXZQ6AXXZ@Z 1006438d f i libucrt:onexit.obj
 0001:000633ac       ??$__crt_fast_encode_pointer@PAP6AXXZ@@YAPAP6AXXZQAP6AXXZ@Z 100643ac f i libucrt:onexit.obj
 0001:00063439       ??0?$__crt_unique_heap_ptr@P6AXXZU__crt_internal_free_policy@@@@QAE@QAP6AXXZ@Z 10064439 f i libucrt:onexit.obj
 0001:00063449       ??1?$__crt_unique_heap_ptr@P6AXXZU__crt_internal_free_policy@@@@QAE@XZ 10064449 f i libucrt:onexit.obj
 0001:0006345b       ??1scoped_global_state_reset@__crt_state_management@@QAE@XZ 1006445b f i libucrt:onexit.obj
 0001:00063685       ?detach@?$__crt_unique_heap_ptr@P6AXXZU__crt_internal_free_policy@@@@QAEPAP6AXXZXZ 10064685 f i libucrt:onexit.obj
 0001:0006368b       ?release@?$__crt_unique_heap_ptr@P6AXXZU__crt_internal_free_policy@@@@QAEXXZ 1006468b f i libucrt:onexit.obj
 0001:0006369d       __crt_at_quick_exit        1006469d f   libucrt:onexit.obj
 0001:000636b3       __crt_atexit               100646b3 f   libucrt:onexit.obj
 0001:000636c9       __execute_onexit_table     100646c9 f   libucrt:onexit.obj
 0001:000636f6       __initialize_onexit_table  100646f6 f   libucrt:onexit.obj
 0001:0006371f       __register_onexit_function 1006471f f   libucrt:onexit.obj
 0001:0006382e       ??$?BX@__crt_fast_encoded_nullptr_t@@QBEPAXXZ 1006482e f i libucrt:initialization.obj
 0001:00063834       ??$__crt_fast_encode_pointer@PAX@@YAPAXQAX@Z 10064834 f i libucrt:initialization.obj
 0001:000638a5       ?__acrt_stdio_is_initialized@@YA_NXZ 100648a5 f i libucrt:initialization.obj
 0001:000638b0       ?initialize@?$dual_state_global@PAU__crt_locale_data@@@__crt_state_management@@QAEXQAU__crt_locale_data@@@Z 100648b0 f i libucrt:initialization.obj
 0001:000638d6       ___acrt_initialize         100648d6 f   libucrt:initialization.obj
 0001:000638e8       ___acrt_thread_attach      100648e8 f   libucrt:initialization.obj
 0001:000638f3       ___acrt_thread_detach      100648f3 f   libucrt:initialization.obj
 0001:000638fb       ___acrt_uninitialize       100648fb f   libucrt:initialization.obj
 0001:0006392b       ___acrt_uninitialize_critical 1006492b f   libucrt:initialization.obj
 0001:0006393d       __set_abort_behavior       1006493d f   libucrt:abort.obj
 0001:0006395e       _abort                     1006495e f   libucrt:abort.obj
 0001:000639a2       _calloc                    100649a2 f   libucrt:calloc.obj
 0001:000639ad       _wcsncmp                   100649ad f   libucrt:wcsncmp.obj
 0001:000639e7       __malloc_base              100649e7 f   libucrt:malloc_base.obj
 0001:00063a35       ??$?RU__acrt_ptd@@@__crt_internal_free_policy@@QBEXQBU__acrt_ptd@@@Z 10064a35 f i libucrt:per_thread_data.obj
 0001:00063d21       ??0?$__crt_unique_heap_ptr@U__acrt_ptd@@U__crt_internal_free_policy@@@@QAE@QAU__acrt_ptd@@@Z 10064d21 f i libucrt:per_thread_data.obj
 0001:00063d31       ??0__crt_scoped_get_last_error_reset@@QAE@XZ 10064d31 f i libucrt:per_thread_data.obj
 0001:00063d42       ??1?$__crt_unique_heap_ptr@U__acrt_ptd@@U__crt_internal_free_policy@@@@QAE@XZ 10064d42 f i libucrt:per_thread_data.obj
 0001:00063d54       ??1__crt_scoped_get_last_error_reset@@QAE@XZ 10064d54 f i libucrt:per_thread_data.obj
 0001:00063d5d       ??B?$__crt_unique_heap_ptr@U__acrt_ptd@@U__crt_internal_free_policy@@@@QBE_NXZ 10064d5d f i libucrt:per_thread_data.obj
 0001:00063eab       ?dangerous_get_state_array@?$dual_state_global@PAU__crt_locale_data@@@__crt_state_management@@QAEPAPAU__crt_locale_data@@XZ 10064eab f i libucrt:per_thread_data.obj
 0001:00063fa1       ?detach@?$__crt_unique_heap_ptr@U__acrt_ptd@@U__crt_internal_free_policy@@@@QAEPAU__acrt_ptd@@XZ 10064fa1 f i libucrt:per_thread_data.obj
 0001:00063fa7       ?get@?$__crt_unique_heap_ptr@U__acrt_ptd@@U__crt_internal_free_policy@@@@QBEPAU__acrt_ptd@@XZ 10064fa7 f i libucrt:per_thread_data.obj
 0001:00063faa       ?get_current_state_index@__crt_state_management@@YAIABV__crt_scoped_get_last_error_reset@@@Z 10064faa f i libucrt:per_thread_data.obj
 0001:000640df       ?is_valid@?$__crt_unique_heap_ptr@U__acrt_ptd@@U__crt_internal_free_policy@@@@QBE_NXZ 100650df f i libucrt:per_thread_data.obj
 0001:000640e6       ?release@?$__crt_unique_heap_ptr@U__acrt_ptd@@U__crt_internal_free_policy@@@@QAEXXZ 100650e6 f i libucrt:per_thread_data.obj
 0001:0006415a       ?value@?$dual_state_global@PAU__crt_locale_data@@@__crt_state_management@@QAEAAPAU__crt_locale_data@@XZ 1006515a f i libucrt:per_thread_data.obj
 0001:0006415d       ___acrt_freeptd            1006515d f   libucrt:per_thread_data.obj
 0001:00064189       ___acrt_getptd             10065189 f   libucrt:per_thread_data.obj
 0001:00064246       ___acrt_getptd_head        10065246 f   libucrt:per_thread_data.obj
 0001:000642e0       ___acrt_getptd_noexit      100652e0 f   libucrt:per_thread_data.obj
 0001:00064395       ___acrt_initialize_ptd     10065395 f   libucrt:per_thread_data.obj
 0001:000643c1       ___acrt_uninitialize_ptd   100653c1 f   libucrt:per_thread_data.obj
 0001:000643db       ___threadhandle            100653db f   libucrt:per_thread_data.obj
 0001:000643e1       ___threadid                100653e1 f   libucrt:per_thread_data.obj
 0001:000643ed       __free_base                100653ed f   libucrt:free_base.obj
 0001:00064430       __twoToTOS                 10065430 f   libucrt:common.obj
 0001:00064445       __load_CW                  10065445 f   libucrt:common.obj
 0001:0006445c       __convertTOStoQNaN         1006545c f   libucrt:common.obj
 0001:00064475       __fload_withFB             10065475 f   libucrt:common.obj
 0001:000644b8       __checkTOS_withFB          100654b8 f   libucrt:common.obj
 0001:000644ce       __fast_exit                100654ce f   libucrt:common.obj
 0001:000644db       __math_exit                100654db f   libucrt:common.obj
 0001:00064505       __check_overflow_exit      10065505 f   libucrt:common.obj
 0001:00064519       __check_range_exit         10065519 f   libucrt:common.obj
 0001:000645c0       __CIsqrt                   100655c0 f   libucrt:sqrt_impl.obj
 0001:000645d4       __sqrt_common              100655d4     libucrt:sqrt_impl.obj
 0001:00064671       __mbtowc_l                 10065671 f   libucrt:mbtowc.obj
 0001:000647b3       _mbtowc                    100657b3 f   libucrt:mbtowc.obj
 0001:000647cd       __wctomb_l                 100657cd f   libucrt:wctomb.obj
 0001:0006481e       __wctomb_s_l               1006581e f   libucrt:wctomb.obj
 0001:00064979       _wctomb                    10065979 f   libucrt:wctomb.obj
 0001:000649ab       _wctomb_s                  100659ab f   libucrt:wctomb.obj
 0001:000649c8       ?value@?$dual_state_global@PAU__crt_multibyte_data@@@__crt_state_management@@QAEAAPAU__crt_multibyte_data@@XZ 100659c8 f i libucrt:locale_update.obj
 0001:000649cb       ___acrt_should_sync_with_global_locale 100659cb f i libucrt:locale_update.obj
 0001:000649e7       ___acrt_update_locale_info 100659e7 f   libucrt:locale_update.obj
 0001:00064a14       ___acrt_update_multibyte_info 10065a14 f   libucrt:locale_update.obj
 0001:00064a41       ?__acrt_fp_classify@@YA?AW4__acrt_fp_class@@ABN@Z 10065a41 f i libucrt:cvt.obj
 0001:00064aa3       ?__acrt_fp_is_negative@@YA_NABN@Z 10065aa3 f i libucrt:cvt.obj
 0001:0006540d       ___acrt_fp_format          1006640d f   libucrt:cvt.obj
 0001:00065599       __fputwc_nolock            10066599 f   libucrt:fputwc.obj
 0001:000656c2       __fputwchar                100666c2 f   libucrt:fputwc.obj
 0001:000656dc       __putwc_nolock             100666dc f   libucrt:fputwc.obj
 0001:000656e7       _fputwc                    100666e7 f   libucrt:fputwc.obj
 0001:00065765       _putwc                     10066765 f   libucrt:fputwc.obj
 0001:00065770       _putwchar                  10066770 f   libucrt:fputwc.obj
 0001:0006577b       ?lowio_handle@__crt_stdio_stream@@QBEHXZ 1006677b f i libucrt:fileno.obj
 0001:00065782       __fileno                   10066782 f   libucrt:fileno.obj
 0001:000657a9       ??$?RPAU__crt_stdio_stream_data@@@__crt_internal_free_policy@@QBEXQBQAU__crt_stdio_stream_data@@@Z 100667a9 f i libucrt:_file.obj
 0001:000657bb       ??0?$__crt_unique_heap_ptr@PAU__crt_stdio_stream_data@@U__crt_internal_free_policy@@@@QAE@QAPAU__crt_stdio_stream_data@@@Z 100667bb f i libucrt:_file.obj
 0001:000657cb       ??1?$__crt_unique_heap_ptr@PAU__crt_stdio_stream_data@@U__crt_internal_free_policy@@@@QAE@XZ 100667cb f i libucrt:_file.obj
 0001:000657dd       ?detach@?$__crt_unique_heap_ptr@PAU__crt_stdio_stream_data@@U__crt_internal_free_policy@@@@QAEPAPAU__crt_stdio_stream_data@@XZ 100667dd f i libucrt:_file.obj
 0001:000657e3       ?release@?$__crt_unique_heap_ptr@PAU__crt_stdio_stream_data@@U__crt_internal_free_policy@@@@QAEXXZ 100667e3 f i libucrt:_file.obj
 0001:000657f5       ___acrt_initialize_stdio   100667f5 f   libucrt:_file.obj
 0001:000658bd       ___acrt_iob_func           100668bd f   libucrt:_file.obj
 0001:000658cd       ___acrt_uninitialize_stdio 100668cd f   libucrt:_file.obj
 0001:00065919       __get_stream_buffer_pointers 10066919 f   libucrt:_file.obj
 0001:0006595f       __lock_file                1006695f f   libucrt:_file.obj
 0001:00065973       __unlock_file              10066973 f   libucrt:_file.obj
 0001:00065987       __fputc_nolock             10066987 f   libucrt:fputc.obj
 0001:000659b0       __fputchar                 100669b0 f   libucrt:fputc.obj
 0001:000659ca       __putc_nolock              100669ca f   libucrt:fputc.obj
 0001:000659d5       _fputc                     100669d5 f   libucrt:fputc.obj
 0001:00065adf       _putc                      10066adf f   libucrt:fputc.obj
 0001:00065aea       _putchar                   10066aea f   libucrt:fputc.obj
 0001:00065af5       __get_printf_count_output  10066af5 f   libucrt:printf_count_output.obj
 0001:00065b0a       __set_printf_count_output  10066b0a f   libucrt:printf_count_output.obj
 0001:00065b34       ?has_any_buffer@__crt_stdio_stream@@QBE_NXZ 10066b34 f i libucrt:_sftbuf.obj
 0001:00065b43       ?has_any_of@__crt_stdio_stream@@QBE_NJ@Z 10066b43 f i libucrt:_sftbuf.obj
 0001:00065b58       ?has_temporary_buffer@__crt_stdio_stream@@QBE_NXZ 10066b58 f i libucrt:_sftbuf.obj
 0001:00065b64       ?set_flags@__crt_stdio_stream@@QBE_NJ@Z 10066b64 f i libucrt:_sftbuf.obj
 0001:00065b88       ?unset_flags@__crt_stdio_stream@@QBE_NJ@Z 10066b88 f i libucrt:_sftbuf.obj
 0001:00065bb1       ___acrt_should_use_temporary_buffer 10066bb1 f   libucrt:_sftbuf.obj
 0001:00065bec       ___acrt_stdio_begin_temporary_buffering_nolock 10066bec f   libucrt:_sftbuf.obj
 0001:00065c98       ___acrt_stdio_end_temporary_buffering_nolock 10066c98 f   libucrt:_sftbuf.obj
 0001:00065cd5       ??$?RU__crt_locale_data@@@__crt_internal_free_policy@@QBEXQBU__crt_locale_data@@@Z 10066cd5 f i libucrt:wsetlocale.obj
 0001:00065ce7       ??$?RU__crt_locale_pointers@@@__crt_internal_free_policy@@QBEXQBU__crt_locale_pointers@@@Z 10066ce7 f i libucrt:wsetlocale.obj
 0001:00065cf9       ??$?RU__crt_multibyte_data@@@__crt_internal_free_policy@@QBEXQBU__crt_multibyte_data@@@Z 10066cf9 f i libucrt:wsetlocale.obj
 0001:000660a2       ??0?$__crt_unique_heap_ptr@U__crt_locale_data@@U__crt_internal_free_policy@@@@QAE@QAU__crt_locale_data@@@Z 100670a2 f i libucrt:wsetlocale.obj
 0001:000660b2       ??0?$__crt_unique_heap_ptr@U__crt_locale_pointers@@U__crt_internal_free_policy@@@@QAE@QAU__crt_locale_pointers@@@Z 100670b2 f i libucrt:wsetlocale.obj
 0001:000660c2       ??0?$__crt_unique_heap_ptr@U__crt_multibyte_data@@U__crt_internal_free_policy@@@@QAE@QAU__crt_multibyte_data@@@Z 100670c2 f i libucrt:wsetlocale.obj
 0001:000660d2       ??0_expandlocale_locale_name_cache@@QAE@QA_WIQAU__crt_qualified_locale_data@@@Z 100670d2 f i libucrt:wsetlocale.obj
 0001:0006611c       ??1?$__crt_unique_heap_ptr@U__crt_locale_data@@U__crt_internal_free_policy@@@@QAE@XZ 1006711c f i libucrt:wsetlocale.obj
 0001:0006612e       ??1?$__crt_unique_heap_ptr@U__crt_locale_pointers@@U__crt_internal_free_policy@@@@QAE@XZ 1006712e f i libucrt:wsetlocale.obj
 0001:00066140       ??1?$__crt_unique_heap_ptr@U__crt_multibyte_data@@U__crt_internal_free_policy@@@@QAE@XZ 10067140 f i libucrt:wsetlocale.obj
 0001:00066152       ??1_expandlocale_locale_name_cache@@QAE@XZ 10067152 f i libucrt:wsetlocale.obj
 0001:00066182       ??B?$__crt_unique_heap_ptr@U__crt_locale_data@@U__crt_internal_free_policy@@@@QBE_NXZ 10067182 f i libucrt:wsetlocale.obj
 0001:00066189       ??B?$__crt_unique_heap_ptr@U__crt_locale_pointers@@U__crt_internal_free_policy@@@@QBE_NXZ 10067189 f i libucrt:wsetlocale.obj
 0001:00066190       ??B?$__crt_unique_heap_ptr@U__crt_multibyte_data@@U__crt_internal_free_policy@@@@QBE_NXZ 10067190 f i libucrt:wsetlocale.obj
 0001:000663b0       ?commit_locale_name@_expandlocale_locale_name_cache@@QAEXQB_WI@Z 100673b0 f i libucrt:wsetlocale.obj
 0001:000663f4       ?commit_locale_name_cache_already_updated@_expandlocale_locale_name_cache@@QAEXQB_WI@Z 100673f4 f i libucrt:wsetlocale.obj
 0001:00066429       ?detach@?$__crt_unique_heap_ptr@U__crt_locale_data@@U__crt_internal_free_policy@@@@QAEPAU__crt_locale_data@@XZ 10067429 f i libucrt:wsetlocale.obj
 0001:0006642f       ?detach@?$__crt_unique_heap_ptr@U__crt_locale_pointers@@U__crt_internal_free_policy@@@@QAEPAU__crt_locale_pointers@@XZ 1006742f f i libucrt:wsetlocale.obj
 0001:00066435       ?detach@?$__crt_unique_heap_ptr@U__crt_multibyte_data@@U__crt_internal_free_policy@@@@QAEPAU__crt_multibyte_data@@XZ 10067435 f i libucrt:wsetlocale.obj
 0001:0006643b       ?get@?$__crt_unique_heap_ptr@U__crt_locale_data@@U__crt_internal_free_policy@@@@QBEPAU__crt_locale_data@@XZ 1006743b f i libucrt:wsetlocale.obj
 0001:0006643e       ?get@?$__crt_unique_heap_ptr@U__crt_locale_pointers@@U__crt_internal_free_policy@@@@QBEPAU__crt_locale_pointers@@XZ 1006743e f i libucrt:wsetlocale.obj
 0001:00066441       ?get@?$__crt_unique_heap_ptr@U__crt_multibyte_data@@U__crt_internal_free_policy@@@@QBEPAU__crt_multibyte_data@@XZ 10067441 f i libucrt:wsetlocale.obj
 0001:00066444       ?is_valid@?$__crt_unique_heap_ptr@U__crt_locale_data@@U__crt_internal_free_policy@@@@QBE_NXZ 10067444 f i libucrt:wsetlocale.obj
 0001:0006644b       ?is_valid@?$__crt_unique_heap_ptr@U__crt_locale_pointers@@U__crt_internal_free_policy@@@@QBE_NXZ 1006744b f i libucrt:wsetlocale.obj
 0001:00066452       ?is_valid@?$__crt_unique_heap_ptr@U__crt_multibyte_data@@U__crt_internal_free_policy@@@@QBE_NXZ 10067452 f i libucrt:wsetlocale.obj
 0001:00066459       ?release@?$__crt_unique_heap_ptr@U__crt_locale_data@@U__crt_internal_free_policy@@@@QAEXXZ 10067459 f i libucrt:wsetlocale.obj
 0001:0006646b       ?release@?$__crt_unique_heap_ptr@U__crt_locale_pointers@@U__crt_internal_free_policy@@@@QAEXXZ 1006746b f i libucrt:wsetlocale.obj
 0001:0006647d       ?release@?$__crt_unique_heap_ptr@U__crt_multibyte_data@@U__crt_internal_free_policy@@@@QAEXXZ 1006747d f i libucrt:wsetlocale.obj
 0001:0006648f       ___acrt_copy_locale_name   1006748f f   libucrt:wsetlocale.obj
 0001:000664ef       ___acrt_set_locale_changed 100674ef f   libucrt:wsetlocale.obj
 0001:000664fa       ___acrt_uninitialize_locale 100674fa f   libucrt:wsetlocale.obj
 0001:00066521       ___ascii_towlower          10067521 f i libucrt:wsetlocale.obj
 0001:00066538       ___lc_lctowcs              10067538 f   libucrt:wsetlocale.obj
 0001:000665a8       ___lc_wcstolc              100675a8 f   libucrt:wsetlocale.obj
 0001:000666f8       __configthreadlocale       100676f8 f   libucrt:wsetlocale.obj
 0001:00066789       __create_locale            10067789 f   libucrt:wsetlocale.obj
 0001:00066bb3       __free_locale              10067bb3 f   libucrt:wsetlocale.obj
 0001:00066c75       __get_current_locale       10067c75 f   libucrt:wsetlocale.obj
 0001:00066d10       __wcreate_locale           10067d10 f   libucrt:wsetlocale.obj
 0001:00066e17       __wcscats                  10067e17 f   libucrt:wsetlocale.obj
 0001:00066e58       __wsetlocale               10067e58 f   libucrt:wsetlocale.obj
 0001:00067bbd       ___p___mb_cur_max          10068bbd f   libucrt:nlsdata.obj
 0001:00067d6e       ___acrt_initialize_lowio   10068d6e f   libucrt:ioinit.obj
 0001:00067dce       ___acrt_uninitialize_lowio 10068dce f   libucrt:ioinit.obj
 0001:00067dfa       ??0?$__crt_scoped_stack_ptr@_W@@QAE@U?$__crt_scoped_stack_ptr_tag@_W@@@Z 10068dfa f i libucrt:lcmapstringa.obj
 0001:00067e0a       ??0?$__crt_scoped_stack_ptr_tag@_W@@QAE@QA_W@Z 10068e0a f i libucrt:lcmapstringa.obj
 0001:00067e1a       ??1?$__crt_scoped_stack_ptr@_W@@QAE@XZ 10068e1a f i libucrt:lcmapstringa.obj
 0001:00067e23       ??B?$__crt_scoped_stack_ptr@_W@@QBE_NXZ 10068e23 f i libucrt:lcmapstringa.obj
 0001:00068014       ?get@?$__crt_scoped_stack_ptr@_W@@QBEPA_WXZ 10069014 f i libucrt:lcmapstringa.obj
 0001:00068017       ___acrt_LCMapStringA       10069017 f   libucrt:lcmapstringa.obj
 0001:00068060       ?dangerous_get_state_array@?$dual_state_global@PAPAD@__crt_state_management@@QAEPAPAPADXZ 10069060 f i libucrt:timeset.obj
 0001:00068063       ?dangerous_get_state_array@?$dual_state_global@PAPA_W@__crt_state_management@@QAEPAPAPA_WXZ 10069063 f i libucrt:timeset.obj
 0001:00068066       ?initialize@?$dual_state_global@H@__crt_state_management@@QAEXH@Z 10069066 f i libucrt:timeset.obj
 0001:0006808c       ?initialize@?$dual_state_global@J@__crt_state_management@@QAEXJ@Z 1006908c f i libucrt:timeset.obj
 0001:000680b2       ?value@?$dual_state_global@H@__crt_state_management@@QAEAAHXZ 100690b2 f i libucrt:timeset.obj
 0001:000680b5       ?value@?$dual_state_global@J@__crt_state_management@@QAEAAJXZ 100690b5 f i libucrt:timeset.obj
 0001:000680b8       ___acrt_initialize_timeset 100690b8 f   libucrt:timeset.obj
 0001:000680ed       ___daylight                100690ed f   libucrt:timeset.obj
 0001:000680f3       ___dstbias                 100690f3 f   libucrt:timeset.obj
 0001:000680f9       ___timezone                100690f9 f   libucrt:timeset.obj
 0001:000680ff       ___tzname                  100690ff f   libucrt:timeset.obj
 0001:00068105       ___wide_tzname             10069105 f   libucrt:timeset.obj
 0001:0006810b       __get_daylight             1006910b f   libucrt:timeset.obj
 0001:00068137       __get_dstbias              10069137 f   libucrt:timeset.obj
 0001:00068163       __get_timezone             10069163 f   libucrt:timeset.obj
 0001:0006818f       __get_tzname               1006918f f   libucrt:timeset.obj
 0001:00068240       ??$?RUtm@@@__crt_internal_free_policy@@QBEXQBUtm@@@Z 10069240 f i libucrt:gmtime.obj
 0001:00068252       ??$__crt_time_elapsed_leap_years@H@@YAHH@Z 10069252 f i libucrt:gmtime.obj
 0001:0006828c       ??$__crt_time_is_leap_year@H@@YA_NH@Z 1006928c f i libucrt:gmtime.obj
 0001:0006856e       ??0?$__crt_unique_heap_ptr@Utm@@U__crt_internal_free_policy@@@@QAE@QAUtm@@@Z 1006956e f i libucrt:gmtime.obj
 0001:0006857e       ??1?$__crt_unique_heap_ptr@Utm@@U__crt_internal_free_policy@@@@QAE@XZ 1006957e f i libucrt:gmtime.obj
 0001:000686ab       ?detach@?$__crt_unique_heap_ptr@Utm@@U__crt_internal_free_policy@@@@QAEPAUtm@@XZ 100696ab f i libucrt:gmtime.obj
 0001:000686b1       ?release@?$__crt_unique_heap_ptr@Utm@@U__crt_internal_free_policy@@@@QAEXXZ 100696b1 f i libucrt:gmtime.obj
 0001:000686c3       ___getgmtimebuf            100696c3 f   libucrt:gmtime.obj
 0001:00068701       __gmtime32                 10069701 f   libucrt:gmtime.obj
 0001:00068728       __gmtime32_s               10069728 f   libucrt:gmtime.obj
 0001:00068733       __gmtime64                 10069733 f   libucrt:gmtime.obj
 0001:0006875a       __gmtime64_s               1006975a f   libucrt:gmtime.obj
 0001:00068765       ?__acrt_get_utf8_acp_compatibility_codepage@@YAIXZ 10069765 f i libucrt:tzset.obj
 0001:000689be       ?_set_daylight@@YAXH@Z     100699be f i libucrt:tzset.obj
 0001:000689cf       ?_set_dstbias@@YAXJ@Z      100699cf f i libucrt:tzset.obj
 0001:000689e0       ?_set_timezone@@YAXJ@Z     100699e0 f i libucrt:tzset.obj
 0001:00068b31       ?dangerous_get_state_array@?$dual_state_global@J@__crt_state_management@@QAEPAJXZ 10069b31 f i libucrt:tzset.obj
 0001:00069110       ___tzset                   1006a110 f   libucrt:tzset.obj
 0001:0006916d       __isindst                  1006a16d f   libucrt:tzset.obj
 0001:000691c1       __tzset                    1006a1c1 f   libucrt:tzset.obj
 0001:0006926b       ___acrt_MultiByteToWideChar 1006a26b f   libucrt:multibytetowidechar.obj
 0001:0006934c       ___acrt_WideCharToMultiByte 1006a34c f   libucrt:widechartomultibyte.obj
 0001:00069403       ?__crt_get_2digit_year@@YAHH@Z 1006a403 f i libucrt:wcsftime.obj
 0001:0006941a       ?__crt_get_century@@YAHH@Z 1006a41a f i libucrt:wcsftime.obj
 0001:0006a492       __W_Getdays                1006b492 f   libucrt:wcsftime.obj
 0001:0006a5f1       __W_Getmonths              1006b5f1 f   libucrt:wcsftime.obj
 0001:0006a750       __W_Gettnames              1006b750 f   libucrt:wcsftime.obj
 0001:0006ae4c       __Wcsftime                 1006be4c f   libucrt:wcsftime.obj
 0001:0006ae6c       __Wcsftime_l               1006be6c f   libucrt:wcsftime.obj
 0001:0006afdd       __wcsftime_l               1006bfdd f   libucrt:wcsftime.obj
 0001:0006affd       _wcsftime                  1006bffd f   libucrt:wcsftime.obj
 0001:0006b029       ??$?B$$A6GHPA_WKJ@Z@__crt_fast_encoded_nullptr_t@@QBEP6GHPA_WKJ@ZXZ 1006c029 f i libucrt:winapi_thunks.obj
 0001:0006b0d1       ??$__crt_fast_decode_pointer@P6GHPA_WKJ@Z@@YAP6GHPA_WKJ@ZQ6GH0KJ@Z@Z 1006c0d1 f i libucrt:winapi_thunks.obj
 0001:0006b0e7       ??$__crt_fast_decode_pointer@PAX@@YAPAXQAX@Z 1006c0e7 f i libucrt:winapi_thunks.obj
 0001:0006b0fd       ??$__crt_fast_encode_pointer@P6GHPA_WKJ@Z@@YAP6GHPA_WKJ@ZQ6GH0KJ@Z@Z 1006c0fd f i libucrt:winapi_thunks.obj
 0001:0006b789       _GetCurrentThreadEffectiveToken 1006c789 f i libucrt:winapi_thunks.obj
 0001:0006b78d       ___acrt_AppPolicyGetProcessTerminationMethodInternal@4 1006c78d f   libucrt:winapi_thunks.obj
 0001:0006b7cd       ___acrt_AppPolicyGetShowDeveloperDiagnosticInternal@4 1006c7cd f   libucrt:winapi_thunks.obj
 0001:0006b80d       ___acrt_AppPolicyGetThreadInitializationTypeInternal@4 1006c80d f   libucrt:winapi_thunks.obj
 0001:0006b84d       ___acrt_AppPolicyGetWindowingModelInternal@4 1006c84d f   libucrt:winapi_thunks.obj
 0001:0006b88d       ___acrt_AreFileApisANSI@0  1006c88d f   libucrt:winapi_thunks.obj
 0001:0006b8ac       ___acrt_CompareStringEx@36 1006c8ac f   libucrt:winapi_thunks.obj
 0001:0006b909       ___acrt_EnumSystemLocalesEx@16 1006c909 f   libucrt:winapi_thunks.obj
 0001:0006b95d       ___acrt_FlsAlloc@4         1006c95d f   libucrt:winapi_thunks.obj
 0001:0006b99c       ___acrt_FlsFree@4          1006c99c f   libucrt:winapi_thunks.obj
 0001:0006b9db       ___acrt_FlsGetValue@4      1006c9db f   libucrt:winapi_thunks.obj
 0001:0006ba1a       ___acrt_FlsSetValue@8      1006ca1a f   libucrt:winapi_thunks.obj
 0001:0006ba5c       ___acrt_GetDateFormatEx@28 1006ca5c f   libucrt:winapi_thunks.obj
 0001:0006bab3       ___acrt_GetEnabledXStateFeatures@0 1006cab3 f   libucrt:winapi_thunks.obj
 0001:0006bae7       ___acrt_GetLocaleInfoEx@16 1006cae7 f   libucrt:winapi_thunks.obj
 0001:0006bb26       ___acrt_GetSystemTimePreciseAsFileTime@4 1006cb26 f   libucrt:winapi_thunks.obj
 0001:0006bb65       ___acrt_GetTimeFormatEx@24 1006cb65 f   libucrt:winapi_thunks.obj
 0001:0006bbaa       ___acrt_GetUserDefaultLocaleName@8 1006cbaa f   libucrt:winapi_thunks.obj
 0001:0006bbe6       ___acrt_GetXStateFeaturesMask@8 1006cbe6 f   libucrt:winapi_thunks.obj
 0001:0006bc26       ___acrt_InitializeCriticalSectionEx@12 1006cc26 f   libucrt:winapi_thunks.obj
 0001:0006bc71       ___acrt_IsValidLocaleName@4 1006cc71 f   libucrt:winapi_thunks.obj
 0001:0006bca9       ___acrt_LCIDToLocaleName@16 1006cca9 f   libucrt:winapi_thunks.obj
 0001:0006bce8       ___acrt_LCMapStringEx@36   1006cce8 f   libucrt:winapi_thunks.obj
 0001:0006bd45       ___acrt_LocaleNameToLCID@8 1006cd45 f   libucrt:winapi_thunks.obj
 0001:0006bd76       ___acrt_LocateXStateFeature@12 1006cd76 f   libucrt:winapi_thunks.obj
 0001:0006bda5       ___acrt_MessageBoxA@16     1006cda5 f   libucrt:winapi_thunks.obj
 0001:0006bdd7       ___acrt_MessageBoxW@16     1006cdd7 f   libucrt:winapi_thunks.obj
 0001:0006be09       ___acrt_RoInitialize@4     1006ce09 f   libucrt:winapi_thunks.obj
 0001:0006be44       ___acrt_RoUninitialize@0   1006ce44 f   libucrt:winapi_thunks.obj
 0001:0006be72       ___acrt_RtlGenRandom@8     1006ce72 f   libucrt:winapi_thunks.obj
 0001:0006beb2       ___acrt_SetThreadStackGuarantee@4 1006ceb2 f   libucrt:winapi_thunks.obj
 0001:0006beed       ___acrt_can_show_message_box 1006ceed f   libucrt:winapi_thunks.obj
 0001:0006bf14       ___acrt_can_use_vista_locale_apis 1006cf14 f   libucrt:winapi_thunks.obj
 0001:0006bf1f       ___acrt_can_use_xstate_apis 1006cf1f f   libucrt:winapi_thunks.obj
 0001:0006bf2a       ___acrt_eagerly_load_locale_apis 1006cf2a f   libucrt:winapi_thunks.obj
 0001:0006bf61       ___acrt_get_parent_window  1006cf61 f   libucrt:winapi_thunks.obj
 0001:0006bfc9       ___acrt_initialize_winapi_thunks 1006cfc9 f   libucrt:winapi_thunks.obj
 0001:0006bff7       ___acrt_is_interactive     1006cff7 f   libucrt:winapi_thunks.obj
 0001:0006c096       ___acrt_uninitialize_winapi_thunks 1006d096 f   libucrt:winapi_thunks.obj
 0001:0006c0cc       ___pctype_func             1006d0cc f   libucrt:ctype.obj
 0001:0006c0f0       ___pwctype_func            1006d0f0 f   libucrt:ctype.obj
 0001:0006c0f6       __iswctype_l               1006d0f6 f   libucrt:iswctype.obj
 0001:0006c10a       _iswctype                  1006d10a f   libucrt:iswctype.obj
 0001:0006c173       __isctype                  1006d173 f   libucrt:isctype.obj
 0001:0006c1a6       __isctype_l                1006d1a6 f   libucrt:isctype.obj
 0001:0006c271       __isleadbyte_fast_internal 1006d271 f i libucrt:isctype.obj
 0001:0006c35a       _wcsncpy_s                 1006d35a f   libucrt:wcsncpy_s.obj
 0001:0006c418       _strncpy_s                 1006d418 f   libucrt:strncpy_s.obj
 0001:0006c47a       __ismbbalnum               1006d47a f   libucrt:ismbbyte.obj
 0001:0006c495       __ismbbalnum_l             1006d495 f   libucrt:ismbbyte.obj
 0001:0006c4b1       __ismbbalpha               1006d4b1 f   libucrt:ismbbyte.obj
 0001:0006c4cc       __ismbbalpha_l             1006d4cc f   libucrt:ismbbyte.obj
 0001:0006c4e8       __ismbbblank               1006d4e8 f   libucrt:ismbbyte.obj
 0001:0006c50b       __ismbbblank_l             1006d50b f   libucrt:ismbbyte.obj
 0001:0006c52f       __ismbbgraph               1006d52f f   libucrt:ismbbyte.obj
 0001:0006c54a       __ismbbgraph_l             1006d54a f   libucrt:ismbbyte.obj
 0001:0006c566       __ismbbkalnum              1006d566 f   libucrt:ismbbyte.obj
 0001:0006c57e       __ismbbkalnum_l            1006d57e f   libucrt:ismbbyte.obj
 0001:0006c597       __ismbbkana                1006d597 f   libucrt:ismbbyte.obj
 0001:0006c5aa       __ismbbkana_l              1006d5aa f   libucrt:ismbbyte.obj
 0001:0006c5f9       __ismbbkprint              1006d5f9 f   libucrt:ismbbyte.obj
 0001:0006c611       __ismbbkprint_l            1006d611 f   libucrt:ismbbyte.obj
 0001:0006c62a       __ismbbkpunct              1006d62a f   libucrt:ismbbyte.obj
 0001:0006c642       __ismbbkpunct_l            1006d642 f   libucrt:ismbbyte.obj
 0001:0006c65b       __ismbblead                1006d65b f   libucrt:ismbbyte.obj
 0001:0006c673       __ismbblead_l              1006d673 f   libucrt:ismbbyte.obj
 0001:0006c68c       __ismbbprint               1006d68c f   libucrt:ismbbyte.obj
 0001:0006c6a7       __ismbbprint_l             1006d6a7 f   libucrt:ismbbyte.obj
 0001:0006c6c3       __ismbbpunct               1006d6c3 f   libucrt:ismbbyte.obj
 0001:0006c6db       __ismbbpunct_l             1006d6db f   libucrt:ismbbyte.obj
 0001:0006c6f4       __ismbbtrail               1006d6f4 f   libucrt:ismbbyte.obj
 0001:0006c70c       __ismbbtrail_l             1006d70c f   libucrt:ismbbyte.obj
 0001:0006c725       ___acrt_initialize_sse2    1006d725 f   libucrt:mathfcns.obj
 0001:0006c735       __set_SSE2_enable          1006d735 f   libucrt:mathfcns.obj
 0001:0006c760       __CIcos                    1006d760 f   libucrt:cos_impl.obj
 0001:0006c79b       __CIcos_default            1006d79b f   libucrt:cos_impl.obj
 0001:0006c7af       __cos_default              1006d7af     libucrt:cos_impl.obj
 0001:0006c850       __CIcos_pentium4           1006d850 f   libucrt:cos_pentium4.obj
 0001:0006c868       __cos_pentium4             1006d868     libucrt:cos_pentium4.obj
 0001:0006ca00       __CIsin                    1006da00 f   libucrt:sin_impl.obj
 0001:0006ca3b       __CIsin_default            1006da3b f   libucrt:sin_impl.obj
 0001:0006ca4f       __sin_default              1006da4f     libucrt:sin_impl.obj
 0001:0006caf0       __CIsin_pentium4           1006daf0 f   libucrt:sin_pentium4.obj
 0001:0006cb08       __sin_pentium4             1006db08     libucrt:sin_pentium4.obj
 0001:0006ccb8       ___acrt_initialize_locks   1006dcb8 f   libucrt:locks.obj
 0001:0006ccf9       ___acrt_lock               1006dcf9 f   libucrt:locks.obj
 0001:0006cd10       ___acrt_uninitialize_locks 1006dd10 f   libucrt:locks.obj
 0001:0006cd41       ___acrt_unlock             1006dd41 f   libucrt:locks.obj
 0001:0006cd58       __lock_locales             1006dd58 f   libucrt:locks.obj
 0001:0006cd66       __unlock_locales           1006dd66 f   libucrt:locks.obj
 0001:0006cd6f       ??$__crt_fast_decode_pointer@P6AHPAU_exception@@@Z@@YAP6AHPAU_exception@@@ZQ6AH0@Z@Z 1006dd6f f i libucrt:matherr.obj
 0001:0006cd85       ??$__crt_fast_encode_pointer@P6AHPAU_exception@@@Z@@YAP6AHPAU_exception@@@ZQ6AH0@Z@Z 1006dd85 f i libucrt:matherr.obj
