 idraw

 Timestamp is 62d4794a (Sun Jul 17 17:04:10 2022)

 Preferred load address is 10000000

 Start         Length     Name                   Class
 0001:00000000 000002e0H .text$di                CODE
 0001:000002e0 000803b0H .text$mn                CODE
 0001:00080690 00001233H .text$x                 CODE
 0002:00000000 00000284H .idata$5                DATA
 0002:00000284 0000000cH .00cfg                  DATA
 0002:00000290 00000004H .CRT$XCA                DATA
 0002:00000294 0000005cH .CRT$XCU                DATA
 0002:000002f0 00000004H .CRT$XCZ                DATA
 0002:000002f4 00000004H .CRT$XIA                DATA
 0002:000002f8 00000010H .CRT$XIC                DATA
 0002:00000308 00000004H .CRT$XIZ                DATA
 0002:0000030c 00000004H .CRT$XPA                DATA
 0002:00000310 00000008H .CRT$XPX                DATA
 0002:00000318 00000004H .CRT$XPXA               DATA
 0002:0000031c 00000004H .CRT$XPZ                DATA
 0002:00000320 00000004H .CRT$XTA                DATA
 0002:00000324 0000000cH .CRT$XTZ                DATA
 0002:00000328 00000000H .gfids$y                DATA
 0002:00000330 0000afd0H .rdata                  DATA
 0002:0000b300 00000040H .rdata$CastGuardVftablesA DATA
 0002:0000b340 00000040H .rdata$CastGuardVftablesC DATA
 0002:0000b380 000009dcH .rdata$r                DATA
 0002:0000bd5c 000001ecH .rdata$sxdata           DATA
 0002:0000bf48 00000164H .rdata$voltmd           DATA
 0002:0000c0ac 000003a0H .rdata$zzzdbg           DATA
 0002:0000c44c 00000004H .rtc$IAA                DATA
 0002:0000c450 00000004H .rtc$IZZ                DATA
 0002:0000c454 00000004H .rtc$TAA                DATA
 0002:0000c458 00000008H .rtc$TZZ                DATA
 0002:0000c460 00002620H .xdata$x                DATA
 0002:0000ea80 000002bcH .edata                  DATA
 0002:0000ed3c 00000064H .idata$2                DATA
 0002:0000eda0 00000014H .idata$3                DATA
 0002:0000edb4 00000284H .idata$4                DATA
 0002:0000f038 00000b78H .idata$6                DATA
 0003:00000000 00003540H .data                   DATA
 0003:00003540 000001acH .data$r                 DATA
 0003:000036ec 0000026cH .data$rs                DATA
 0003:00003958 00001d60H .bss                    DATA
 0004:00000000 00000360H .rsrc$01                DATA
 0004:00000360 0001d9e0H .rsrc$02                DATA

  Address         Publics by Value              Rva+Base       Lib:Object

 0000:00000000       ___AbsoluteZero            00000000     <absolute>
 0000:00000000       ___arm64x_extra_rfe_table  00000000     <absolute>
 0000:00000000       ___arm64x_extra_rfe_table_size 00000000     <absolute>
 0000:00000000       ___arm64x_native_entrypoint 00000000     <absolute>
 0000:00000000       ___arm64x_redirection_metadata 00000000     <absolute>
 0000:00000000       ___arm64x_redirection_metadata_count 00000000     <absolute>
 0000:00000000       ___dynamic_value_reloc_table 00000000     <absolute>
 0000:00000000       ___enclave_config          00000000     <absolute>
 0000:00000000       ___guard_check_icall_a64n_fptr 00000000     <absolute>
 0000:00000000       ___guard_eh_cont_count     00000000     <absolute>
 0000:00000000       ___guard_eh_cont_table     00000000     <absolute>
 0000:00000000       ___guard_fids_count        00000000     <absolute>
 0000:00000000       ___guard_fids_table        00000000     <absolute>
 0000:00000000       ___guard_iat_count         00000000     <absolute>
 0000:00000000       ___guard_iat_table         00000000     <absolute>
 0000:00000000       ___guard_longjmp_count     00000000     <absolute>
 0000:00000000       ___guard_longjmp_table     00000000     <absolute>
 0000:00000000       ___hybrid_auxiliary_iat    00000000     <absolute>
 0000:00000000       ___hybrid_auxiliary_iat_copy 00000000     <absolute>
 0000:00000000       ___hybrid_code_map         00000000     <absolute>
 0000:00000000       ___hybrid_code_map_count   00000000     <absolute>
 0000:00000000       ___x64_code_ranges_to_entry_points 00000000     <absolute>
 0000:00000000       ___x64_code_ranges_to_entry_points_count 00000000     <absolute>
 0000:00000000       __except_list              00000000     <absolute>
 0000:0000007b       ___safe_se_handler_count   0000007b     <absolute>
 0000:00000100       ___guard_flags             00000100     <absolute>
 0000:00000000       ___ImageBase               10000000     <linker-defined>
 0001:000002e0       ??0MappedMap@@QAE@HH@Z     100012e0 f   MappedMAP.obj
 0001:00000340       ??1MappedMap@@QAE@XZ       10001340 f   MappedMAP.obj
 0001:00000390       ?NowDrawMapped@MappedMap@@QAEHPAEPAUtagPOINT@@@Z 10001390 f   MappedMAP.obj
 0001:00000a70       ?PictureInfo@MappedMap@@QAEPAEPAPAEPAUtagPOINT@@@Z 10001a70 f   MappedMAP.obj
 0001:00000aa0       ??0MegaMapControl@@QAE@PAVFullScreenMinimap@@PAUtagRECT@@11HHHHHH@Z 10001aa0 f   MegamapControl.obj
 0001:00000c60       ??1MegaMapControl@@QAE@XZ  10001c60 f   MegamapControl.obj
 0001:00000d00       ??_GInlineSingleHook@@QAEPAXI@Z 10001d00 f i MegamapControl.obj
 0001:00000d30       ?CheckInControl@MegaMapControl@@AAEHHH@Z 10001d30 f   MegamapControl.obj
 0001:00000e40       ?CheckInMap@MegaMapControl@@AAEHHH@Z 10001e40 f   MegamapControl.obj
 0001:00000e90       ?DoubleClick@MegaMapControl@@AAEHHH_N@Z 10001e90 f   MegamapControl.obj
 0001:00000fe0       ?EnterMegaMap@MegaMapControl@@QAEXXZ 10001fe0 f   MegamapControl.obj
 0001:000010d0       ?FindMouseUnitRounte@@YGHPAUtagInlineX86StackBuffer@@@Z 100020d0 f   MegamapControl.obj
 0001:00001110       ?GetGridPosFeatureRounte@@YGHPAUtagInlineX86StackBuffer@@@Z 10002110 f   MegamapControl.obj
 0001:00001150       ?GetPosition_DwordRounte@@YGHPAUtagInlineX86StackBuffer@@@Z 10002150 f   MegamapControl.obj
 0001:00001180       ?Init@MegaMapControl@@QAEXPAVFullScreenMinimap@@PAUtagRECT@@11HHHHHH@Z 10002180 f   MegamapControl.obj
 0001:00001320       ?IsBliting@MegaMapControl@@QAEHXZ 10002320 f   MegamapControl.obj
 0001:00001340       ?IsDrawCursor@MegaMapControl@@QAEHHH@Z 10002340 f   MegamapControl.obj
 0001:000014b0       ?IsDrawOrder@MegaMapControl@@QAEHXZ 100024b0 f   MegamapControl.obj
 0001:000014e0       ?IsDrawRect@MegaMapControl@@QAEHH@Z 100024e0 f   MegamapControl.obj
 0001:000015b0       ?IsInControl@MegaMapControl@@QAEHXZ 100025b0 f   MegamapControl.obj
 0001:000015d0       ?IsInMap@MegaMapControl@@QAEHXZ 100025d0 f   MegamapControl.obj
 0001:000015f0       ?LeftDown@MegaMapControl@@AAEHHH_N@Z 100025f0 f   MegamapControl.obj
 0001:00001610       ?LeftUp@MegaMapControl@@AAEHHH_N@Z 10002610 f   MegamapControl.obj
 0001:00001910       ?MegamapMoveSceen@MegaMapControl@@AAEXHH@Z 10002910 f   MegamapControl.obj
 0001:00001a00       ?Message@MegaMapControl@@QAE_NPAUHWND__@@IIJ@Z 10002a00 f   MegamapControl.obj
 0001:00001e30       ?MouseMove@MegaMapControl@@AAEHHH@Z 10002e30 f   MegamapControl.obj
 0001:000020a0       ?MoveScreen@MegaMapControl@@AAEXHHH@Z 100030a0 f   MegamapControl.obj
 0001:000021b0       ?QuitMegaMap@MegaMapControl@@QAEXXZ 100031b0 f   MegamapControl.obj
 0001:00002220       ?ReadSelectRect@MegaMapControl@@QAEPAUtagRECT@@PAU2@@Z 10003220 f   MegamapControl.obj
 0001:00002250       ?ReadSelectState@MegaMapControl@@QAE?AW4SELECTBUTTOM@selectbuttom@@XZ 10003250 f   MegamapControl.obj
 0001:00002270       ?RightDown@MegaMapControl@@AAEHHH_N@Z 10003270 f   MegamapControl.obj
 0001:00002290       ?RightUp@MegaMapControl@@AAEHHH_N@Z 10003290 f   MegamapControl.obj
 0001:000023d0       ?ScreenPos2TAPos@MegaMapControl@@AAEPAU_Position_Dword@@PAU2@HHH@Z 100033d0 f   MegamapControl.obj
 0001:00002460       ?SelectDown@MegaMapControl@@AAEHHH_N@Z 10003460 f   MegamapControl.obj
 0001:000024a0       ?SelectMove@MegaMapControl@@AAEHHH_N0@Z 100034a0 f   MegamapControl.obj
 0001:00002560       ?SelectUp@MegaMapControl@@AAEHHH_N0@Z 10003560 f   MegamapControl.obj
 0001:00002760       ?Set@MegaMapControl@@QAEXH@Z 10003760 f   MegamapControl.obj
 0001:00002780       ?TAPos2ScreenPos@MegaMapControl@@AAEPAUtagPOINT@@PAU2@III@Z 10003780 f   MegamapControl.obj
 0001:000027f0       ?WheelBack@MegaMapControl@@AAEHHH@Z 100037f0 f   MegamapControl.obj
 0001:00002830       ?WheelFont@MegaMapControl@@AAEHHH@Z 10003830 f   MegamapControl.obj
 0001:00002890       ?abs@@YGJJ@Z               10003890 f i MegamapControl.obj
 0001:000028b0       ??$?0$$V@?$_Compressed_pair@V?$allocator@U_Position_Dword@@@std@@V?$_Vector_val@U?$_Simple_types@U_Position_Dword@@@std@@@2@$00@std@@QAE@U_Zero_then_variadic_args_t@1@@Z 100038b0 f i MegamapTAStuff.obj
 0001:000028d0       ??$_Allocate@$07U_Default_allocate_traits@std@@$0A@@std@@YGPAXI@Z 100038d0 f i MegamapTAStuff.obj
 0001:00002900       ??$_Allocate_manually_vector_aligned@U_Default_allocate_traits@std@@@std@@YGPAXI@Z 10003900 f i MegamapTAStuff.obj
 0001:00002970       ??$_Construct_in_place@U_Position_Dword@@ABU1@@std@@YGXAAU_Position_Dword@@ABU1@@Z 10003970 f i MegamapTAStuff.obj
 0001:000029c0       ??$_Copy_memmove@PAU_Position_Dword@@PAU1@@std@@YGPAU_Position_Dword@@PAU1@00@Z 100039c0 f i MegamapTAStuff.obj
 0001:00002a30       ??$_Deallocate@$07$0A@@std@@YGXPAXI@Z 10003a30 f i MegamapTAStuff.obj
 0001:00002a90       ??$_Destroy_range@V?$allocator@U_Position_Dword@@@std@@@std@@YGXPAU_Position_Dword@@QAU1@AAV?$allocator@U_Position_Dword@@@0@@Z 10003a90 f i MegamapTAStuff.obj
 0001:00002aa0       ??$_Emplace_back@U_Position_Dword@@@?$_Uninitialized_backout_al@V?$allocator@U_Position_Dword@@@std@@@std@@QAEX$$QAU_Position_Dword@@@Z 10003aa0 f i MegamapTAStuff.obj
 0001:00002ae0       ??$_Emplace_back_with_unused_capacity@ABU_Position_Dword@@@?$vector@U_Position_Dword@@V?$allocator@U_Position_Dword@@@std@@@std@@AAEAAU_Position_Dword@@ABU2@@Z 10003ae0 f i MegamapTAStuff.obj
 0001:00002b40       ??$_Emplace_one_at_back@ABU_Position_Dword@@@?$vector@U_Position_Dword@@V?$allocator@U_Position_Dword@@@std@@@std@@AAEAAU_Position_Dword@@ABU2@@Z 10003b40 f i MegamapTAStuff.obj
 0001:00002ba0       ??$_Emplace_reallocate@ABU_Position_Dword@@@?$vector@U_Position_Dword@@V?$allocator@U_Position_Dword@@@std@@@std@@AAEPAU_Position_Dword@@QAU2@ABU2@@Z 10003ba0 f i MegamapTAStuff.obj
 0001:00002d70       ??$_Get_size_of_n@$0M@@std@@YGII@Z 10003d70 f i MegamapTAStuff.obj
 0001:00002da0       ??$_Get_unwrapped@ABQAU_Position_Dword@@@std@@YG?A_TABQAU_Position_Dword@@@Z 10003da0 f i MegamapTAStuff.obj
 0001:00002db0       ??$_To_address@PAU_Position_Dword@@@std@@YG?A_PABQAU_Position_Dword@@@Z 10003db0 f i MegamapTAStuff.obj
 0001:00002dc0       ??$_Unfancy@U_Position_Dword@@@std@@YGPAU_Position_Dword@@PAU1@@Z 10003dc0 f i MegamapTAStuff.obj
 0001:00002dd0       ??$_Uninitialized_move@PAU_Position_Dword@@V?$allocator@U_Position_Dword@@@std@@@std@@YGPAU_Position_Dword@@QAU1@0PAU1@AAV?$allocator@U_Position_Dword@@@0@@Z 10003dd0 f i MegamapTAStuff.obj
 0001:00002ea0       ??$_Voidify_iter@PAU_Position_Dword@@@std@@YGPAXPAU_Position_Dword@@@Z 10003ea0 f i MegamapTAStuff.obj
 0001:00002eb0       ??$addressof@U_Position_Dword@@@std@@YGPAU_Position_Dword@@AAU1@@Z 10003eb0 f i MegamapTAStuff.obj
 0001:00002ec0       ??$addressof@V?$_Vector_val@U?$_Simple_types@U_Position_Dword@@@std@@@std@@@std@@YGPAV?$_Vector_val@U?$_Simple_types@U_Position_Dword@@@std@@@0@AAV10@@Z 10003ec0 f i MegamapTAStuff.obj
 0001:00002ed0       ??$construct@U_Position_Dword@@ABU1@@?$_Default_allocator_traits@V?$allocator@U_Position_Dword@@@std@@@std@@SGXAAV?$allocator@U_Position_Dword@@@1@QAU_Position_Dword@@ABU3@@Z 10003ed0 f i MegamapTAStuff.obj
 0001:00002f10       ??$construct@U_Position_Dword@@U1@@?$_Default_allocator_traits@V?$allocator@U_Position_Dword@@@std@@@std@@SGXAAV?$allocator@U_Position_Dword@@@1@QAU_Position_Dword@@$$QAU3@@Z 10003f10 f i MegamapTAStuff.obj
 0001:00002f50       ??$emplace_back@ABU_Position_Dword@@@?$vector@U_Position_Dword@@V?$allocator@U_Position_Dword@@@std@@@std@@QAE?A_TABU_Position_Dword@@@Z 10003f50 f i MegamapTAStuff.obj
 0001:00002f80       ??$forward@ABU_Position_Dword@@@std@@YGABU_Position_Dword@@ABU1@@Z 10003f80 f i MegamapTAStuff.obj
 0001:00002f90       ??$forward@U_Position_Dword@@@std@@YG$$QAU_Position_Dword@@AAU1@@Z 10003f90 f i MegamapTAStuff.obj
 0001:00002fa0       ??$min@I@std@@YGABIABI0@Z  10003fa0 f i MegamapTAStuff.obj
 0001:00002fd0       ??$move@AAU_Position_Dword@@@std@@YG$$QAU_Position_Dword@@AAU1@@Z 10003fd0 f i MegamapTAStuff.obj
 0001:00002fe0       ??$sprintf_s@$0BAA@@@YAHAAY0BAA@DPBDZZ 10003fe0 f i MegamapTAStuff.obj
 0001:00003010       ??0?$_Uninitialized_backout_al@V?$allocator@U_Position_Dword@@@std@@@std@@QAE@PAU_Position_Dword@@AAV?$allocator@U_Position_Dword@@@1@@Z 10004010 f i MegamapTAStuff.obj
 0001:00003040       ??0?$_Vector_const_iterator@V?$_Vector_val@U?$_Simple_types@U_Position_Dword@@@std@@@std@@@std@@QAE@PAU_Position_Dword@@PBU_Container_base0@1@@Z 10004040 f i MegamapTAStuff.obj
 0001:00003070       ??0?$_Vector_iterator@V?$_Vector_val@U?$_Simple_types@U_Position_Dword@@@std@@@std@@@std@@QAE@PAU_Position_Dword@@PBU_Container_base0@1@@Z 10004070 f i MegamapTAStuff.obj
 0001:00003090       ??0?$_Vector_val@U?$_Simple_types@U_Position_Dword@@@std@@@std@@QAE@XZ 10004090 f i MegamapTAStuff.obj
 0001:000030c0       ??0?$allocator@U_Position_Dword@@@std@@QAE@XZ 100040c0 f i MegamapTAStuff.obj
 0001:000030d0       ??0?$vector@U_Position_Dword@@V?$allocator@U_Position_Dword@@@std@@@std@@QAE@XZ 100040d0 f i MegamapTAStuff.obj
 0001:00003100       ??0MegamapTAStuff@@QAE@PAVFullScreenMinimap@@PAUtagRECT@@11HHH@Z 10004100 f   MegamapTAStuff.obj
 0001:00003180       ??0bad_alloc@std@@AAE@QBD@Z 10004180 f i MegamapTAStuff.obj
 0001:000031b0       ??0bad_alloc@std@@QAE@ABV01@@Z 100041b0 f i MegamapTAStuff.obj
 0001:000031e0       ??0bad_array_new_length@std@@QAE@ABV01@@Z 100041e0 f i MegamapTAStuff.obj
 0001:00003210       ??0bad_array_new_length@std@@QAE@XZ 10004210 f i MegamapTAStuff.obj
 0001:00003240       ??0exception@std@@QAE@ABV01@@Z 10004240 f i MegamapTAStuff.obj
 0001:00003280       ??0exception@std@@QAE@QBDH@Z 10004280 f i MegamapTAStuff.obj
 0001:000032b0       ??1?$_Uninitialized_backout_al@V?$allocator@U_Position_Dword@@@std@@@std@@QAE@XZ 100042b0 f i MegamapTAStuff.obj
 0001:000032e0       ??1?$vector@U_Position_Dword@@V?$allocator@U_Position_Dword@@@std@@@std@@QAE@XZ 100042e0 f i MegamapTAStuff.obj
 0001:00003300       ??1MegamapTAStuff@@QAE@XZ  10004300 f   MegamapTAStuff.obj
 0001:00003340       ??1bad_alloc@std@@UAE@XZ   10004340 f i MegamapTAStuff.obj
 0001:00003360       ??1bad_array_new_length@std@@UAE@XZ 10004360 f i MegamapTAStuff.obj
 0001:00003380       ??1exception@std@@UAE@XZ   10004380 f i MegamapTAStuff.obj
 0001:000033b0       ??2@YAPAXIPAX@Z            100043b0 f i MegamapTAStuff.obj
 0001:000033c0       ??8?$_Vector_const_iterator@V?$_Vector_val@U?$_Simple_types@U_Position_Dword@@@std@@@std@@@std@@QBE_NABV01@@Z 100043c0 f i MegamapTAStuff.obj
 0001:00003400       ??9?$_Vector_const_iterator@V?$_Vector_val@U?$_Simple_types@U_Position_Dword@@@std@@@std@@@std@@QBE_NABV01@@Z 10004400 f i MegamapTAStuff.obj
 0001:00003440       ??C?$_Vector_iterator@V?$_Vector_val@U?$_Simple_types@U_Position_Dword@@@std@@@std@@@std@@QBEPAU_Position_Dword@@XZ 10004440 f i MegamapTAStuff.obj
 0001:00003450       ??E?$_Vector_const_iterator@V?$_Vector_val@U?$_Simple_types@U_Position_Dword@@@std@@@std@@@std@@QAEAAV01@XZ 10004450 f i MegamapTAStuff.obj
 0001:00003470       ??E?$_Vector_iterator@V?$_Vector_val@U?$_Simple_types@U_Position_Dword@@@std@@@std@@@std@@QAEAAV01@XZ 10004470 f i MegamapTAStuff.obj
 0001:00003490       ??_Ebad_alloc@std@@UAEPAXI@Z 10004490 f i MegamapTAStuff.obj
 0001:00003490       ??_Gbad_alloc@std@@UAEPAXI@Z 10004490 f i MegamapTAStuff.obj
 0001:000034c0       ??_Ebad_array_new_length@std@@UAEPAXI@Z 100044c0 f i MegamapTAStuff.obj
 0001:000034c0       ??_Gbad_array_new_length@std@@UAEPAXI@Z 100044c0 f i MegamapTAStuff.obj
 0001:000034f0       ??_Eexception@std@@UAEPAXI@Z 100044f0 f i MegamapTAStuff.obj
 0001:000034f0       ??_Gexception@std@@UAEPAXI@Z 100044f0 f i MegamapTAStuff.obj
 0001:00003520       ?BlitOrder@MegamapTAStuff@@QAEXPAXHHH@Z 10004520 f   MegamapTAStuff.obj
 0001:00003c60       ?BlitSelect@MegamapTAStuff@@QAEXPAXHHH@Z 10004c60 f   MegamapTAStuff.obj
 0001:00003e40       ?DrawBuildRect@MegamapTAStuff@@QAEXPAU_OFFSCREEN@@EPAUUnitDefStruct@@HHH@Z 10004e40 f   MegamapTAStuff.obj
 0001:00003f50       ?DrawCursor@MegamapTAStuff@@QAEXPAXHHHII@Z 10004f50 f   MegamapTAStuff.obj
 0001:00003fb0       ?DrawOrderPath@MegamapTAStuff@@QAEXPAU_OFFSCREEN@@PAUUnitOrdersStruct@@PAU_Position_Dword@@@Z 10004fb0 f   MegamapTAStuff.obj
 0001:000042b0       ?DrawTargatOrder@MegamapTAStuff@@QAEXPAU_OFFSCREEN@@PAUUnitOrdersStruct@@PAUPlayerStruct@@@Z 100052b0 f   MegamapTAStuff.obj
 0001:00004420       ?GetTAStuffSurface@MegamapTAStuff@@QAEPAEXZ 10005420 f   MegamapTAStuff.obj
 0001:00004440       ?Init@MegamapTAStuff@@QAEXPAVFullScreenMinimap@@PAUtagRECT@@11HHH@Z 10005440 f   MegamapTAStuff.obj
 0001:00004650       ?InitSurface@MegamapTAStuff@@QAEXPAUIDirectDraw@@H@Z 10005650 f   MegamapTAStuff.obj
 0001:00004a50       ?LockBlit@MegamapTAStuff@@QAEXPAXHHH@Z 10005a50 f   MegamapTAStuff.obj
 0001:00004b90       ?LockBlit_MEGA@MegamapTAStuff@@QAEXPAXHHH@Z 10005b90 f   MegamapTAStuff.obj
 0001:00004c00       ?LockBlit_TA@MegamapTAStuff@@QAEXPAXHHHPAH@Z 10005c00 f   MegamapTAStuff.obj
 0001:00004f10       ?ReleaseSurface@MegamapTAStuff@@QAEXXZ 10005f10 f   MegamapTAStuff.obj
 0001:00004fc0       ?ScreenPos2TAPos@MegamapTAStuff@@AAEPAU_Position_Dword@@PAU2@HHH@Z 10005fc0 f   MegamapTAStuff.obj
 0001:00005050       ?TADrawRect@MegamapTAStuff@@QAEXPAU_OFFSCREEN@@HHHHHHH@Z 10006050 f   MegamapTAStuff.obj
 0001:00005160       ?TAPos2ScreenPos@MegamapTAStuff@@AAEPAUtagPOINT@@PAU2@III@Z 10006160 f   MegamapTAStuff.obj
 0001:000051c0       ?UpdateTAGameStuffMEGA@MegamapTAStuff@@QAEXPAXHHPAH@Z 100061c0 f   MegamapTAStuff.obj
 0001:00005260       ?UpdateTAGameStuffTA@MegamapTAStuff@@QAEXPAU_DDSURFACEDESC@@HHPAH@Z 10006260 f   MegamapTAStuff.obj
 0001:00005310       ?_Adjust_manually_vector_aligned@std@@YGXAAPAXAAI@Z 10006310 f i MegamapTAStuff.obj
 0001:00005380       ?_Adopt@_Iterator_base0@std@@QAEXPBX@Z 10006380 f i MegamapTAStuff.obj
 0001:00005390       ?_Alloc_proxy@_Container_base0@std@@QAEXABU_Fake_allocator@2@@Z 10006390 f i MegamapTAStuff.obj
 0001:000053a0       ?_Allocate@_Default_allocate_traits@std@@SGPAXI@Z 100063a0 f i MegamapTAStuff.obj
 0001:000053c0       ?_Calculate_growth@?$vector@U_Position_Dword@@V?$allocator@U_Position_Dword@@@std@@@std@@ABEII@Z 100063c0 f i MegamapTAStuff.obj
 0001:00005420       ?_Change_array@?$vector@U_Position_Dword@@V?$allocator@U_Position_Dword@@@std@@@std@@AAEXQAU_Position_Dword@@II@Z 10006420 f i MegamapTAStuff.obj
 0001:000054c0       ?_Compat@?$_Vector_const_iterator@V?$_Vector_val@U?$_Simple_types@U_Position_Dword@@@std@@@std@@@std@@QBEXABV12@@Z 100064c0 f i MegamapTAStuff.obj
 0001:000054d0       ?_Get_first@?$_Compressed_pair@V?$allocator@U_Position_Dword@@@std@@V?$_Vector_val@U?$_Simple_types@U_Position_Dword@@@std@@@2@$00@std@@QAEAAV?$allocator@U_Position_Dword@@@2@XZ 100064d0 f i MegamapTAStuff.obj
 0001:000054e0       ?_Get_first@?$_Compressed_pair@V?$allocator@U_Position_Dword@@@std@@V?$_Vector_val@U?$_Simple_types@U_Position_Dword@@@std@@@2@$00@std@@QBEABV?$allocator@U_Position_Dword@@@2@XZ 100064e0 f i MegamapTAStuff.obj
 0001:000054f0       ?_Getal@?$vector@U_Position_Dword@@V?$allocator@U_Position_Dword@@@std@@@std@@AAEAAV?$allocator@U_Position_Dword@@@2@XZ 100064f0 f i MegamapTAStuff.obj
 0001:00005510       ?_Getal@?$vector@U_Position_Dword@@V?$allocator@U_Position_Dword@@@std@@@std@@ABEABV?$allocator@U_Position_Dword@@@2@XZ 10006510 f i MegamapTAStuff.obj
 0001:00005530       ?_Orphan_all@_Container_base0@std@@QAEXXZ 10006530 f i MegamapTAStuff.obj
 0001:00005540       ?_Orphan_range@?$vector@U_Position_Dword@@V?$allocator@U_Position_Dword@@@std@@@std@@ABEXPAU_Position_Dword@@0@Z 10006540 f i MegamapTAStuff.obj
 0001:00005550       ?_Release@?$_Uninitialized_backout_al@V?$allocator@U_Position_Dword@@@std@@@std@@QAEPAU_Position_Dword@@XZ 10006550 f i MegamapTAStuff.obj
 0001:00005570       ?_Throw_bad_array_new_length@std@@YGXXZ 10006570 f i MegamapTAStuff.obj
 0001:00005590       ?_Tidy@?$vector@U_Position_Dword@@V?$allocator@U_Position_Dword@@@std@@@std@@AAEXXZ 10006590 f i MegamapTAStuff.obj
 0001:00005650       ?_Xlength@?$vector@U_Position_Dword@@V?$allocator@U_Position_Dword@@@std@@@std@@CGXXZ 10006650 f i MegamapTAStuff.obj
 0001:00005660       ?allocate@?$allocator@U_Position_Dword@@@std@@QAEPAU_Position_Dword@@I@Z 10006660 f i MegamapTAStuff.obj
 0001:00005680       ?begin@?$vector@U_Position_Dword@@V?$allocator@U_Position_Dword@@@std@@@std@@QAE?AV?$_Vector_iterator@V?$_Vector_val@U?$_Simple_types@U_Position_Dword@@@std@@@std@@@2@XZ 10006680 f i MegamapTAStuff.obj
 0001:000056b0       ?capacity@?$vector@U_Position_Dword@@V?$allocator@U_Position_Dword@@@std@@@std@@QBEIXZ 100066b0 f i MegamapTAStuff.obj
 0001:000056e0       ?deallocate@?$allocator@U_Position_Dword@@@std@@QAEXQAU_Position_Dword@@I@Z 100066e0 f i MegamapTAStuff.obj
 0001:00005700       ?end@?$vector@U_Position_Dword@@V?$allocator@U_Position_Dword@@@std@@@std@@QAE?AV?$_Vector_iterator@V?$_Vector_val@U?$_Simple_types@U_Position_Dword@@@std@@@std@@@2@XZ 10006700 f i MegamapTAStuff.obj
 0001:00005740       ?max@?$numeric_limits@H@std@@SGHXZ 10006740 f i MegamapTAStuff.obj
 0001:00005750       ?max_size@?$_Default_allocator_traits@V?$allocator@U_Position_Dword@@@std@@@std@@SGIABV?$allocator@U_Position_Dword@@@2@@Z 10006750 f i MegamapTAStuff.obj
 0001:00005760       ?max_size@?$vector@U_Position_Dword@@V?$allocator@U_Position_Dword@@@std@@@std@@QBEIXZ 10006760 f i MegamapTAStuff.obj
 0001:000057a0       ?push_back@?$vector@U_Position_Dword@@V?$allocator@U_Position_Dword@@@std@@@std@@QAEXABU_Position_Dword@@@Z 100067a0 f i MegamapTAStuff.obj
 0001:000057c0       ?what@exception@std@@UBEPBDXZ 100067c0 f i MegamapTAStuff.obj
 0001:000057f0       ___local_stdio_printf_options 100067f0 f i MegamapTAStuff.obj
 0001:00005800       __vsprintf_s_l             10006800 f i MegamapTAStuff.obj
 0001:00005850       _vsprintf_s                10006850 f i MegamapTAStuff.obj
 0001:00005870       ??0ProjectileMap@@QAE@PAVFullScreenMinimap@@PAVUnitsMinimap@@@Z 10006870 f   ProjectileMap.obj
 0001:000058a0       ??1ProjectileMap@@QAE@XZ   100068a0 f   ProjectileMap.obj
 0001:000058b0       ?DrawNuke@ProjectileMap@@AAEXPAEPAUtagPOINT@@HHPAUProjectileStruct@@@Z 100068b0 f   ProjectileMap.obj
 0001:00005aa0       ?DrawProjectile@ProjectileMap@@AAEXPAEPAUtagPOINT@@PAUProjectileStruct@@@Z 10006aa0 f   ProjectileMap.obj
 0001:00005bb0       ?DrawWeapon@ProjectileMap@@AAEXPAEPAUtagPOINT@@HH@Z 10006bb0 f   ProjectileMap.obj
 0001:00005ca0       ?IsPosInPlayerLos@ProjectileMap@@AAEHIIPAUProjectileStruct@@@Z 10006ca0 f   ProjectileMap.obj
 0001:00005df0       ?NowDrawProjectile@ProjectileMap@@QAEXPAEPAUtagPOINT@@@Z 10006df0 f   ProjectileMap.obj
 0001:00005e70       ??$strcpy_s@$0BAA@@@YAHAAY0BAA@DPBD@Z 10006e70 f i UnitIcon.obj
 0001:00005e90       ??0TABMP@@QAE@XZ           10006e90 f   UnitIcon.obj
 0001:00005f10       ??0UnitIcon@@QAE@PAD@Z     10006f10 f   UnitIcon.obj
 0001:00006030       ??1TABMP@@QAE@XZ           10007030 f   UnitIcon.obj
 0001:000060b0       ??1UnitIcon@@QAE@XZ        100070b0 f   UnitIcon.obj
 0001:00006140       ??_GPCX@@QAEPAXI@Z         10007140 f i UnitIcon.obj
 0001:00006180       ??_GTABMP@@QAEPAXI@Z       10007180 f i UnitIcon.obj
 0001:000061b0       ?BufSize@PCX@@QAEJXZ       100071b0 f i UnitIcon.obj
 0001:000061d0       ?BufSize@TABMP@@QAEJXZ     100071d0 f i UnitIcon.obj
 0001:000061f0       ?BufSize@UnitIcon@@QAEJXZ  100071f0 f   UnitIcon.obj
 0001:00006230       ?Data@TABMP@@QAEPAEXZ      10007230 f i UnitIcon.obj
 0001:00006250       ?Data@UnitIcon@@QAEPAEXZ   10007250 f   UnitIcon.obj
 0001:00006290       ?Height@TABMP@@QAEJXZ      10007290 f i UnitIcon.obj
 0001:000062b0       ?Height@UnitIcon@@QAEJXZ   100072b0 f   UnitIcon.obj
 0001:000062f0       ?Load@TABMP@@QAEXPAD@Z     100072f0 f   UnitIcon.obj
 0001:000064e0       ?PCXData@PCX@@QAEPAEXZ     100074e0 f i UnitIcon.obj
 0001:00006500       ?Transformer@TABMP@@QAEXPAEPAUtagLOGPALETTE@@PAUtagBITMAPINFO@@0@Z 10007500 f   UnitIcon.obj
 0001:000065c0       ?Width@TABMP@@QAEJXZ       100075c0 f i UnitIcon.obj
 0001:000065e0       ?Width@UnitIcon@@QAEJXZ    100075e0 f   UnitIcon.obj
 0001:00006620       ??_GLimitCrack@@QAEPAXI@Z  10007620 f i ddraw.obj
 0001:00006650       ??_GTABugFixing@@QAEPAXI@Z 10007650 f i ddraw.obj
 0001:00006690       ??_GTADRConfig@@QAEPAXI@Z  10007690 f i ddraw.obj
 0001:000066d0       ??_GUnicodeSupport@@QAEPAXI@Z 100076d0 f i ddraw.obj
 0001:00006710       ??_G_TAHPI@@QAEPAXI@Z      10007710 f i ddraw.obj
 0001:00006740       ?AddtionInit@@YGHPAUtagInlineX86StackBuffer@@@Z 10007740 f   ddraw.obj
 0001:00006760       ?AddtionInitAfterDDraw@@YGHPAUtagInlineX86StackBuffer@@@Z 10007760 f   ddraw.obj
 0001:000068e0       ?AddtionRelease@@YGXXZ     100078e0 f   ddraw.obj
 0001:00006940       ?AddtionReleaseAfterDDraw@@YGXXZ 10007940 f   ddraw.obj
 0001:000069d0       ?AllocateNewArray@@YGXXZ   100079d0 f   ddraw.obj
 0001:00006a80       ?ApplyWeaponIdsPatches@@YGXXZ 10007a80 f   ddraw.obj
 0001:00006c90       ?DirectDrawCreate@@YGJPAU_GUID@@PAPAUIDirectDraw@@PAUIUnknown@@@Z 10007c90 f   ddraw.obj
 0001:00006d60       ?EnableSound@@YGXXZ        10007d60 f   ddraw.obj
 0001:00006d90       ?GetAddress@@YGP6GHXZPBD@Z 10007d90 f   ddraw.obj
 0001:00006dc0       ?GetSysDir@@YGXXZ          10007dc0 f   ddraw.obj
 0001:00006f10       ?MyMod@@YGXXZ              10007f10 f   ddraw.obj
 0001:00007790       ?SetExeMemoryProtection@@YGHPAX0K@Z 10008790 f   ddraw.obj
 0001:000077c0       ?SetupFileMap@@YG_NXZ      100087c0 f   ddraw.obj
 0001:00007850       ?SetupLocalFileMap@@YG_NXZ 10008850 f   ddraw.obj
 0001:000078d0       ?SetupTAHookFileMap@@YGXXZ 100088d0 f   ddraw.obj
 0001:00007940       ?ShutDownTAHookFileMap@@YGXXZ 10008940 f   ddraw.obj
 0001:00007970       ?ShutdownFileMap@@YGXXZ    10008970 f   ddraw.obj
 0001:000079a0       ?ShutdownLocalFileMap@@YGXXZ 100089a0 f   ddraw.obj
 0001:000079d0       ?StaticInitializers_DllMain@@YGXXZ 100089d0 f   ddraw.obj
 0001:00007a40       ?StaticInitializers_WeaponIds@@YGXXZ 10008a40 f   ddraw.obj
 0001:00007c40       ?WeaponIds@@YGXXZ          10008c40 f   ddraw.obj
 0001:00007c50       ?WriteBytes@@YGXPAXQAEK@Z  10008c50 f   ddraw.obj
 0001:00007c70       ?WriteJumpHook@@YGXPAX0@Z  10008c70 f   ddraw.obj
 0001:00007c90       ?____AreaOfEffectDamage_Hook_1@@YGXXZ 10008c90 f   ddraw.obj
 0001:00007dc0       ?____AreaOfEffectDamage_Hook_1_HelperA@@YGXXZ 10008dc0 f   ddraw.obj
 0001:00007e00       ?____FeaturesTakeWeaponDamage_Hook_0_1@@YGXXZ 10008e00 f   ddraw.obj
 0001:00007e70       ?____FeaturesTakeWeaponDamage_Hook_1@@YGXXZ 10008e70 f   ddraw.obj
 0001:00007f30       ?____FeaturesTakeWeaponDamage_Hook_1_HelperA@@YGXXZ 10008f30 f   ddraw.obj
 0001:00007f70       ?____FeaturesTakeWeaponDamage_Hook_2@@YGXXZ 10008f70 f   ddraw.obj
 0001:00007f90       ?____FeaturesTakeWeaponDamage_Hook_3@@YGXXZ 10008f90 f   ddraw.obj
 0001:00007fb0       ?____FeaturesTakeWeaponDamage_Hook_4@@YGXXZ 10008fb0 f   ddraw.obj
 0001:00007fd0       ?____FeaturesTakeWeaponDamage_Hook_5@@YGXXZ 10008fd0 f   ddraw.obj
 0001:00008050       ?____FeaturesTakeWeaponDamage_Hook_5_HelperA@@YGHK@Z 10009050 f   ddraw.obj
 0001:00008080       ?____FireCallback1_Hook_1@@YGXXZ 10009080 f   ddraw.obj
 0001:00008230       ?____FireCallback2_Hook_1@@YGXXZ 10009230 f   ddraw.obj
 0001:000083e0       ?____FireCallback3_Hook_1@@YGXXZ 100093e0 f   ddraw.obj
 0001:000085a0       ?____FireCallback4_Hook_1@@YGXXZ 100095a0 f   ddraw.obj
 0001:00008750       ?____FireMapWeapon_Hook_1@@YGXXZ 10009750 f   ddraw.obj
 0001:00008870       ?____LoadAllWeapons_Hook_1@@YGXXZ 10009870 f   ddraw.obj
 0001:00008890       ?____LoadGame_LoadUnit_Hook_1@@YGXXZ 10009890 f   ddraw.obj
 0001:000088b0       ?____LoadUnitInfoFromFBI_Hook_1@@YGXXZ 100098b0 f   ddraw.obj
 0001:000088e0       ?____LoadWeaponFromTDF_Hook_1@@YGXXZ 100098e0 f   ddraw.obj
 0001:00008910       ?____LoadWeaponFromTDF_Hook_1_HelperA@@YGPAXK@Z 10009910 f   ddraw.obj
 0001:00008930       ?____LoadWeaponFromTDF_Hook_2@@YGXXZ 10009930 f   ddraw.obj
 0001:000089b0       ?____LoadWeaponFromTDF_Hook_3@@YGXXZ 100099b0 f   ddraw.obj
 0001:00008a00       ?____LoadWeaponFromTDF_Hook_4@@YGXXZ 10009a00 f   ddraw.obj
 0001:00008a40       ?____NewDataFile_Hook_1_HelperA@@YGXXZ 10009a40 f   ddraw.obj
 0001:00008c90       ?____Order_Resurrect_Hook_1@@YGXXZ 10009c90 f   ddraw.obj
 0001:00008d60       ?____PacketDispatcher_Hook_1@@YGXXZ 10009d60 f   ddraw.obj
 0001:00008e30       ?____PacketSize_PacketFeatureExplode_Hook_1@@YGXXZ 10009e30 f   ddraw.obj
 0001:00008e50       ?____ReceiveAreaOfEffectDamage_Hook_1@@YGXXZ 10009e50 f   ddraw.obj
 0001:00008e60       ?____ReceiveWeaponFired_Hook_1@@YGXXZ 10009e60 f   ddraw.obj
 0001:00008ec0       ?____ReclaimFinished_Hook_1@@YGXXZ 10009ec0 f   ddraw.obj
 0001:00008fd0       ?____SaveGame_SaveUnit_Hook_1@@YGXXZ 10009fd0 f   ddraw.obj
 0001:00008ff0       ?____SendFireWeapon_Hook_1@@YGXXZ 10009ff0 f   ddraw.obj
 0001:000091c0       ?____SendFireWeapon_Hook_1_HelperA@@YGXXZ 1000a1c0 f   ddraw.obj
 0001:00009200       ?____StartTreeBurn_Hook_1@@YGXXZ 1000a200 f   ddraw.obj
 0001:000092b0       ?____StartWeaponsScripts_Hook_1@@YGXXZ 1000a2b0 f   ddraw.obj
 0001:000092d0       ?____WeaponNameToWeaponTypeDefinition_Replace@@YGPADPAD@Z 1000a2d0 f   ddraw.obj
 0001:00009340       ?____WeaponUnknown1_Hook_1@@YGXXZ 1000a340 f   ddraw.obj
 0001:00009350       ?____WeaponUnknown2_Hook_1@@YGXXZ 1000a350 f   ddraw.obj
 0001:00009360       ?____WeaponUnknown3_Hook_1@@YGXXZ 1000a360 f   ddraw.obj
 0001:00009370       ?____free@@YAXPAX@Z        1000a370 f   ddraw.obj
 0001:00009390       ?____malloc@@YAPAXI@Z      1000a390 f   ddraw.obj
 0001:000093b0       ?____strlen@@YGIPBD@Z      1000a3b0 f   ddraw.obj
 0001:000093e0       _AheadLib_AcquireDDThreadLock 1000a3e0 f   ddraw.obj
 0001:000093f0       _AheadLib_CompleteCreateSysmemSurface 1000a3f0 f   ddraw.obj
 0001:00009400       _AheadLib_D3DParseUnknownCommand 1000a400 f   ddraw.obj
 0001:00009410       _AheadLib_DDGetAttachedSurfaceLcl 1000a410 f   ddraw.obj
 0001:00009420       _AheadLib_DDInternalLock   1000a420 f   ddraw.obj
 0001:00009430       _AheadLib_DDInternalUnlock 1000a430 f   ddraw.obj
 0001:00009440       _AheadLib_DSoundHelp       1000a440 f   ddraw.obj
 0001:00009450       _AheadLib_DirectDrawCreateClipper 1000a450 f   ddraw.obj
 0001:00009460       _AheadLib_DirectDrawCreateEx 1000a460 f   ddraw.obj
 0001:00009470       _AheadLib_DirectDrawEnumerateA 1000a470 f   ddraw.obj
 0001:00009480       _AheadLib_DirectDrawEnumerateExA 1000a480 f   ddraw.obj
 0001:00009490       _AheadLib_DirectDrawEnumerateExW 1000a490 f   ddraw.obj
 0001:000094a0       _AheadLib_DirectDrawEnumerateW 1000a4a0 f   ddraw.obj
 0001:000094b0       _AheadLib_DllCanUnloadNow  1000a4b0 f   ddraw.obj
 0001:000094c0       _AheadLib_DllGetClassObject 1000a4c0 f   ddraw.obj
 0001:000094d0       _AheadLib_GetDDSurfaceLocal 1000a4d0 f   ddraw.obj
 0001:000094e0       _AheadLib_GetOLEThunkData  1000a4e0 f   ddraw.obj
 0001:000094f0       _AheadLib_GetSurfaceFromDC 1000a4f0 f   ddraw.obj
 0001:00009500       _AheadLib_RegisterSpecialCase 1000a500 f   ddraw.obj
 0001:00009510       _AheadLib_ReleaseDDThreadLock 1000a510 f   ddraw.obj
 0001:00009520       _AheadLib_SetAppCompatData 1000a520 f   ddraw.obj
 0001:00009530       _DllMain@12                1000a530 f   ddraw.obj
 0001:00009800       ??0ExternHotKey@@QAE@XZ    1000a800 f   ExternhotKey.obj
 0001:00009b20       ??1ExternHotKey@@QAE@XZ    1000ab20 f   ExternhotKey.obj
 0001:00009ca0       ?AddRoutine_InitAfterExternKey@@YGXXZ 1000aca0 f   ExternhotKey.obj
 0001:00009ce0       ?AddtionRoutine_CircleSelect@@YGHPAUtagInlineX86StackBuffer@@@Z 1000ace0 f   ExternhotKey.obj
 0001:00009da0       ?AddtionRoutine_UnitINFOInit@@YGHPAUtagInlineX86StackBuffer@@@Z 1000ada0 f   ExternhotKey.obj
 0001:00009dd0       ?DestroyExternTypeMask@ExternHotKey@@QAEXXZ 1000add0 f   ExternhotKey.obj
 0001:00009f00       ?FilterSelectedUnit@ExternHotKey@@QAEHXZ 1000af00 f   ExternhotKey.obj
 0001:00009f70       ?FilterSelectedUnitProc@ExternHotKey@@QAEHW4TAUnitType@@@Z 1000af70 f   ExternhotKey.obj
 0001:0000a170       ?FindIdelFactory@ExternHotKey@@QAEXXZ 1000b170 f   ExternhotKey.obj
 0001:0000a330       ?FindIdleConst@ExternHotKey@@QAEXXZ 1000b330 f   ExternhotKey.obj
 0001:0000a540       ?InitExternTypeMask@ExternHotKey@@QAEHXZ 1000b540 f   ExternhotKey.obj
 0001:0000add0       ?Message@ExternHotKey@@QAE_NPAUHWND__@@IIJ@Z 1000bdd0 f   ExternhotKey.obj
 0001:0000b1b0       ?SelectOnlyInScreenSameTypeUnit@ExternHotKey@@QAEHH@Z 1000c1b0 f   ExternhotKey.obj
 0001:0000b3d0       ?SelectOnlyInScreenWeaponUnit@ExternHotKey@@QAEHI@Z 1000c3d0 f   ExternhotKey.obj
 0001:0000b540       ?SelectUnitInRect@ExternHotKey@@QAEHW4TAUnitType@@PAUtagRECT@@_N@Z 1000c540 f   ExternhotKey.obj
 0001:0000b710       ??0FullScreenMinimap@@QAE@HH@Z 1000c710 f   fullscreenminimap.obj
 0001:0000bad0       ??1FullScreenMinimap@@QAE@XZ 1000cad0 f   fullscreenminimap.obj
 0001:0000bd60       ??_GMappedMap@@QAEPAXI@Z   1000cd60 f i fullscreenminimap.obj
 0001:0000bda0       ??_GMegaMapControl@@QAEPAXI@Z 1000cda0 f i fullscreenminimap.obj
 0001:0000bde0       ??_GMegamapTAStuff@@QAEPAXI@Z 1000cde0 f i fullscreenminimap.obj
 0001:0000be20       ??_GProjectileMap@@QAEPAXI@Z 1000ce20 f i fullscreenminimap.obj
 0001:0000be50       ??_GSingleHook@@QAEPAXI@Z  1000ce50 f i fullscreenminimap.obj
 0001:0000be80       ??_GTAGameAreaReDrawer@@QAEPAXI@Z 1000ce80 f i fullscreenminimap.obj
 0001:0000beb0       ??_GTNTtoMiniMap@@QAEPAXI@Z 1000ceb0 f i fullscreenminimap.obj
 0001:0000bee0       ??_GUnitsMinimap@@QAEPAXI@Z 1000cee0 f i fullscreenminimap.obj
 0001:0000bf20       ?BlockGUIState@FullScreenMinimap@@QAEXXZ 1000cf20 f   fullscreenminimap.obj
 0001:0000bf30       ?BlockTADraw@@YGHPAUtagInlineX86StackBuffer@@@Z 1000cf30 f   fullscreenminimap.obj
 0001:0000bf80       ?DischargeGUIState@FullScreenMinimap@@QAEXXZ 1000cf80 f   fullscreenminimap.obj
 0001:0000bf90       ?DischargeTADraw@@YGHPAUtagInlineX86StackBuffer@@@Z 1000cf90 f   fullscreenminimap.obj
 0001:0000bfc0       ?EnterMegaMap@FullScreenMinimap@@QAEXXZ 1000cfc0 f   fullscreenminimap.obj
 0001:0000bfe0       ?ForceTADrawBlit@@YGHPAUtagInlineX86StackBuffer@@@Z 1000cfe0 f   fullscreenminimap.obj
 0001:0000c020       ?IfRenderMegaThenBlock2@@YGXXZ 1000d020 f   fullscreenminimap.obj
 0001:0000c050       ?IfRenderMegaThenBlock@@YGXXZ 1000d050 f   fullscreenminimap.obj
 0001:0000c090       ?InitMinimap@FullScreenMinimap@@QAEXPAUtagTNTHeaderStruct@@PAUtagRECT@@@Z 1000d090 f   fullscreenminimap.obj
 0001:0000cc00       ?InitSurface@FullScreenMinimap@@QAEXPAUIDirectDraw@@@Z 1000dc00 f   fullscreenminimap.obj
 0001:0000cc30       ?InitSurface@FullScreenMinimap@@QAEXPAUIDirectDraw@@H@Z 1000dc30 f   fullscreenminimap.obj
 0001:0000cd00       ?IsBliting@FullScreenMinimap@@QAEHXZ 1000dd00 f   fullscreenminimap.obj
 0001:0000cd20       ?LoadMap_Routine@@YGHPAUtagInlineX86StackBuffer@@@Z 1000dd20 f   fullscreenminimap.obj
 0001:0000cd60       ?LockBlit@FullScreenMinimap@@QAEXPAXHHH@Z 1000dd60 f   fullscreenminimap.obj
 0001:0000cde0       ?MegamapFrameThd@@YGKXZ    1000dde0 f   fullscreenminimap.obj
 0001:0000cfb0       ?Message@FullScreenMinimap@@QAE_NPAUHWND__@@IIJ@Z 1000dfb0 f   fullscreenminimap.obj
 0001:0000d010       ?QuitMegaMap@FullScreenMinimap@@QAEXXZ 1000e010 f   fullscreenminimap.obj
 0001:0000d030       ?ReleaseSurface@FullScreenMinimap@@QAEXXZ 1000e030 f   fullscreenminimap.obj
 0001:0000d090       ?Set@FullScreenMinimap@@QAEXH@Z 1000e090 f   fullscreenminimap.obj
 0001:0000d0d0       ?SetVid@FullScreenMinimap@@QAEXH@Z 1000e0d0 f   fullscreenminimap.obj
 0001:0000d0f0       ?UpdateFrame@FullScreenMinimap@@QAGXPAXPAU_DDSURFACEDESC@@@Z 1000e0f0 f   fullscreenminimap.obj
 0001:0000d420       ?gametimeupdate@@YGXXZ     1000e420 f   fullscreenminimap.obj
 0001:0000d440       ?writejmp@FullScreenMinimap@@QAEXII@Z 1000e440 f i fullscreenminimap.obj
 0001:0000d490       ?CopyGafSequenceToBits@@YGPAEPAEPAUtagPOINT@@PAU_GAFSequence@@H@Z 1000e490 f   gaf.obj
 0001:0000d500       ?CopyGafToBits@@YGXPAEPAUtagPOINT@@IIPAU_GAFFrame@@PAUtagRECT@@@Z 1000e500 f   gaf.obj
 0001:0000d590       ?CreateSurfByGafFrame@@YGPAUIDirectDrawSurface@@PAUIDirectDraw@@PAU_GAFFrame@@H@Z 1000e590 f   gaf.obj
 0001:0000d6e0       ?CreateSurfByGafSequence@@YGPAUIDirectDrawSurface@@PAUIDirectDraw@@PAU_GAFSequence@@_N@Z 1000e6e0 f   gaf.obj
 0001:0000d8f0       ?InstanceGAFFrame@@YGPAEPAU_GAFFrame@@PAPAEPAUtagPOINT@@@Z 1000e8f0 f   gaf.obj
 0001:0000d9a0       ??0GUIExpand@@QAE@XZ       1000e9a0 f   GuiExpand.obj
 0001:0000dba0       ??1GUIExpand@@QAE@XZ       1000eba0 f   GuiExpand.obj
 0001:0000dc40       ??_GFullScreenMinimap@@QAEPAXI@Z 1000ec40 f i GuiExpand.obj
 0001:0000dc80       ??_GMenuResolution@@QAEPAXI@Z 1000ec80 f i GuiExpand.obj
 0001:0000dcb0       ??_GShareDialogExpand@@QAEPAXI@Z 1000ecb0 f i GuiExpand.obj
 0001:0000dce0       ?ApplySelectUnitMenu_Wapper@@YGXXZ 1000ece0 f   HardCodeFunctions.obj
 0001:0000dd20       ?ChatText@@YGHPAD@Z        1000ed20 f   HardCodeFunctions.obj
 0001:0000dd90       ?CleanIDMaskInTypeAry@@YG_NGQAK@Z 1000ed90 f   HardCodeFunctions.obj
 0001:0000ddf0       ?CountSelectedUnits@@YGHXZ 1000edf0 f   HardCodeFunctions.obj
 0001:0000dec0       ?DeselectUnits@@YGXXZ      1000eec0 f   HardCodeFunctions.obj
 0001:0000df80       ?DrawDotteCircle@@YGHPAEPAUtagPOINT@@HHHHHH@Z 1000ef80 f   HardCodeFunctions.obj
 0001:0000e000       ?DrawRadarCircle@@YGHPAEPAUtagPOINT@@HHHH@Z 1000f000 f   HardCodeFunctions.obj
 0001:0000e080       ?DrawTextInScreen_ez@@YG_NPAU_OFFSCREEN@@PADHH@Z 1000f080 f   HardCodeFunctions.obj
 0001:0000e0b0       ?GetMaxScrollX@@YGHXZ      1000f0b0 f   HardCodeFunctions.obj
 0001:0000e0f0       ?GetMaxScrollY@@YGHXZ      1000f0f0 f   HardCodeFunctions.obj
 0001:0000e130       ?GetUnitIDMaskAryByCategory@@YGPAKPAD@Z 1000f130 f   HardCodeFunctions.obj
 0001:0000e1b0       ?IsPlayerAllyUnit@@YGHHH@Z 1000f1b0 f   HardCodeFunctions.obj
 0001:0000e260       ?MatchInTypeAry@@YG_NGQAK@Z 1000f260 f   HardCodeFunctions.obj
 0001:0000e290       ?PauseCDMusic@@YGHXZ       1000f290 f   HardCodeFunctions.obj
 0001:0000e2c0       ?ScrollToCenter@@YGXHH@Z   1000f2c0 f   HardCodeFunctions.obj
 0001:0000e380       ?SendOrder@@YGXIIIH_N@Z    1000f380 f   HardCodeFunctions.obj
 0001:0000e400       ?SetIDMaskInTypeAry@@YG_NGQAK@Z 1000f400 f   HardCodeFunctions.obj
 0001:0000e440       ?UpdateSelectUnitEffect@@YGXXZ 1000f440 f   HardCodeFunctions.obj
 0001:0000e480       ?UpdateTAProcess@@YGHXZ    1000f480 f   HardCodeFunctions.obj
 0001:0000e530       ?ViewPlayerLos_Replay@@YGHHH@Z 1000f530 f   HardCodeFunctions.obj
 0001:0000e730       ?freeTAMem@@YGXPAX@Z       1000f730 f   HardCodeFunctions.obj
 0001:0000e7a0       ?resumeOffScreen@@YGXXZ    1000f7a0 f   HardCodeFunctions.obj
 0001:0000e7b0       ?resumeScreenPlatte@@YGXXZ 1000f7b0 f   HardCodeFunctions.obj
 0001:0000e810       _sprintf_s                 1000f810 f i HardCodeFunctions.obj
 0001:0000e850       ??0ModifyHook@@QAE@IHKPAEKK@Z 1000f850 f   ModifyHook.obj
 0001:0000e900       ??0ModifyHook@@QAE@PAEHK0KK@Z 1000f900 f   ModifyHook.obj
 0001:0000e9b0       ??0ModifyHook@@QAE@XZ      1000f9b0 f   ModifyHook.obj
 0001:0000ea00       ??1ModifyHook@@QAE@XZ      1000fa00 f   ModifyHook.obj
 0001:0000eac0       ?Hook@ModifyHook@@UAEXXZ   1000fac0 f   ModifyHook.obj
 0001:0000ec00       ?InitHookClass@ModifyHook@@AAEXPAEHK0KK@Z 1000fc00 f   ModifyHook.obj
 0001:0000ee00       ??0_TAHPI@@QAE@H@Z         1000fe00 f   HPIfunc.obj
 0001:0000eee0       ??1_TAHPI@@QAE@XZ          1000fee0 f   HPIfunc.obj
 0001:0000ef30       ?TADontInit@@YGHPAUtagInlineX86StackBuffer@@@Z 1000ff30 f   HPIfunc.obj
 0001:0000ef50       ?fclose@_TAHPI@@QAEHPAU_OPENTAFILE@@@Z 1000ff50 f   HPIfunc.obj
 0001:0000ef70       ?filelen@_TAHPI@@QAEIPAU_OPENTAFILE@@@Z 1000ff70 f   HPIfunc.obj
 0001:0000ef90       ?filelength@_TAHPI@@QAEIPAD@Z 1000ff90 f   HPIfunc.obj
 0001:0000efb0       ?fopen@_TAHPI@@QAEPAU_OPENTAFILE@@PAD0@Z 1000ffb0 f   HPIfunc.obj
 0001:0000efd0       ?free_readfile@_TAHPI@@QAEXPAD@Z 1000ffd0 f   HPIfunc.obj
 0001:0000eff0       ?read@_TAHPI@@QAEHPAU_OPENTAFILE@@PAXH@Z 1000fff0 f   HPIfunc.obj
 0001:0000f010       ?readfile@_TAHPI@@QAEPADPADPAI@Z 10010010 f   HPIfunc.obj
 0001:0000f030       ??0IDDraw@@QAE@PAUIDirectDraw@@_N@Z 10010030 f   iddraw.obj
 0001:0000f0d0       ??0IDirectDraw@@QAE@XZ     100100d0 f i iddraw.obj
 0001:0000f0f0       ??0IUnknown@@QAE@XZ        100100f0 f i iddraw.obj
 0001:0000f100       ?AddRef@IDDraw@@UAGKXZ     10010100 f   iddraw.obj
 0001:0000f130       ?Compact@IDDraw@@UAGJXZ    10010130 f   iddraw.obj
 0001:0000f160       ?CreateClipper@IDDraw@@UAGJKPAPAUIDirectDrawClipper@@PAUIUnknown@@@Z 10010160 f   iddraw.obj
 0001:0000f1a0       ?CreatePalette@IDDraw@@UAGJKPAUtagPALETTEENTRY@@PAPAUIDirectDrawPalette@@PAUIUnknown@@@Z 100101a0 f   iddraw.obj
 0001:0000f1e0       ?CreateSurface@IDDraw@@UAGJPAU_DDSURFACEDESC@@PAPAUIDirectDrawSurface@@PAUIUnknown@@@Z 100101e0 f   iddraw.obj
 0001:0000f2a0       ?DuplicateSurface@IDDraw@@UAGJPAUIDirectDrawSurface@@PAPAU2@@Z 100102a0 f   iddraw.obj
 0001:0000f2d0       ?EnumDisplayModes@IDDraw@@UAGJKPAU_DDSURFACEDESC@@PAXP6GJ01@Z@Z 100102d0 f   iddraw.obj
 0001:0000f310       ?EnumSurfaces@IDDraw@@UAGJKPAU_DDSURFACEDESC@@PAXP6GJPAUIDirectDrawSurface@@01@Z@Z 10010310 f   iddraw.obj
 0001:0000f350       ?FlipToGDISurface@IDDraw@@UAGJXZ 10010350 f   iddraw.obj
 0001:0000f380       ?GetCaps@IDDraw@@UAGJPAU_DDCAPS_DX7@@0@Z 10010380 f   iddraw.obj
 0001:0000f3b0       ?GetDisplayMode@IDDraw@@UAGJPAU_DDSURFACEDESC@@@Z 100103b0 f   iddraw.obj
 0001:0000f3e0       ?GetFourCCCodes@IDDraw@@UAGJPAK0@Z 100103e0 f   iddraw.obj
 0001:0000f410       ?GetGDISurface@IDDraw@@UAGJPAPAUIDirectDrawSurface@@@Z 10010410 f   iddraw.obj
 0001:0000f440       ?GetMonitorFrequency@IDDraw@@UAGJPAK@Z 10010440 f   iddraw.obj
 0001:0000f470       ?GetScanLine@IDDraw@@UAGJPAK@Z 10010470 f   iddraw.obj
 0001:0000f4a0       ?GetVerticalBlankStatus@IDDraw@@UAGJPAH@Z 100104a0 f   iddraw.obj
 0001:0000f4d0       ?Initialize@IDDraw@@UAGJPAU_GUID@@@Z 100104d0 f   iddraw.obj
 0001:0000f500       ?QueryInterface@IDDraw@@UAGJABU_GUID@@PAPAX@Z 10010500 f   iddraw.obj
 0001:0000f530       ?Release@IDDraw@@UAGKXZ    10010530 f   iddraw.obj
 0001:0000f580       ?RestoreDisplayMode@IDDraw@@UAGJXZ 10010580 f   iddraw.obj
 0001:0000f5b0       ?SetCooperativeLevel@IDDraw@@UAGJPAUHWND__@@K@Z 100105b0 f   iddraw.obj
 0001:0000f610       ?SetDisplayMode@IDDraw@@UAGJKKK@Z 10010610 f   iddraw.obj
 0001:0000f680       ?WaitForVerticalBlank@IDDraw@@UAGJKPAX@Z 10010680 f   iddraw.obj
 0001:0000f6b0       ?resume@IDDraw@@QAGXXZ     100106b0 f   iddraw.obj
 0001:0000f6e0       ??0IDDrawSurface@@QAE@PAUIDirectDraw@@PAU_DDSURFACEDESC@@PAPAUIDirectDrawSurface@@PAUIUnknown@@PAJ_NHH@Z 100106e0 f   iddrawsurface.obj
 0001:0000fb80       ??0IDirectDrawSurface@@QAE@XZ 10010b80 f i iddrawsurface.obj
 0001:0000fba0       ??_GCChangeQueue@@QAEPAXI@Z 10010ba0 f i iddrawsurface.obj
 0001:0000fbd0       ??_GCDDDTA@@QAEPAXI@Z      10010bd0 f i iddrawsurface.obj
 0001:0000fc00       ??_GCTAHook@@QAEPAXI@Z     10010c00 f i iddrawsurface.obj
 0001:0000fc40       ??_GCWarp@@QAEPAXI@Z       10010c40 f i iddrawsurface.obj
 0001:0000fc70       ?AddAttachedSurface@IDDrawSurface@@UAGJPAUIDirectDrawSurface@@@Z 10010c70 f   iddrawsurface.obj
 0001:0000fca0       ?AddOverlayDirtyRect@IDDrawSurface@@UAGJPAUtagRECT@@@Z 10010ca0 f   iddrawsurface.obj
 0001:0000fcd0       ?AddRef@IDDrawSurface@@UAGKXZ 10010cd0 f   iddrawsurface.obj
 0001:0000fd00       ?Blt@IDDrawSurface@@UAGJPAUtagRECT@@PAUIDirectDrawSurface@@0KPAU_DDBLTFX@@@Z 10010d00 f   iddrawsurface.obj
 0001:0000fd50       ?BltBatch@IDDrawSurface@@UAGJPAU_DDBLTBATCH@@KK@Z 10010d50 f   iddrawsurface.obj
 0001:0000fd90       ?BltFast@IDDrawSurface@@UAGJKKPAUIDirectDrawSurface@@PAUtagRECT@@K@Z 10010d90 f   iddrawsurface.obj
 0001:0000fdd0       ?CorrectName@IDDrawSurface@@QAEXPAD@Z 10010dd0 f   iddrawsurface.obj
 0001:0000fe30       ?CreateClipplist@IDDrawSurface@@QAEXXZ 10010e30 f   iddrawsurface.obj
 0001:00010090       ?CreateDir@IDDrawSurface@@QAEXPAD@Z 10011090 f   iddrawsurface.obj
 0001:00010130       ?CreateFileName@IDDrawSurface@@AAEXPADH@Z 10011130 f   iddrawsurface.obj
 0001:00010380       ?DeInterlace@IDDrawSurface@@AAEXXZ 10011380 f   iddrawsurface.obj
 0001:00010440       ?DeleteAttachedSurface@IDDrawSurface@@UAGJKPAUIDirectDrawSurface@@@Z 10011440 f   iddrawsurface.obj
 0001:00010480       ?EnumAttachedSurfaces@IDDrawSurface@@UAGJPAXP6GJPAUIDirectDrawSurface@@PAU_DDSURFACEDESC@@0@Z@Z 10011480 f   iddrawsurface.obj
 0001:000104c0       ?EnumOverlayZOrders@IDDrawSurface@@UAGJKPAXP6GJPAUIDirectDrawSurface@@PAU_DDSURFACEDESC@@0@Z@Z 100114c0 f   iddrawsurface.obj
 0001:00010500       ?Flip@IDDrawSurface@@UAGJPAUIDirectDrawSurface@@K@Z 10011500 f   iddrawsurface.obj
 0001:00010540       ?FrontSurface@IDDrawSurface@@QAEXPAUIDirectDrawSurface@@@Z 10011540 f   iddrawsurface.obj
 0001:00010560       ?GetAttachedSurface@IDDrawSurface@@UAGJPAU_DDSCAPS@@PAPAUIDirectDrawSurface@@@Z 10011560 f   iddrawsurface.obj
 0001:000105c0       ?GetBltStatus@IDDrawSurface@@UAGJK@Z 100115c0 f   iddrawsurface.obj
 0001:000105f0       ?GetCaps@IDDrawSurface@@UAGJPAU_DDSCAPS@@@Z 100115f0 f   iddrawsurface.obj
 0001:00010620       ?GetClipper@IDDrawSurface@@UAGJPAPAUIDirectDrawClipper@@@Z 10011620 f   iddrawsurface.obj
 0001:00010650       ?GetColorKey@IDDrawSurface@@UAGJKPAU_DDCOLORKEY@@@Z 10011650 f   iddrawsurface.obj
 0001:00010690       ?GetDC@IDDrawSurface@@UAGJPAPAUHDC__@@@Z 10011690 f   iddrawsurface.obj
 0001:000106c0       ?GetFlipStatus@IDDrawSurface@@UAGJK@Z 100116c0 f   iddrawsurface.obj
 0001:000106f0       ?GetOverlayPosition@IDDrawSurface@@UAGJPAJ0@Z 100116f0 f   iddrawsurface.obj
 0001:00010730       ?GetPalette@IDDrawSurface@@UAGJPAPAUIDirectDrawPalette@@@Z 10011730 f   iddrawsurface.obj
 0001:00010760       ?GetPixelFormat@IDDrawSurface@@UAGJPAU_DDPIXELFORMAT@@@Z 10011760 f   iddrawsurface.obj
 0001:00010790       ?GetSurfaceDesc@IDDrawSurface@@UAGJPAU_DDSURFACEDESC@@@Z 10011790 f   iddrawsurface.obj
 0001:000107c0       ?Initialize@IDDrawSurface@@UAGJPAUIDirectDraw@@PAU_DDSURFACEDESC@@@Z 100117c0 f   iddrawsurface.obj
 0001:00010800       ?IsLost@IDDrawSurface@@UAGJXZ 10011800 f   iddrawsurface.obj
 0001:00010860       ?Lock@IDDrawSurface@@UAGJPAUtagRECT@@PAU_DDSURFACEDESC@@KPAX@Z 10011860 f   iddrawsurface.obj
 0001:00010960       ?OutptInt@IDDrawSurface@@SGXH@Z 10011960 f   iddrawsurface.obj
 0001:00010990       ?OutptTxt@IDDrawSurface@@SGXPAD@Z 10011990 f   iddrawsurface.obj
 0001:000109a0       ?QueryInterface@IDDrawSurface@@UAGJABU_GUID@@PAPAX@Z 100119a0 f   iddrawsurface.obj
 0001:000109e0       ?Release@IDDrawSurface@@UAGKXZ 100119e0 f   iddrawsurface.obj
 0001:00010be0       ?ReleaseDC@IDDrawSurface@@UAGJPAUHDC__@@@Z 10011be0 f   iddrawsurface.obj
 0001:00010c10       ?Restore@IDDrawSurface@@UAGJXZ 10011c10 f   iddrawsurface.obj
 0001:00010c70       ?ScreenShot@IDDrawSurface@@QAEXXZ 10011c70 f   iddrawsurface.obj
 0001:00010e70       ?Set@IDDrawSurface@@QAEX_N@Z 10011e70 f   iddrawsurface.obj
 0001:00010e90       ?SetClipper@IDDrawSurface@@UAGJPAUIDirectDrawClipper@@@Z 10011e90 f   iddrawsurface.obj
 0001:00010ec0       ?SetColorKey@IDDrawSurface@@UAGJKPAU_DDCOLORKEY@@@Z 10011ec0 f   iddrawsurface.obj
 0001:00010f00       ?SetOverlayPosition@IDDrawSurface@@UAGJJJ@Z 10011f00 f   iddrawsurface.obj
 0001:00010f40       ?SetPalette@IDDrawSurface@@UAGJPAUIDirectDrawPalette@@@Z 10011f40 f   iddrawsurface.obj
 0001:00010f80       ?Unlock@IDDrawSurface@@UAGJPAX@Z 10011f80 f   iddrawsurface.obj
 0001:000111f0       ?UpdateOverlay@IDDrawSurface@@UAGJPAUtagRECT@@PAUIDirectDrawSurface@@0KPAU_DDOVERLAYFX@@@Z 100121f0 f   iddrawsurface.obj
 0001:00011230       ?UpdateOverlayDisplay@IDDrawSurface@@UAGJK@Z 10012230 f   iddrawsurface.obj
 0001:00011260       ?UpdateOverlayZOrder@IDDrawSurface@@UAGJKPAUIDirectDrawSurface@@@Z 10012260 f   iddrawsurface.obj
 0001:00011290       ?WinProc@@YGJPAUHWND__@@IIJ@Z 10012290 f   iddrawsurface.obj
 0001:00011650       ?strstr@@YAPADQADQBD@Z     10012650 f i iddrawsurface.obj
 0001:000116b0       ??0TAGameAreaReDrawer@@QAE@XZ 100126b0 f   GameRedrawer.obj
 0001:000116e0       ??1TAGameAreaReDrawer@@QAE@XZ 100126e0 f   GameRedrawer.obj
 0001:00011730       ?Cls@TAGameAreaReDrawer@@QAEXXZ 10012730 f   GameRedrawer.obj
 0001:00011790       ?Flip@TAGameAreaReDrawer@@QAEPAEXZ 10012790 f   GameRedrawer.obj
 0001:000117d0       ?GrayBlitOfBits@TAGameAreaReDrawer@@QAEHPAUtagRECT@@PAEPAUtagPOINT@@0H@Z 100127d0 f   GameRedrawer.obj
 0001:00011af0       ?InitOwnSurface@TAGameAreaReDrawer@@QAEPAEPAUIDirectDraw@@H@Z 10012af0 f   GameRedrawer.obj
 0001:00011bf0       ?MixBitsInBlit@TAGameAreaReDrawer@@QAEHPAUtagRECT@@PAEPAUtagPOINT@@0@Z 10012bf0 f   GameRedrawer.obj
 0001:00011ea0       ?MixDSufInBlit@TAGameAreaReDrawer@@QAEHPAEPAUtagRECT@@01@Z 10012ea0 f   GameRedrawer.obj
 0001:00011f30       ?ReleaseSurface@TAGameAreaReDrawer@@QAEXXZ 10012f30 f   GameRedrawer.obj
 0001:00011f80       ?TAWGameAreaRect@TAGameAreaReDrawer@@QAEQAUtagRECT@@PAU2@@Z 10012f80 f   GameRedrawer.obj
 0001:00011ff0       ?backSurface_p@TAGameAreaReDrawer@@QAEQAEXZ 10012ff0 f   GameRedrawer.obj
 0001:00012010       ?frontSurface_p@TAGameAreaReDrawer@@QAEQAEXZ 10013010 f   GameRedrawer.obj
 0001:00012030       ??0MiniMapPicture@@QAE@HH@Z 10013030 f   MapParse.obj
 0001:00012080       ??0TNTtoMiniMap@@QAE@KK@Z  10013080 f   MapParse.obj
 0001:00012180       ??0TNTtoMiniMap@@QAE@XZ    10013180 f   MapParse.obj
 0001:00012280       ??1MiniMapPicture@@QAE@XZ  10013280 f   MapParse.obj
 0001:000122b0       ??1TNTtoMiniMap@@QAE@XZ    100132b0 f   MapParse.obj
 0001:00012350       ??_GMiniMapPicture@@QAEPAXI@Z 10013350 f i MapParse.obj
 0001:00012380       ?DrawMiniMap@MiniMapPicture@@QAEHPAEPAUtagRECT@@HH1@Z 10013380 f   MapParse.obj
 0001:00012710       ?DrawMiniMap@TNTtoMiniMap@@QAEHPAEHH@Z 10013710 f   MapParse.obj
 0001:00012760       ?DrawRectMapToBuf@TNTtoMiniMap@@AAEPAEPAPAEPAUtagTNTHeaderStruct@@PAUtagRECT@@@Z 10013760 f   MapParse.obj
 0001:000127e0       ?MapFromTNTFileA@TNTtoMiniMap@@QAEXPAD@Z 100137e0 f   MapParse.obj
 0001:000128d0       ?MapFromTNTInMem@TNTtoMiniMap@@QAEXPAX@Z 100138d0 f   MapParse.obj
 0001:00012900       ?MapFromValidTNTHeader@TNTtoMiniMap@@QAEXPAUtagTNTHeaderStruct@@@Z 10013900 f   MapParse.obj
 0001:00012960       ?ParseMyTNTHeader@TNTtoMiniMap@@QAEPAUtagTNTHeaderStruct@@PAU2@@Z 10013960 f   MapParse.obj
 0001:00012a00       ?PictureInfo@MiniMapPicture@@QAEPAEPAPAEPAUtagPOINT@@@Z 10013a00 f   MapParse.obj
 0001:00012a30       ?PictureInfo@TNTtoMiniMap@@QAEPAEPAPAEPAUtagPOINT@@@Z 10013a30 f   MapParse.obj
 0001:00012a50       ?StretchTAMapToMiniMap@MiniMapPicture@@QAEPAEPAEPAUtagRECT@@@Z 10013a50 f   MapParse.obj
 0001:00012c80       ?StretchTATNTDataToMiniMap@MiniMapPicture@@QAEPAEPAUtagTNTHeaderStruct@@@Z 10013c80 f   MapParse.obj
 0001:000130b0       ??0MenuResolution@@QAE@H@Z 100140b0 f   MenuResolution.obj
 0001:00013120       ??0MenuResolution@@QAE@HH@Z 10014120 f   MenuResolution.obj
 0001:000131b0       ??1MenuResolution@@QAE@XZ  100141b0 f   MenuResolution.obj
 0001:000131f0       ?InstallHook@MenuResolution@@AAEXXZ 100141f0 f   MenuResolution.obj
 0001:00013430       ?UninstallHook@MenuResolution@@AAEXXZ 10014430 f   MenuResolution.obj
 0001:00013590       ?sub_00491A75@@YGHPAUtagInlineX86StackBuffer@@@Z 10014590 f   MenuResolution.obj
 0001:00013650       ?sub_00491B01@@YGHPAUtagInlineX86StackBuffer@@@Z 10014650 f   MenuResolution.obj
 0001:00013700       ?sub_0049E91C@@YGHPAUtagInlineX86StackBuffer@@@Z 10014700 f   MenuResolution.obj
 0001:00013770       ?sub_0049E93B@@YGHPAUtagInlineX86StackBuffer@@@Z 10014770 f   MenuResolution.obj
 0001:000137f0       ??0ModifyWeaponPacket@@QAE@H@Z 100147f0 f   MultiGameWeaponID.obj
 0001:00013830       ??0ModifyWeaponPacket@@QAE@XZ 10014830 f   MultiGameWeaponID.obj
 0001:00013860       ??1ModifyWeaponPacket@@QAE@XZ 10014860 f   MultiGameWeaponID.obj
 0001:000139f0       ??_GModifyHook@@QAEPAXI@Z  100149f0 f i MultiGameWeaponID.obj
 0001:00013a20       ?EnsureDplayx@ModifyWeaponPacket@@AAEXH@Z 10014a20 f   MultiGameWeaponID.obj
 0001:00014040       ?FeaturePacket@ModifyWeaponPacket@@AAEXH@Z 10015040 f   MultiGameWeaponID.obj
 0001:000141f0       ?ModifyRoutine@ModifyWeaponPacket@@AAEXH@Z 100151f0 f   MultiGameWeaponID.obj
 0001:00014300       ??$?0$$V@?$_Compressed_pair@V?$allocator@UTAShareMemStruct@CDDDTA@@@std@@V?$_Deque_val@U?$_Deque_simple_types@UTAShareMemStruct@CDDDTA@@@std@@@2@$00@std@@QAE@U_Zero_then_variadic_args_t@1@@Z 10015300 f i dddta.obj
 0001:00014320       ??$?0UTAShareMemStruct@CDDDTA@@@?$allocator@PAUTAShareMemStruct@CDDDTA@@@std@@QAE@ABV?$allocator@UTAShareMemStruct@CDDDTA@@@1@@Z 10015320 f i dddta.obj
 0001:00014330       ??$?0UTAShareMemStruct@CDDDTA@@@?$allocator@U_Container_proxy@std@@@std@@QAE@ABV?$allocator@UTAShareMemStruct@CDDDTA@@@1@@Z 10015330 f i dddta.obj
 0001:00014340       ??$_Adl_verify_range@PAPAUTAShareMemStruct@CDDDTA@@PAPAU12@@std@@YGXABQAPAUTAShareMemStruct@CDDDTA@@0@Z 10015340 f i dddta.obj
 0001:00014350       ??$_Alloc_proxy@V?$allocator@U_Container_proxy@std@@@std@@@_Container_base12@std@@QAEX$$QAV?$allocator@U_Container_proxy@std@@@1@@Z 10015350 f i dddta.obj
 0001:000143a0       ??$_Construct_in_place@PAUTAShareMemStruct@CDDDTA@@AAPAU12@@std@@YGXAAPAUTAShareMemStruct@CDDDTA@@0@Z 100153a0 f i dddta.obj
 0001:000143e0       ??$_Construct_in_place@U_Container_proxy@std@@PAU_Container_base12@2@@std@@YGXAAU_Container_proxy@0@$$QAPAU_Container_base12@0@@Z 100153e0 f i dddta.obj
 0001:00014420       ??$_Copy_memmove@PAPAUTAShareMemStruct@CDDDTA@@PAPAU12@@std@@YGPAPAUTAShareMemStruct@CDDDTA@@PAPAU12@00@Z 10015420 f i dddta.obj
 0001:00014490       ??$_Deallocate_plain@V?$allocator@U_Container_proxy@std@@@std@@@std@@YGXAAV?$allocator@U_Container_proxy@std@@@0@QAU_Container_proxy@0@@Z 10015490 f i dddta.obj
 0001:000144d0       ??$_Delete_plain_internal@V?$allocator@U_Container_proxy@std@@@std@@@std@@YGXAAV?$allocator@U_Container_proxy@std@@@0@QAU_Container_proxy@0@@Z 100154d0 f i dddta.obj
 0001:000144f0       ??$_Destroy_in_place@PAUTAShareMemStruct@CDDDTA@@@std@@YGXAAPAUTAShareMemStruct@CDDDTA@@@Z 100154f0 f i dddta.obj
 0001:00014500       ??$_Destroy_range@PAPAUTAShareMemStruct@CDDDTA@@PAPAU12@@std@@YGXPAPAUTAShareMemStruct@CDDDTA@@QAPAU12@@Z 10015500 f i dddta.obj
 0001:00014510       ??$_Emplace_back@AAPAUTAShareMemStruct@CDDDTA@@@?$_Uninitialized_backout@PAPAUTAShareMemStruct@CDDDTA@@@std@@QAEXAAPAUTAShareMemStruct@CDDDTA@@@Z 10015510 f i dddta.obj
 0001:00014550       ??$_Get_size_of_n@$03@std@@YGII@Z 10015550 f i dddta.obj
 0001:00014580       ??$_Get_size_of_n@$07@std@@YGII@Z 10015580 f i dddta.obj
 0001:000145b0       ??$_Get_size_of_n@$0BE@@std@@YGII@Z 100155b0 f i dddta.obj
 0001:000145e0       ??$_Get_unwrapped@ABQAPAUTAShareMemStruct@CDDDTA@@@std@@YG?A_TABQAPAUTAShareMemStruct@CDDDTA@@@Z 100155e0 f i dddta.obj
 0001:000145f0       ??$_Get_unwrapped_n@AAPAPAUTAShareMemStruct@CDDDTA@@H@std@@YG?A_TAAPAPAUTAShareMemStruct@CDDDTA@@H@Z 100155f0 f i dddta.obj
 0001:00014600       ??$_Idl_distance@PAPAUTAShareMemStruct@CDDDTA@@PAPAU12@@std@@YG?A_PABQAPAUTAShareMemStruct@CDDDTA@@0@Z 10015600 f i dddta.obj
 0001:00014620       ??$_Seek_wrapped@PAPAUTAShareMemStruct@CDDDTA@@PAPAU12@@std@@YGXAAPAPAUTAShareMemStruct@CDDDTA@@$$QAPAPAU12@@Z 10015620 f i dddta.obj
 0001:00014640       ??$_To_address@PAPAUTAShareMemStruct@CDDDTA@@@std@@YG?A_PABQAPAUTAShareMemStruct@CDDDTA@@@Z 10015640 f i dddta.obj
 0001:00014650       ??$_Unfancy@UTAShareMemStruct@CDDDTA@@@std@@YGPAUTAShareMemStruct@CDDDTA@@PAU12@@Z 10015650 f i dddta.obj
 0001:00014660       ??$_Unfancy@U_Container_proxy@std@@@std@@YGPAU_Container_proxy@0@PAU10@@Z 10015660 f i dddta.obj
 0001:00014670       ??$_Uninitialized_copy_unchecked@PAPAUTAShareMemStruct@CDDDTA@@PAPAU12@@std@@YGPAPAUTAShareMemStruct@CDDDTA@@PAPAU12@QAPAU12@0@Z 10015670 f i dddta.obj
 0001:00014700       ??$_Uninitialized_value_construct_n_unchecked1@PAPAUTAShareMemStruct@CDDDTA@@I@std@@YGPAPAUTAShareMemStruct@CDDDTA@@PAPAU12@I@Z 10015700 f i dddta.obj
 0001:00014720       ??$_Voidify_iter@PAPAUTAShareMemStruct@CDDDTA@@@std@@YGPAXPAPAUTAShareMemStruct@CDDDTA@@@Z 10015720 f i dddta.obj
 0001:00014730       ??$_Voidify_iter@PAUTAShareMemStruct@CDDDTA@@@std@@YGPAXPAUTAShareMemStruct@CDDDTA@@@Z 10015730 f i dddta.obj
 0001:00014740       ??$_Voidify_iter@PAU_Container_proxy@std@@@std@@YGPAXPAU_Container_proxy@0@@Z 10015740 f i dddta.obj
 0001:00014750       ??$_Zero_range@PAPAUTAShareMemStruct@CDDDTA@@@std@@YGPAPAUTAShareMemStruct@CDDDTA@@QAPAU12@0@Z 10015750 f i dddta.obj
 0001:00014790       ??$addressof@PAUTAShareMemStruct@CDDDTA@@@std@@YGPAPAUTAShareMemStruct@CDDDTA@@AAPAU12@@Z 10015790 f i dddta.obj
 0001:000147a0       ??$addressof@U_Container_proxy@std@@@std@@YGPAU_Container_proxy@0@AAU10@@Z 100157a0 f i dddta.obj
 0001:000147b0       ??$addressof@V?$_Deque_val@U?$_Deque_simple_types@UTAShareMemStruct@CDDDTA@@@std@@@std@@@std@@YGPAV?$_Deque_val@U?$_Deque_simple_types@UTAShareMemStruct@CDDDTA@@@std@@@0@AAV10@@Z 100157b0 f i dddta.obj
 0001:000147c0       ??$construct@UTAShareMemStruct@CDDDTA@@ABU12@@?$_Default_allocator_traits@V?$allocator@UTAShareMemStruct@CDDDTA@@@std@@@std@@SGXAAV?$allocator@UTAShareMemStruct@CDDDTA@@@1@QAUTAShareMemStruct@CDDDTA@@ABU34@@Z 100157c0 f i dddta.obj
 0001:00014810       ??$destroy@UTAShareMemStruct@CDDDTA@@@?$_Default_allocator_traits@V?$allocator@UTAShareMemStruct@CDDDTA@@@std@@@std@@SGXAAV?$allocator@UTAShareMemStruct@CDDDTA@@@1@QAUTAShareMemStruct@CDDDTA@@@Z 10015810 f i dddta.obj
 0001:00014820       ??$emplace_front@ABUTAShareMemStruct@CDDDTA@@@?$deque@UTAShareMemStruct@CDDDTA@@V?$allocator@UTAShareMemStruct@CDDDTA@@@std@@@std@@QAE?A_TABUTAShareMemStruct@CDDDTA@@@Z 10015820 f i dddta.obj
 0001:00014980       ??$exchange@PAU_Container_proxy@std@@$$T@std@@YGPAU_Container_proxy@0@AAPAU10@$$QA$$T@Z 10015980 f i dddta.obj
 0001:000149a0       ??$forward@AAPAUTAShareMemStruct@CDDDTA@@@std@@YGAAPAUTAShareMemStruct@CDDDTA@@AAPAU12@@Z 100159a0 f i dddta.obj
 0001:000149b0       ??$forward@ABUTAShareMemStruct@CDDDTA@@@std@@YGABUTAShareMemStruct@CDDDTA@@ABU12@@Z 100159b0 f i dddta.obj
 0001:000149c0       ??$forward@PAPAUTAShareMemStruct@CDDDTA@@@std@@YG$$QAPAPAUTAShareMemStruct@CDDDTA@@AAPAPAU12@@Z 100159c0 f i dddta.obj
 0001:000149d0       ??$forward@PAU_Container_base12@std@@@std@@YG$$QAPAU_Container_base12@0@AAPAU10@@Z 100159d0 f i dddta.obj
 0001:000149e0       ??$uninitialized_copy@PAPAUTAShareMemStruct@CDDDTA@@PAPAU12@@std@@YGPAPAUTAShareMemStruct@CDDDTA@@QAPAU12@0PAPAU12@@Z 100159e0 f i dddta.obj
 0001:00014a50       ??0?$_Deque_unchecked_const_iterator@V?$_Deque_val@U?$_Deque_simple_types@UTAShareMemStruct@CDDDTA@@@std@@@std@@@std@@QAE@IPBU_Container_base12@1@@Z 10015a50 f i dddta.obj
 0001:00014a80       ??0?$_Deque_unchecked_iterator@V?$_Deque_val@U?$_Deque_simple_types@UTAShareMemStruct@CDDDTA@@@std@@@std@@@std@@QAE@IPBU_Container_base12@1@@Z 10015a80 f i dddta.obj
 0001:00014aa0       ??0?$_Deque_val@U?$_Deque_simple_types@UTAShareMemStruct@CDDDTA@@@std@@@std@@QAE@XZ 10015aa0 f i dddta.obj
 0001:00014ae0       ??0?$_Uninitialized_backout@PAPAUTAShareMemStruct@CDDDTA@@@std@@QAE@PAPAUTAShareMemStruct@CDDDTA@@@Z 10015ae0 f i dddta.obj
 0001:00014b10       ??0?$allocator@UTAShareMemStruct@CDDDTA@@@std@@QAE@XZ 10015b10 f i dddta.obj
 0001:00014b20       ??0?$deque@UTAShareMemStruct@CDDDTA@@V?$allocator@UTAShareMemStruct@CDDDTA@@@std@@@std@@QAE@XZ 10015b20 f i dddta.obj
 0001:00014b60       ??0CDDDTA@@QAE@XZ          10015b60 f   dddta.obj
 0001:00014c40       ??0_Container_base12@std@@QAE@XZ 10015c40 f i dddta.obj
 0001:00014c60       ??0_Container_proxy@std@@QAE@PAU_Container_base12@1@@Z 10015c60 f i dddta.obj
 0001:00014c90       ??1?$_Uninitialized_backout@PAPAUTAShareMemStruct@CDDDTA@@@std@@QAE@XZ 10015c90 f i dddta.obj
 0001:00014cb0       ??1?$deque@UTAShareMemStruct@CDDDTA@@V?$allocator@UTAShareMemStruct@CDDDTA@@@std@@@std@@QAE@XZ 10015cb0 f i dddta.obj
 0001:00014d00       ??1CDDDTA@@QAE@XZ          10015d00 f   dddta.obj
 0001:00014d60       ??A?$deque@UTAShareMemStruct@CDDDTA@@V?$allocator@UTAShareMemStruct@CDDDTA@@@std@@@std@@QAEAAUTAShareMemStruct@CDDDTA@@I@Z 10015d60 f i dddta.obj
 0001:00014da0       ??D?$_Deque_unchecked_const_iterator@V?$_Deque_val@U?$_Deque_simple_types@UTAShareMemStruct@CDDDTA@@@std@@@std@@@std@@QBEABUTAShareMemStruct@CDDDTA@@XZ 10015da0 f i dddta.obj
 0001:00014df0       ??D?$_Deque_unchecked_iterator@V?$_Deque_val@U?$_Deque_simple_types@UTAShareMemStruct@CDDDTA@@@std@@@std@@@std@@QBEAAUTAShareMemStruct@CDDDTA@@XZ 10015df0 f i dddta.obj
 0001:00014e10       ??H?$_Deque_unchecked_iterator@V?$_Deque_val@U?$_Deque_simple_types@UTAShareMemStruct@CDDDTA@@@std@@@std@@@std@@QBE?AV01@H@Z 10015e10 f i dddta.obj
 0001:00014e50       ??Y?$_Deque_unchecked_const_iterator@V?$_Deque_val@U?$_Deque_simple_types@UTAShareMemStruct@CDDDTA@@@std@@@std@@@std@@QAEAAV01@H@Z 10015e50 f i dddta.obj
 0001:00014e70       ??Y?$_Deque_unchecked_iterator@V?$_Deque_val@U?$_Deque_simple_types@UTAShareMemStruct@CDDDTA@@@std@@@std@@@std@@QAEAAV01@H@Z 10015e70 f i dddta.obj
 0001:00014e90       ?Blit@CDDDTA@@QAEXPAUIDirectDrawSurface@@@Z 10015e90 f   dddta.obj
 0001:00014fe0       ?ChatStrnCpy@@YAPADPADPBDI@Z 10015fe0 f   dddta.obj
 0001:00015020       ?CheckMessages@CDDDTA@@AAEXXZ 10016020 f   dddta.obj
 0001:00015170       ?CreateSharedTAMem@CDDDTA@@AAEXHHPAD@Z 10016170 f   dddta.obj
 0001:00015290       ?DeInitDDDTA@CDDDTA@@QAEXXZ 10016290 f   dddta.obj
 0001:00015330       ?DeleteMem@@YAXPAX@Z       10016330 f   dddta.obj
 0001:00015360       ?FrameUpdate@CDDDTA@@QAEXXZ 10016360 f   dddta.obj
 0001:000154b0       ?InitDDDTA@CDDDTA@@AAEXXZ  100164b0 f   dddta.obj
 0001:00015850       ?Message@CDDDTA@@QAE_NPAUHWND__@@IIJ@Z 10016850 f   dddta.obj
 0001:00015920       ?Moo@CDDDTA@@QAEXXZ        10016920 f   dddta.obj
 0001:000159c0       ?Print@CDDDTA@@AAEXPAUHDC__@@PAUPrimitiveStruct@@@Z 100169c0 f   dddta.obj
 0001:00015b20       ?RestoreAllSharedTAMem@CDDDTA@@AAEXXZ 10016b20 f   dddta.obj
 0001:00015bf0       ?SendTextToSpring@CDDDTA@@QAEXPBD@Z 10016bf0 f   dddta.obj
 0001:00015ca0       ?SetActiveUnit@CDDDTA@@AAEXPAUBeginUnitsArray_p@@PAUUnitStruct@@@Z 10016ca0 f i dddta.obj
 0001:00015da0       ?WriteExplosion@CDDDTA@@AAEXXZ 10016da0 f   dddta.obj
 0001:000160d0       ?WriteProjectiles@CDDDTA@@AAEXXZ 100170d0 f   dddta.obj
 0001:000162b0       ?WriteSmoke@CDDDTA@@AAEXXZ 100172b0 f   dddta.obj
 0001:00016540       ?WriteSubPart@CDDDTA@@AAEXPAUSubPart@@PAUPrimitiveStruct@@@Z 10017540 f   dddta.obj
 0001:00016630       ?WriteUnits@CDDDTA@@AAEXXZ 10017630 f   dddta.obj
 0001:00016730       ?_Get_data@?$deque@UTAShareMemStruct@CDDDTA@@V?$allocator@UTAShareMemStruct@CDDDTA@@@std@@@std@@AAEAAV?$_Deque_val@U?$_Deque_simple_types@UTAShareMemStruct@CDDDTA@@@std@@@2@XZ 10017730 f i dddta.obj
 0001:00016740       ?_Get_data@?$deque@UTAShareMemStruct@CDDDTA@@V?$allocator@UTAShareMemStruct@CDDDTA@@@std@@@std@@ABEABV?$_Deque_val@U?$_Deque_simple_types@UTAShareMemStruct@CDDDTA@@@std@@@2@XZ 10017740 f i dddta.obj
 0001:00016750       ?_Get_first@?$_Compressed_pair@V?$allocator@UTAShareMemStruct@CDDDTA@@@std@@V?$_Deque_val@U?$_Deque_simple_types@UTAShareMemStruct@CDDDTA@@@std@@@2@$00@std@@QAEAAV?$allocator@UTAShareMemStruct@CDDDTA@@@2@XZ 10017750 f i dddta.obj
 0001:00016760       ?_Get_first@?$_Compressed_pair@V?$allocator@UTAShareMemStruct@CDDDTA@@@std@@V?$_Deque_val@U?$_Deque_simple_types@UTAShareMemStruct@CDDDTA@@@std@@@2@$00@std@@QBEABV?$allocator@UTAShareMemStruct@CDDDTA@@@2@XZ 10017760 f i dddta.obj
 0001:00016770       ?_Getal@?$deque@UTAShareMemStruct@CDDDTA@@V?$allocator@UTAShareMemStruct@CDDDTA@@@std@@@std@@AAEAAV?$allocator@UTAShareMemStruct@CDDDTA@@@2@XZ 10017770 f i dddta.obj
 0001:00016790       ?_Getal@?$deque@UTAShareMemStruct@CDDDTA@@V?$allocator@UTAShareMemStruct@CDDDTA@@@std@@@std@@ABEABV?$allocator@UTAShareMemStruct@CDDDTA@@@2@XZ 10017790 f i dddta.obj
 0001:000167b0       ?_Getblock@?$_Deque_val@U?$_Deque_simple_types@UTAShareMemStruct@CDDDTA@@@std@@@std@@QBEII@Z 100177b0 f i dddta.obj
 0001:000167d0       ?_Getblock@?$deque@UTAShareMemStruct@CDDDTA@@V?$allocator@UTAShareMemStruct@CDDDTA@@@std@@@std@@ABEII@Z 100177d0 f i dddta.obj
 0001:000167f0       ?_Growmap@?$deque@UTAShareMemStruct@CDDDTA@@V?$allocator@UTAShareMemStruct@CDDDTA@@@std@@@std@@AAEXI@Z 100177f0 f i dddta.obj
 0001:00016a20       ?_Map@?$deque@UTAShareMemStruct@CDDDTA@@V?$allocator@UTAShareMemStruct@CDDDTA@@@std@@@std@@AAEAAPAPAUTAShareMemStruct@CDDDTA@@XZ 10017a20 f i dddta.obj
 0001:00016a40       ?_Mapsize@?$deque@UTAShareMemStruct@CDDDTA@@V?$allocator@UTAShareMemStruct@CDDDTA@@@std@@@std@@AAEAAIXZ 10017a40 f i dddta.obj
 0001:00016a60       ?_Myoff@?$deque@UTAShareMemStruct@CDDDTA@@V?$allocator@UTAShareMemStruct@CDDDTA@@@std@@@std@@AAEAAIXZ 10017a60 f i dddta.obj
 0001:00016a80       ?_Mysize@?$deque@UTAShareMemStruct@CDDDTA@@V?$allocator@UTAShareMemStruct@CDDDTA@@@std@@@std@@AAEAAIXZ 10017a80 f i dddta.obj
 0001:00016aa0       ?_Mysize@?$deque@UTAShareMemStruct@CDDDTA@@V?$allocator@UTAShareMemStruct@CDDDTA@@@std@@@std@@ABEABIXZ 10017aa0 f i dddta.obj
 0001:00016ac0       ?_Orphan_all@?$deque@UTAShareMemStruct@CDDDTA@@V?$allocator@UTAShareMemStruct@CDDDTA@@@std@@@std@@AAEXXZ 10017ac0 f i dddta.obj
 0001:00016ae0       ?_Orphan_all@_Container_base12@std@@QAEXXZ 10017ae0 f i dddta.obj
 0001:00016af0       ?_Release@?$_Uninitialized_backout@PAPAUTAShareMemStruct@CDDDTA@@@std@@QAEPAPAUTAShareMemStruct@CDDDTA@@XZ 10017af0 f i dddta.obj
 0001:00016b10       ?_Tidy@?$deque@UTAShareMemStruct@CDDDTA@@V?$allocator@UTAShareMemStruct@CDDDTA@@@std@@@std@@AAEXXZ 10017b10 f i dddta.obj
 0001:00016c30       ?_Unchecked_begin@?$deque@UTAShareMemStruct@CDDDTA@@V?$allocator@UTAShareMemStruct@CDDDTA@@@std@@@std@@QAE?AV?$_Deque_unchecked_iterator@V?$_Deque_val@U?$_Deque_simple_types@UTAShareMemStruct@CDDDTA@@@std@@@std@@@2@XZ 10017c30 f i dddta.obj
 0001:00016c70       ?_Xlen@?$deque@UTAShareMemStruct@CDDDTA@@V?$allocator@UTAShareMemStruct@CDDDTA@@@std@@@std@@ABEXXZ 10017c70 f i dddta.obj
 0001:00016c90       ?allocate@?$allocator@PAUTAShareMemStruct@CDDDTA@@@std@@QAEPAPAUTAShareMemStruct@CDDDTA@@I@Z 10017c90 f i dddta.obj
 0001:00016cb0       ?allocate@?$allocator@UTAShareMemStruct@CDDDTA@@@std@@QAEPAUTAShareMemStruct@CDDDTA@@I@Z 10017cb0 f i dddta.obj
 0001:00016cd0       ?allocate@?$allocator@U_Container_proxy@std@@@std@@QAEPAU_Container_proxy@2@I@Z 10017cd0 f i dddta.obj
 0001:00016cf0       ?clear@?$deque@UTAShareMemStruct@CDDDTA@@V?$allocator@UTAShareMemStruct@CDDDTA@@@std@@@std@@QAEXXZ 10017cf0 f i dddta.obj
 0001:00016d10       ?deallocate@?$_Default_allocator_traits@V?$allocator@U_Container_proxy@std@@@std@@@std@@SGXAAV?$allocator@U_Container_proxy@std@@@2@QAU_Container_proxy@2@I@Z 10017d10 f i dddta.obj
 0001:00016d30       ?deallocate@?$allocator@PAUTAShareMemStruct@CDDDTA@@@std@@QAEXQAPAUTAShareMemStruct@CDDDTA@@I@Z 10017d30 f i dddta.obj
 0001:00016d50       ?deallocate@?$allocator@UTAShareMemStruct@CDDDTA@@@std@@QAEXQAUTAShareMemStruct@CDDDTA@@I@Z 10017d50 f i dddta.obj
 0001:00016d70       ?empty@?$deque@UTAShareMemStruct@CDDDTA@@V?$allocator@UTAShareMemStruct@CDDDTA@@@std@@@std@@QBE_NXZ 10017d70 f i dddta.obj
 0001:00016da0       ?max_size@?$_Default_allocator_traits@V?$allocator@UTAShareMemStruct@CDDDTA@@@std@@@std@@SGIABV?$allocator@UTAShareMemStruct@CDDDTA@@@2@@Z 10017da0 f i dddta.obj
 0001:00016db0       ?max_size@?$deque@UTAShareMemStruct@CDDDTA@@V?$allocator@UTAShareMemStruct@CDDDTA@@@std@@@std@@QBEIXZ 10017db0 f i dddta.obj
 0001:00016df0       ?pop_back@?$deque@UTAShareMemStruct@CDDDTA@@V?$allocator@UTAShareMemStruct@CDDDTA@@@std@@@std@@QAEXXZ 10017df0 f i dddta.obj
 0001:00016ec0       ?push_front@?$deque@UTAShareMemStruct@CDDDTA@@V?$allocator@UTAShareMemStruct@CDDDTA@@@std@@@std@@QAEXABUTAShareMemStruct@CDDDTA@@@Z 10017ec0 f i dddta.obj
 0001:00016ee0       ?size@?$deque@UTAShareMemStruct@CDDDTA@@V?$allocator@UTAShareMemStruct@CDDDTA@@@std@@@std@@QBEIXZ 10017ee0 f i dddta.obj
 0001:00016f00       ??0CBookmarks@@QAE@XZ      10017f00 f   bookmarks.obj
 0001:00016f10       ??1CBookmarks@@QAE@XZ      10017f10 f   bookmarks.obj
 0001:00016f20       ?Blit@CBookmarks@@QAEXPAUIDirectDrawSurface@@@Z 10017f20 f   bookmarks.obj
 0001:00016f30       ?Message@CBookmarks@@QAE_NPAUHWND__@@IIJ@Z 10017f30 f   bookmarks.obj
 0001:00016f40       ??0CChangeQueue@@QAE@XZ    10017f40 f   changequeue.obj
 0001:00016f70       ??1CChangeQueue@@QAE@XZ    10017f70 f   changequeue.obj
 0001:00016f80       ?Blit@CChangeQueue@@QAEXPAUIDirectDrawSurface@@@Z 10017f80 f   changequeue.obj
 0001:00016f90       ?Message@CChangeQueue@@QAE_NPAUHWND__@@IIJ@Z 10017f90 f   changequeue.obj
 0001:00017050       ?Write@@YGXPAUHWND__@@@Z   10018050 f   changequeue.obj
 0001:000170e0       ??$sprintf_s@$0GE@@@YAHAAY0GE@DPBDZZ 100180e0 f i cinomce.obj
 0001:00017110       ??0CIncome@@QAE@H@Z        10018110 f   cinomce.obj
 0001:00017310       ??1CIncome@@QAE@XZ         10018310 f   cinomce.obj
 0001:00017320       ?BlitIncome@CIncome@@QAEXPAE@Z 10018320 f   cinomce.obj
 0001:000173f0       ?CorrectPos@CIncome@@AAEXXZ 100183f0 f   cinomce.obj
 0001:00017480       ?DrawPlayerRect@CIncome@@AAEXHHD@Z 10018480 f   cinomce.obj
 0001:000174e0       ?DrawStorageText@CIncome@@AAEHMHH@Z 100184e0 f   cinomce.obj
 0001:000175f0       ?DrawTextA@CIncome@@AAEXPADHHD@Z 100185f0 f   cinomce.obj
 0001:00017750       ?FillRect@CIncome@@AAEXD@Z 10018750 f   cinomce.obj
 0001:000177d0       ?GetPlayerColor@CIncome@@AAEEH@Z 100187d0 f   cinomce.obj
 0001:00017800       ?IsShow@CIncome@@QAE_NPAUtagRECT@@@Z 10018800 f   cinomce.obj
 0001:00017850       ?Message@CIncome@@QAE_NPAUHWND__@@IIJ@Z 10018850 f   cinomce.obj
 0001:00017d70       ?PaintStoragebar@CIncome@@AAEXHHHH@Z 10018d70 f   cinomce.obj
 0001:00017f50       ?ReadPos@CIncome@@AAEXXZ   10018f50 f   cinomce.obj
 0001:00018000       ?Set@CIncome@@QAEXH@Z      10019000 f   cinomce.obj
 0001:00018020       ?ShowAllIncome@CIncome@@AAEHXZ 10019020 f   cinomce.obj
 0001:000180f0       ?ShowAllyIncome@CIncome@@AAEHXZ 100190f0 f   cinomce.obj
 0001:000181e0       ?ShowMyViewIncome@CIncome@@AAEXHH@Z 100191e0 f   cinomce.obj
 0001:000182b0       ?ShowPlayerIncome@CIncome@@AAEXHHH@Z 100192b0 f   cinomce.obj
 0001:00018570       ?WritePos@CIncome@@AAEXXZ  10019570 f   cinomce.obj
 0001:00018620       ?inRect@CIncome@@AAE_NHH@Z 10019620 f   cinomce.obj
 0001:00018680       ??0CWarp@@QAE@H@Z          10019680 f   commanderwarp.obj
 0001:00018700       ??1CWarp@@QAE@XZ           10019700 f   commanderwarp.obj
 0001:00018760       ?Blit@CWarp@@QAEXPAUIDirectDrawSurface@@@Z 10019760 f   commanderwarp.obj
 0001:000187d0       ?BlitBtn@CWarp@@AAEXPAE@Z  100197d0 f   commanderwarp.obj
 0001:00018910       ?Message@CWarp@@QAE_NPAUHWND__@@IIJ@Z 10019910 f   commanderwarp.obj
 0001:00018ad0       ?SetPos@CWarp@@AAEXHH@Z    10019ad0 f   commanderwarp.obj
 0001:00018b20       ?WithinButton@CWarp@@AAE_NHH@Z 10019b20 f   commanderwarp.obj
 0001:00018b70       ??0Dialog@@QAE@H@Z         10019b70 f   dialog.obj
 0001:00018df0       ??1Dialog@@QAE@XZ          10019df0 f   dialog.obj
 0001:00018e00       ?BlitCursor@Dialog@@QAEXPAEHH@Z 10019e00 f   dialog.obj
 0001:00018f90       ?BlitDialog@Dialog@@QAEXPAE@Z 10019f90 f   dialog.obj
 0001:00019150       ?CorrectPos@Dialog@@AAEXXZ 1001a150 f   dialog.obj
 0001:000191e0       ?DrawBackgroundButton@Dialog@@AAEXXZ 1001a1e0 f   dialog.obj
 0001:00019360       ?DrawDelay@Dialog@@AAEXXZ  1001a360 f   dialog.obj
 0001:00019400       ?DrawFullRings@Dialog@@AAEXXZ 1001a400 f   dialog.obj
 0001:00019470       ?DrawKeyCode@Dialog@@AAEXXZ 1001a470 f   dialog.obj
 0001:00019520       ?DrawMegaMapKey@Dialog@@AAEXXZ 1001a520 f   dialog.obj
 0001:00019620       ?DrawOptimizeDT@Dialog@@AAEXXZ 1001a620 f   dialog.obj
 0001:00019690       ?DrawShareBox@Dialog@@AAEXXZ 1001a690 f   dialog.obj
 0001:00019900       ?DrawSmallText@Dialog@@QAEXPAEHHPAD@Z 1001a900 f   dialog.obj
 0001:00019db0       ?DrawTextA@Dialog@@QAEXPAEHHPAD@Z 1001adb0 f   dialog.obj
 0001:0001a2a0       ?DrawTinyText@Dialog@@AAEXPADHHD@Z 1001b2a0 f   dialog.obj
 0001:0001a3a0       ?DrawVSync@Dialog@@AAEXXZ  1001b3a0 f   dialog.obj
 0001:0001a4b0       ?DrawVisibleButton@Dialog@@AAEXXZ 1001b4b0 f   dialog.obj
 0001:0001a5b0       ?DrawWhiteboardKey@Dialog@@AAEXXZ 1001b5b0 f   dialog.obj
 0001:0001a6c0       ?EnterOption@@YGHPAUtagInlineX86StackBuffer@@@Z 1001b6c0 f   dialog.obj
 0001:0001a6e0       ?FillRect@Dialog@@AAEXHHHHD@Z 1001b6e0 f   dialog.obj
 0001:0001a750       ?HideDialog@Dialog@@QAEXXZ 1001b750 f   dialog.obj
 0001:0001a790       ?Inside@Dialog@@AAE_NHHH@Z 1001b790 f   dialog.obj
 0001:0001aa00       ?IsShow@Dialog@@QAE_NPAUtagRECT@@@Z 1001ba00 f   dialog.obj
 0001:0001aa60       ?Message@Dialog@@QAE_NPAUHWND__@@IIJ@Z 1001ba60 f   dialog.obj
 0001:0001b8b0       ?PressInOption@@YGHPAUtagInlineX86StackBuffer@@@Z 1001c8b0 f   dialog.obj
 0001:0001b8e0       ?ReadPos@Dialog@@AAEXXZ    1001c8e0 f   dialog.obj
 0001:0001b970       ?ReadSettings@Dialog@@AAEXXZ 1001c970 f   dialog.obj
 0001:0001bbe0       ?RenderDialog@Dialog@@AAEXXZ 1001cbe0 f   dialog.obj
 0001:0001bcd0       ?RestoreAll@Dialog@@QAEXXZ 1001ccd0 f   dialog.obj
 0001:0001be50       ?RestoreCursor@Dialog@@AAEXXZ 1001ce50 f   dialog.obj
 0001:0001bff0       ?SetAll@Dialog@@QAEXXZ     1001cff0 f   dialog.obj
 0001:0001c100       ?SetVisibleList@Dialog@@AAEXXZ 1001d100 f   dialog.obj
 0001:0001c110       ?ShowDialog@Dialog@@QAEXXZ 1001d110 f   dialog.obj
 0001:0001c190       ?WritePos@Dialog@@AAEXXZ   1001d190 f   dialog.obj
 0001:0001c240       ?WriteSettings@Dialog@@AAEXXZ 1001d240 f   dialog.obj
 0001:0001c3e0       ??0CMapRect@@QAE@H@Z       1001d3e0 f   maprect.obj
 0001:0001c890       ??1CMapRect@@QAE@XZ        1001d890 f   maprect.obj
 0001:0001c8e0       ?Blit@CMapRect@@QAEXPAUIDirectDrawSurface@@@Z 1001d8e0 f   maprect.obj
 0001:0001caf0       ?GetMapMaxX@CMapRect@@AAEHXZ 1001daf0 f   maprect.obj
 0001:0001cb10       ?GetMapMaxY@CMapRect@@AAEHXZ 1001db10 f   maprect.obj
 0001:0001cb30       ?LockBlit@CMapRect@@QAEXPADH@Z 1001db30 f   maprect.obj
 0001:0001ce50       ?PaintRect@CMapRect@@AAEXXZ 1001de50 f   maprect.obj
 0001:0001cfd0       ?WorldToMiniX@CMapRect@@QAEHH@Z 1001dfd0 f   maprect.obj
 0001:0001d010       ?WorldToMiniY@CMapRect@@QAEHH@Z 1001e010 f   maprect.obj
 0001:0001d050       ??0CMinimapHandler@@QAE@XZ 1001e050 f   MinimapHandler.obj
 0001:0001d080       ??1CMinimapHandler@@UAE@XZ 1001e080 f   MinimapHandler.obj
 0001:0001d0a0       ??_ECMinimapHandler@@UAEPAXI@Z 1001e0a0 f i MinimapHandler.obj
 0001:0001d0a0       ??_GCMinimapHandler@@UAEPAXI@Z 1001e0a0 f i MinimapHandler.obj
 0001:0001d0d0       ?DeinitMinimap@CMinimapHandler@@QAEXXZ 1001e0d0 f   MinimapHandler.obj
 0001:0001d120       ?FrameUpdate@CMinimapHandler@@QAEXXZ 1001e120 f   MinimapHandler.obj
 0001:0001d1a0       ?InitMinimap@CMinimapHandler@@QAEXPAUSharedMem@@@Z 1001e1a0 f   MinimapHandler.obj
 0001:0001d280       ??0ShareDialogExpand@@QAE@H@Z 1001e280 f   sharedialog.obj
 0001:0001d380       ??1ShareDialogExpand@@QAE@XZ 1001e380 f   sharedialog.obj
 0001:0001d3f0       ?EnergyPosProc@@YGXPAU_GUIInfo@@H@Z 1001e3f0 f   sharedialog.obj
 0001:0001d500       ?GameSpeedPosProc@@YGXPAU_GUIInfo@@H@Z 1001e500 f   sharedialog.obj
 0001:0001d560       ?MetalPosProc@@YGXPAU_GUIInfo@@H@Z 1001e560 f   sharedialog.obj
 0001:0001d670       ?ShareDialogInit@@YGHPAUtagInlineX86StackBuffer@@@Z 1001e670 f   sharedialog.obj
 0001:0001db40       ?ShareDialogProc@@YGHPAUtagInlineX86StackBuffer@@@Z 1001eb40 f   sharedialog.obj
 0001:0001ddf0       ??0TABugFixing@@QAE@XZ     1001edf0 f   TABugFix.obj
 0001:0001e330       ??1TABugFixing@@QAE@XZ     1001f330 f   TABugFix.obj
 0001:0001e5c0       ?AntiCheat@TABugFixing@@QAEHXZ 1001f5c0 f   TABugFix.obj
 0001:0001e620       ?BadModelHunter@@YGHPAUtagInlineX86StackBuffer@@@Z 1001f620 f   TABugFix.obj
 0001:0001e770       ?CDMusic_MenuProc@@YGHPAUtagInlineX86StackBuffer@@@Z 1001f770 f   TABugFix.obj
 0001:0001e790       ?CDMusic_VictoryProc@@YGHPAUtagInlineX86StackBuffer@@@Z 1001f790 f   TABugFix.obj
 0001:0001e7a0       ?EnterProc@@YGHPAUtagInlineX86StackBuffer@@@Z 1001f7a0 f   TABugFix.obj
 0001:0001e7c0       ?LeaveProc@@YGHPAUtagInlineX86StackBuffer@@@Z 1001f7c0 f   TABugFix.obj
 0001:0001e7e0       ?LogToErrorlog@@YGXPAD@Z   1001f7e0 f   TABugFix.obj
 0001:0001e860       ?Message@TABugFixing@@QAE_NPAUHWND__@@IIJ@Z 1001f860 f   TABugFix.obj
 0001:0001e870       ?UnitDeath_BeforeUpdateUI_Proc@@YGHPAUtagInlineX86StackBuffer@@@Z 1001f870 f   TABugFix.obj
 0001:0001e8a0       ?UnitIDOutRange_Proc@@YGHPAUtagInlineX86StackBuffer@@@Z 1001f8a0 f   TABugFix.obj
 0001:0001e8e0       ?UnitVolumeYequZero_Proc@@YGHPAUtagInlineX86StackBuffer@@@Z 1001f8e0 f   TABugFix.obj
 0001:0001e910       ?VectoredHandler@@YGJPAU_EXCEPTION_POINTERS@@@Z 1001f910 f   TABugFix.obj
 0001:0001e920       ?resume_EHA@@YGKPAX@Z      1001f920 f   TABugFix.obj
 0001:0001e950       ??$?0$$V@?$_Compressed_pair@V?$allocator@PAVRegDword@@@std@@V?$_Vector_val@U?$_Simple_types@PAVRegDword@@@std@@@2@$00@std@@QAE@U_Zero_then_variadic_args_t@1@@Z 1001f950 f i TAConfig.obj
 0001:0001e970       ??$?0$$V@?$_Compressed_pair@V?$allocator@PAVRegString@@@std@@V?$_Vector_val@U?$_Simple_types@PAVRegString@@@std@@@2@$00@std@@QAE@U_Zero_then_variadic_args_t@1@@Z 1001f970 f i TAConfig.obj
 0001:0001e990       ??$_Construct_in_place@PAVRegDword@@ABQAV1@@std@@YGXAAPAVRegDword@@ABQAV1@@Z 1001f990 f i TAConfig.obj
 0001:0001e9d0       ??$_Construct_in_place@PAVRegString@@ABQAV1@@std@@YGXAAPAVRegString@@ABQAV1@@Z 1001f9d0 f i TAConfig.obj
 0001:0001ea10       ??$_Copy_memmove@PAPAVRegDword@@PAPAV1@@std@@YGPAPAVRegDword@@PAPAV1@00@Z 1001fa10 f i TAConfig.obj
 0001:0001ea80       ??$_Copy_memmove@PAPAVRegString@@PAPAV1@@std@@YGPAPAVRegString@@PAPAV1@00@Z 1001fa80 f i TAConfig.obj
 0001:0001eaf0       ??$_Destroy_range@V?$allocator@PAVRegDword@@@std@@@std@@YGXPAPAVRegDword@@QAPAV1@AAV?$allocator@PAVRegDword@@@0@@Z 1001faf0 f i TAConfig.obj
 0001:0001eb00       ??$_Destroy_range@V?$allocator@PAVRegString@@@std@@@std@@YGXPAPAVRegString@@QAPAV1@AAV?$allocator@PAVRegString@@@0@@Z 1001fb00 f i TAConfig.obj
 0001:0001eb10       ??$_Emplace_back@PAVRegDword@@@?$_Uninitialized_backout_al@V?$allocator@PAVRegDword@@@std@@@std@@QAEX$$QAPAVRegDword@@@Z 1001fb10 f i TAConfig.obj
 0001:0001eb50       ??$_Emplace_back@PAVRegString@@@?$_Uninitialized_backout_al@V?$allocator@PAVRegString@@@std@@@std@@QAEX$$QAPAVRegString@@@Z 1001fb50 f i TAConfig.obj
 0001:0001eb90       ??$_Emplace_back_with_unused_capacity@ABQAVRegDword@@@?$vector@PAVRegDword@@V?$allocator@PAVRegDword@@@std@@@std@@AAEAAPAVRegDword@@ABQAV2@@Z 1001fb90 f i TAConfig.obj
 0001:0001ebf0       ??$_Emplace_back_with_unused_capacity@ABQAVRegString@@@?$vector@PAVRegString@@V?$allocator@PAVRegString@@@std@@@std@@AAEAAPAVRegString@@ABQAV2@@Z 1001fbf0 f i TAConfig.obj
 0001:0001ec50       ??$_Emplace_one_at_back@ABQAVRegDword@@@?$vector@PAVRegDword@@V?$allocator@PAVRegDword@@@std@@@std@@AAEAAPAVRegDword@@ABQAV2@@Z 1001fc50 f i TAConfig.obj
 0001:0001ecb0       ??$_Emplace_one_at_back@ABQAVRegString@@@?$vector@PAVRegString@@V?$allocator@PAVRegString@@@std@@@std@@AAEAAPAVRegString@@ABQAV2@@Z 1001fcb0 f i TAConfig.obj
 0001:0001ed10       ??$_Emplace_reallocate@ABQAVRegDword@@@?$vector@PAVRegDword@@V?$allocator@PAVRegDword@@@std@@@std@@AAEPAPAVRegDword@@QAPAV2@ABQAV2@@Z 1001fd10 f i TAConfig.obj
 0001:0001eed0       ??$_Emplace_reallocate@ABQAVRegString@@@?$vector@PAVRegString@@V?$allocator@PAVRegString@@@std@@@std@@AAEPAPAVRegString@@QAPAV2@ABQAV2@@Z 1001fed0 f i TAConfig.obj
 0001:0001f090       ??$_Get_unwrapped@ABQAPAVRegDword@@@std@@YG?A_TABQAPAVRegDword@@@Z 10020090 f i TAConfig.obj
 0001:0001f0a0       ??$_Get_unwrapped@ABQAPAVRegString@@@std@@YG?A_TABQAPAVRegString@@@Z 100200a0 f i TAConfig.obj
 0001:0001f0b0       ??$_To_address@PAPAVRegDword@@@std@@YG?A_PABQAPAVRegDword@@@Z 100200b0 f i TAConfig.obj
 0001:0001f0c0       ??$_To_address@PAPAVRegString@@@std@@YG?A_PABQAPAVRegString@@@Z 100200c0 f i TAConfig.obj
 0001:0001f0d0       ??$_Unfancy@PAVRegDword@@@std@@YGPAPAVRegDword@@PAPAV1@@Z 100200d0 f i TAConfig.obj
 0001:0001f0e0       ??$_Unfancy@PAVRegString@@@std@@YGPAPAVRegString@@PAPAV1@@Z 100200e0 f i TAConfig.obj
 0001:0001f0f0       ??$_Uninitialized_move@PAPAVRegDword@@V?$allocator@PAVRegDword@@@std@@@std@@YGPAPAVRegDword@@QAPAV1@0PAPAV1@AAV?$allocator@PAVRegDword@@@0@@Z 100200f0 f i TAConfig.obj
 0001:0001f1c0       ??$_Uninitialized_move@PAPAVRegString@@V?$allocator@PAVRegString@@@std@@@std@@YGPAPAVRegString@@QAPAV1@0PAPAV1@AAV?$allocator@PAVRegString@@@0@@Z 100201c0 f i TAConfig.obj
 0001:0001f290       ??$_Voidify_iter@PAPAVRegDword@@@std@@YGPAXPAPAVRegDword@@@Z 10020290 f i TAConfig.obj
 0001:0001f2a0       ??$_Voidify_iter@PAPAVRegString@@@std@@YGPAXPAPAVRegString@@@Z 100202a0 f i TAConfig.obj
 0001:0001f2b0       ??$addressof@PAVRegDword@@@std@@YGPAPAVRegDword@@AAPAV1@@Z 100202b0 f i TAConfig.obj
 0001:0001f2c0       ??$addressof@PAVRegString@@@std@@YGPAPAVRegString@@AAPAV1@@Z 100202c0 f i TAConfig.obj
 0001:0001f2d0       ??$addressof@V?$_Vector_val@U?$_Simple_types@PAVRegDword@@@std@@@std@@@std@@YGPAV?$_Vector_val@U?$_Simple_types@PAVRegDword@@@std@@@0@AAV10@@Z 100202d0 f i TAConfig.obj
 0001:0001f2e0       ??$addressof@V?$_Vector_val@U?$_Simple_types@PAVRegString@@@std@@@std@@@std@@YGPAV?$_Vector_val@U?$_Simple_types@PAVRegString@@@std@@@0@AAV10@@Z 100202e0 f i TAConfig.obj
 0001:0001f2f0       ??$construct@PAVRegDword@@ABQAV1@@?$_Default_allocator_traits@V?$allocator@PAVRegDword@@@std@@@std@@SGXAAV?$allocator@PAVRegDword@@@1@QAPAVRegDword@@ABQAV3@@Z 100202f0 f i TAConfig.obj
 0001:0001f330       ??$construct@PAVRegDword@@PAV1@@?$_Default_allocator_traits@V?$allocator@PAVRegDword@@@std@@@std@@SGXAAV?$allocator@PAVRegDword@@@1@QAPAVRegDword@@$$QAPAV3@@Z 10020330 f i TAConfig.obj
 0001:0001f370       ??$construct@PAVRegString@@ABQAV1@@?$_Default_allocator_traits@V?$allocator@PAVRegString@@@std@@@std@@SGXAAV?$allocator@PAVRegString@@@1@QAPAVRegString@@ABQAV3@@Z 10020370 f i TAConfig.obj
 0001:0001f3b0       ??$construct@PAVRegString@@PAV1@@?$_Default_allocator_traits@V?$allocator@PAVRegString@@@std@@@std@@SGXAAV?$allocator@PAVRegString@@@1@QAPAVRegString@@$$QAPAV3@@Z 100203b0 f i TAConfig.obj
 0001:0001f3f0       ??$destroy@PAVRegDword@@@?$_Default_allocator_traits@V?$allocator@PAVRegDword@@@std@@@std@@SGXAAV?$allocator@PAVRegDword@@@1@QAPAVRegDword@@@Z 100203f0 f i TAConfig.obj
 0001:0001f400       ??$destroy@PAVRegString@@@?$_Default_allocator_traits@V?$allocator@PAVRegString@@@std@@@std@@SGXAAV?$allocator@PAVRegString@@@1@QAPAVRegString@@@Z 10020400 f i TAConfig.obj
 0001:0001f410       ??$emplace_back@ABQAVRegDword@@@?$vector@PAVRegDword@@V?$allocator@PAVRegDword@@@std@@@std@@QAE?A_TABQAVRegDword@@@Z 10020410 f i TAConfig.obj
 0001:0001f440       ??$emplace_back@ABQAVRegString@@@?$vector@PAVRegString@@V?$allocator@PAVRegString@@@std@@@std@@QAE?A_TABQAVRegString@@@Z 10020440 f i TAConfig.obj
 0001:0001f470       ??$forward@ABQAVRegDword@@@std@@YGABQAVRegDword@@ABQAV1@@Z 10020470 f i TAConfig.obj
 0001:0001f480       ??$forward@ABQAVRegString@@@std@@YGABQAVRegString@@ABQAV1@@Z 10020480 f i TAConfig.obj
 0001:0001f490       ??$forward@PAVRegDword@@@std@@YG$$QAPAVRegDword@@AAPAV1@@Z 10020490 f i TAConfig.obj
 0001:0001f4a0       ??$forward@PAVRegString@@@std@@YG$$QAPAVRegString@@AAPAV1@@Z 100204a0 f i TAConfig.obj
 0001:0001f4b0       ??$move@AAPAVRegDword@@@std@@YG$$QAPAVRegDword@@AAPAV1@@Z 100204b0 f i TAConfig.obj
 0001:0001f4c0       ??$move@AAPAVRegString@@@std@@YG$$QAPAVRegString@@AAPAV1@@Z 100204c0 f i TAConfig.obj
 0001:0001f4d0       ??0?$CTraceCategoryEx@$00$0A@@ATL@@QAE@PBD@Z 100204d0 f i TAConfig.obj
 0001:0001f4e0       ??0?$CTraceCategoryEx@$01$0A@@ATL@@QAE@PBD@Z 100204e0 f i TAConfig.obj
 0001:0001f4f0       ??0?$CTraceCategoryEx@$03$0A@@ATL@@QAE@PBD@Z 100204f0 f i TAConfig.obj
 0001:0001f500       ??0?$CTraceCategoryEx@$07$0A@@ATL@@QAE@PBD@Z 10020500 f i TAConfig.obj
 0001:0001f510       ??0?$CTraceCategoryEx@$0BA@$0A@@ATL@@QAE@PBD@Z 10020510 f i TAConfig.obj
 0001:0001f520       ??0?$CTraceCategoryEx@$0BAA@$0A@@ATL@@QAE@PBD@Z 10020520 f i TAConfig.obj
 0001:0001f530       ??0?$CTraceCategoryEx@$0BAAA@$0A@@ATL@@QAE@PBD@Z 10020530 f i TAConfig.obj
 0001:0001f540       ??0?$CTraceCategoryEx@$0BAAAA@$0A@@ATL@@QAE@PBD@Z 10020540 f i TAConfig.obj
 0001:0001f550       ??0?$CTraceCategoryEx@$0BAAAAA@$0A@@ATL@@QAE@PBD@Z 10020550 f i TAConfig.obj
 0001:0001f560       ??0?$CTraceCategoryEx@$0CA@$0A@@ATL@@QAE@PBD@Z 10020560 f i TAConfig.obj
 0001:0001f570       ??0?$CTraceCategoryEx@$0CAA@$0A@@ATL@@QAE@PBD@Z 10020570 f i TAConfig.obj
 0001:0001f580       ??0?$CTraceCategoryEx@$0CAAA@$0A@@ATL@@QAE@PBD@Z 10020580 f i TAConfig.obj
 0001:0001f590       ??0?$CTraceCategoryEx@$0CAAAA@$0A@@ATL@@QAE@PBD@Z 10020590 f i TAConfig.obj
 0001:0001f5a0       ??0?$CTraceCategoryEx@$0CAAAAA@$0A@@ATL@@QAE@PBD@Z 100205a0 f i TAConfig.obj
 0001:0001f5b0       ??0?$CTraceCategoryEx@$0EA@$0A@@ATL@@QAE@PBD@Z 100205b0 f i TAConfig.obj
 0001:0001f5c0       ??0?$CTraceCategoryEx@$0EAA@$0A@@ATL@@QAE@PBD@Z 100205c0 f i TAConfig.obj
 0001:0001f5d0       ??0?$CTraceCategoryEx@$0EAAA@$0A@@ATL@@QAE@PBD@Z 100205d0 f i TAConfig.obj
 0001:0001f5e0       ??0?$CTraceCategoryEx@$0EAAAA@$0A@@ATL@@QAE@PBD@Z 100205e0 f i TAConfig.obj
 0001:0001f5f0       ??0?$CTraceCategoryEx@$0EAAAAA@$0A@@ATL@@QAE@PBD@Z 100205f0 f i TAConfig.obj
 0001:0001f600       ??0?$CTraceCategoryEx@$0IA@$0A@@ATL@@QAE@PBD@Z 10020600 f i TAConfig.obj
 0001:0001f610       ??0?$CTraceCategoryEx@$0IAA@$0A@@ATL@@QAE@PBD@Z 10020610 f i TAConfig.obj
 0001:0001f620       ??0?$CTraceCategoryEx@$0IAAA@$0A@@ATL@@QAE@PBD@Z 10020620 f i TAConfig.obj
 0001:0001f630       ??0?$CTraceCategoryEx@$0IAAAA@$0A@@ATL@@QAE@PBD@Z 10020630 f i TAConfig.obj
 0001:0001f640       ??0?$_Uninitialized_backout_al@V?$allocator@PAVRegDword@@@std@@@std@@QAE@PAPAVRegDword@@AAV?$allocator@PAVRegDword@@@1@@Z 10020640 f i TAConfig.obj
 0001:0001f670       ??0?$_Uninitialized_backout_al@V?$allocator@PAVRegString@@@std@@@std@@QAE@PAPAVRegString@@AAV?$allocator@PAVRegString@@@1@@Z 10020670 f i TAConfig.obj
 0001:0001f6a0       ??0?$_Vector_const_iterator@V?$_Vector_val@U?$_Simple_types@PAVRegDword@@@std@@@std@@@std@@QAE@PAPAVRegDword@@PBU_Container_base0@1@@Z 100206a0 f i TAConfig.obj
 0001:0001f6d0       ??0?$_Vector_const_iterator@V?$_Vector_val@U?$_Simple_types@PAVRegString@@@std@@@std@@@std@@QAE@PAPAVRegString@@PBU_Container_base0@1@@Z 100206d0 f i TAConfig.obj
 0001:0001f700       ??0?$_Vector_iterator@V?$_Vector_val@U?$_Simple_types@PAVRegDword@@@std@@@std@@@std@@QAE@PAPAVRegDword@@PBU_Container_base0@1@@Z 10020700 f i TAConfig.obj
 0001:0001f720       ??0?$_Vector_iterator@V?$_Vector_val@U?$_Simple_types@PAVRegString@@@std@@@std@@@std@@QAE@PAPAVRegString@@PBU_Container_base0@1@@Z 10020720 f i TAConfig.obj
 0001:0001f740       ??0?$_Vector_val@U?$_Simple_types@PAVRegDword@@@std@@@std@@QAE@XZ 10020740 f i TAConfig.obj
 0001:0001f770       ??0?$_Vector_val@U?$_Simple_types@PAVRegString@@@std@@@std@@QAE@XZ 10020770 f i TAConfig.obj
 0001:0001f7a0       ??0?$allocator@PAVRegDword@@@std@@QAE@XZ 100207a0 f i TAConfig.obj
 0001:0001f7b0       ??0?$allocator@PAVRegString@@@std@@QAE@XZ 100207b0 f i TAConfig.obj
 0001:0001f7c0       ??0?$vector@PAVRegDword@@V?$allocator@PAVRegDword@@@std@@@std@@QAE@XZ 100207c0 f i TAConfig.obj
 0001:0001f7f0       ??0?$vector@PAVRegString@@V?$allocator@PAVRegString@@@std@@@std@@QAE@XZ 100207f0 f i TAConfig.obj
 0001:0001f820       ??0CAtlException@ATL@@QAE@J@Z 10020820 f i TAConfig.obj
 0001:0001f840       ??0RegDword@@QAE@PADHK@Z   10020840 f   TAConfig.obj
 0001:0001f8b0       ??0RegString@@QAE@PADH0H@Z 100208b0 f   TAConfig.obj
 0001:0001f950       ??0TADRConfig@@QAE@XZ      10020950 f   TAConfig.obj
 0001:0001fc40       ??1?$_Uninitialized_backout_al@V?$allocator@PAVRegDword@@@std@@@std@@QAE@XZ 10020c40 f i TAConfig.obj
 0001:0001fc70       ??1?$_Uninitialized_backout_al@V?$allocator@PAVRegString@@@std@@@std@@QAE@XZ 10020c70 f i TAConfig.obj
 0001:0001fca0       ??1?$vector@PAVRegDword@@V?$allocator@PAVRegDword@@@std@@@std@@QAE@XZ 10020ca0 f i TAConfig.obj
 0001:0001fcc0       ??1?$vector@PAVRegString@@V?$allocator@PAVRegString@@@std@@@std@@QAE@XZ 10020cc0 f i TAConfig.obj
 0001:0001fce0       ??1RegDword@@QAE@XZ        10020ce0 f   TAConfig.obj
 0001:0001fd10       ??1RegString@@QAE@XZ       10020d10 f   TAConfig.obj
 0001:0001fd60       ??1TADRConfig@@QAE@XZ      10020d60 f   TAConfig.obj
 0001:0001fe40       ??8?$_Vector_const_iterator@V?$_Vector_val@U?$_Simple_types@PAVRegDword@@@std@@@std@@@std@@QBE_NABV01@@Z 10020e40 f i TAConfig.obj
 0001:0001fe80       ??8?$_Vector_const_iterator@V?$_Vector_val@U?$_Simple_types@PAVRegString@@@std@@@std@@@std@@QBE_NABV01@@Z 10020e80 f i TAConfig.obj
 0001:0001fec0       ??9?$_Vector_const_iterator@V?$_Vector_val@U?$_Simple_types@PAVRegString@@@std@@@std@@@std@@QBE_NABV01@@Z 10020ec0 f i TAConfig.obj
 0001:0001ff00       ??D?$_Vector_const_iterator@V?$_Vector_val@U?$_Simple_types@PAVRegDword@@@std@@@std@@@std@@QBEABQAVRegDword@@XZ 10020f00 f i TAConfig.obj
 0001:0001ff10       ??D?$_Vector_const_iterator@V?$_Vector_val@U?$_Simple_types@PAVRegString@@@std@@@std@@@std@@QBEABQAVRegString@@XZ 10020f10 f i TAConfig.obj
 0001:0001ff20       ??D?$_Vector_iterator@V?$_Vector_val@U?$_Simple_types@PAVRegDword@@@std@@@std@@@std@@QBEAAPAVRegDword@@XZ 10020f20 f i TAConfig.obj
 0001:0001ff40       ??D?$_Vector_iterator@V?$_Vector_val@U?$_Simple_types@PAVRegString@@@std@@@std@@@std@@QBEAAPAVRegString@@XZ 10020f40 f i TAConfig.obj
 0001:0001ff60       ??E?$_Vector_const_iterator@V?$_Vector_val@U?$_Simple_types@PAVRegDword@@@std@@@std@@@std@@QAEAAV01@XZ 10020f60 f i TAConfig.obj
 0001:0001ff80       ??E?$_Vector_const_iterator@V?$_Vector_val@U?$_Simple_types@PAVRegString@@@std@@@std@@@std@@QAEAAV01@XZ 10020f80 f i TAConfig.obj
 0001:0001ffa0       ??E?$_Vector_iterator@V?$_Vector_val@U?$_Simple_types@PAVRegDword@@@std@@@std@@@std@@QAEAAV01@XZ 10020fa0 f i TAConfig.obj
 0001:0001ffc0       ??E?$_Vector_iterator@V?$_Vector_val@U?$_Simple_types@PAVRegString@@@std@@@std@@@std@@QAEAAV01@XZ 10020fc0 f i TAConfig.obj
 0001:0001ffe0       ??_GRegDword@@QAEPAXI@Z    10020fe0 f i TAConfig.obj
 0001:00020010       ??_GRegString@@QAEPAXI@Z   10021010 f i TAConfig.obj
 0001:00020040       ?AtlCrtErrorCheck@ATL@@YGHH@Z 10021040 f i TAConfig.obj
 0001:00020100       ?AtlThrowImpl@ATL@@YGXJ@Z  10021100 f i TAConfig.obj
 0001:00020130       ?EnumIniRegInfo_Begin@TADRConfig@@QAEHPAPAU_EnumRegInfo@@PAPBDPAPBX@Z 10021130 f   TAConfig.obj
 0001:000201c0       ?EnumIniRegInfo_End@TADRConfig@@QAEHPAPAU_EnumRegInfo@@@Z 100211c0 f   TAConfig.obj
 0001:00020220       ?EnumIniRegInfo_Next@TADRConfig@@QAEHPAPAU_EnumRegInfo@@PAPBDPAPBX@Z 10021220 f   TAConfig.obj
 0001:00020340       ?FindRegDword@TADRConfig@@QAEKPADK@Z 10021340 f   TAConfig.obj
 0001:000203d0       ?FindRegStr@TADRConfig@@QAEPBDPADPBD@Z 100213d0 f   TAConfig.obj
 0001:00020460       ?GetIniBool@TADRConfig@@QAEHPBDH@Z 10021460 f   TAConfig.obj
 0001:000204f0       ?GetIniCrc@TADRConfig@@QAEIXZ 100214f0 f   TAConfig.obj
 0001:000205d0       ?GetIniInt@TADRConfig@@QAEHPBDH@Z 100215d0 f   TAConfig.obj
 0001:00020600       ?GetIniStr@TADRConfig@@QAEHPBDPADK1@Z 10021600 f   TAConfig.obj
 0001:00020660       ?LoadIniRegSetting@TADRConfig@@AAEXPAE@Z 10021660 f   TAConfig.obj
 0001:00020c20       ?Name@RegDword@@QAEPBDXZ   10021c20 f   TAConfig.obj
 0001:00020c30       ?Name@RegString@@QAEPBDXZ  10021c30 f   TAConfig.obj
 0001:00020c40       ?ReadTAReg_Dword@TADRConfig@@QAEJPADPAK@Z 10021c40 f   TAConfig.obj
 0001:00020c80       ?ReadTAReg_Str@TADRConfig@@QAEJPADPBDK@Z 10021c80 f   TAConfig.obj
 0001:00020cd0       ?SetIniBool@TADRConfig@@QAEHPBDH@Z 10021cd0 f   TAConfig.obj
 0001:00020d80       ?Str@RegString@@QAEPBDXZ   10021d80 f   TAConfig.obj
 0001:00020da0       ?TARegPath_HKEY@TADRConfig@@AAEPAUHKEY__@@XZ 10021da0 f   TAConfig.obj
 0001:00020e10       ?Value@RegDword@@QAEKXZ    10021e10 f   TAConfig.obj
 0001:00020e30       ?WriteTAReg_Dword@TADRConfig@@QAEJPADK@Z 10021e30 f   TAConfig.obj
 0001:00020e70       ?WriteTAReg_Str@TADRConfig@@QAEJPADPBDK@Z 10021e70 f   TAConfig.obj
 0001:00020ec0       ?_Calculate_growth@?$vector@PAVRegDword@@V?$allocator@PAVRegDword@@@std@@@std@@ABEII@Z 10021ec0 f i TAConfig.obj
 0001:00020f20       ?_Calculate_growth@?$vector@PAVRegString@@V?$allocator@PAVRegString@@@std@@@std@@ABEII@Z 10021f20 f i TAConfig.obj
 0001:00020f80       ?_Change_array@?$vector@PAVRegDword@@V?$allocator@PAVRegDword@@@std@@@std@@AAEXQAPAVRegDword@@II@Z 10021f80 f i TAConfig.obj
 0001:00021020       ?_Change_array@?$vector@PAVRegString@@V?$allocator@PAVRegString@@@std@@@std@@AAEXQAPAVRegString@@II@Z 10022020 f i TAConfig.obj
 0001:000210c0       ?_Compat@?$_Vector_const_iterator@V?$_Vector_val@U?$_Simple_types@PAVRegDword@@@std@@@std@@@std@@QBEXABV12@@Z 100220c0 f i TAConfig.obj
 0001:000210d0       ?_Compat@?$_Vector_const_iterator@V?$_Vector_val@U?$_Simple_types@PAVRegString@@@std@@@std@@@std@@QBEXABV12@@Z 100220d0 f i TAConfig.obj
 0001:000210e0       ?_Get_first@?$_Compressed_pair@V?$allocator@PAVRegDword@@@std@@V?$_Vector_val@U?$_Simple_types@PAVRegDword@@@std@@@2@$00@std@@QAEAAV?$allocator@PAVRegDword@@@2@XZ 100220e0 f i TAConfig.obj
 0001:000210f0       ?_Get_first@?$_Compressed_pair@V?$allocator@PAVRegDword@@@std@@V?$_Vector_val@U?$_Simple_types@PAVRegDword@@@std@@@2@$00@std@@QBEABV?$allocator@PAVRegDword@@@2@XZ 100220f0 f i TAConfig.obj
 0001:00021100       ?_Get_first@?$_Compressed_pair@V?$allocator@PAVRegString@@@std@@V?$_Vector_val@U?$_Simple_types@PAVRegString@@@std@@@2@$00@std@@QAEAAV?$allocator@PAVRegString@@@2@XZ 10022100 f i TAConfig.obj
 0001:00021110       ?_Get_first@?$_Compressed_pair@V?$allocator@PAVRegString@@@std@@V?$_Vector_val@U?$_Simple_types@PAVRegString@@@std@@@2@$00@std@@QBEABV?$allocator@PAVRegString@@@2@XZ 10022110 f i TAConfig.obj
 0001:00021120       ?_Getal@?$vector@PAVRegDword@@V?$allocator@PAVRegDword@@@std@@@std@@AAEAAV?$allocator@PAVRegDword@@@2@XZ 10022120 f i TAConfig.obj
 0001:00021140       ?_Getal@?$vector@PAVRegDword@@V?$allocator@PAVRegDword@@@std@@@std@@ABEABV?$allocator@PAVRegDword@@@2@XZ 10022140 f i TAConfig.obj
 0001:00021160       ?_Getal@?$vector@PAVRegString@@V?$allocator@PAVRegString@@@std@@@std@@AAEAAV?$allocator@PAVRegString@@@2@XZ 10022160 f i TAConfig.obj
 0001:00021180       ?_Getal@?$vector@PAVRegString@@V?$allocator@PAVRegString@@@std@@@std@@ABEABV?$allocator@PAVRegString@@@2@XZ 10022180 f i TAConfig.obj
 0001:000211a0       ?_Orphan_range@?$vector@PAVRegDword@@V?$allocator@PAVRegDword@@@std@@@std@@ABEXPAPAVRegDword@@0@Z 100221a0 f i TAConfig.obj
 0001:000211b0       ?_Orphan_range@?$vector@PAVRegString@@V?$allocator@PAVRegString@@@std@@@std@@ABEXPAPAVRegString@@0@Z 100221b0 f i TAConfig.obj
 0001:000211c0       ?_Release@?$_Uninitialized_backout_al@V?$allocator@PAVRegDword@@@std@@@std@@QAEPAPAVRegDword@@XZ 100221c0 f i TAConfig.obj
 0001:000211e0       ?_Release@?$_Uninitialized_backout_al@V?$allocator@PAVRegString@@@std@@@std@@QAEPAPAVRegString@@XZ 100221e0 f i TAConfig.obj
 0001:00021200       ?_Tidy@?$vector@PAVRegDword@@V?$allocator@PAVRegDword@@@std@@@std@@AAEXXZ 10022200 f i TAConfig.obj
 0001:000212c0       ?_Tidy@?$vector@PAVRegString@@V?$allocator@PAVRegString@@@std@@@std@@AAEXXZ 100222c0 f i TAConfig.obj
 0001:00021380       ?_Xlength@?$vector@PAVRegDword@@V?$allocator@PAVRegDword@@@std@@@std@@CGXXZ 10022380 f i TAConfig.obj
 0001:00021390       ?_Xlength@?$vector@PAVRegString@@V?$allocator@PAVRegString@@@std@@@std@@CGXXZ 10022390 f i TAConfig.obj
 0001:000213a0       ?allocate@?$allocator@PAVRegDword@@@std@@QAEPAPAVRegDword@@I@Z 100223a0 f i TAConfig.obj
 0001:000213c0       ?allocate@?$allocator@PAVRegString@@@std@@QAEPAPAVRegString@@I@Z 100223c0 f i TAConfig.obj
 0001:000213e0       ?back@?$vector@PAVRegDword@@V?$allocator@PAVRegDword@@@std@@@std@@QAEAAPAVRegDword@@XZ 100223e0 f i TAConfig.obj
 0001:00021410       ?back@?$vector@PAVRegString@@V?$allocator@PAVRegString@@@std@@@std@@QAEAAPAVRegString@@XZ 10022410 f i TAConfig.obj
 0001:00021440       ?begin@?$vector@PAVRegDword@@V?$allocator@PAVRegDword@@@std@@@std@@QAE?AV?$_Vector_iterator@V?$_Vector_val@U?$_Simple_types@PAVRegDword@@@std@@@std@@@2@XZ 10022440 f i TAConfig.obj
 0001:00021470       ?begin@?$vector@PAVRegString@@V?$allocator@PAVRegString@@@std@@@std@@QAE?AV?$_Vector_iterator@V?$_Vector_val@U?$_Simple_types@PAVRegString@@@std@@@std@@@2@XZ 10022470 f i TAConfig.obj
 0001:000214a0       ?capacity@?$vector@PAVRegDword@@V?$allocator@PAVRegDword@@@std@@@std@@QBEIXZ 100224a0 f i TAConfig.obj
 0001:000214d0       ?capacity@?$vector@PAVRegString@@V?$allocator@PAVRegString@@@std@@@std@@QBEIXZ 100224d0 f i TAConfig.obj
 0001:00021500       ?deallocate@?$allocator@PAVRegDword@@@std@@QAEXQAPAVRegDword@@I@Z 10022500 f i TAConfig.obj
 0001:00021520       ?deallocate@?$allocator@PAVRegString@@@std@@QAEXQAPAVRegString@@I@Z 10022520 f i TAConfig.obj
 0001:00021540       ?empty@?$vector@PAVRegDword@@V?$allocator@PAVRegDword@@@std@@@std@@QBE_NXZ 10022540 f i TAConfig.obj
 0001:00021580       ?empty@?$vector@PAVRegString@@V?$allocator@PAVRegString@@@std@@@std@@QBE_NXZ 10022580 f i TAConfig.obj
 0001:000215c0       ?end@?$vector@PAVRegDword@@V?$allocator@PAVRegDword@@@std@@@std@@QAE?AV?$_Vector_iterator@V?$_Vector_val@U?$_Simple_types@PAVRegDword@@@std@@@std@@@2@XZ 100225c0 f i TAConfig.obj
 0001:00021600       ?end@?$vector@PAVRegString@@V?$allocator@PAVRegString@@@std@@@std@@QAE?AV?$_Vector_iterator@V?$_Vector_val@U?$_Simple_types@PAVRegString@@@std@@@std@@@2@XZ 10022600 f i TAConfig.obj
 0001:00021640       ?max_size@?$_Default_allocator_traits@V?$allocator@PAVRegDword@@@std@@@std@@SGIABV?$allocator@PAVRegDword@@@2@@Z 10022640 f i TAConfig.obj
 0001:00021650       ?max_size@?$_Default_allocator_traits@V?$allocator@PAVRegString@@@std@@@std@@SGIABV?$allocator@PAVRegString@@@2@@Z 10022650 f i TAConfig.obj
 0001:00021660       ?max_size@?$vector@PAVRegDword@@V?$allocator@PAVRegDword@@@std@@@std@@QBEIXZ 10022660 f i TAConfig.obj
 0001:000216a0       ?max_size@?$vector@PAVRegString@@V?$allocator@PAVRegString@@@std@@@std@@QBEIXZ 100226a0 f i TAConfig.obj
 0001:000216e0       ?pop_back@?$vector@PAVRegDword@@V?$allocator@PAVRegDword@@@std@@@std@@QAEXXZ 100226e0 f i TAConfig.obj
 0001:00021770       ?pop_back@?$vector@PAVRegString@@V?$allocator@PAVRegString@@@std@@@std@@QAEXXZ 10022770 f i TAConfig.obj
 0001:00021800       ?push_back@?$vector@PAVRegDword@@V?$allocator@PAVRegDword@@@std@@@std@@QAEXABQAVRegDword@@@Z 10022800 f i TAConfig.obj
 0001:00021820       ?push_back@?$vector@PAVRegString@@V?$allocator@PAVRegString@@@std@@@std@@QAEXABQAVRegString@@@Z 10022820 f i TAConfig.obj
 0001:00021840       ?size@?$vector@PAVRegDword@@V?$allocator@PAVRegDword@@@std@@@std@@QBEIXZ 10022840 f i TAConfig.obj
 0001:00021870       ?size@?$vector@PAVRegString@@V?$allocator@PAVRegString@@@std@@@std@@QBEIXZ 10022870 f i TAConfig.obj
 0001:000218a0       ?strchr@@YAPADQADH@Z       100228a0 f i TAConfig.obj
 0001:000218c0       ?strlwr_s@Checked@ATL@@YAXPADI@Z 100228c0 f i TAConfig.obj
 0001:000218e0       ?strupr_s@Checked@ATL@@YAXPADI@Z 100228e0 f i TAConfig.obj
 0001:00021900       ??0CTAHook@@QAE@H@Z        10022900 f   tahook.obj
 0001:00021b40       ??1CTAHook@@QAE@XZ         10022b40 f   tahook.obj
 0001:00021bb0       ?Blit@CTAHook@@QAEXPAUIDirectDrawSurface@@@Z 10022bb0 f   tahook.obj
 0001:00021bc0       ?CalculateLine@CTAHook@@AAEXXZ 10022bc0 f   tahook.obj
 0001:00021e60       ?CalculateRing@CTAHook@@AAEXHHHH@Z 10022e60 f   tahook.obj
 0001:000221b0       ?CalculateRing@CTAHook@@AAEXXZ 100231b0 f   tahook.obj
 0001:000222b0       ?ClickBuilding@CTAHook@@AAEXHH@Z 100232b0 f   tahook.obj
 0001:00022340       ?DisableTABuildRect@CTAHook@@AAEXXZ 10023340 f   tahook.obj
 0001:00022370       ?DrawBuildRect@CTAHook@@AAEXHHHHH@Z 10023370 f   tahook.obj
 0001:00022550       ?EnableTABuildRect@CTAHook@@AAEXXZ 10023550 f   tahook.obj
 0001:00022580       ?GetFootX@CTAHook@@AAEFXZ  10023580 f   tahook.obj
 0001:000225b0       ?GetFootY@CTAHook@@AAEFXZ  100235b0 f   tahook.obj
 0001:000225e0       ?IsLineBuilding@CTAHook@@QAEHXZ 100235e0 f   tahook.obj
 0001:00022620       ?Message@CTAHook@@QAE_NPAUHWND__@@IIJ@Z 10023620 f   tahook.obj
 0001:00022d60       ?OptimizeDTRows@CTAHook@@AAEXXZ 10023d60 f   tahook.obj
 0001:000230d0       ?PaintMinimapRect@CTAHook@@AAEXXZ 100240d0 f   tahook.obj
 0001:00023100       ?Set@CTAHook@@QAEXHPAD_N1H@Z 10024100 f   tahook.obj
 0001:00023150       ?TABlit@CTAHook@@QAEXXZ    10024150 f   tahook.obj
 0001:000231d0       ?UpdateSpacing@CTAHook@@AAEXXZ 100241d0 f   tahook.obj
 0001:00023210       ?VisualizeRow@CTAHook@@AAEXXZ 10024210 f   tahook.obj
 0001:00023380       ?VisualizeRow_ForME_megamap@CTAHook@@QAEXPAU_OFFSCREEN@@@Z 10024380 f   tahook.obj
 0001:000234f0       ?WriteDTLine@CTAHook@@AAEXXZ 100244f0 f   tahook.obj
 0001:00023590       ?WriteScrollDTLine@CTAHook@@AAEXXZ 10024590 f   tahook.obj
 0001:000235a0       ?WriteShareMacro@CTAHook@@QAEXXZ 100245a0 f   tahook.obj
 0001:000236b0       ??$?0$$V@?$_Compressed_pair@V?$allocator@PAD@std@@V?$_Vector_val@U?$_Simple_types@PAD@std@@@2@$00@std@@QAE@U_Zero_then_variadic_args_t@1@@Z 100246b0 f i UnicodeSupport.obj
 0001:000236d0       ??$_Construct_in_place@PADPAD@std@@YGXAAPAD$$QAPAD@Z 100246d0 f i UnicodeSupport.obj
 0001:00023710       ??$_Copy_memmove@PAPADPAPAD@std@@YGPAPADPAPAD00@Z 10024710 f i UnicodeSupport.obj
 0001:00023780       ??$_Destroy_range@V?$allocator@PAD@std@@@std@@YGXPAPADQAPADAAV?$allocator@PAD@0@@Z 10024780 f i UnicodeSupport.obj
 0001:00023790       ??$_Emplace_back@PAD@?$_Uninitialized_backout_al@V?$allocator@PAD@std@@@std@@QAEX$$QAPAD@Z 10024790 f i UnicodeSupport.obj
 0001:000237d0       ??$_Emplace_back_with_unused_capacity@PAD@?$vector@PADV?$allocator@PAD@std@@@std@@AAEAAPAD$$QAPAD@Z 100247d0 f i UnicodeSupport.obj
 0001:00023830       ??$_Emplace_one_at_back@PAD@?$vector@PADV?$allocator@PAD@std@@@std@@AAEAAPAD$$QAPAD@Z 10024830 f i UnicodeSupport.obj
 0001:00023890       ??$_Emplace_reallocate@PAD@?$vector@PADV?$allocator@PAD@std@@@std@@AAEPAPADQAPAD$$QAPAD@Z 10024890 f i UnicodeSupport.obj
 0001:00023a50       ??$_Get_unwrapped@ABQAPAD@std@@YG?A_TABQAPAD@Z 10024a50 f i UnicodeSupport.obj
 0001:00023a60       ??$_To_address@PAPAD@std@@YG?A_PABQAPAD@Z 10024a60 f i UnicodeSupport.obj
 0001:00023a70       ??$_Unfancy@PAD@std@@YGPAPADPAPAD@Z 10024a70 f i UnicodeSupport.obj
 0001:00023a80       ??$_Uninitialized_move@PAPADV?$allocator@PAD@std@@@std@@YGPAPADQAPAD0PAPADAAV?$allocator@PAD@0@@Z 10024a80 f i UnicodeSupport.obj
 0001:00023b50       ??$_Voidify_iter@PAPAD@std@@YGPAXPAPAD@Z 10024b50 f i UnicodeSupport.obj
 0001:00023b60       ??$addressof@PAD@std@@YGPAPADAAPAD@Z 10024b60 f i UnicodeSupport.obj
 0001:00023b70       ??$addressof@V?$_Vector_val@U?$_Simple_types@PAD@std@@@std@@@std@@YGPAV?$_Vector_val@U?$_Simple_types@PAD@std@@@0@AAV10@@Z 10024b70 f i UnicodeSupport.obj
 0001:00023b80       ??$construct@PADPAD@?$_Default_allocator_traits@V?$allocator@PAD@std@@@std@@SGXAAV?$allocator@PAD@1@QAPAD$$QAPAD@Z 10024b80 f i UnicodeSupport.obj
 0001:00023bc0       ??$destroy@PAD@?$_Default_allocator_traits@V?$allocator@PAD@std@@@std@@SGXAAV?$allocator@PAD@1@QAPAD@Z 10024bc0 f i UnicodeSupport.obj
 0001:00023bd0       ??$emplace_back@PAD@?$vector@PADV?$allocator@PAD@std@@@std@@QAE?A_T$$QAPAD@Z 10024bd0 f i UnicodeSupport.obj
 0001:00023c00       ??$forward@PAD@std@@YG$$QAPADAAPAD@Z 10024c00 f i UnicodeSupport.obj
 0001:00023c10       ??$move@AAPAD@std@@YG$$QAPADAAPAD@Z 10024c10 f i UnicodeSupport.obj
 0001:00023c20       ??0?$_Uninitialized_backout_al@V?$allocator@PAD@std@@@std@@QAE@PAPADAAV?$allocator@PAD@1@@Z 10024c20 f i UnicodeSupport.obj
 0001:00023c50       ??0?$_Vector_const_iterator@V?$_Vector_val@U?$_Simple_types@PAD@std@@@std@@@std@@QAE@PAPADPBU_Container_base0@1@@Z 10024c50 f i UnicodeSupport.obj
 0001:00023c80       ??0?$_Vector_iterator@V?$_Vector_val@U?$_Simple_types@PAD@std@@@std@@@std@@QAE@PAPADPBU_Container_base0@1@@Z 10024c80 f i UnicodeSupport.obj
 0001:00023ca0       ??0?$_Vector_val@U?$_Simple_types@PAD@std@@@std@@QAE@XZ 10024ca0 f i UnicodeSupport.obj
 0001:00023cd0       ??0?$allocator@PAD@std@@QAE@XZ 10024cd0 f i UnicodeSupport.obj
 0001:00023ce0       ??0?$vector@PADV?$allocator@PAD@std@@@std@@QAE@XZ 10024ce0 f i UnicodeSupport.obj
 0001:00023d10       ??0UnicodeSupport@@QAE@H@Z 10024d10 f   UnicodeSupport.obj
 0001:00023f00       ??0UnicodeSupport@@QAE@PBDKKH@Z 10024f00 f   UnicodeSupport.obj
 0001:00024510       ??1?$_Uninitialized_backout_al@V?$allocator@PAD@std@@@std@@QAE@XZ 10025510 f i UnicodeSupport.obj
 0001:00024540       ??1?$vector@PADV?$allocator@PAD@std@@@std@@QAE@XZ 10025540 f i UnicodeSupport.obj
 0001:00024560       ??1UnicodeSupport@@QAE@XZ  10025560 f   UnicodeSupport.obj
 0001:000247a0       ??8?$_Vector_const_iterator@V?$_Vector_val@U?$_Simple_types@PAD@std@@@std@@@std@@QBE_NABV01@@Z 100257a0 f i UnicodeSupport.obj
 0001:000247e0       ??9?$_Vector_const_iterator@V?$_Vector_val@U?$_Simple_types@PAD@std@@@std@@@std@@QBE_NABV01@@Z 100257e0 f i UnicodeSupport.obj
 0001:00024820       ??D?$_Vector_const_iterator@V?$_Vector_val@U?$_Simple_types@PAD@std@@@std@@@std@@QBEABQADXZ 10025820 f i UnicodeSupport.obj
 0001:00024830       ??D?$_Vector_iterator@V?$_Vector_val@U?$_Simple_types@PAD@std@@@std@@@std@@QBEAAPADXZ 10025830 f i UnicodeSupport.obj
 0001:00024850       ??E?$_Vector_const_iterator@V?$_Vector_val@U?$_Simple_types@PAD@std@@@std@@@std@@QAEAAV01@XZ 10025850 f i UnicodeSupport.obj
 0001:00024870       ??E?$_Vector_iterator@V?$_Vector_val@U?$_Simple_types@PAD@std@@@std@@@std@@QAEAAV01@XZ 10025870 f i UnicodeSupport.obj
 0001:00024890       ?Blt@UnicodeSupport@@QAE_NPAUIDirectDrawSurface@@@Z 10025890 f   UnicodeSupport.obj
 0001:00024a70       ?Blt_BottomState0_Text@@YGHPAUtagInlineX86StackBuffer@@@Z 10025a70 f   UnicodeSupport.obj
 0001:00024b90       ?Blt_BottomState1_Text@@YGHPAUtagInlineX86StackBuffer@@@Z 10025b90 f   UnicodeSupport.obj
 0001:00024ca0       ?CopyToContextScreenMem@@YGXPAU_OFFSCREEN@@PAUtagSpecScreenSurface@@@Z 10025ca0 f   UnicodeSupport.obj
 0001:00024d20       ?CopyToSpecSurfaceMem@@YGXPAUtagSpecScreenSurface@@PAU_OFFSCREEN@@@Z 10025d20 f   UnicodeSupport.obj
 0001:00024da0       ?CreateSurfaceFromContextScreen@UnicodeSupport@@QAEPAUIDirectDrawSurface@@PAU_OFFSCREEN@@PAUIDirectDraw@@PAPAU2@@Z 10025da0 f   UnicodeSupport.obj
 0001:00024e50       ?DBSC2rdByte@@YGHPAUtagInlineX86StackBuffer@@@Z 10025e50 f   UnicodeSupport.obj
 0001:00024ee0       ?DrawALine_Ime@UnicodeSupport@@AAEXPAUHDC__@@PADPAH2@Z 10025ee0 f   UnicodeSupport.obj
 0001:00024f70       ?DrawSeparator@UnicodeSupport@@AAEHPAUHDC__@@HPAH1PAUHBRUSH__@@@Z 10025f70 f   UnicodeSupport.obj
 0001:00024fc0       ?FreeSpecScreenSurface@UnicodeSupport@@AAEXPAUtagSpecScreenSurface@@@Z 10025fc0 f   UnicodeSupport.obj
 0001:000250a0       ?GetSpecScreenSurface@UnicodeSupport@@AAEPAUtagSpecScreenSurface@@PAU_OFFSCREEN@@@Z 100260a0 f   UnicodeSupport.obj
 0001:00025170       ?GetStrExtent@@YGHPAUtagInlineX86StackBuffer@@@Z 10026170 f   UnicodeSupport.obj
 0001:000251d0       ?GetTextExtent_AssignCharLen@@YGHPAUtagInlineX86StackBuffer@@@Z 100261d0 f   UnicodeSupport.obj
 0001:00025230       ?IsIDDrawLost@UnicodeSupport@@AAEHXZ 10026230 f   UnicodeSupport.obj
 0001:00025260       ?Message@UnicodeSupport@@QAE_NPAUHWND__@@IIJ@Z 10026260 f   UnicodeSupport.obj
 0001:00025780       ?NewSpecScreenSurface@UnicodeSupport@@AAEPAUtagSpecScreenSurface@@PAU_OFFSCREEN@@@Z 10026780 f   UnicodeSupport.obj
 0001:00025870       ?PopadState@@YGHPAUtagInlineX86StackBuffer@@@Z 10026870 f   UnicodeSupport.obj
 0001:00025910       ?ReleaseCandidateList@UnicodeSupport@@AAEXXZ 10026910 f   UnicodeSupport.obj
 0001:00025990       ?RestoreLocalSurf@UnicodeSupport@@AAEXH@Z 10026990 f   UnicodeSupport.obj
 0001:00025a70       ?SendStr@UnicodeSupport@@AAEXPAD@Z 10026a70 f   UnicodeSupport.obj
 0001:00025ac0       ?Set@UnicodeSupport@@QAEXH@Z 10026ac0 f   UnicodeSupport.obj
 0001:00025ae0       ?SetHDCFont@UnicodeSupport@@AAEXPAUHDC__@@PAUHFONT__@@@Z 10026ae0 f   UnicodeSupport.obj
 0001:00025b20       ?USDrawTextInScreen_HookRouter@@YGHPAUtagInlineX86StackBuffer@@@Z 10026b20 f   UnicodeSupport.obj
 0001:00025c40       ?UnicodeDrawTextA@UnicodeSupport@@QAEHPAU_OFFSCREEN@@PADPAUIDirectDraw@@HH@Z 10026c40 f   UnicodeSupport.obj
 0001:00025f10       ?UpdateImeFrame@UnicodeSupport@@AAE_NXZ 10026f10 f   UnicodeSupport.obj
 0001:00026210       ?UpdateImeInput@UnicodeSupport@@AAE_NXZ 10027210 f   UnicodeSupport.obj
 0001:00026440       ?_Calculate_growth@?$vector@PADV?$allocator@PAD@std@@@std@@ABEII@Z 10027440 f i UnicodeSupport.obj
 0001:000264a0       ?_Change_array@?$vector@PADV?$allocator@PAD@std@@@std@@AAEXQAPADII@Z 100274a0 f i UnicodeSupport.obj
 0001:00026540       ?_Compat@?$_Vector_const_iterator@V?$_Vector_val@U?$_Simple_types@PAD@std@@@std@@@std@@QBEXABV12@@Z 10027540 f i UnicodeSupport.obj
 0001:00026550       ?_Get_first@?$_Compressed_pair@V?$allocator@PAD@std@@V?$_Vector_val@U?$_Simple_types@PAD@std@@@2@$00@std@@QAEAAV?$allocator@PAD@2@XZ 10027550 f i UnicodeSupport.obj
 0001:00026560       ?_Get_first@?$_Compressed_pair@V?$allocator@PAD@std@@V?$_Vector_val@U?$_Simple_types@PAD@std@@@2@$00@std@@QBEABV?$allocator@PAD@2@XZ 10027560 f i UnicodeSupport.obj
 0001:00026570       ?_Getal@?$vector@PADV?$allocator@PAD@std@@@std@@AAEAAV?$allocator@PAD@2@XZ 10027570 f i UnicodeSupport.obj
 0001:00026590       ?_Getal@?$vector@PADV?$allocator@PAD@std@@@std@@ABEABV?$allocator@PAD@2@XZ 10027590 f i UnicodeSupport.obj
 0001:000265b0       ?_Orphan_range@?$vector@PADV?$allocator@PAD@std@@@std@@ABEXPAPAD0@Z 100275b0 f i UnicodeSupport.obj
 0001:000265c0       ?_Release@?$_Uninitialized_backout_al@V?$allocator@PAD@std@@@std@@QAEPAPADXZ 100275c0 f i UnicodeSupport.obj
 0001:000265e0       ?_Tidy@?$vector@PADV?$allocator@PAD@std@@@std@@AAEXXZ 100275e0 f i UnicodeSupport.obj
 0001:000266a0       ?_Xlength@?$vector@PADV?$allocator@PAD@std@@@std@@CGXXZ 100276a0 f i UnicodeSupport.obj
 0001:000266b0       ?allocate@?$allocator@PAD@std@@QAEPAPADI@Z 100276b0 f i UnicodeSupport.obj
 0001:000266d0       ?back@?$vector@PADV?$allocator@PAD@std@@@std@@QAEAAPADXZ 100276d0 f i UnicodeSupport.obj
 0001:00026700       ?begin@?$vector@PADV?$allocator@PAD@std@@@std@@QAE?AV?$_Vector_iterator@V?$_Vector_val@U?$_Simple_types@PAD@std@@@std@@@2@XZ 10027700 f i UnicodeSupport.obj
 0001:00026730       ?capacity@?$vector@PADV?$allocator@PAD@std@@@std@@QBEIXZ 10027730 f i UnicodeSupport.obj
 0001:00026760       ?deallocate@?$allocator@PAD@std@@QAEXQAPADI@Z 10027760 f i UnicodeSupport.obj
 0001:00026780       ?empty@?$vector@PADV?$allocator@PAD@std@@@std@@QBE_NXZ 10027780 f i UnicodeSupport.obj
 0001:000267c0       ?end@?$vector@PADV?$allocator@PAD@std@@@std@@QAE?AV?$_Vector_iterator@V?$_Vector_val@U?$_Simple_types@PAD@std@@@std@@@2@XZ 100277c0 f i UnicodeSupport.obj
 0001:00026800       ?freelpImeSurface@UnicodeSupport@@AAEXXZ 10027800 f   UnicodeSupport.obj
 0001:00026880       ?max_size@?$_Default_allocator_traits@V?$allocator@PAD@std@@@std@@SGIABV?$allocator@PAD@2@@Z 10027880 f i UnicodeSupport.obj
 0001:00026890       ?max_size@?$vector@PADV?$allocator@PAD@std@@@std@@QBEIXZ 10027890 f i UnicodeSupport.obj
 0001:000268d0       ?myDeleteChar@@YGHPAUtagInlineX86StackBuffer@@@Z 100278d0 f   UnicodeSupport.obj
 0001:000269a0       ?myValidChar@@YGHPAUtagInlineX86StackBuffer@@@Z 100279a0 f   UnicodeSupport.obj
 0001:00026af0       ?pop_back@?$vector@PADV?$allocator@PAD@std@@@std@@QAEXXZ 10027af0 f i UnicodeSupport.obj
 0001:00026b80       ?push_back@?$vector@PADV?$allocator@PAD@std@@@std@@QAEX$$QAPAD@Z 10027b80 f i UnicodeSupport.obj
 0001:00026cb0       ??0IncreaseAISearchMapEntriesLimit@@QAE@K@Z 10027cb0 f   LimitCrack.obj
 0001:00026d50       ??0IncreaseAISearchMapEntriesLimit@@QAE@XZ 10027d50 f   LimitCrack.obj
 0001:00026de0       ??0IncreaseCompositeBuf@@QAE@KK@Z 10027de0 f   LimitCrack.obj
 0001:00026e00       ??0IncreaseCompositeBuf@@QAE@XZ 10027e00 f   LimitCrack.obj
 0001:00026e20       ??0IncreaseSfxLimit@@QAE@K@Z 10027e20 f   LimitCrack.obj
 0001:00026e50       ??0IncreaseSfxLimit@@QAE@XZ 10027e50 f   LimitCrack.obj
 0001:00026e70       ??0IncreaseUnitTypeLimit@@QAE@H@Z 10027e70 f   LimitCrack.obj
 0001:00026e90       ??0IncreaseUnitTypeLimit@@QAE@XZ 10027e90 f   LimitCrack.obj
 0001:00026eb0       ??0IncreaseWeaponTypeLimit@@QAE@K@Z 10027eb0 f   LimitCrack.obj
 0001:00026ed0       ??0IncreaseWeaponTypeLimit@@QAE@XZ 10027ed0 f   LimitCrack.obj
 0001:00026ef0       ??0LimitCrack@@QAE@XZ      10027ef0 f   LimitCrack.obj
 0001:000270e0       ??0UnitLimit@@QAE@K@Z      100280e0 f   LimitCrack.obj
 0001:00027130       ??0UnitLimit@@QAE@XZ       10028130 f   LimitCrack.obj
 0001:00027170       ??1IncreaseAISearchMapEntriesLimit@@QAE@XZ 10028170 f   LimitCrack.obj
 0001:000271b0       ??1IncreaseCompositeBuf@@QAE@XZ 100281b0 f   LimitCrack.obj
 0001:000271f0       ??1IncreaseSfxLimit@@QAE@XZ 100281f0 f   LimitCrack.obj
 0001:00027280       ??1IncreaseUnitTypeLimit@@QAE@XZ 10028280 f   LimitCrack.obj
 0001:00027490       ??1IncreaseWeaponTypeLimit@@QAE@XZ 10028490 f   LimitCrack.obj
 0001:00027620       ??1LimitCrack@@QAE@XZ      10028620 f   LimitCrack.obj
 0001:00027730       ??1UnitLimit@@QAE@XZ       10028730 f   LimitCrack.obj
 0001:00027820       ??_GExternHotKey@@QAEPAXI@Z 10028820 f i LimitCrack.obj
 0001:00027860       ??_GIncreaseAISearchMapEntriesLimit@@QAEPAXI@Z 10028860 f i LimitCrack.obj
 0001:00027890       ??_GIncreaseCompositeBuf@@QAEPAXI@Z 10028890 f i LimitCrack.obj
 0001:000278c0       ??_GIncreaseSfxLimit@@QAEPAXI@Z 100288c0 f i LimitCrack.obj
 0001:000278f0       ??_GIncreaseUnitTypeLimit@@QAEPAXI@Z 100288f0 f i LimitCrack.obj
 0001:00027920       ??_GIncreaseWeaponTypeLimit@@QAEPAXI@Z 10028920 f i LimitCrack.obj
 0001:00027960       ??_GModifyWeaponPacket@@QAEPAXI@Z 10028960 f i LimitCrack.obj
 0001:00027990       ?NewLimit@IncreaseWeaponTypeLimit@@AAEXK@Z 10028990 f   LimitCrack.obj
 0001:00027b00       ?NewUnitLimit@UnitLimit@@AAEXK@Z 10028b00 f   LimitCrack.obj
 0001:00027c90       ?SetNewLimit@IncreaseSfxLimit@@AAEXKK@Z 10028c90 f   LimitCrack.obj
 0001:00027dd0       ?Sfx_mallocBufSizeRouter@@YGHPAUtagInlineX86StackBuffer@@@Z 10028dd0 f   LimitCrack.obj
 0001:00027df0       ?WeaponType_IdLimit@IncreaseWeaponTypeLimit@@AAEXXZ 10028df0 f   LimitCrack.obj
 0001:00027f10       ?WriteNewLimit@IncreaseCompositeBuf@@AAEXKK@Z 10028f10 f   LimitCrack.obj
 0001:00027ff0       ?WriteNewLimit@IncreaseUnitTypeLimit@@AAEXK@Z 10028ff0 f   LimitCrack.obj
 0001:00028760       ?WriteWeaponAryLen@IncreaseWeaponTypeLimit@@AAEKK@Z 10029760 f   LimitCrack.obj
 0001:00028820       ?WriteWeaponAryPtr@IncreaseWeaponTypeLimit@@AAEPAXPAPAX@Z 10029820 f   LimitCrack.obj
 0001:00028980       ??0UnitsMinimap@@QAE@PAVFullScreenMinimap@@HHHHHHHHHHHHHHHHPAH@Z 10029980 f   UnitMinimap.obj
 0001:000289f0       ??0UnitsMinimap@@QAE@PAVFullScreenMinimap@@HHHHHHHHHHHHHHPAH@Z 100299f0 f   UnitMinimap.obj
 0001:00028a60       ??1UnitsMinimap@@QAE@XZ    10029a60 f   UnitMinimap.obj
 0001:00028ab0       ??_GUnitIcon@@QAEPAXI@Z    10029ab0 f i UnitMinimap.obj
 0001:00028ae0       ?DrawUnit@UnitsMinimap@@AAEXPAEPAUtagPOINT@@PAUUnitStruct@@@Z 10029ae0 f   UnitMinimap.obj
 0001:00029470       ?FreeUnitPicture@UnitsMinimap@@QAEXXZ 1002a470 f   UnitMinimap.obj
 0001:00029770       ?GetSurface@UnitsMinimap@@QAEPAEXZ 1002a770 f   UnitMinimap.obj
 0001:00029780       ?GetTransparentColor@UnitsMinimap@@QAEHXZ 1002a780 f   UnitMinimap.obj
 0001:000297a0       ?Init@UnitsMinimap@@QAEXHHHHHHHHHHHHHHPAH@Z 1002a7a0 f   UnitMinimap.obj
 0001:00029b90       ?InitHoverPicturePlayerColors@UnitsMinimap@@AAEXHHHHPAPAPAE@Z 1002ab90 f   UnitMinimap.obj
 0001:00029d40       ?InitPicturePlayerColors@UnitsMinimap@@AAEXHHPAPAPAE@Z 1002ad40 f   UnitMinimap.obj
 0001:00029ee0       ?InitSurface@UnitsMinimap@@QAEPAEPAUIDirectDraw@@H@Z 1002aee0 f   UnitMinimap.obj
 0001:00029fc0       ?InitUnSelectedPicturePlayerColors@UnitsMinimap@@AAEXHHHHPAPAPAE@Z 1002afc0 f   UnitMinimap.obj
 0001:0002a170       ?LoadUnitPicture@UnitsMinimap@@QAEXXZ 1002b170 f   UnitMinimap.obj
 0001:0002b340       ?LockOn@UnitsMinimap@@QAEPAEPAPAEPAUtagPOINT@@@Z 1002c340 f   UnitMinimap.obj
 0001:0002b380       ?NowDrawUnits@UnitsMinimap@@QAEXPAEPAUtagPOINT@@@Z 1002c380 f   UnitMinimap.obj
 0001:0002b4d0       ?NukePicture@UnitsMinimap@@QAEPAEHPAPAEPAUtagPOINT@@@Z 1002c4d0 f   UnitMinimap.obj
 0001:0002b5c0       ?ReSet@UnitsMinimap@@QAEXHH@Z 1002c5c0 f   UnitMinimap.obj
 0001:0002b610       ?ReleaseSurface@UnitsMinimap@@QAEXXZ 1002c610 f   UnitMinimap.obj
 0001:0002b640       ?UnitPicture@UnitsMinimap@@QAEPAEPAUUnitStruct@@HPAPAEPAUtagPOINT@@@Z 1002c640 f   UnitMinimap.obj
 0001:0002be80       ?Unlock@UnitsMinimap@@QAEXPAE@Z 1002ce80 f   UnitMinimap.obj
 0001:0002be90       ??0CUnitRotate@@QAE@XZ     1002ce90 f   unitrotate.obj
 0001:0002beb0       ??1CUnitRotate@@QAE@XZ     1002ceb0 f   unitrotate.obj
 0001:0002bec0       ?Message@CUnitRotate@@QAE_NPAUHWND__@@IIJ@Z 1002cec0 f   unitrotate.obj
 0001:0002bf10       ?Rotate@CUnitRotate@@AAEXXZ 1002cf10 f   unitrotate.obj
 0001:0002c120       ?SetMem@CUnitRotate@@AAEXXZ 1002d120 f   unitrotate.obj
 0001:0002c180       ??$?0$$V@?$_Compressed_pair@V?$allocator@PAVGraphicElement@@@std@@V?$_Deque_val@U?$_Deque_simple_types@PAVGraphicElement@@@std@@@2@$00@std@@QAE@U_Zero_then_variadic_args_t@1@@Z 1002d180 f i whiteboard.obj
 0001:0002c1a0       ??$?0$$V@?$_Compressed_pair@V?$allocator@PAVGraphicElement@@@std@@V?$_Vector_val@U?$_Simple_types@PAVGraphicElement@@@std@@@2@$00@std@@QAE@U_Zero_then_variadic_args_t@1@@Z 1002d1a0 f i whiteboard.obj
 0001:0002c1c0       ??$?0$$V@?$_Compressed_pair@V?$allocator@UMMHS@AlliesWhiteboard@@@std@@V?$_Deque_val@U?$_Deque_simple_types@UMMHS@AlliesWhiteboard@@@std@@@2@$00@std@@QAE@U_Zero_then_variadic_args_t@1@@Z 1002d1c0 f i whiteboard.obj
 0001:0002c1e0       ??$?0PAVGraphicElement@@@?$allocator@PAPAVGraphicElement@@@std@@QAE@ABV?$allocator@PAVGraphicElement@@@1@@Z 1002d1e0 f i whiteboard.obj
 0001:0002c1f0       ??$?0PAVGraphicElement@@@?$allocator@U_Container_proxy@std@@@std@@QAE@ABV?$allocator@PAVGraphicElement@@@1@@Z 1002d1f0 f i whiteboard.obj
 0001:0002c200       ??$?0UMMHS@AlliesWhiteboard@@@?$allocator@PAUMMHS@AlliesWhiteboard@@@std@@QAE@ABV?$allocator@UMMHS@AlliesWhiteboard@@@1@@Z 1002d200 f i whiteboard.obj
 0001:0002c210       ??$?0UMMHS@AlliesWhiteboard@@@?$allocator@U_Container_proxy@std@@@std@@QAE@ABV?$allocator@UMMHS@AlliesWhiteboard@@@1@@Z 1002d210 f i whiteboard.obj
 0001:0002c220       ??$_Adl_verify_range@PAPAPAVGraphicElement@@PAPAPAV1@@std@@YGXABQAPAPAVGraphicElement@@0@Z 1002d220 f i whiteboard.obj
 0001:0002c230       ??$_Adl_verify_range@PAPAUMMHS@AlliesWhiteboard@@PAPAU12@@std@@YGXABQAPAUMMHS@AlliesWhiteboard@@0@Z 1002d230 f i whiteboard.obj
 0001:0002c240       ??$_Construct_in_place@PAPAVGraphicElement@@AAPAPAV1@@std@@YGXAAPAPAVGraphicElement@@0@Z 1002d240 f i whiteboard.obj
 0001:0002c280       ??$_Construct_in_place@PAUMMHS@AlliesWhiteboard@@AAPAU12@@std@@YGXAAPAUMMHS@AlliesWhiteboard@@0@Z 1002d280 f i whiteboard.obj
 0001:0002c2c0       ??$_Copy_memmove@PAPAPAVGraphicElement@@PAPAPAV1@@std@@YGPAPAPAVGraphicElement@@PAPAPAV1@00@Z 1002d2c0 f i whiteboard.obj
 0001:0002c330       ??$_Copy_memmove@PAPAUMMHS@AlliesWhiteboard@@PAPAU12@@std@@YGPAPAUMMHS@AlliesWhiteboard@@PAPAU12@00@Z 1002d330 f i whiteboard.obj
 0001:0002c3a0       ??$_Destroy_in_place@PAPAVGraphicElement@@@std@@YGXAAPAPAVGraphicElement@@@Z 1002d3a0 f i whiteboard.obj
 0001:0002c3b0       ??$_Destroy_in_place@PAUMMHS@AlliesWhiteboard@@@std@@YGXAAPAUMMHS@AlliesWhiteboard@@@Z 1002d3b0 f i whiteboard.obj
 0001:0002c3c0       ??$_Destroy_range@PAPAPAVGraphicElement@@PAPAPAV1@@std@@YGXPAPAPAVGraphicElement@@QAPAPAV1@@Z 1002d3c0 f i whiteboard.obj
 0001:0002c3d0       ??$_Destroy_range@PAPAUMMHS@AlliesWhiteboard@@PAPAU12@@std@@YGXPAPAUMMHS@AlliesWhiteboard@@QAPAU12@@Z 1002d3d0 f i whiteboard.obj
 0001:0002c3e0       ??$_Destroy_range@V?$allocator@PAVGraphicElement@@@std@@@std@@YGXPAPAVGraphicElement@@QAPAV1@AAV?$allocator@PAVGraphicElement@@@0@@Z 1002d3e0 f i whiteboard.obj
 0001:0002c3f0       ??$_Emplace_back@AAPAPAVGraphicElement@@@?$_Uninitialized_backout@PAPAPAVGraphicElement@@@std@@QAEXAAPAPAVGraphicElement@@@Z 1002d3f0 f i whiteboard.obj
 0001:0002c430       ??$_Emplace_back@AAPAUMMHS@AlliesWhiteboard@@@?$_Uninitialized_backout@PAPAUMMHS@AlliesWhiteboard@@@std@@QAEXAAPAUMMHS@AlliesWhiteboard@@@Z 1002d430 f i whiteboard.obj
 0001:0002c470       ??$_Emplace_back_internal@PAVGraphicElement@@@?$deque@PAVGraphicElement@@V?$allocator@PAVGraphicElement@@@std@@@std@@AAEX$$QAPAVGraphicElement@@@Z 1002d470 f i whiteboard.obj
 0001:0002c5b0       ??$_Get_unwrapped@ABQAPAPAVGraphicElement@@@std@@YG?A_TABQAPAPAVGraphicElement@@@Z 1002d5b0 f i whiteboard.obj
 0001:0002c5c0       ??$_Get_unwrapped@ABQAPAUMMHS@AlliesWhiteboard@@@std@@YG?A_TABQAPAUMMHS@AlliesWhiteboard@@@Z 1002d5c0 f i whiteboard.obj
 0001:0002c5d0       ??$_Get_unwrapped_n@AAPAPAPAVGraphicElement@@H@std@@YG?A_TAAPAPAPAVGraphicElement@@H@Z 1002d5d0 f i whiteboard.obj
 0001:0002c5e0       ??$_Get_unwrapped_n@AAPAPAUMMHS@AlliesWhiteboard@@H@std@@YG?A_TAAPAPAUMMHS@AlliesWhiteboard@@H@Z 1002d5e0 f i whiteboard.obj
 0001:0002c5f0       ??$_Idl_distance@PAPAPAVGraphicElement@@PAPAPAV1@@std@@YG?A_PABQAPAPAVGraphicElement@@0@Z 1002d5f0 f i whiteboard.obj
 0001:0002c610       ??$_Idl_distance@PAPAUMMHS@AlliesWhiteboard@@PAPAU12@@std@@YG?A_PABQAPAUMMHS@AlliesWhiteboard@@0@Z 1002d610 f i whiteboard.obj
 0001:0002c630       ??$_Pocma@V?$allocator@PAVGraphicElement@@@std@@@std@@YGXAAV?$allocator@PAVGraphicElement@@@0@0@Z 1002d630 f i whiteboard.obj
 0001:0002c640       ??$_Prev_iter@V?$_Deque_unchecked_iterator@V?$_Deque_val@U?$_Deque_simple_types@UMMHS@AlliesWhiteboard@@@std@@@std@@@std@@@std@@YG?AV?$_Deque_unchecked_iterator@V?$_Deque_val@U?$_Deque_simple_types@UMMHS@AlliesWhiteboard@@@std@@@std@@@0@V10@@Z 1002d640 f i whiteboard.obj
 0001:0002c660       ??$_Seek_wrapped@PAPAPAVGraphicElement@@PAPAPAV1@@std@@YGXAAPAPAPAVGraphicElement@@$$QAPAPAPAV1@@Z 1002d660 f i whiteboard.obj
 0001:0002c680       ??$_Seek_wrapped@PAPAUMMHS@AlliesWhiteboard@@PAPAU12@@std@@YGXAAPAPAUMMHS@AlliesWhiteboard@@$$QAPAPAU12@@Z 1002d680 f i whiteboard.obj
 0001:0002c6a0       ??$_To_address@PAPAPAVGraphicElement@@@std@@YG?A_PABQAPAPAVGraphicElement@@@Z 1002d6a0 f i whiteboard.obj
 0001:0002c6b0       ??$_To_address@PAPAUMMHS@AlliesWhiteboard@@@std@@YG?A_PABQAPAUMMHS@AlliesWhiteboard@@@Z 1002d6b0 f i whiteboard.obj
 0001:0002c6c0       ??$_Unfancy@PAVGraphicElement@@@std@@YGPAPAVGraphicElement@@PAPAV1@@Z 1002d6c0 f i whiteboard.obj
 0001:0002c6d0       ??$_Unfancy@UMMHS@AlliesWhiteboard@@@std@@YGPAUMMHS@AlliesWhiteboard@@PAU12@@Z 1002d6d0 f i whiteboard.obj
 0001:0002c6e0       ??$_Uninitialized_copy_unchecked@PAPAPAVGraphicElement@@PAPAPAV1@@std@@YGPAPAPAVGraphicElement@@PAPAPAV1@QAPAPAV1@0@Z 1002d6e0 f i whiteboard.obj
 0001:0002c770       ??$_Uninitialized_copy_unchecked@PAPAUMMHS@AlliesWhiteboard@@PAPAU12@@std@@YGPAPAUMMHS@AlliesWhiteboard@@PAPAU12@QAPAU12@0@Z 1002d770 f i whiteboard.obj
 0001:0002c800       ??$_Uninitialized_value_construct_n_unchecked1@PAPAPAVGraphicElement@@I@std@@YGPAPAPAVGraphicElement@@PAPAPAV1@I@Z 1002d800 f i whiteboard.obj
 0001:0002c820       ??$_Uninitialized_value_construct_n_unchecked1@PAPAUMMHS@AlliesWhiteboard@@I@std@@YGPAPAUMMHS@AlliesWhiteboard@@PAPAU12@I@Z 1002d820 f i whiteboard.obj
 0001:0002c840       ??$_Voidify_iter@PAPAPAVGraphicElement@@@std@@YGPAXPAPAPAVGraphicElement@@@Z 1002d840 f i whiteboard.obj
 0001:0002c850       ??$_Voidify_iter@PAPAUMMHS@AlliesWhiteboard@@@std@@YGPAXPAPAUMMHS@AlliesWhiteboard@@@Z 1002d850 f i whiteboard.obj
 0001:0002c860       ??$_Voidify_iter@PAPAVGraphicElement@@@std@@YGPAXPAPAVGraphicElement@@@Z 1002d860 f i whiteboard.obj
 0001:0002c870       ??$_Voidify_iter@PAUMMHS@AlliesWhiteboard@@@std@@YGPAXPAUMMHS@AlliesWhiteboard@@@Z 1002d870 f i whiteboard.obj
 0001:0002c880       ??$_Zero_range@PAPAPAVGraphicElement@@@std@@YGPAPAPAVGraphicElement@@QAPAPAV1@0@Z 1002d880 f i whiteboard.obj
 0001:0002c8c0       ??$_Zero_range@PAPAUMMHS@AlliesWhiteboard@@@std@@YGPAPAUMMHS@AlliesWhiteboard@@QAPAU12@0@Z 1002d8c0 f i whiteboard.obj
 0001:0002c900       ??$addressof@PAPAVGraphicElement@@@std@@YGPAPAPAVGraphicElement@@AAPAPAV1@@Z 1002d900 f i whiteboard.obj
 0001:0002c910       ??$addressof@PAUMMHS@AlliesWhiteboard@@@std@@YGPAPAUMMHS@AlliesWhiteboard@@AAPAU12@@Z 1002d910 f i whiteboard.obj
 0001:0002c920       ??$addressof@V?$_Deque_val@U?$_Deque_simple_types@PAVGraphicElement@@@std@@@std@@@std@@YGPAV?$_Deque_val@U?$_Deque_simple_types@PAVGraphicElement@@@std@@@0@AAV10@@Z 1002d920 f i whiteboard.obj
 0001:0002c930       ??$addressof@V?$_Deque_val@U?$_Deque_simple_types@UMMHS@AlliesWhiteboard@@@std@@@std@@@std@@YGPAV?$_Deque_val@U?$_Deque_simple_types@UMMHS@AlliesWhiteboard@@@std@@@0@AAV10@@Z 1002d930 f i whiteboard.obj
 0001:0002c940       ??$addressof@V?$vector@PAVGraphicElement@@V?$allocator@PAVGraphicElement@@@std@@@std@@@std@@YGPAV?$vector@PAVGraphicElement@@V?$allocator@PAVGraphicElement@@@std@@@0@AAV10@@Z 1002d940 f i whiteboard.obj
 0001:0002c950       ??$construct@PAVGraphicElement@@PAV1@@?$_Default_allocator_traits@V?$allocator@PAVGraphicElement@@@std@@@std@@SGXAAV?$allocator@PAVGraphicElement@@@1@QAPAVGraphicElement@@$$QAPAV3@@Z 1002d950 f i whiteboard.obj
 0001:0002c990       ??$construct@UMMHS@AlliesWhiteboard@@ABU12@@?$_Default_allocator_traits@V?$allocator@UMMHS@AlliesWhiteboard@@@std@@@std@@SGXAAV?$allocator@UMMHS@AlliesWhiteboard@@@1@QAUMMHS@AlliesWhiteboard@@ABU34@@Z 1002d990 f i whiteboard.obj
 0001:0002c9d0       ??$destroy@PAVGraphicElement@@@?$_Default_allocator_traits@V?$allocator@PAVGraphicElement@@@std@@@std@@SGXAAV?$allocator@PAVGraphicElement@@@1@QAPAVGraphicElement@@@Z 1002d9d0 f i whiteboard.obj
 0001:0002c9e0       ??$destroy@UMMHS@AlliesWhiteboard@@@?$_Default_allocator_traits@V?$allocator@UMMHS@AlliesWhiteboard@@@std@@@std@@SGXAAV?$allocator@UMMHS@AlliesWhiteboard@@@1@QAUMMHS@AlliesWhiteboard@@@Z 1002d9e0 f i whiteboard.obj
 0001:0002c9f0       ??$emplace_front@ABUMMHS@AlliesWhiteboard@@@?$deque@UMMHS@AlliesWhiteboard@@V?$allocator@UMMHS@AlliesWhiteboard@@@std@@@std@@QAE?A_TABUMMHS@AlliesWhiteboard@@@Z 1002d9f0 f i whiteboard.obj
 0001:0002cb50       ??$forward@AAPAPAVGraphicElement@@@std@@YGAAPAPAVGraphicElement@@AAPAPAV1@@Z 1002db50 f i whiteboard.obj
 0001:0002cb60       ??$forward@AAPAUMMHS@AlliesWhiteboard@@@std@@YGAAPAUMMHS@AlliesWhiteboard@@AAPAU12@@Z 1002db60 f i whiteboard.obj
 0001:0002cb70       ??$forward@ABUMMHS@AlliesWhiteboard@@@std@@YGABUMMHS@AlliesWhiteboard@@ABU12@@Z 1002db70 f i whiteboard.obj
 0001:0002cb80       ??$forward@PAPAPAVGraphicElement@@@std@@YG$$QAPAPAPAVGraphicElement@@AAPAPAPAV1@@Z 1002db80 f i whiteboard.obj
 0001:0002cb90       ??$forward@PAPAUMMHS@AlliesWhiteboard@@@std@@YG$$QAPAPAUMMHS@AlliesWhiteboard@@AAPAPAU12@@Z 1002db90 f i whiteboard.obj
 0001:0002cba0       ??$forward@PAVGraphicElement@@@std@@YG$$QAPAVGraphicElement@@AAPAV1@@Z 1002dba0 f i whiteboard.obj
 0001:0002cbb0       ??$move@AAPAVGraphicElement@@@std@@YG$$QAPAVGraphicElement@@AAPAV1@@Z 1002dbb0 f i whiteboard.obj
 0001:0002cbc0       ??$move@AAV?$allocator@PAVGraphicElement@@@std@@@std@@YG$$QAV?$allocator@PAVGraphicElement@@@0@AAV10@@Z 1002dbc0 f i whiteboard.obj
 0001:0002cbd0       ??$uninitialized_copy@PAPAPAVGraphicElement@@PAPAPAV1@@std@@YGPAPAPAVGraphicElement@@QAPAPAV1@0PAPAPAV1@@Z 1002dbd0 f i whiteboard.obj
 0001:0002cc40       ??$uninitialized_copy@PAPAUMMHS@AlliesWhiteboard@@PAPAU12@@std@@YGPAPAUMMHS@AlliesWhiteboard@@QAPAU12@0PAPAU12@@Z 1002dc40 f i whiteboard.obj
 0001:0002ccb0       ??0?$_Deque_unchecked_const_iterator@V?$_Deque_val@U?$_Deque_simple_types@PAVGraphicElement@@@std@@@std@@@std@@QAE@IPBU_Container_base12@1@@Z 1002dcb0 f i whiteboard.obj
 0001:0002cce0       ??0?$_Deque_unchecked_const_iterator@V?$_Deque_val@U?$_Deque_simple_types@UMMHS@AlliesWhiteboard@@@std@@@std@@@std@@QAE@IPBU_Container_base12@1@@Z 1002dce0 f i whiteboard.obj
 0001:0002cd10       ??0?$_Deque_unchecked_iterator@V?$_Deque_val@U?$_Deque_simple_types@PAVGraphicElement@@@std@@@std@@@std@@QAE@IPBU_Container_base12@1@@Z 1002dd10 f i whiteboard.obj
 0001:0002cd30       ??0?$_Deque_unchecked_iterator@V?$_Deque_val@U?$_Deque_simple_types@UMMHS@AlliesWhiteboard@@@std@@@std@@@std@@QAE@IPBU_Container_base12@1@@Z 1002dd30 f i whiteboard.obj
 0001:0002cd50       ??0?$_Deque_val@U?$_Deque_simple_types@PAVGraphicElement@@@std@@@std@@QAE@XZ 1002dd50 f i whiteboard.obj
 0001:0002cd90       ??0?$_Deque_val@U?$_Deque_simple_types@UMMHS@AlliesWhiteboard@@@std@@@std@@QAE@XZ 1002dd90 f i whiteboard.obj
 0001:0002cdd0       ??0?$_Uninitialized_backout@PAPAPAVGraphicElement@@@std@@QAE@PAPAPAVGraphicElement@@@Z 1002ddd0 f i whiteboard.obj
 0001:0002ce00       ??0?$_Uninitialized_backout@PAPAUMMHS@AlliesWhiteboard@@@std@@QAE@PAPAUMMHS@AlliesWhiteboard@@@Z 1002de00 f i whiteboard.obj
 0001:0002ce30       ??0?$_Vector_val@U?$_Simple_types@PAVGraphicElement@@@std@@@std@@QAE@XZ 1002de30 f i whiteboard.obj
 0001:0002ce60       ??0?$allocator@PAVGraphicElement@@@std@@QAE@XZ 1002de60 f i whiteboard.obj
 0001:0002ce70       ??0?$allocator@UMMHS@AlliesWhiteboard@@@std@@QAE@XZ 1002de70 f i whiteboard.obj
 0001:0002ce80       ??0?$deque@PAVGraphicElement@@V?$allocator@PAVGraphicElement@@@std@@@std@@QAE@XZ 1002de80 f i whiteboard.obj
 0001:0002cec0       ??0?$deque@UMMHS@AlliesWhiteboard@@V?$allocator@UMMHS@AlliesWhiteboard@@@std@@@std@@QAE@XZ 1002dec0 f i whiteboard.obj
 0001:0002cf00       ??0?$vector@PAVGraphicElement@@V?$allocator@PAVGraphicElement@@@std@@@std@@QAE@XZ 1002df00 f i whiteboard.obj
 0001:0002cf30       ??0AlliesWhiteboard@@QAE@H@Z 1002df30 f   whiteboard.obj
 0001:0002d410       ??0DeleteGraphic@@QAE@HHD@Z 1002e410 f i whiteboard.obj
 0001:0002d440       ??0GraphicElement@@QAE@HHHD@Z 1002e440 f i whiteboard.obj
 0001:0002d480       ??0GraphicLine@@QAE@HHHHD@Z 1002e480 f i whiteboard.obj
 0001:0002d4d0       ??0GraphicText@@QAE@HHPADD@Z 1002e4d0 f i whiteboard.obj
 0001:0002d570       ??0GraphicTextEdited@@QAE@HHPADD@Z 1002e570 f i whiteboard.obj
 0001:0002d610       ??1?$_Uninitialized_backout@PAPAPAVGraphicElement@@@std@@QAE@XZ 1002e610 f i whiteboard.obj
 0001:0002d630       ??1?$_Uninitialized_backout@PAPAUMMHS@AlliesWhiteboard@@@std@@QAE@XZ 1002e630 f i whiteboard.obj
 0001:0002d650       ??1?$deque@PAVGraphicElement@@V?$allocator@PAVGraphicElement@@@std@@@std@@QAE@XZ 1002e650 f i whiteboard.obj
 0001:0002d6a0       ??1?$deque@UMMHS@AlliesWhiteboard@@V?$allocator@UMMHS@AlliesWhiteboard@@@std@@@std@@QAE@XZ 1002e6a0 f i whiteboard.obj
 0001:0002d6f0       ??1?$vector@PAVGraphicElement@@V?$allocator@PAVGraphicElement@@@std@@@std@@QAE@XZ 1002e6f0 f i whiteboard.obj
 0001:0002d710       ??1AlliesWhiteboard@@QAE@XZ 1002e710 f   whiteboard.obj
 0001:0002d7d0       ??1DeleteGraphic@@UAE@XZ   1002e7d0 f i whiteboard.obj
 0001:0002d7f0       ??1GraphicElement@@UAE@XZ  1002e7f0 f i whiteboard.obj
 0001:0002d810       ??1GraphicLine@@UAE@XZ     1002e810 f i whiteboard.obj
 0001:0002d830       ??1GraphicText@@UAE@XZ     1002e830 f i whiteboard.obj
 0001:0002d870       ??1GraphicTextEdited@@UAE@XZ 1002e870 f i whiteboard.obj
 0001:0002d8b0       ??4?$vector@PAVGraphicElement@@V?$allocator@PAVGraphicElement@@@std@@@std@@QAEAAV01@$$QAV01@@Z 1002e8b0 f i whiteboard.obj
 0001:0002d920       ??A?$deque@UMMHS@AlliesWhiteboard@@V?$allocator@UMMHS@AlliesWhiteboard@@@std@@@std@@QAEAAUMMHS@AlliesWhiteboard@@I@Z 1002e920 f i whiteboard.obj
 0001:0002d960       ??A?$vector@PAVGraphicElement@@V?$allocator@PAVGraphicElement@@@std@@@std@@QAEAAPAVGraphicElement@@I@Z 1002e960 f i whiteboard.obj
 0001:0002d980       ??D?$_Deque_unchecked_const_iterator@V?$_Deque_val@U?$_Deque_simple_types@PAVGraphicElement@@@std@@@std@@@std@@QBEABQAVGraphicElement@@XZ 1002e980 f i whiteboard.obj
 0001:0002d9d0       ??D?$_Deque_unchecked_const_iterator@V?$_Deque_val@U?$_Deque_simple_types@UMMHS@AlliesWhiteboard@@@std@@@std@@@std@@QBEABUMMHS@AlliesWhiteboard@@XZ 1002e9d0 f i whiteboard.obj
 0001:0002da20       ??D?$_Deque_unchecked_iterator@V?$_Deque_val@U?$_Deque_simple_types@PAVGraphicElement@@@std@@@std@@@std@@QBEAAPAVGraphicElement@@XZ 1002ea20 f i whiteboard.obj
 0001:0002da40       ??D?$_Deque_unchecked_iterator@V?$_Deque_val@U?$_Deque_simple_types@UMMHS@AlliesWhiteboard@@@std@@@std@@@std@@QBEAAUMMHS@AlliesWhiteboard@@XZ 1002ea40 f i whiteboard.obj
 0001:0002da60       ??F?$_Deque_unchecked_const_iterator@V?$_Deque_val@U?$_Deque_simple_types@UMMHS@AlliesWhiteboard@@@std@@@std@@@std@@QAEAAV01@XZ 1002ea60 f i whiteboard.obj
 0001:0002da80       ??F?$_Deque_unchecked_iterator@V?$_Deque_val@U?$_Deque_simple_types@UMMHS@AlliesWhiteboard@@@std@@@std@@@std@@QAEAAV01@XZ 1002ea80 f i whiteboard.obj
 0001:0002daa0       ??H?$_Deque_unchecked_iterator@V?$_Deque_val@U?$_Deque_simple_types@UMMHS@AlliesWhiteboard@@@std@@@std@@@std@@QBE?AV01@H@Z 1002eaa0 f i whiteboard.obj
 0001:0002dae0       ??Y?$_Deque_unchecked_const_iterator@V?$_Deque_val@U?$_Deque_simple_types@UMMHS@AlliesWhiteboard@@@std@@@std@@@std@@QAEAAV01@H@Z 1002eae0 f i whiteboard.obj
 0001:0002db00       ??Y?$_Deque_unchecked_iterator@V?$_Deque_val@U?$_Deque_simple_types@UMMHS@AlliesWhiteboard@@@std@@@std@@@std@@QAEAAV01@H@Z 1002eb00 f i whiteboard.obj
 0001:0002db20       ??_EDeleteGraphic@@UAEPAXI@Z 1002eb20 f i whiteboard.obj
 0001:0002db20       ??_GDeleteGraphic@@UAEPAXI@Z 1002eb20 f i whiteboard.obj
 0001:0002db50       ??_EGraphicElement@@UAEPAXI@Z 1002eb50 f i whiteboard.obj
 0001:0002db50       ??_GGraphicElement@@UAEPAXI@Z 1002eb50 f i whiteboard.obj
 0001:0002db80       ??_EGraphicLine@@UAEPAXI@Z 1002eb80 f i whiteboard.obj
 0001:0002db80       ??_GGraphicLine@@UAEPAXI@Z 1002eb80 f i whiteboard.obj
 0001:0002dbb0       ??_EGraphicText@@UAEPAXI@Z 1002ebb0 f i whiteboard.obj
 0001:0002dbb0       ??_GGraphicText@@UAEPAXI@Z 1002ebb0 f i whiteboard.obj
 0001:0002dbe0       ??_EGraphicTextEdited@@UAEPAXI@Z 1002ebe0 f i whiteboard.obj
 0001:0002dbe0       ??_GGraphicTextEdited@@UAEPAXI@Z 1002ebe0 f i whiteboard.obj
 0001:0002dc10       ?AddTextMarker@AlliesWhiteboard@@AAEXHHPADD@Z 1002ec10 f   whiteboard.obj
 0001:0002dcc0       ?AddTextMarker@AlliesWhiteboard@@AAEXXZ 1002ecc0 f   whiteboard.obj
 0001:0002de00       ?Blit@AlliesWhiteboard@@QAEXPAE@Z 1002ee00 f   whiteboard.obj
 0001:0002de70       ?Clip_Line@AlliesWhiteboard@@QAEHAAH000@Z 1002ee70 f   whiteboard.obj
 0001:0002e970       ?DeleteMarker@AlliesWhiteboard@@AAEXHH@Z 1002f970 f   whiteboard.obj
 0001:0002ea20       ?Draw@GraphicElement@@UAEXXZ 1002fa20 f i whiteboard.obj
 0001:0002ea30       ?Draw@GraphicLine@@UAEXXZ  1002fa30 f i whiteboard.obj
 0001:0002ea40       ?Draw@GraphicText@@UAEXXZ  1002fa40 f i whiteboard.obj
 0001:0002ea50       ?DrawFreeLine@AlliesWhiteboard@@QAEXHHHHDPADH@Z 1002fa50 f   whiteboard.obj
 0001:0002eaa0       ?DrawLine@AlliesWhiteboard@@QAEXHHHHDPADH@Z 1002faa0 f   whiteboard.obj
 0001:0002eb50       ?DrawMarkers@AlliesWhiteboard@@AAEXPAE@Z 1002fb50 f   whiteboard.obj
 0001:0002eca0       ?DrawMinimapMarkers@AlliesWhiteboard@@QAEXPADH_N@Z 1002fca0 f   whiteboard.obj
 0001:0002ef20       ?DrawRotateRect@AlliesWhiteboard@@AAEXHHHPADH@Z 1002ff20 f   whiteboard.obj
 0001:0002f200       ?DrawTextInput@AlliesWhiteboard@@AAEXPAE@Z 10030200 f   whiteboard.obj
 0001:0002f460       ?DrawTextMarker@AlliesWhiteboard@@AAEXPAEHHPADD@Z 10030460 f   whiteboard.obj
 0001:0002f710       ?Draw_Line@AlliesWhiteboard@@QAEHHHHHEPAEH@Z 10030710 f   whiteboard.obj
 0001:0002f850       ?EchoMarker@AlliesWhiteboard@@AAEXPAD@Z 10030850 f   whiteboard.obj
 0001:0002f8a0       ?EreaseArea@AlliesWhiteboard@@AAEXHH@Z 100308a0 f   whiteboard.obj
 0001:0002f980       ?GenerateLookupTables@AlliesWhiteboard@@AAEXXZ 10030980 f   whiteboard.obj
 0001:0002fa10       ?GetMapX@AlliesWhiteboard@@QAEHXZ 10030a10 f   whiteboard.obj
 0001:0002fa30       ?GetMapY@AlliesWhiteboard@@QAEHXZ 10030a30 f   whiteboard.obj
 0001:0002fa50       ?GetMarkers@AlliesWhiteboard@@QAEXPAUMarkerArray@@@Z 10030a50 f   whiteboard.obj
 0001:0002fb40       ?GetTextElementAt@AlliesWhiteboard@@AAEPAVGraphicElement@@HHH@Z 10030b40 f   whiteboard.obj
 0001:0002fc30       ?InstantScrollTo@AlliesWhiteboard@@QAEXHH@Z 10030c30 f   whiteboard.obj
 0001:0002fc80       ?Line@AlliesWhiteboard@@QAEXHHHHEPADH@Z 10030c80 f   whiteboard.obj
 0001:0002fd30       ?LockBlit@AlliesWhiteboard@@QAEXPADH@Z 10030d30 f   whiteboard.obj
 0001:0002ff20       ?Message@AlliesWhiteboard@@QAE_NPAUHWND__@@IIJ@Z 10030f20 f   whiteboard.obj
 0001:000306f0       ?MouseMove@AlliesWhiteboard@@AAEXHHHH@Z 100316f0 f   whiteboard.obj
 0001:00030840       ?ReceiveMarkers@AlliesWhiteboard@@AAEXXZ 10031840 f   whiteboard.obj
 0001:00030c20       ?RestoreAll@AlliesWhiteboard@@AAEXXZ 10031c20 f   whiteboard.obj
 0001:00030cd0       ?ScrollToCenter@AlliesWhiteboard@@QAEXHH@Z 10031cd0 f   whiteboard.obj
 0001:00030d70       ?SendMarkers@AlliesWhiteboard@@AAEXXZ 10031d70 f   whiteboard.obj
 0001:00031280       ?Set@AlliesWhiteboard@@QAEXH@Z 10032280 f   whiteboard.obj
 0001:000312a0       ?TextInputChar@AlliesWhiteboard@@AAEXD@Z 100322a0 f   whiteboard.obj
 0001:00031320       ?TextInputKeyDown@AlliesWhiteboard@@AAEXH@Z 10032320 f   whiteboard.obj
 0001:000314e0       ?_Get_data@?$deque@PAVGraphicElement@@V?$allocator@PAVGraphicElement@@@std@@@std@@AAEAAV?$_Deque_val@U?$_Deque_simple_types@PAVGraphicElement@@@std@@@2@XZ 100324e0 f i whiteboard.obj
 0001:000314f0       ?_Get_data@?$deque@PAVGraphicElement@@V?$allocator@PAVGraphicElement@@@std@@@std@@ABEABV?$_Deque_val@U?$_Deque_simple_types@PAVGraphicElement@@@std@@@2@XZ 100324f0 f i whiteboard.obj
 0001:00031500       ?_Get_data@?$deque@UMMHS@AlliesWhiteboard@@V?$allocator@UMMHS@AlliesWhiteboard@@@std@@@std@@AAEAAV?$_Deque_val@U?$_Deque_simple_types@UMMHS@AlliesWhiteboard@@@std@@@2@XZ 10032500 f i whiteboard.obj
 0001:00031510       ?_Get_data@?$deque@UMMHS@AlliesWhiteboard@@V?$allocator@UMMHS@AlliesWhiteboard@@@std@@@std@@ABEABV?$_Deque_val@U?$_Deque_simple_types@UMMHS@AlliesWhiteboard@@@std@@@2@XZ 10032510 f i whiteboard.obj
 0001:00031520       ?_Get_first@?$_Compressed_pair@V?$allocator@PAVGraphicElement@@@std@@V?$_Deque_val@U?$_Deque_simple_types@PAVGraphicElement@@@std@@@2@$00@std@@QAEAAV?$allocator@PAVGraphicElement@@@2@XZ 10032520 f i whiteboard.obj
 0001:00031530       ?_Get_first@?$_Compressed_pair@V?$allocator@PAVGraphicElement@@@std@@V?$_Deque_val@U?$_Deque_simple_types@PAVGraphicElement@@@std@@@2@$00@std@@QBEABV?$allocator@PAVGraphicElement@@@2@XZ 10032530 f i whiteboard.obj
 0001:00031540       ?_Get_first@?$_Compressed_pair@V?$allocator@PAVGraphicElement@@@std@@V?$_Vector_val@U?$_Simple_types@PAVGraphicElement@@@std@@@2@$00@std@@QAEAAV?$allocator@PAVGraphicElement@@@2@XZ 10032540 f i whiteboard.obj
 0001:00031550       ?_Get_first@?$_Compressed_pair@V?$allocator@UMMHS@AlliesWhiteboard@@@std@@V?$_Deque_val@U?$_Deque_simple_types@UMMHS@AlliesWhiteboard@@@std@@@2@$00@std@@QAEAAV?$allocator@UMMHS@AlliesWhiteboard@@@2@XZ 10032550 f i whiteboard.obj
 0001:00031560       ?_Get_first@?$_Compressed_pair@V?$allocator@UMMHS@AlliesWhiteboard@@@std@@V?$_Deque_val@U?$_Deque_simple_types@UMMHS@AlliesWhiteboard@@@std@@@2@$00@std@@QBEABV?$allocator@UMMHS@AlliesWhiteboard@@@2@XZ 10032560 f i whiteboard.obj
 0001:00031570       ?_Getal@?$deque@PAVGraphicElement@@V?$allocator@PAVGraphicElement@@@std@@@std@@AAEAAV?$allocator@PAVGraphicElement@@@2@XZ 10032570 f i whiteboard.obj
 0001:00031590       ?_Getal@?$deque@PAVGraphicElement@@V?$allocator@PAVGraphicElement@@@std@@@std@@ABEABV?$allocator@PAVGraphicElement@@@2@XZ 10032590 f i whiteboard.obj
 0001:000315b0       ?_Getal@?$deque@UMMHS@AlliesWhiteboard@@V?$allocator@UMMHS@AlliesWhiteboard@@@std@@@std@@AAEAAV?$allocator@UMMHS@AlliesWhiteboard@@@2@XZ 100325b0 f i whiteboard.obj
 0001:000315d0       ?_Getal@?$deque@UMMHS@AlliesWhiteboard@@V?$allocator@UMMHS@AlliesWhiteboard@@@std@@@std@@ABEABV?$allocator@UMMHS@AlliesWhiteboard@@@2@XZ 100325d0 f i whiteboard.obj
 0001:000315f0       ?_Getal@?$vector@PAVGraphicElement@@V?$allocator@PAVGraphicElement@@@std@@@std@@AAEAAV?$allocator@PAVGraphicElement@@@2@XZ 100325f0 f i whiteboard.obj
 0001:00031610       ?_Getblock@?$_Deque_val@U?$_Deque_simple_types@PAVGraphicElement@@@std@@@std@@QBEII@Z 10032610 f i whiteboard.obj
 0001:00031630       ?_Getblock@?$_Deque_val@U?$_Deque_simple_types@UMMHS@AlliesWhiteboard@@@std@@@std@@QBEII@Z 10032630 f i whiteboard.obj
 0001:00031650       ?_Getblock@?$deque@PAVGraphicElement@@V?$allocator@PAVGraphicElement@@@std@@@std@@ABEII@Z 10032650 f i whiteboard.obj
 0001:00031670       ?_Getblock@?$deque@UMMHS@AlliesWhiteboard@@V?$allocator@UMMHS@AlliesWhiteboard@@@std@@@std@@ABEII@Z 10032670 f i whiteboard.obj
 0001:00031690       ?_Growmap@?$deque@PAVGraphicElement@@V?$allocator@PAVGraphicElement@@@std@@@std@@AAEXI@Z 10032690 f i whiteboard.obj
 0001:000318d0       ?_Growmap@?$deque@UMMHS@AlliesWhiteboard@@V?$allocator@UMMHS@AlliesWhiteboard@@@std@@@std@@AAEXI@Z 100328d0 f i whiteboard.obj
 0001:00031b00       ?_Map@?$deque@PAVGraphicElement@@V?$allocator@PAVGraphicElement@@@std@@@std@@AAEAAPAPAPAVGraphicElement@@XZ 10032b00 f i whiteboard.obj
 0001:00031b20       ?_Map@?$deque@UMMHS@AlliesWhiteboard@@V?$allocator@UMMHS@AlliesWhiteboard@@@std@@@std@@AAEAAPAPAUMMHS@AlliesWhiteboard@@XZ 10032b20 f i whiteboard.obj
 0001:00031b40       ?_Mapsize@?$deque@PAVGraphicElement@@V?$allocator@PAVGraphicElement@@@std@@@std@@AAEAAIXZ 10032b40 f i whiteboard.obj
 0001:00031b60       ?_Mapsize@?$deque@UMMHS@AlliesWhiteboard@@V?$allocator@UMMHS@AlliesWhiteboard@@@std@@@std@@AAEAAIXZ 10032b60 f i whiteboard.obj
 0001:00031b80       ?_Myoff@?$deque@PAVGraphicElement@@V?$allocator@PAVGraphicElement@@@std@@@std@@AAEAAIXZ 10032b80 f i whiteboard.obj
 0001:00031ba0       ?_Myoff@?$deque@UMMHS@AlliesWhiteboard@@V?$allocator@UMMHS@AlliesWhiteboard@@@std@@@std@@AAEAAIXZ 10032ba0 f i whiteboard.obj
 0001:00031bc0       ?_Mysize@?$deque@PAVGraphicElement@@V?$allocator@PAVGraphicElement@@@std@@@std@@AAEAAIXZ 10032bc0 f i whiteboard.obj
 0001:00031be0       ?_Mysize@?$deque@PAVGraphicElement@@V?$allocator@PAVGraphicElement@@@std@@@std@@ABEABIXZ 10032be0 f i whiteboard.obj
 0001:00031c00       ?_Mysize@?$deque@UMMHS@AlliesWhiteboard@@V?$allocator@UMMHS@AlliesWhiteboard@@@std@@@std@@AAEAAIXZ 10032c00 f i whiteboard.obj
 0001:00031c20       ?_Mysize@?$deque@UMMHS@AlliesWhiteboard@@V?$allocator@UMMHS@AlliesWhiteboard@@@std@@@std@@ABEABIXZ 10032c20 f i whiteboard.obj
 0001:00031c40       ?_Orphan_all@?$deque@PAVGraphicElement@@V?$allocator@PAVGraphicElement@@@std@@@std@@AAEXXZ 10032c40 f i whiteboard.obj
 0001:00031c60       ?_Orphan_all@?$deque@UMMHS@AlliesWhiteboard@@V?$allocator@UMMHS@AlliesWhiteboard@@@std@@@std@@AAEXXZ 10032c60 f i whiteboard.obj
 0001:00031c80       ?_Release@?$_Uninitialized_backout@PAPAPAVGraphicElement@@@std@@QAEPAPAPAVGraphicElement@@XZ 10032c80 f i whiteboard.obj
 0001:00031ca0       ?_Release@?$_Uninitialized_backout@PAPAUMMHS@AlliesWhiteboard@@@std@@QAEPAPAUMMHS@AlliesWhiteboard@@XZ 10032ca0 f i whiteboard.obj
 0001:00031cc0       ?_Swap_proxy_and_iterators@_Container_base0@std@@QAEXAAU12@@Z 10032cc0 f i whiteboard.obj
 0001:00031cd0       ?_Take_contents@?$_Vector_val@U?$_Simple_types@PAVGraphicElement@@@std@@@std@@QAEXAAV12@@Z 10032cd0 f i whiteboard.obj
 0001:00031d30       ?_Tidy@?$deque@PAVGraphicElement@@V?$allocator@PAVGraphicElement@@@std@@@std@@AAEXXZ 10032d30 f i whiteboard.obj
 0001:00031e50       ?_Tidy@?$deque@UMMHS@AlliesWhiteboard@@V?$allocator@UMMHS@AlliesWhiteboard@@@std@@@std@@AAEXXZ 10032e50 f i whiteboard.obj
 0001:00031f70       ?_Tidy@?$vector@PAVGraphicElement@@V?$allocator@PAVGraphicElement@@@std@@@std@@AAEXXZ 10032f70 f i whiteboard.obj
 0001:00032030       ?_Unchecked_begin@?$deque@PAVGraphicElement@@V?$allocator@PAVGraphicElement@@@std@@@std@@QAE?AV?$_Deque_unchecked_iterator@V?$_Deque_val@U?$_Deque_simple_types@PAVGraphicElement@@@std@@@std@@@2@XZ 10033030 f i whiteboard.obj
 0001:00032070       ?_Unchecked_begin@?$deque@UMMHS@AlliesWhiteboard@@V?$allocator@UMMHS@AlliesWhiteboard@@@std@@@std@@QAE?AV?$_Deque_unchecked_iterator@V?$_Deque_val@U?$_Deque_simple_types@UMMHS@AlliesWhiteboard@@@std@@@std@@@2@XZ 10033070 f i whiteboard.obj
 0001:000320b0       ?_Unchecked_end@?$deque@UMMHS@AlliesWhiteboard@@V?$allocator@UMMHS@AlliesWhiteboard@@@std@@@std@@QAE?AV?$_Deque_unchecked_iterator@V?$_Deque_val@U?$_Deque_simple_types@UMMHS@AlliesWhiteboard@@@std@@@std@@@2@XZ 100330b0 f i whiteboard.obj
 0001:000320f0       ?_Xlen@?$deque@PAVGraphicElement@@V?$allocator@PAVGraphicElement@@@std@@@std@@ABEXXZ 100330f0 f i whiteboard.obj
 0001:00032110       ?_Xlen@?$deque@UMMHS@AlliesWhiteboard@@V?$allocator@UMMHS@AlliesWhiteboard@@@std@@@std@@ABEXXZ 10033110 f i whiteboard.obj
 0001:00032130       ?allocate@?$allocator@PAPAVGraphicElement@@@std@@QAEPAPAPAVGraphicElement@@I@Z 10033130 f i whiteboard.obj
 0001:00032150       ?allocate@?$allocator@PAUMMHS@AlliesWhiteboard@@@std@@QAEPAPAUMMHS@AlliesWhiteboard@@I@Z 10033150 f i whiteboard.obj
 0001:00032170       ?allocate@?$allocator@PAVGraphicElement@@@std@@QAEPAPAVGraphicElement@@I@Z 10033170 f i whiteboard.obj
 0001:00032190       ?allocate@?$allocator@UMMHS@AlliesWhiteboard@@@std@@QAEPAUMMHS@AlliesWhiteboard@@I@Z 10033190 f i whiteboard.obj
 0001:000321b0       ?back@?$deque@UMMHS@AlliesWhiteboard@@V?$allocator@UMMHS@AlliesWhiteboard@@@std@@@std@@QAEAAUMMHS@AlliesWhiteboard@@XZ 100331b0 f i whiteboard.obj
 0001:00032210       ?clear@?$deque@UMMHS@AlliesWhiteboard@@V?$allocator@UMMHS@AlliesWhiteboard@@@std@@@std@@QAEXXZ 10033210 f i whiteboard.obj
 0001:00032230       ?deallocate@?$allocator@PAPAVGraphicElement@@@std@@QAEXQAPAPAVGraphicElement@@I@Z 10033230 f i whiteboard.obj
 0001:00032250       ?deallocate@?$allocator@PAUMMHS@AlliesWhiteboard@@@std@@QAEXQAPAUMMHS@AlliesWhiteboard@@I@Z 10033250 f i whiteboard.obj
 0001:00032270       ?deallocate@?$allocator@PAVGraphicElement@@@std@@QAEXQAPAVGraphicElement@@I@Z 10033270 f i whiteboard.obj
 0001:00032290       ?deallocate@?$allocator@UMMHS@AlliesWhiteboard@@@std@@QAEXQAUMMHS@AlliesWhiteboard@@I@Z 10033290 f i whiteboard.obj
 0001:000322b0       ?empty@?$deque@PAVGraphicElement@@V?$allocator@PAVGraphicElement@@@std@@@std@@QBE_NXZ 100332b0 f i whiteboard.obj
 0001:000322e0       ?empty@?$deque@UMMHS@AlliesWhiteboard@@V?$allocator@UMMHS@AlliesWhiteboard@@@std@@@std@@QBE_NXZ 100332e0 f i whiteboard.obj
 0001:00032310       ?front@?$deque@PAVGraphicElement@@V?$allocator@PAVGraphicElement@@@std@@@std@@QAEAAPAVGraphicElement@@XZ 10033310 f i whiteboard.obj
 0001:00032330       ?max_size@?$_Default_allocator_traits@V?$allocator@PAVGraphicElement@@@std@@@std@@SGIABV?$allocator@PAVGraphicElement@@@2@@Z 10033330 f i whiteboard.obj
 0001:00032340       ?max_size@?$_Default_allocator_traits@V?$allocator@UMMHS@AlliesWhiteboard@@@std@@@std@@SGIABV?$allocator@UMMHS@AlliesWhiteboard@@@2@@Z 10033340 f i whiteboard.obj
 0001:00032350       ?max_size@?$deque@PAVGraphicElement@@V?$allocator@PAVGraphicElement@@@std@@@std@@QBEIXZ 10033350 f i whiteboard.obj
 0001:00032390       ?max_size@?$deque@UMMHS@AlliesWhiteboard@@V?$allocator@UMMHS@AlliesWhiteboard@@@std@@@std@@QBEIXZ 10033390 f i whiteboard.obj
 0001:000323d0       ?pop_back@?$deque@PAVGraphicElement@@V?$allocator@PAVGraphicElement@@@std@@@std@@QAEXXZ 100333d0 f i whiteboard.obj
 0001:000324a0       ?pop_back@?$deque@UMMHS@AlliesWhiteboard@@V?$allocator@UMMHS@AlliesWhiteboard@@@std@@@std@@QAEXXZ 100334a0 f i whiteboard.obj
 0001:00032570       ?pop_front@?$deque@PAVGraphicElement@@V?$allocator@PAVGraphicElement@@@std@@@std@@QAEXXZ 10033570 f i whiteboard.obj
 0001:00032640       ?push_back@?$deque@PAVGraphicElement@@V?$allocator@PAVGraphicElement@@@std@@@std@@QAEX$$QAPAVGraphicElement@@@Z 10033640 f i whiteboard.obj
 0001:00032670       ?push_front@?$deque@UMMHS@AlliesWhiteboard@@V?$allocator@UMMHS@AlliesWhiteboard@@@std@@@std@@QAEXABUMMHS@AlliesWhiteboard@@@Z 10033670 f i whiteboard.obj
 0001:00032690       ?size@?$deque@PAVGraphicElement@@V?$allocator@PAVGraphicElement@@@std@@@std@@QBEIXZ 10033690 f i whiteboard.obj
 0001:000326b0       ?size@?$deque@UMMHS@AlliesWhiteboard@@V?$allocator@UMMHS@AlliesWhiteboard@@@std@@@std@@QBEIXZ 100336b0 f i whiteboard.obj
 0001:000326d0       ?size@?$vector@PAVGraphicElement@@V?$allocator@PAVGraphicElement@@@std@@@std@@QBEIXZ 100336d0 f i whiteboard.obj
 0001:00032700       ??0PCX@@QAE@XZ             10033700 f   PCX.obj
 0001:00032740       ??1PCX@@QAE@XZ             10033740 f   PCX.obj
 0001:000327a0       ?CopyPalette@PCX@@QAEXPAUtagPALETTEENTRY@@@Z 100337a0 f   PCX.obj
 0001:00032800       ?Erase@PCX@@QAEXXZ         10033800 f   PCX.obj
 0001:00032840       ?Height@PCX@@QAEJXZ        10033840 f   PCX.obj
 0001:00032860       ?Load24@PCX@@QAEHPBD@Z     10033860 f   PCX.obj
 0001:00032a50       ?Load@PCX@@QAEHPBDH@Z      10033a50 f   PCX.obj
 0001:00032db0       ?NewBuffer@PCX@@QAEPAEFF@Z 10033db0 f   PCX.obj
 0001:00032e10       ?ReadLine24@PCX@@AAEPAEPAEKF@Z 10033e10 f   PCX.obj
 0001:00032f00       ?Save@PCX@@QAEHPBD@Z       10033f00 f   PCX.obj
 0001:00033220       ?SetBuffer@PCX@@QAEPAEPAE@Z 10034220 f   PCX.obj
 0001:00033250       ?SetPalette@PCX@@QAEXPAUtagPALETTEENTRY@@@Z 10034250 f   PCX.obj
 0001:00033290       ?Width@PCX@@QAEJXZ         10034290 f   PCX.obj
 0001:000332a0       ?WriteLine@PCX@@AAEPAEPAEK@Z 100342a0 f   PCX.obj
 0001:00033420       ?CreateSurfPCXResource@@YGPAUIDirectDrawSurface@@GH@Z 10034420 f   pcxread.obj
 0001:000335d0       ?PCX2BitMap@@YGXPAEPAUpcx_picture_typ@@J@Z 100345d0 f   pcxread.obj
 0001:000337c0       ?RestoreFromPCX@@YGXGPAUIDirectDrawSurface@@@Z 100347c0 f   pcxread.obj
 0001:00033910       ?RestoreFromPCXFile@@YGXPADPAUIDirectDrawSurface@@@Z 10034910 f   pcxread.obj
 0001:00033a90       ?strrchr@@YAPADQADH@Z      10034a90 f i etc.obj
 0001:00033ab0       _CalcCRC@8                 10034ab0 f   etc.obj
 0001:00033b50       _GetMinValidLenWithMatchOpcode@8 10034b50 f   etc.obj
 0001:00033b90       _GetOpCodeSize@4           10034b90 f   etc.obj
 0001:00033e30       _MemWriteWithBackup@16     10034e30 f   etc.obj
 0001:00033f10       _RegReadData@24            10034f10 f   etc.obj
 0001:00033fa0       _RegReadDword@16           10034fa0 f   etc.obj
 0001:00033fc0       _RegReadStr@20             10034fc0 f   etc.obj
 0001:00033ff0       _RegWriteData@24           10034ff0 f   etc.obj
 0001:00034080       _RegWriteDword@16          10035080 f   etc.obj
 0001:000340a0       _RegWriteStr@20            100350a0 f   etc.obj
 0001:000340d0       _X86RedirectOpcodeToNewBase@16 100350d0 f   etc.obj
 0001:000344b0       _X86ShallToRedirect@20     100354b0 f   etc.obj
 0001:00034790       _clean_remark@8            10035790 f   etc.obj
 0001:000347e0       _duplicate_str@4           100357e0 f   etc.obj
 0001:00034840       _getDBCSlen@4              10035840 f   etc.obj
 0001:000348b0       _memfind@24                100358b0 f   etc.obj
 0001:00034a20       _trim_crlf_@4              10035a20 f   etc.obj
 0001:00034b20       _vkToStr@12                10035b20 f   etc.obj
 0001:00035bb0       ??0SingleHook@@QAE@IKHPAE@Z 10036bb0 f   Hook.obj
 0001:00035bf0       ??0SingleHook@@QAE@PAEKH0@Z 10036bf0 f   Hook.obj
 0001:00035c30       ??0SingleHook@@QAE@XZ      10036c30 f   Hook.obj
 0001:00035c60       ??1SingleHook@@QAE@XZ      10036c60 f   Hook.obj
 0001:00035d00       ?AddrToHook@SingleHook@@UAEPAXPAX@Z 10036d00 f   Hook.obj
 0001:00035d20       ?AddrToHook@SingleHook@@UAEQAXXZ 10036d20 f   Hook.obj
 0001:00035d40       ?AddrToRtn@SingleHook@@QAEPAXXZ 10036d40 f   Hook.obj
 0001:00035d60       ?Hook@SingleHook@@UAEXXZ   10036d60 f   Hook.obj
 0001:00035da0       ?InitHookClass@SingleHook@@UAEXPAEKH0@Z 10036da0 f   Hook.obj
 0001:00035f20       ?LenToHook@SingleHook@@UAEKK@Z 10036f20 f   Hook.obj
 0001:00035f40       ?ThisHookMode@SingleHook@@UAE?BHXZ 10036f40 f   Hook.obj
 0001:00035f60       ?ThisHookMode@SingleHook@@UAEHH@Z 10036f60 f   Hook.obj
 0001:00035f80       ?UnHook@SingleHook@@UAEXXZ 10036f80 f   Hook.obj
 0001:00035fc0       ?X86CurrentThreadStackBufferFixRtnAddr@@YGPAUtagInlineX86StackBuffer@@PAPAU1@@Z 10036fc0 f   InlineHook.obj
 0001:00036070       ?X86CurrentThreadStackBuffer@@YGPAUtagInlineX86StackBuffer@@PAPAU1@@Z 10037070 f   InlineHook.obj
 0001:00036100       ??0InlineSingleHook@@QAE@IKHP6GHPAUtagInlineX86StackBuffer@@@Z@Z 10037100 f   InlineHook.obj
 0001:00036180       ??0InlineSingleHook@@QAE@IKHPAX@Z 10037180 f   InlineHook.obj
 0001:00036200       ??0InlineSingleHook@@QAE@XZ 10037200 f   InlineHook.obj
 0001:00036270       ??1InlineSingleHook@@QAE@XZ 10037270 f   InlineHook.obj
 0001:00036370       ?Hook@InlineSingleHook@@UAEXXZ 10037370 f   InlineHook.obj
 0001:00036450       ?InitHookClass@InlineSingleHook@@AAEXQAEKHPAX1@Z 10037450 f   InlineHook.obj
 0001:00036770       ?NewBytesForInlineHook@InlineSingleHook@@QAEPAEPAE@Z 10037770 f   InlineHook.obj
 0001:000367a0       ?RedirectedOpcodeInStub@InlineSingleHook@@QAEQAXXZ 100377a0 f   InlineHook.obj
 0001:000367c0       ?RedirectedOrgOpcodes@InlineSingleHook@@QAEQAEXZ 100377c0 f   InlineHook.obj
 0001:000367e0       ?RtnAddrOfHook@InlineSingleHook@@QAEQAXXZ 100377e0 f   InlineHook.obj
 0001:00036800       ?SetParamOfHook@InlineSingleHook@@QAEPAXPAX@Z 10037800 f   InlineHook.obj
 0001:00036830       ?X86InlineHookRouter@@YGXXZ 10037830 f   InlineHook.obj
 0001:00036900       ??0CGraphic@@QAE@XZ        10037900 f   cgraphic.obj
 0001:00036920       ??1CGraphic@@QAE@XZ        10037920 f   cgraphic.obj
 0001:00036930       ?DrawRotateRect@CGraphic@@QAEXPAUIDirectDrawSurface@@HHH@Z 10037930 f   cgraphic.obj
 0001:00036b70       ?GenerateLookupTables@CGraphic@@AAEXXZ 10037b70 f   cgraphic.obj
 0001:00036c00       ??$?0$$V@?$_Compressed_pair@V?$allocator@U?$_List_node@PAVGraphicElement@@PAX@std@@@std@@V?$_List_val@U?$_List_simple_types@PAVGraphicElement@@@std@@@2@$00@std@@QAE@U_Zero_then_variadic_args_t@1@@Z 10037c00 f i ElementHandler.obj
 0001:00036c20       ??$?0ABQAVGraphicElement@@@?$_List_node_emplace_op2@V?$allocator@U?$_List_node@PAVGraphicElement@@PAX@std@@@std@@@std@@QAE@AAV?$allocator@U?$_List_node@PAVGraphicElement@@PAX@std@@@1@ABQAVGraphicElement@@@Z 10037c20 f i ElementHandler.obj
 0001:00036ca0       ??$?0V?$allocator@PAVGraphicElement@@@std@@PAPAVGraphicElement@@PAPAV2@PAPAV2@@?$_Compressed_pair@V?$allocator@PAVGraphicElement@@@std@@V?$_Vector_val@U?$_Simple_types@PAVGraphicElement@@@std@@@2@$00@std@@QAE@U_One_then_variadic_args_t@1@$$QAV?$allocator@PAVGraphicElement@@@1@$$QAPAPAVGraphicElement@@22@Z 10037ca0 f i ElementHandler.obj
 0001:00036cf0       ??$_Construct_in_place@PAU?$_List_node@PAVGraphicElement@@PAX@std@@AAPAU12@@std@@YGXAAPAU?$_List_node@PAVGraphicElement@@PAX@0@0@Z 10037cf0 f i ElementHandler.obj
 0001:00036d30       ??$_Construct_in_place@PAU?$_List_node@PAVGraphicElement@@PAX@std@@ABQAU12@@std@@YGXAAPAU?$_List_node@PAVGraphicElement@@PAX@0@ABQAU10@@Z 10037d30 f i ElementHandler.obj
 0001:00036d70       ??$_Construct_in_place@PAVGraphicElement@@ABQAV1@@std@@YGXAAPAVGraphicElement@@ABQAV1@@Z 10037d70 f i ElementHandler.obj
 0001:00036db0       ??$_Copy_memmove@PAPAVGraphicElement@@PAPAV1@@std@@YGPAPAVGraphicElement@@PAPAV1@00@Z 10037db0 f i ElementHandler.obj
 0001:00036e20       ??$_Destroy_in_place@PAU?$_List_node@PAVGraphicElement@@PAX@std@@@std@@YGXAAPAU?$_List_node@PAVGraphicElement@@PAX@0@@Z 10037e20 f i ElementHandler.obj
 0001:00036e30       ??$_Emplace@ABQAVGraphicElement@@@?$list@PAVGraphicElement@@V?$allocator@PAVGraphicElement@@@std@@@std@@QAEPAU?$_List_node@PAVGraphicElement@@PAX@1@QAU21@ABQAVGraphicElement@@@Z 10037e30 f i ElementHandler.obj
 0001:00036eb0       ??$_Emplace_back@PAVGraphicElement@@@?$_Uninitialized_backout_al@V?$allocator@PAVGraphicElement@@@std@@@std@@QAEX$$QAPAVGraphicElement@@@Z 10037eb0 f i ElementHandler.obj
 0001:00036ef0       ??$_Emplace_back_with_unused_capacity@ABQAVGraphicElement@@@?$vector@PAVGraphicElement@@V?$allocator@PAVGraphicElement@@@std@@@std@@AAEAAPAVGraphicElement@@ABQAV2@@Z 10037ef0 f i ElementHandler.obj
 0001:00036f50       ??$_Emplace_one_at_back@ABQAVGraphicElement@@@?$vector@PAVGraphicElement@@V?$allocator@PAVGraphicElement@@@std@@@std@@AAEAAPAVGraphicElement@@ABQAV2@@Z 10037f50 f i ElementHandler.obj
 0001:00036fb0       ??$_Emplace_reallocate@ABQAVGraphicElement@@@?$vector@PAVGraphicElement@@V?$allocator@PAVGraphicElement@@@std@@@std@@AAEPAPAVGraphicElement@@QAPAV2@ABQAV2@@Z 10037fb0 f i ElementHandler.obj
 0001:00037170       ??$_Free_non_head@V?$allocator@U?$_List_node@PAVGraphicElement@@PAX@std@@@std@@@?$_List_node@PAVGraphicElement@@PAX@std@@SGXAAV?$allocator@U?$_List_node@PAVGraphicElement@@PAX@std@@@1@PAU01@@Z 10038170 f i ElementHandler.obj
 0001:000371c0       ??$_Freenode0@V?$allocator@U?$_List_node@PAVGraphicElement@@PAX@std@@@std@@@?$_List_node@PAVGraphicElement@@PAX@std@@SGXAAV?$allocator@U?$_List_node@PAVGraphicElement@@PAX@std@@@1@PAU01@@Z 100381c0 f i ElementHandler.obj
 0001:00037220       ??$_Freenode@V?$allocator@U?$_List_node@PAVGraphicElement@@PAX@std@@@std@@@?$_List_node@PAVGraphicElement@@PAX@std@@SGXAAV?$allocator@U?$_List_node@PAVGraphicElement@@PAX@std@@@1@PAU01@@Z 10038220 f i ElementHandler.obj
 0001:00037270       ??$_Get_unwrapped@ABQAPAVGraphicElement@@@std@@YG?A_TABQAPAVGraphicElement@@@Z 10038270 f i ElementHandler.obj
 0001:00037280       ??$_To_address@PAPAVGraphicElement@@@std@@YG?A_PABQAPAVGraphicElement@@@Z 10038280 f i ElementHandler.obj
 0001:00037290       ??$_Uninitialized_move@PAPAVGraphicElement@@V?$allocator@PAVGraphicElement@@@std@@@std@@YGPAPAVGraphicElement@@QAPAV1@0PAPAV1@AAV?$allocator@PAVGraphicElement@@@0@@Z 10038290 f i ElementHandler.obj
 0001:00037360       ??$_Voidify_iter@PAPAU?$_List_node@PAVGraphicElement@@PAX@std@@@std@@YGPAXPAPAU?$_List_node@PAVGraphicElement@@PAX@0@@Z 10038360 f i ElementHandler.obj
 0001:00037370       ??$addressof@$$CBV?$_List_val@U?$_List_simple_types@PAVGraphicElement@@@std@@@std@@@std@@YGPBV?$_List_val@U?$_List_simple_types@PAVGraphicElement@@@std@@@0@ABV10@@Z 10038370 f i ElementHandler.obj
 0001:00037380       ??$addressof@PAU?$_List_node@PAVGraphicElement@@PAX@std@@@std@@YGPAPAU?$_List_node@PAVGraphicElement@@PAX@0@AAPAU10@@Z 10038380 f i ElementHandler.obj
 0001:00037390       ??$addressof@PAVGraphicElement@@@std@@YGPAPAVGraphicElement@@AAPAV1@@Z 10038390 f i ElementHandler.obj
 0001:000373a0       ??$addressof@V?$_List_val@U?$_List_simple_types@PAVGraphicElement@@@std@@@std@@@std@@YGPAV?$_List_val@U?$_List_simple_types@PAVGraphicElement@@@std@@@0@AAV10@@Z 100383a0 f i ElementHandler.obj
 0001:000373b0       ??$construct@PAVGraphicElement@@ABQAV1@@?$_Default_allocator_traits@V?$allocator@PAVGraphicElement@@@std@@@std@@SGXAAV?$allocator@PAVGraphicElement@@@1@QAPAVGraphicElement@@ABQAV3@@Z 100383b0 f i ElementHandler.obj
 0001:000373f0       ??$construct@PAVGraphicElement@@ABQAV1@@?$_Default_allocator_traits@V?$allocator@U?$_List_node@PAVGraphicElement@@PAX@std@@@std@@@std@@SGXAAV?$allocator@U?$_List_node@PAVGraphicElement@@PAX@std@@@1@QAPAVGraphicElement@@ABQAV3@@Z 100383f0 f i ElementHandler.obj
 0001:00037430       ??$destroy@PAU?$_List_node@PAVGraphicElement@@PAX@std@@@?$_Default_allocator_traits@V?$allocator@U?$_List_node@PAVGraphicElement@@PAX@std@@@std@@@std@@SGXAAV?$allocator@U?$_List_node@PAVGraphicElement@@PAX@std@@@1@QAPAU?$_List_node@PAVGraphicElement@@PAX@1@@Z 10038430 f i ElementHandler.obj
 0001:00037440       ??$destroy@PAVGraphicElement@@@?$_Default_allocator_traits@V?$allocator@U?$_List_node@PAVGraphicElement@@PAX@std@@@std@@@std@@SGXAAV?$allocator@U?$_List_node@PAVGraphicElement@@PAX@std@@@1@QAPAVGraphicElement@@@Z 10038440 f i ElementHandler.obj
 0001:00037450       ??$emplace_back@ABQAVGraphicElement@@@?$vector@PAVGraphicElement@@V?$allocator@PAVGraphicElement@@@std@@@std@@QAE?A_TABQAVGraphicElement@@@Z 10038450 f i ElementHandler.obj
 0001:00037480       ??$exchange@PAPAVGraphicElement@@$$T@std@@YGPAPAVGraphicElement@@AAPAPAV1@$$QA$$T@Z 10038480 f i ElementHandler.obj
 0001:000374a0       ??$exchange@PAU?$_List_node@PAVGraphicElement@@PAX@std@@PAU12@@std@@YGPAU?$_List_node@PAVGraphicElement@@PAX@0@AAPAU10@$$QAPAU10@@Z 100384a0 f i ElementHandler.obj
 0001:000374c0       ??$forward@AAPAU?$_List_node@PAVGraphicElement@@PAX@std@@@std@@YGAAPAU?$_List_node@PAVGraphicElement@@PAX@0@AAPAU10@@Z 100384c0 f i ElementHandler.obj
 0001:000374d0       ??$forward@ABQAU?$_List_node@PAVGraphicElement@@PAX@std@@@std@@YGABQAU?$_List_node@PAVGraphicElement@@PAX@0@ABQAU10@@Z 100384d0 f i ElementHandler.obj
 0001:000374e0       ??$forward@ABQAVGraphicElement@@@std@@YGABQAVGraphicElement@@ABQAV1@@Z 100384e0 f i ElementHandler.obj
 0001:000374f0       ??$forward@PAPAVGraphicElement@@@std@@YG$$QAPAPAVGraphicElement@@AAPAPAV1@@Z 100384f0 f i ElementHandler.obj
 0001:00037500       ??$forward@V?$allocator@PAVGraphicElement@@@std@@@std@@YG$$QAV?$allocator@PAVGraphicElement@@@0@AAV10@@Z 10038500 f i ElementHandler.obj
 0001:00037510       ??$remove_if@V<lambda_3a0e3eee6a925c7ad0776f0f5c737a02>@@@?$list@PAVGraphicElement@@V?$allocator@PAVGraphicElement@@@std@@@std@@QAE?A_PV<lambda_3a0e3eee6a925c7ad0776f0f5c737a02>@@@Z 10038510 f i ElementHandler.obj
 0001:000375c0       ??0<lambda_3a0e3eee6a925c7ad0776f0f5c737a02>@@QAE@ABQAVGraphicElement@@@Z 100385c0 f i ElementHandler.obj
 0001:000375e0       ??0?$_Alloc_construct_ptr@V?$allocator@U?$_List_node@PAVGraphicElement@@PAX@std@@@std@@@std@@QAE@AAV?$allocator@U?$_List_node@PAVGraphicElement@@PAX@std@@@1@@Z 100385e0 f i ElementHandler.obj
 0001:00037610       ??0?$_List_const_iterator@V?$_List_val@U?$_List_simple_types@PAVGraphicElement@@@std@@@std@@@std@@QAE@PAU?$_List_node@PAVGraphicElement@@PAX@1@PBV?$_List_val@U?$_List_simple_types@PAVGraphicElement@@@std@@@1@@Z 10038610 f i ElementHandler.obj
 0001:00037630       ??0?$_List_const_iterator@V?$_List_val@U?$_List_simple_types@PAVGraphicElement@@@std@@@std@@@std@@QAE@XZ 10038630 f i ElementHandler.obj
 0001:00037650       ??0?$_List_iterator@V?$_List_val@U?$_List_simple_types@PAVGraphicElement@@@std@@@std@@@std@@QAE@PAU?$_List_node@PAVGraphicElement@@PAX@1@PBV?$_List_val@U?$_List_simple_types@PAVGraphicElement@@@std@@@1@@Z 10038650 f i ElementHandler.obj
 0001:00037670       ??0?$_List_iterator@V?$_List_val@U?$_List_simple_types@PAVGraphicElement@@@std@@@std@@@std@@QAE@XZ 10038670 f i ElementHandler.obj
 0001:00037690       ??0?$_List_unchecked_const_iterator@V?$_List_val@U?$_List_simple_types@PAVGraphicElement@@@std@@@std@@U_Iterator_base0@2@@std@@QAE@PAU?$_List_node@PAVGraphicElement@@PAX@1@PBV?$_List_val@U?$_List_simple_types@PAVGraphicElement@@@std@@@1@@Z 10038690 f i ElementHandler.obj
 0001:000376c0       ??0?$_List_unchecked_const_iterator@V?$_List_val@U?$_List_simple_types@PAVGraphicElement@@@std@@@std@@U_Iterator_base0@2@@std@@QAE@XZ 100386c0 f i ElementHandler.obj
 0001:000376e0       ??0?$_List_val@U?$_List_simple_types@PAVGraphicElement@@@std@@@std@@QAE@XZ 100386e0 f i ElementHandler.obj
 0001:00037710       ??0?$_Uninitialized_backout_al@V?$allocator@PAVGraphicElement@@@std@@@std@@QAE@PAPAVGraphicElement@@AAV?$allocator@PAVGraphicElement@@@1@@Z 10038710 f i ElementHandler.obj
 0001:00037740       ??0?$_Vector_val@U?$_Simple_types@PAVGraphicElement@@@std@@@std@@QAE@PAPAVGraphicElement@@00@Z 10038740 f i ElementHandler.obj
 0001:00037770       ??0?$allocator@U?$_List_node@PAVGraphicElement@@PAX@std@@@std@@QAE@XZ 10038770 f i ElementHandler.obj
 0001:00037780       ??0?$list@PAVGraphicElement@@V?$allocator@PAVGraphicElement@@@std@@@std@@QAE@XZ 10038780 f i ElementHandler.obj
 0001:000377b0       ??0?$vector@PAVGraphicElement@@V?$allocator@PAVGraphicElement@@@std@@@std@@QAE@$$QAV01@@Z 100387b0 f i ElementHandler.obj
 0001:00037850       ??0CElementHandler@@QAE@XZ 10038850 f   ElementHandler.obj
 0001:00037890       ??0_Fake_proxy_ptr_impl@std@@QAE@ABU_Fake_allocator@1@ABU_Container_base0@1@@Z 10038890 f i ElementHandler.obj
 0001:000378a0       ??0_List_node_remove_op@?$list@PAVGraphicElement@@V?$allocator@PAVGraphicElement@@@std@@@std@@QAE@AAV12@@Z 100388a0 f i ElementHandler.obj
 0001:000378e0       ??1?$_Alloc_construct_ptr@V?$allocator@U?$_List_node@PAVGraphicElement@@PAX@std@@@std@@@std@@QAE@XZ 100388e0 f i ElementHandler.obj
 0001:00037930       ??1?$_List_node_emplace_op2@V?$allocator@U?$_List_node@PAVGraphicElement@@PAX@std@@@std@@@std@@QAE@XZ 10038930 f i ElementHandler.obj
 0001:00037990       ??1?$_Uninitialized_backout_al@V?$allocator@PAVGraphicElement@@@std@@@std@@QAE@XZ 10038990 f i ElementHandler.obj
 0001:000379c0       ??1?$list@PAVGraphicElement@@V?$allocator@PAVGraphicElement@@@std@@@std@@QAE@XZ 100389c0 f i ElementHandler.obj
 0001:000379e0       ??1CElementHandler@@UAE@XZ 100389e0 f   ElementHandler.obj
 0001:00037b30       ??1_List_node_remove_op@?$list@PAVGraphicElement@@V?$allocator@PAVGraphicElement@@@std@@@std@@QAE@XZ 10038b30 f i ElementHandler.obj
 0001:00037bf0       ??8?$_List_const_iterator@V?$_List_val@U?$_List_simple_types@PAVGraphicElement@@@std@@@std@@@std@@QBE_NABV01@@Z 10038bf0 f i ElementHandler.obj
 0001:00037c20       ??9?$_List_const_iterator@V?$_List_val@U?$_List_simple_types@PAVGraphicElement@@@std@@@std@@@std@@QBE_NABV01@@Z 10038c20 f i ElementHandler.obj
 0001:00037c60       ??D?$_List_const_iterator@V?$_List_val@U?$_List_simple_types@PAVGraphicElement@@@std@@@std@@@std@@QBEABQAVGraphicElement@@XZ 10038c60 f i ElementHandler.obj
 0001:00037c80       ??D?$_List_iterator@V?$_List_val@U?$_List_simple_types@PAVGraphicElement@@@std@@@std@@@std@@QBEAAPAVGraphicElement@@XZ 10038c80 f i ElementHandler.obj
 0001:00037ca0       ??E?$_List_const_iterator@V?$_List_val@U?$_List_simple_types@PAVGraphicElement@@@std@@@std@@@std@@QAEAAV01@XZ 10038ca0 f i ElementHandler.obj
 0001:00037cc0       ??E?$_List_iterator@V?$_List_val@U?$_List_simple_types@PAVGraphicElement@@@std@@@std@@@std@@QAEAAV01@XZ 10038cc0 f i ElementHandler.obj
 0001:00037ce0       ??R<lambda_3a0e3eee6a925c7ad0776f0f5c737a02>@@QBE@ABQAVGraphicElement@@@Z 10038ce0 f i ElementHandler.obj
 0001:00037d10       ??_ECElementHandler@@UAEPAXI@Z 10038d10 f i ElementHandler.obj
 0001:00037d10       ??_GCElementHandler@@UAEPAXI@Z 10038d10 f i ElementHandler.obj
 0001:00037d50       ?AddElement@CElementHandler@@QAEXPAVGraphicElement@@@Z 10038d50 f   ElementHandler.obj
 0001:00037da0       ?DeleteBetween@CElementHandler@@QAEXHHHH@Z 10038da0 f   ElementHandler.obj
 0001:00037fa0       ?DeleteOn@CElementHandler@@QAEXHH@Z 10038fa0 f   ElementHandler.obj
 0001:00037fe0       ?GetArea@CElementHandler@@QAE?AV?$vector@PAVGraphicElement@@V?$allocator@PAVGraphicElement@@@std@@@std@@HHHH@Z 10038fe0 f   ElementHandler.obj
 0001:00038260       ?GetClosestElement@CElementHandler@@QAEPAVGraphicElement@@HH@Z 10039260 f   ElementHandler.obj
 0001:00038270       ?MoveTextElement@CElementHandler@@QAEPAVGraphicElement@@PAV2@HH@Z 10039270 f   ElementHandler.obj
 0001:000383c0       ?_Alloc_sentinel_and_proxy@?$list@PAVGraphicElement@@V?$allocator@PAVGraphicElement@@@std@@@std@@AAEXXZ 100393c0 f i ElementHandler.obj
 0001:00038430       ?_Allocate@?$_Alloc_construct_ptr@V?$allocator@U?$_List_node@PAVGraphicElement@@PAX@std@@@std@@@std@@QAEXXZ 10039430 f i ElementHandler.obj
 0001:00038460       ?_Calculate_growth@?$vector@PAVGraphicElement@@V?$allocator@PAVGraphicElement@@@std@@@std@@ABEII@Z 10039460 f i ElementHandler.obj
 0001:000384c0       ?_Change_array@?$vector@PAVGraphicElement@@V?$allocator@PAVGraphicElement@@@std@@@std@@AAEXQAPAVGraphicElement@@II@Z 100394c0 f i ElementHandler.obj
 0001:00038560       ?_Get_first@?$_Compressed_pair@V?$allocator@PAVGraphicElement@@@std@@V?$_Vector_val@U?$_Simple_types@PAVGraphicElement@@@std@@@2@$00@std@@QBEABV?$allocator@PAVGraphicElement@@@2@XZ 10039560 f i ElementHandler.obj
 0001:00038570       ?_Get_first@?$_Compressed_pair@V?$allocator@U?$_List_node@PAVGraphicElement@@PAX@std@@@std@@V?$_List_val@U?$_List_simple_types@PAVGraphicElement@@@std@@@2@$00@std@@QAEAAV?$allocator@U?$_List_node@PAVGraphicElement@@PAX@std@@@2@XZ 10039570 f i ElementHandler.obj
 0001:00038580       ?_Get_first@?$_Compressed_pair@V?$allocator@U?$_List_node@PAVGraphicElement@@PAX@std@@@std@@V?$_List_val@U?$_List_simple_types@PAVGraphicElement@@@std@@@2@$00@std@@QBEABV?$allocator@U?$_List_node@PAVGraphicElement@@PAX@std@@@2@XZ 10039580 f i ElementHandler.obj
 0001:00038590       ?_Getal@?$list@PAVGraphicElement@@V?$allocator@PAVGraphicElement@@@std@@@std@@AAEAAV?$allocator@U?$_List_node@PAVGraphicElement@@PAX@std@@@2@XZ 10039590 f i ElementHandler.obj
 0001:000385b0       ?_Getal@?$list@PAVGraphicElement@@V?$allocator@PAVGraphicElement@@@std@@@std@@ABEABV?$allocator@U?$_List_node@PAVGraphicElement@@PAX@std@@@2@XZ 100395b0 f i ElementHandler.obj
 0001:000385d0       ?_Getal@?$vector@PAVGraphicElement@@V?$allocator@PAVGraphicElement@@@std@@@std@@ABEABV?$allocator@PAVGraphicElement@@@2@XZ 100395d0 f i ElementHandler.obj
 0001:000385f0       ?_Make_iter@?$list@PAVGraphicElement@@V?$allocator@PAVGraphicElement@@@std@@@std@@QBE?AV?$_List_iterator@V?$_List_val@U?$_List_simple_types@PAVGraphicElement@@@std@@@std@@@2@PAU?$_List_node@PAVGraphicElement@@PAX@2@@Z 100395f0 f i ElementHandler.obj
 0001:00038620       ?_Orphan_ptr2@?$_List_val@U?$_List_simple_types@PAVGraphicElement@@@std@@@std@@QAEXPAU?$_List_node@PAVGraphicElement@@PAX@2@@Z 10039620 f i ElementHandler.obj
 0001:00038630       ?_Orphan_range@?$vector@PAVGraphicElement@@V?$allocator@PAVGraphicElement@@@std@@@std@@ABEXPAPAVGraphicElement@@0@Z 10039630 f i ElementHandler.obj
 0001:00038640       ?_Release@?$_Uninitialized_backout_al@V?$allocator@PAVGraphicElement@@@std@@@std@@QAEPAPAVGraphicElement@@XZ 10039640 f i ElementHandler.obj
 0001:00038660       ?_Release@_Fake_proxy_ptr_impl@std@@QAEXXZ 10039660 f i ElementHandler.obj
 0001:00038670       ?_Tidy@?$list@PAVGraphicElement@@V?$allocator@PAVGraphicElement@@@std@@@std@@AAEXXZ 10039670 f i ElementHandler.obj
 0001:000386c0       ?_Transfer_back@_List_node_remove_op@?$list@PAVGraphicElement@@V?$allocator@PAVGraphicElement@@@std@@@std@@QAEPAU?$_List_node@PAVGraphicElement@@PAX@3@QAU43@@Z 100396c0 f i ElementHandler.obj
 0001:00038730       ?_Transfer_before@?$_List_node_emplace_op2@V?$allocator@U?$_List_node@PAVGraphicElement@@PAX@std@@@std@@@std@@QAEPAU?$_List_node@PAVGraphicElement@@PAX@2@QAU32@@Z 10039730 f i ElementHandler.obj
 0001:000387a0       ?_Unlinknode@?$_List_val@U?$_List_simple_types@PAVGraphicElement@@@std@@@std@@QAEPAU?$_List_node@PAVGraphicElement@@PAX@2@PAU32@@Z 100397a0 f i ElementHandler.obj
 0001:000387f0       ?_Xlength@?$vector@PAVGraphicElement@@V?$allocator@PAVGraphicElement@@@std@@@std@@CGXXZ 100397f0 f i ElementHandler.obj
 0001:00038800       ?allocate@?$allocator@U?$_List_node@PAVGraphicElement@@PAX@std@@@std@@QAEPAU?$_List_node@PAVGraphicElement@@PAX@2@I@Z 10039800 f i ElementHandler.obj
 0001:00038820       ?back@?$vector@PAVGraphicElement@@V?$allocator@PAVGraphicElement@@@std@@@std@@QAEAAPAVGraphicElement@@XZ 10039820 f i ElementHandler.obj
 0001:00038850       ?begin@?$list@PAVGraphicElement@@V?$allocator@PAVGraphicElement@@@std@@@std@@QAE?AV?$_List_iterator@V?$_List_val@U?$_List_simple_types@PAVGraphicElement@@@std@@@std@@@2@XZ 10039850 f i ElementHandler.obj
 0001:00038880       ?capacity@?$vector@PAVGraphicElement@@V?$allocator@PAVGraphicElement@@@std@@@std@@QBEIXZ 10039880 f i ElementHandler.obj
 0001:000388b0       ?deallocate@?$_Default_allocator_traits@V?$allocator@U?$_List_node@PAVGraphicElement@@PAX@std@@@std@@@std@@SGXAAV?$allocator@U?$_List_node@PAVGraphicElement@@PAX@std@@@2@QAU?$_List_node@PAVGraphicElement@@PAX@2@I@Z 100398b0 f i ElementHandler.obj
 0001:000388d0       ?deallocate@?$allocator@U?$_List_node@PAVGraphicElement@@PAX@std@@@std@@QAEXQAU?$_List_node@PAVGraphicElement@@PAX@2@I@Z 100398d0 f i ElementHandler.obj
 0001:000388f0       ?empty@?$vector@PAVGraphicElement@@V?$allocator@PAVGraphicElement@@@std@@@std@@QBE_NXZ 100398f0 f i ElementHandler.obj
 0001:00038930       ?end@?$list@PAVGraphicElement@@V?$allocator@PAVGraphicElement@@@std@@@std@@QAE?AV?$_List_iterator@V?$_List_val@U?$_List_simple_types@PAVGraphicElement@@@std@@@std@@@2@XZ 10039930 f i ElementHandler.obj
 0001:00038960       ?erase@?$list@PAVGraphicElement@@V?$allocator@PAVGraphicElement@@@std@@@std@@QAE?AV?$_List_iterator@V?$_List_val@U?$_List_simple_types@PAVGraphicElement@@@std@@@std@@@2@V?$_List_const_iterator@V?$_List_val@U?$_List_simple_types@PAVGraphicElement@@@std@@@std@@@2@@Z 10039960 f i ElementHandler.obj
 0001:000389b0       ?max_size@?$_Default_allocator_traits@V?$allocator@U?$_List_node@PAVGraphicElement@@PAX@std@@@std@@@std@@SGIABV?$allocator@U?$_List_node@PAVGraphicElement@@PAX@std@@@2@@Z 100399b0 f i ElementHandler.obj
 0001:000389c0       ?max_size@?$list@PAVGraphicElement@@V?$allocator@PAVGraphicElement@@@std@@@std@@QBEIXZ 100399c0 f i ElementHandler.obj
 0001:00038a00       ?max_size@?$vector@PAVGraphicElement@@V?$allocator@PAVGraphicElement@@@std@@@std@@QBEIXZ 10039a00 f i ElementHandler.obj
 0001:00038a40       ?pop_back@?$vector@PAVGraphicElement@@V?$allocator@PAVGraphicElement@@@std@@@std@@QAEXXZ 10039a40 f i ElementHandler.obj
 0001:00038ad0       ?push_back@?$list@PAVGraphicElement@@V?$allocator@PAVGraphicElement@@@std@@@std@@QAEXABQAVGraphicElement@@@Z 10039ad0 f i ElementHandler.obj
 0001:00038af0       ?push_back@?$vector@PAVGraphicElement@@V?$allocator@PAVGraphicElement@@@std@@@std@@QAEXABQAVGraphicElement@@@Z 10039af0 f i ElementHandler.obj
 0001:00038b10       ?remove@?$list@PAVGraphicElement@@V?$allocator@PAVGraphicElement@@@std@@@std@@QAE@ABQAVGraphicElement@@@Z 10039b10 f i ElementHandler.obj
 0001:00038b36       _ImmIsIME@4                10039b36 f   imm32:IMM32.dll
 0001:00038b3c       _ImmAssociateContext@8     10039b3c f   imm32:IMM32.dll
 0001:00038b42       _ImmGetCompositionStringA@16 10039b42 f   imm32:IMM32.dll
 0001:00038b48       _ImmGetCandidateListA@16   10039b48 f   imm32:IMM32.dll
 0001:00038b4e       _ImmEscapeA@16             10039b4e f   imm32:IMM32.dll
 0001:00038b54       _ImmNotifyIME@16           10039b54 f   imm32:IMM32.dll
 0001:00038b5a       _GetAsyncKeyState@4        10039b5a f   user32:USER32.dll
 0001:00038b60       _GetCursorPos@4            10039b60 f   user32:USER32.dll
 0001:00038b66       _SetWindowLongA@12         10039b66 f   user32:USER32.dll
 0001:00038b6c       _GetKeyState@4             10039b6c f   user32:USER32.dll
 0001:00038b72       _wsprintfA                 10039b72 f   user32:USER32.dll
 0001:00038b78       _GetForegroundWindow@0     10039b78 f   user32:USER32.dll
 0001:00038b7e       _GetClassNameA@12          10039b7e f   user32:USER32.dll
 0001:00038b84       _GetKeyboardLayout@4       10039b84 f   user32:USER32.dll
 0001:00038b8a       _SendMessageA@16           10039b8a f   user32:USER32.dll
 0001:00038b90       _DrawTextExA@24            10039b90 f   user32:USER32.dll
 0001:00038b96       _FillRect@12               10039b96 f   user32:USER32.dll
 0001:00038b9c       _CloseHandle@4             10039b9c f   kernel32:KERNEL32.dll
 0001:00038ba2       _ReleaseMutex@4            10039ba2 f   kernel32:KERNEL32.dll
 0001:00038ba8       _WaitForSingleObject@8     10039ba8 f   kernel32:KERNEL32.dll
 0001:00038bae       _CreateMutexA@12           10039bae f   kernel32:KERNEL32.dll
 0001:00038bb4       _GetTickCount@0            10039bb4 f   kernel32:KERNEL32.dll
 0001:00038bba       _CreateFileA@28            10039bba f   kernel32:KERNEL32.dll
 0001:00038bc0       _ReadFile@20               10039bc0 f   kernel32:KERNEL32.dll
 0001:00038bc6       _GetLastError@0            10039bc6 f   kernel32:KERNEL32.dll
 0001:00038bcc       _GetCurrentProcess@0       10039bcc f   kernel32:KERNEL32.dll
 0001:00038bd2       _GetSystemDirectoryA@8     10039bd2 f   kernel32:KERNEL32.dll
 0001:00038bd8       _WriteProcessMemory@20     10039bd8 f   kernel32:KERNEL32.dll
 0001:00038bde       _MapViewOfFile@20          10039bde f   kernel32:KERNEL32.dll
 0001:00038be4       _UnmapViewOfFile@4         10039be4 f   kernel32:KERNEL32.dll
 0001:00038bea       _FreeLibrary@4             10039bea f   kernel32:KERNEL32.dll
 0001:00038bf0       _GetModuleFileNameA@12     10039bf0 f   kernel32:KERNEL32.dll
 0001:00038bf6       _GetProcAddress@8          10039bf6 f   kernel32:KERNEL32.dll
 0001:00038bfc       _LoadLibraryA@4            10039bfc f   kernel32:KERNEL32.dll
 0001:00038c02       _lstrcpyA@8                10039c02 f   kernel32:KERNEL32.dll
 0001:00038c08       _lstrcatA@8                10039c08 f   kernel32:KERNEL32.dll
 0001:00038c0e       _CreateFileMappingA@24     10039c0e f   kernel32:KERNEL32.dll
 0001:00038c14       _ReleaseSemaphore@12       10039c14 f   kernel32:KERNEL32.dll
 0001:00038c1a       _CreateSemaphoreA@16       10039c1a f   kernel32:KERNEL32.dll
 0001:00038c20       _Sleep@4                   10039c20 f   kernel32:KERNEL32.dll
 0001:00038c26       _CreateThread@24           10039c26 f   kernel32:KERNEL32.dll
 0001:00038c2c       _VirtualProtect@16         10039c2c f   kernel32:KERNEL32.dll
 0001:00038c32       _CreateDirectoryA@8        10039c32 f   kernel32:KERNEL32.dll
 0001:00038c38       _FindClose@4               10039c38 f   kernel32:KERNEL32.dll
 0001:00038c3e       _FindFirstFileA@8          10039c3e f   kernel32:KERNEL32.dll
 0001:00038c44       _GetFileSize@8             10039c44 f   kernel32:KERNEL32.dll
 0001:00038c4a       _GetModuleHandleA@4        10039c4a f   kernel32:KERNEL32.dll
 0001:00038c50       _lstrcmpiA@8               10039c50 f   kernel32:KERNEL32.dll
 0001:00038c56       _SetFilePointer@16         10039c56 f   kernel32:KERNEL32.dll
 0001:00038c5c       _WriteFile@20              10039c5c f   kernel32:KERNEL32.dll
 0001:00038c62       _AddVectoredExceptionHandler@8 10039c62 f   kernel32:KERNEL32.dll
 0001:00038c68       _RemoveVectoredExceptionHandler@4 10039c68 f   kernel32:KERNEL32.dll
 0001:00038c6e       _EnterCriticalSection@4    10039c6e f   kernel32:KERNEL32.dll
 0001:00038c74       _LeaveCriticalSection@4    10039c74 f   kernel32:KERNEL32.dll
 0001:00038c7a       _GetTempPathA@8            10039c7a f   kernel32:KERNEL32.dll
 0001:00038c80       _GetTempFileNameA@16       10039c80 f   kernel32:KERNEL32.dll
 0001:00038c86       _GetPrivateProfileIntA@16  10039c86 f   kernel32:KERNEL32.dll
 0001:00038c8c       _GetPrivateProfileStringA@24 10039c8c f   kernel32:KERNEL32.dll
 0001:00038c92       _WritePrivateProfileStringA@16 10039c92 f   kernel32:KERNEL32.dll
 0001:00038c98       _IsDBCSLeadByte@4          10039c98 f   kernel32:KERNEL32.dll
 0001:00038c9e       _GetCurrentDirectoryA@8    10039c9e f   kernel32:KERNEL32.dll
 0001:00038ca4       _GetFileAttributesA@4      10039ca4 f   kernel32:KERNEL32.dll
 0001:00038caa       _GetPrivateProfileSectionA@16 10039caa f   kernel32:KERNEL32.dll
 0001:00038cb0       _LoadResource@8            10039cb0 f   kernel32:KERNEL32.dll
 0001:00038cb6       _LockResource@4            10039cb6 f   kernel32:KERNEL32.dll
 0001:00038cbc       _FindResourceA@12          10039cbc f   kernel32:KERNEL32.dll
 0001:00038cc2       _IsBadWritePtr@8           10039cc2 f   kernel32:KERNEL32.dll
 0001:00038cc8       _GetCurrentThreadId@0      10039cc8 f   kernel32:KERNEL32.dll
 0001:00038cce       _CreateDCA@16              10039cce f   gdi32:GDI32.dll
 0001:00038cd4       _CreateDIBitmap@24         10039cd4 f   gdi32:GDI32.dll
 0001:00038cda       _CreatePalette@4           10039cda f   gdi32:GDI32.dll
 0001:00038ce0       _DeleteDC@4                10039ce0 f   gdi32:GDI32.dll
 0001:00038ce6       _DeleteObject@4            10039ce6 f   gdi32:GDI32.dll
 0001:00038cec       _GetDIBits@28              10039cec f   gdi32:GDI32.dll
 0001:00038cf2       _SelectObject@8            10039cf2 f   gdi32:GDI32.dll
 0001:00038cf8       _SelectPalette@12          10039cf8 f   gdi32:GDI32.dll
 0001:00038cfe       _TextOutA@20               10039cfe f   gdi32:GDI32.dll
 0001:00038d04       _CreateFontA@56            10039d04 f   gdi32:GDI32.dll
 0001:00038d0a       _GetTextExtentPoint32A@16  10039d0a f   gdi32:GDI32.dll
 0001:00038d10       _SetBkColor@8              10039d10 f   gdi32:GDI32.dll
 0001:00038d16       _SetTextColor@8            10039d16 f   gdi32:GDI32.dll
 0001:00038d1c       _RegCloseKey@4             10039d1c f   advapi32:ADVAPI32.dll
 0001:00038d22       _RegCreateKeyExA@36        10039d22 f   advapi32:ADVAPI32.dll
 0001:00038d28       _RegQueryValueExA@24       10039d28 f   advapi32:ADVAPI32.dll
 0001:00038d2e       _RegSetValueExA@24         10039d2e f   advapi32:ADVAPI32.dll
 0001:00038d34       ??2@YAPAXI@Z               10039d34 f   LIBCMT:new_scalar.obj
 0001:00038d64       ??3@YAXPAXI@Z              10039d64 f   LIBCMT:delete_scalar_size.obj
 0001:00038d72       ??_U@YAPAXI@Z              10039d72 f   LIBCMT:new_array.obj
 0001:00038d7b       ??1type_info@@UAE@XZ       10039d7b f   LIBCMT:std_type_info_static.obj
 0001:00038d82       ??_Etype_info@@UAEPAXI@Z   10039d82 f i LIBCMT:std_type_info_static.obj
 0001:00038d82       ??_Gtype_info@@UAEPAXI@Z   10039d82 f i LIBCMT:std_type_info_static.obj
 0001:00038da5       ??_V@YAXPAX@Z              10039da5 f   LIBCMT:delete_array.obj
 0001:00038db0       __ftoui3                   10039db0 f   LIBCMT:ftol3.obj
 0001:00038e00       __ftoul3                   10039e00 f   LIBCMT:ftol3.obj
 0001:00038e70       __ftoul3_legacy            10039e70 f   LIBCMT:ftol3.obj
 0001:00038ea0       __ftol3                    10039ea0 f   LIBCMT:ftol3.obj
 0001:00038f10       __dtoui3                   10039f10 f   LIBCMT:ftol3.obj
 0001:00038fa0       __dtoul3                   10039fa0 f   LIBCMT:ftol3.obj
 0001:00039050       __dtoul3_legacy            1003a050 f   LIBCMT:ftol3.obj
 0001:00039080       __dtol3                    1003a080 f   LIBCMT:ftol3.obj
 0001:00039130       __ultod3                   1003a130 f   LIBCMT:ftol3.obj
 0001:00039190       __ltod3                    1003a190 f   LIBCMT:ftol3.obj
 0001:000391d1       ??3@YAXPAX@Z               1003a1d1 f   LIBCMT:delete_scalar.obj
 0001:000391e0       __ftol2_sse_excpt          1003a1e0 f   LIBCMT:ftol2.obj
 0001:000391f0       __ftol2_sse                1003a1f0 f   LIBCMT:ftol2.obj
 0001:00039200       __ftoi2                    1003a200 f   LIBCMT:ftol2.obj
 0001:00039280       __ftoui2                   1003a280 f   LIBCMT:ftol2.obj
 0001:00039330       __ftol2                    1003a330 f   LIBCMT:ftol2.obj
 0001:000393e0       __ftoul2                   1003a3e0 f   LIBCMT:ftol2.obj
 0001:000394a0       __ftoul2_legacy            1003a4a0 f   LIBCMT:ftol2.obj
 0001:000394c1       ??_L@YGXPAXIHP6EX0@Z1@Z    1003a4c1 f   LIBCMT:ehvecctr.obj
 0001:000394c6       ??_L@YGXPAXIIP6EX0@Z1@Z    1003a4c6 f   LIBCMT:ehvecctr.obj
 0001:0003953a       ??_M@YGXPAXIHP6EX0@Z@Z     1003a53a f   LIBCMT:ehvecdtr.obj
 0001:0003953f       ??_M@YGXPAXIIP6EX0@Z@Z     1003a53f f   LIBCMT:ehvecdtr.obj
 0001:000395f3       ?__ArrayUnwind@@YGXPAXIIP6EX0@Z@Z 1003a5f3 f   LIBCMT:ehvecdtr.obj
 0001:000399c3       __CRT_INIT@12              1003a9c3 f   LIBCMT:dll_dllmain.obj
 0001:000399cc       __DllMainCRTStartup@12     1003a9cc f   LIBCMT:dll_dllmain.obj
 0001:000399ef       ??0bad_alloc@std@@QAE@XZ   1003a9ef f i LIBCMT:throw_bad_alloc.obj
 0001:00039a07       ?__scrt_throw_std_bad_alloc@@YAXXZ 1003aa07 f   LIBCMT:throw_bad_alloc.obj
 0001:00039a24       ?__scrt_throw_std_bad_array_new_length@@YAXXZ 1003aa24 f   LIBCMT:throw_bad_alloc.obj
 0001:00039a41       ___isa_available_init      1003aa41 f   LIBCMT:cpu_disp.obj
 0001:00039c20       __SEH_prolog4              1003ac20 f   LIBCMT:sehprolg4.obj
 0001:00039c70       __SEH_epilog4              1003ac70 f   LIBCMT:sehprolg4.obj
 0001:00039c84       @_guard_check_icall_nop@4  1003ac84 f i LIBCMT:guard_support.obj
 0001:00039c87       _ReadNoFence               1003ac87 f i LIBCMT:guard_support.obj
 0001:00039c91       _ReadPointerNoFence        1003ac91 f i LIBCMT:guard_support.obj
 0001:00039c9b       ___castguard_check_failure_debugbreak 1003ac9b f i LIBCMT:guard_support.obj
 0001:00039cb6       ___castguard_check_failure_fastfail 1003acb6 f i LIBCMT:guard_support.obj
 0001:00039cd5       ___castguard_check_failure_nop 1003acd5 f i LIBCMT:guard_support.obj
 0001:00039cd8       ___castguard_check_failure_os_handled 1003acd8 f i LIBCMT:guard_support.obj
 0001:00039d34       ___castguard_slow_path_check_debugbreak 1003ad34 f i LIBCMT:guard_support.obj
 0001:00039d61       ___castguard_slow_path_check_fastfail 1003ad61 f i LIBCMT:guard_support.obj
 0001:00039d92       ___castguard_slow_path_check_nop 1003ad92 f i LIBCMT:guard_support.obj
 0001:00039d95       ___castguard_slow_path_check_os_handled 1003ad95 f i LIBCMT:guard_support.obj
 0001:00039df0       __guard_icall_checks_enforced 1003adf0 f i LIBCMT:guard_support.obj
 0001:00039e4f       ___security_init_cookie    1003ae4f f   LIBCMT:gs_support.obj
 0001:00039e9a       ?__scrt_initialize_type_info@@YAXXZ 1003ae9a f   LIBCMT:tncleanup.obj
 0001:00039ea6       ?__scrt_uninitialize_type_info@@YAXXZ 1003aea6 f   LIBCMT:tncleanup.obj
 0001:00039eb2       ___local_stdio_scanf_options 1003aeb2 f i LIBCMT:default_local_stdio_options.obj
 0001:00039eb8       ___scrt_initialize_default_local_stdio_options 1003aeb8 f   LIBCMT:default_local_stdio_options.obj
 0001:00039ed5       ?configure_argv@__scrt_narrow_argv_policy@@SAHXZ 1003aed5 f i LIBCMT:utility.obj
 0001:00039f26       ?initialize_environment@__scrt_narrow_environment_policy@@SAHXZ 1003af26 f i LIBCMT:utility.obj
 0001:00039f5e       _NtCurrentTeb              1003af5e f i LIBCMT:utility.obj
 0001:00039f65       ___scrt_acquire_startup_lock 1003af65 f   LIBCMT:utility.obj
 0001:00039f97       ___scrt_dllmain_after_initialize_c 1003af97 f   LIBCMT:utility.obj
 0001:00039fc2       ___scrt_dllmain_before_initialize_c 1003afc2 f   LIBCMT:utility.obj
 0001:00039fd0       ___scrt_dllmain_crt_thread_attach 1003afd0 f   LIBCMT:utility.obj
 0001:00039fef       ___scrt_dllmain_crt_thread_detach 1003afef f   LIBCMT:utility.obj
 0001:00039ffc       ___scrt_dllmain_exception_filter 1003affc f   LIBCMT:utility.obj
 0001:0003a030       ___scrt_dllmain_uninitialize_c 1003b030 f   LIBCMT:utility.obj
 0001:0003a053       ___scrt_dllmain_uninitialize_critical 1003b053 f   LIBCMT:utility.obj
 0001:0003a060       ___scrt_initialize_crt     1003b060 f   LIBCMT:utility.obj
 0001:0003a099       ___scrt_initialize_onexit_tables 1003b099 f   LIBCMT:utility.obj
 0001:0003a120       ___scrt_is_nonwritable_in_current_image 1003b120 f   LIBCMT:utility.obj
 0001:0003a1b4       ___scrt_release_startup_lock 1003b1b4 f   LIBCMT:utility.obj
 0001:0003a1d1       ___scrt_uninitialize_crt   1003b1d1 f   LIBCMT:utility.obj
 0001:0003a1f9       __onexit                   1003b1f9 f   LIBCMT:utility.obj
 0001:0003a226       _at_quick_exit             1003b226 f   LIBCMT:utility.obj
 0001:0003a249       _atexit                    1003b249 f   LIBCMT:utility.obj
 0001:0003a25e       ___scrt_get_dyn_tls_init_callback 1003b25e f   LIBCMT:dyn_tls_init.obj
 0001:0003a264       ___scrt_fastfail           1003b264 f   LIBCMT:utility_desktop.obj
 0001:0003a37f       ___scrt_get_show_window_mode 1003b37f f   LIBCMT:utility_desktop.obj
 0001:0003a3b0       ___scrt_initialize_mta     1003b3b0 f   LIBCMT:utility_desktop.obj
 0001:0003a3b5       ___scrt_initialize_winrt   1003b3b5 f   LIBCMT:utility_desktop.obj
 0001:0003a3b8       ___scrt_is_managed_app     1003b3b8 f   LIBCMT:utility_desktop.obj
 0001:0003a3fa       ___scrt_set_unhandled_exception_filter 1003b3fa f   LIBCMT:utility_desktop.obj
 0001:0003a406       ___scrt_exe_initialize_mta 1003b406 f   LIBCMT:utility_desktop.obj
 0001:0003a406       ___scrt_stub_for_initialize_mta 1003b406 f   LIBCMT:utility_desktop.obj
 0001:0003a409       ___scrt_unhandled_exception_filter@4 1003b409 f   LIBCMT:utility_desktop.obj
 0001:0003a45f       __crt_debugger_hook        1003b45f f   LIBCMT:utility_desktop.obj
 0001:0003a467       __RTC_Initialize           1003b467 f   LIBCMT:initsect.obj
 0001:0003a493       __RTC_Terminate            1003b493 f   LIBCMT:initsect.obj
 0001:0003a4bf       @__security_check_cookie@4 1003b4bf f   LIBCMT:secchk.obj
 0001:0003a4cd       __get_startup_argv_mode    1003b4cd f   LIBCMT:argv_mode.obj
 0001:0003a4d1       ___scrt_is_ucrt_dll_in_use 1003b4d1 f   LIBCMT:ucrt_detection.obj
 0001:0003a4dd       ___raise_securityfailure   1003b4dd f   LIBCMT:gs_report.obj
 0001:0003a505       ___report_gsfailure        1003b505 f   LIBCMT:gs_report.obj
 0001:0003a5ff       ___report_rangecheckfailure 1003b5ff f   LIBCMT:gs_report.obj
 0001:0003a60b       ___report_securityfailure  1003b60b f   LIBCMT:gs_report.obj
 0001:0003a6da       ___report_securityfailureEx 1003b6da f   LIBCMT:gs_report.obj
 0001:0003a7ef       ??0bad_function_call@std@@QAE@ABV01@@Z 1003b7ef f i libcpmt:xthrow.obj
 0001:0003a80a       ??0bad_function_call@std@@QAE@XZ 1003b80a f i libcpmt:xthrow.obj
 0001:0003a81b       ??0exception@std@@QAE@QBD@Z 1003b81b f i libcpmt:xthrow.obj
 0001:0003a850       ??0exception@std@@QAE@XZ   1003b850 f i libcpmt:xthrow.obj
 0001:0003a861       ??0invalid_argument@std@@QAE@ABV01@@Z 1003b861 f i libcpmt:xthrow.obj
 0001:0003a87c       ??0invalid_argument@std@@QAE@PBD@Z 1003b87c f i libcpmt:xthrow.obj
 0001:0003a89b       ??0length_error@std@@QAE@ABV01@@Z 1003b89b f i libcpmt:xthrow.obj
 0001:0003a8b6       ??0length_error@std@@QAE@PBD@Z 1003b8b6 f i libcpmt:xthrow.obj
 0001:0003a8d5       ??0logic_error@std@@QAE@ABV01@@Z 1003b8d5 f i libcpmt:xthrow.obj
 0001:0003a8f0       ??0logic_error@std@@QAE@PBD@Z 1003b8f0 f i libcpmt:xthrow.obj
 0001:0003a90f       ??0out_of_range@std@@QAE@ABV01@@Z 1003b90f f i libcpmt:xthrow.obj
 0001:0003a92a       ??0out_of_range@std@@QAE@PBD@Z 1003b92a f i libcpmt:xthrow.obj
 0001:0003a949       ??0overflow_error@std@@QAE@ABV01@@Z 1003b949 f i libcpmt:xthrow.obj
 0001:0003a964       ??0overflow_error@std@@QAE@PBD@Z 1003b964 f i libcpmt:xthrow.obj
 0001:0003a983       ??0regex_error@std@@QAE@ABV01@@Z 1003b983 f i libcpmt:xthrow.obj
 0001:0003a9a7       ??0regex_error@std@@QAE@W4error_type@regex_constants@1@@Z 1003b9a7 f i libcpmt:xthrow.obj
 0001:0003a9d5       ??0runtime_error@std@@QAE@ABV01@@Z 1003b9d5 f i libcpmt:xthrow.obj
 0001:0003a9f0       ??0runtime_error@std@@QAE@PBD@Z 1003b9f0 f i libcpmt:xthrow.obj
 0001:0003aa0f       ??1bad_function_call@std@@UAE@XZ 1003ba0f f i libcpmt:xthrow.obj
 0001:0003aa20       ??1invalid_argument@std@@UAE@XZ 1003ba20 f i libcpmt:xthrow.obj
 0001:0003aa31       ??1length_error@std@@UAE@XZ 1003ba31 f i libcpmt:xthrow.obj
 0001:0003aa42       ??1logic_error@std@@UAE@XZ 1003ba42 f i libcpmt:xthrow.obj
 0001:0003aa53       ??1out_of_range@std@@UAE@XZ 1003ba53 f i libcpmt:xthrow.obj
 0001:0003aa64       ??1overflow_error@std@@UAE@XZ 1003ba64 f i libcpmt:xthrow.obj
 0001:0003aa75       ??1regex_error@std@@UAE@XZ 1003ba75 f i libcpmt:xthrow.obj
 0001:0003aa86       ??1runtime_error@std@@UAE@XZ 1003ba86 f i libcpmt:xthrow.obj
 0001:0003aa97       ??_Ebad_function_call@std@@UAEPAXI@Z 1003ba97 f i libcpmt:xthrow.obj
 0001:0003aa97       ??_Gbad_function_call@std@@UAEPAXI@Z 1003ba97 f i libcpmt:xthrow.obj
 0001:0003aac4       ??_Einvalid_argument@std@@UAEPAXI@Z 1003bac4 f i libcpmt:xthrow.obj
 0001:0003aac4       ??_Ginvalid_argument@std@@UAEPAXI@Z 1003bac4 f i libcpmt:xthrow.obj
 0001:0003aaf1       ??_Elength_error@std@@UAEPAXI@Z 1003baf1 f i libcpmt:xthrow.obj
 0001:0003aaf1       ??_Glength_error@std@@UAEPAXI@Z 1003baf1 f i libcpmt:xthrow.obj
 0001:0003ab1e       ??_Elogic_error@std@@UAEPAXI@Z 1003bb1e f i libcpmt:xthrow.obj
 0001:0003ab1e       ??_Glogic_error@std@@UAEPAXI@Z 1003bb1e f i libcpmt:xthrow.obj
 0001:0003ab4b       ??_Eout_of_range@std@@UAEPAXI@Z 1003bb4b f i libcpmt:xthrow.obj
 0001:0003ab4b       ??_Gout_of_range@std@@UAEPAXI@Z 1003bb4b f i libcpmt:xthrow.obj
 0001:0003ab78       ??_Eoverflow_error@std@@UAEPAXI@Z 1003bb78 f i libcpmt:xthrow.obj
 0001:0003ab78       ??_Goverflow_error@std@@UAEPAXI@Z 1003bb78 f i libcpmt:xthrow.obj
 0001:0003aba5       ??_Eregex_error@std@@UAEPAXI@Z 1003bba5 f i libcpmt:xthrow.obj
 0001:0003aba5       ??_Gregex_error@std@@UAEPAXI@Z 1003bba5 f i libcpmt:xthrow.obj
 0001:0003abd2       ??_Eruntime_error@std@@UAEPAXI@Z 1003bbd2 f i libcpmt:xthrow.obj
 0001:0003abd2       ??_Gruntime_error@std@@UAEPAXI@Z 1003bbd2 f i libcpmt:xthrow.obj
 0001:0003abff       ?_Stringify@regex_error@std@@CAPBDW4error_type@regex_constants@2@@Z 1003bbff f i libcpmt:xthrow.obj
 0001:0003acbf       ?_Xbad_alloc@std@@YAXXZ    1003bcbf f   libcpmt:xthrow.obj
 0001:0003acdc       ?_Xbad_function_call@std@@YAXXZ 1003bcdc f   libcpmt:xthrow.obj
 0001:0003acf9       ?_Xinvalid_argument@std@@YAXPBD@Z 1003bcf9 f   libcpmt:xthrow.obj
 0001:0003ad19       ?_Xlength_error@std@@YAXPBD@Z 1003bd19 f   libcpmt:xthrow.obj
 0001:0003ad39       ?_Xout_of_range@std@@YAXPBD@Z 1003bd39 f   libcpmt:xthrow.obj
 0001:0003ad59       ?_Xoverflow_error@std@@YAXPBD@Z 1003bd59 f   libcpmt:xthrow.obj
 0001:0003ad79       ?_Xregex_error@std@@YAXW4error_type@regex_constants@1@@Z 1003bd79 f   libcpmt:xthrow.obj
 0001:0003ad99       ?_Xruntime_error@std@@YAXPBD@Z 1003bd99 f   libcpmt:xthrow.obj
 0001:0003adb9       ?what@bad_function_call@std@@UBEPBDXZ 1003bdb9 f i libcpmt:xthrow.obj
 0001:0003adc0       _memcpy                    1003bdc0 f   libvcruntime:memcpy.obj
 0001:0003b340       _memset                    1003c340 f   libvcruntime:memset.obj
 0001:0003b49a       ??$?0AAViterator@TryBlockMap@__FrameHandler3@@AAV012@$0A@@?$pair@Viterator@TryBlockMap@__FrameHandler3@@V123@@std@@QAE@AAViterator@TryBlockMap@__FrameHandler3@@0@Z 1003c49a f i libvcruntime:trnsctrl.obj
 0001:0003b4be       ??$forward@AAViterator@TryBlockMap@__FrameHandler3@@@std@@YAAAViterator@TryBlockMap@__FrameHandler3@@AAV123@@Z 1003c4be f i libvcruntime:trnsctrl.obj
 0001:0003b4c6       ??0iterator@TryBlockMap@__FrameHandler3@@QAE@AAV12@I@Z 1003c4c6 f i libvcruntime:trnsctrl.obj
 0001:0003b4da       ?GetRangeOfTrysToCheck@__FrameHandler3@@SA?AU?$pair@Viterator@TryBlockMap@__FrameHandler3@@V123@@std@@AAVTryBlockMap@1@HPAXPBU_s_FuncInfo@@H@Z 1003c4da f   libvcruntime:trnsctrl.obj
 0001:0003b54a       ?_CallCatchBlock2@@YAPAXPAUEHRegistrationNode@@PBU_s_FuncInfo@@PAXHK@Z 1003c54a f   libvcruntime:trnsctrl.obj
 0001:0003b5a7       ?_CallSETranslator@@YAHPAUEHExceptionRecord@@PAUEHRegistrationNode@@PAX2PBU_s_FuncInfo@@H1@Z 1003c5a7 f   libvcruntime:trnsctrl.obj
 0001:0003b69d       ?_JumpToContinuation@@YGXPAXPAUEHRegistrationNode@@@Z 1003c69d f   libvcruntime:trnsctrl.obj
 0001:0003b6cd       ?_UnwindNestedFrames@@YGXPAUEHRegistrationNode@@PAUEHExceptionRecord@@@Z 1003c6cd f   libvcruntime:trnsctrl.obj
 0001:0003b720       __CatchGuardHandler        1003c720 f   libvcruntime:trnsctrl.obj
 0001:0003b751       __CreateFrameInfo          1003c751 f   libvcruntime:trnsctrl.obj
 0001:0003b775       __FindAndUnlinkFrame       1003c775 f   libvcruntime:trnsctrl.obj
 0001:0003b7bd       __TranslatorGuardHandler   1003c7bd f   libvcruntime:trnsctrl.obj
 0001:0003b85a       ___CxxFrameHandler         1003c85a f   libvcruntime:trnsctrl.obj
 0001:0003b890       ___CxxFrameHandler2        1003c890 f   libvcruntime:trnsctrl.obj
 0001:0003b8c6       ___CxxFrameHandler3        1003c8c6 f   libvcruntime:trnsctrl.obj
 0001:0003b8fc       ___CxxLongjmpUnwind@4      1003c8fc f   libvcruntime:trnsctrl.obj
 0001:0003b930       _memmove                   1003c930 f   libvcruntime:memmove.obj
 0001:0003bea4       ??$?RD@__crt_public_free_policy@@QBEXQBD@Z 1003cea4 f i libvcruntime:std_exception.obj
 0001:0003beb4       ??0?$__crt_unique_heap_ptr@DU__crt_public_free_policy@@@@QAE@QAD@Z 1003ceb4 f i libvcruntime:std_exception.obj
 0001:0003bec2       ??1?$__crt_unique_heap_ptr@DU__crt_public_free_policy@@@@QAE@XZ 1003cec2 f i libvcruntime:std_exception.obj
 0001:0003bed2       ??B?$__crt_unique_heap_ptr@DU__crt_public_free_policy@@@@QBE_NXZ 1003ced2 f i libvcruntime:std_exception.obj
 0001:0003bed9       ?detach@?$__crt_unique_heap_ptr@DU__crt_public_free_policy@@@@QAEPADXZ 1003ced9 f i libvcruntime:std_exception.obj
 0001:0003bedf       ?get@?$__crt_unique_heap_ptr@DU__crt_public_free_policy@@@@QBEPADXZ 1003cedf f i libvcruntime:std_exception.obj
 0001:0003bee2       ?is_valid@?$__crt_unique_heap_ptr@DU__crt_public_free_policy@@@@QBE_NXZ 1003cee2 f i libvcruntime:std_exception.obj
 0001:0003bee9       ?release@?$__crt_unique_heap_ptr@DU__crt_public_free_policy@@@@QAEXXZ 1003cee9 f i libvcruntime:std_exception.obj
 0001:0003bef9       ___std_exception_copy      1003cef9 f   libvcruntime:std_exception.obj
 0001:0003bf5c       ___std_exception_destroy   1003cf5c f   libvcruntime:std_exception.obj
 0001:0003bf7b       __CxxThrowException@8      1003cf7b f   libvcruntime:throw.obj
 0001:0003c000       __except_handler3          1003d000 f   libvcruntime:exsup3.obj
 0001:0003c120       __seh_longjmp_unwind@4     1003d120 f   libvcruntime:exsup3.obj
 0001:0003c150       _strchr                    1003d150 f   libvcruntime:strchr.obj
 0001:0003c1be       ___from_strstr_to_strchr   1003d1be     libvcruntime:strchr.obj
 0001:0003c280       _strstr                    1003d280 f   libvcruntime:strstr.obj
 0001:0003c608       _memcmp                    1003d608 f   libvcruntime:memcmp.obj
 0001:0003f270       _strrchr                   10040270 f   libvcruntime:strrchr.obj
 0001:0003f3f0       __except_handler4          100403f0 f   libvcruntime:chandler4.obj
 0001:0003f54e       ___DestructExceptionObject 1004054e f   libvcruntime:ehhelpers.obj
 0001:0003f5ef       ?_CallMemberFunction0@@YGXQAX0@Z 100405ef f i libvcruntime:ehhelpers.obj
 0001:0003f654       ?raw_name@type_info@@QBEPBDXZ 10040654 f i libvcruntime:ehhelpers.obj
 0001:0003f658       __IsExceptionObjectToBeDestroyed 10040658 f   libvcruntime:ehhelpers.obj
 0001:0003f67e       __SetWinRTOutOfMemoryExceptionCallback 1004067e f   libvcruntime:ehhelpers.obj
 0001:0003f68b       ___AdjustPointer           1004068b f   libvcruntime:ehhelpers.obj
 0001:0003f6b0       ___FrameUnwindFilter       100406b0 f   libvcruntime:ehhelpers.obj
 0001:0003f706       ___GetPlatformExceptionInfo 10040706 f   libvcruntime:ehhelpers.obj
 0001:0003f752       ___current_exception       10040752 f   libvcruntime:ehhelpers.obj
 0001:0003f75b       ___current_exception_context 1004075b f   libvcruntime:ehhelpers.obj
 0001:0003f764       ___processing_throw        10040764 f   libvcruntime:ehhelpers.obj
 0001:0003f76d       ___std_terminate           1004076d f   libvcruntime:ehhelpers.obj
 0001:0003f772       __is_exception_typeof      10040772 f   libvcruntime:ehhelpers.obj
 0001:0003f824       ??$?RD@__crt_internal_free_policy@@QBEXQBD@Z 10040824 f i libvcruntime:std_type_info.obj
 0001:0003f834       ??$?RX@__crt_internal_free_policy@@QBEXQBX@Z 10040834 f i libvcruntime:std_type_info.obj
 0001:0003f844       ??$__crt_interlocked_compare_exchange_pointer@$$CBDPAD$$T@@YAPBDPDSBDQAD$$T@Z 10040844 f i libvcruntime:std_type_info.obj
 0001:0003f856       ??$__crt_interlocked_read_pointer@$$CBD@@YAPBDPDSBD@Z 10040856 f i libvcruntime:std_type_info.obj
 0001:0003f861       ??0?$__crt_unique_heap_ptr@DU__crt_internal_free_policy@@@@QAE@QAD@Z 10040861 f i libvcruntime:std_type_info.obj
 0001:0003f86f       ??0?$__crt_unique_heap_ptr@XU__crt_internal_free_policy@@@@QAE@QAX@Z 1004086f f i libvcruntime:std_type_info.obj
 0001:0003f87d       ??1?$__crt_unique_heap_ptr@DU__crt_internal_free_policy@@@@QAE@XZ 1004087d f i libvcruntime:std_type_info.obj
 0001:0003f88d       ??1?$__crt_unique_heap_ptr@XU__crt_internal_free_policy@@@@QAE@XZ 1004088d f i libvcruntime:std_type_info.obj
 0001:0003f89d       ??B?$__crt_unique_heap_ptr@DU__crt_internal_free_policy@@@@QBE_NXZ 1004089d f i libvcruntime:std_type_info.obj
 0001:0003f8a4       ??B?$__crt_unique_heap_ptr@XU__crt_internal_free_policy@@@@QBE_NXZ 100408a4 f i libvcruntime:std_type_info.obj
 0001:0003f8d7       ?__crt_interlocked_read_32@@YAHPDH@Z 100408d7 f i libvcruntime:std_type_info.obj
 0001:0003f8e2       ?detach@?$__crt_unique_heap_ptr@XU__crt_internal_free_policy@@@@QAEPAXXZ 100408e2 f i libvcruntime:std_type_info.obj
 0001:0003f8e8       ?get@?$__crt_unique_heap_ptr@DU__crt_internal_free_policy@@@@QBEPADXZ 100408e8 f i libvcruntime:std_type_info.obj
 0001:0003f8eb       ?get@?$__crt_unique_heap_ptr@XU__crt_internal_free_policy@@@@QBEPAXXZ 100408eb f i libvcruntime:std_type_info.obj
 0001:0003f8ee       ?is_valid@?$__crt_unique_heap_ptr@DU__crt_internal_free_policy@@@@QBE_NXZ 100408ee f i libvcruntime:std_type_info.obj
 0001:0003f8f5       ?is_valid@?$__crt_unique_heap_ptr@XU__crt_internal_free_policy@@@@QBE_NXZ 100408f5 f i libvcruntime:std_type_info.obj
 0001:0003f8fc       ?release@?$__crt_unique_heap_ptr@DU__crt_internal_free_policy@@@@QAEXXZ 100408fc f i libvcruntime:std_type_info.obj
 0001:0003f90c       ?release@?$__crt_unique_heap_ptr@XU__crt_internal_free_policy@@@@QAEXXZ 1004090c f i libvcruntime:std_type_info.obj
 0001:0003f91c       ___std_type_info_compare   1004091c f   libvcruntime:std_type_info.obj
 0001:0003f958       ___std_type_info_destroy_list 10040958 f   libvcruntime:std_type_info.obj
 0001:0003f97b       ___std_type_info_hash      1004097b f   libvcruntime:std_type_info.obj
 0001:0003f9a1       ___std_type_info_name      100409a1 f   libvcruntime:std_type_info.obj
 0001:0003fa67       ___vcrt_initialize         10040a67 f   libvcruntime:initialization.obj
 0001:0003fa86       ___vcrt_thread_attach      10040a86 f   libvcruntime:initialization.obj
 0001:0003fa91       ___vcrt_thread_detach      10040a91 f   libvcruntime:initialization.obj
 0001:0003fa9c       ___vcrt_uninitialize       10040a9c f   libvcruntime:initialization.obj
 0001:0003fab3       ___vcrt_uninitialize_critical 10040ab3 f   libvcruntime:initialization.obj
 0001:0003fabe       ??$?RU__vcrt_ptd@@@__crt_internal_free_policy@@QBEXQBU__vcrt_ptd@@@Z 10040abe f i libvcruntime:per_thread_data.obj
 0001:0003face       ??0?$__crt_unique_heap_ptr@U__vcrt_ptd@@U__crt_internal_free_policy@@@@QAE@QAU__vcrt_ptd@@@Z 10040ace f i libvcruntime:per_thread_data.obj
 0001:0003faeb       ??1?$__crt_unique_heap_ptr@U__vcrt_ptd@@U__crt_internal_free_policy@@@@QAE@XZ 10040aeb f i libvcruntime:per_thread_data.obj
 0001:0003fb04       ??B?$__crt_unique_heap_ptr@U__vcrt_ptd@@U__crt_internal_free_policy@@@@QBE_NXZ 10040b04 f i libvcruntime:per_thread_data.obj
 0001:0003fb0b       ?detach@?$__crt_unique_heap_ptr@U__vcrt_ptd@@U__crt_internal_free_policy@@@@QAEPAU__vcrt_ptd@@XZ 10040b0b f i libvcruntime:per_thread_data.obj
 0001:0003fb11       ?get@?$__crt_unique_heap_ptr@U__vcrt_ptd@@U__crt_internal_free_policy@@@@QBEPAU__vcrt_ptd@@XZ 10040b11 f i libvcruntime:per_thread_data.obj
 0001:0003fb14       ?is_valid@?$__crt_unique_heap_ptr@U__vcrt_ptd@@U__crt_internal_free_policy@@@@QBE_NXZ 10040b14 f i libvcruntime:per_thread_data.obj
 0001:0003fb1b       ?release@?$__crt_unique_heap_ptr@U__vcrt_ptd@@U__crt_internal_free_policy@@@@QAEXXZ 10040b1b f i libvcruntime:per_thread_data.obj
 0001:0003fb45       ___vcrt_freefls@4          10040b45 f   libvcruntime:per_thread_data.obj
 0001:0003fb61       ___vcrt_freeptd            10040b61 f   libvcruntime:per_thread_data.obj
 0001:0003fb97       ___vcrt_getptd             10040b97 f   libvcruntime:per_thread_data.obj
 0001:0003fba5       ___vcrt_getptd_noexit      10040ba5 f   libvcruntime:per_thread_data.obj
 0001:0003fc37       ___vcrt_getptd_noinit      10040c37 f   libvcruntime:per_thread_data.obj
 0001:0003fc6e       ___vcrt_initialize_ptd     10040c6e f   libvcruntime:per_thread_data.obj
 0001:0003fca1       ___vcrt_uninitialize_ptd   10040ca1 f   libvcruntime:per_thread_data.obj
 0001:000403ee       ??$TypeMatchHelper@V__FrameHandler3@@@@YAHPBU_s_HandlerType@@PBU_s_CatchableType@@PBU_s_ThrowInfo@@@Z 100413ee f i libvcruntime:frame.obj
 0001:0004047c       ??$__InternalCxxFrameHandler@V__FrameHandler3@@@@YA?AW4_EXCEPTION_DISPOSITION@@PAUEHExceptionRecord@@PAUEHRegistrationNode@@PAU_CONTEXT@@PAXPBU_s_FuncInfo@@H1E@Z 1004147c f i libvcruntime:frame.obj
 0001:0004057e       ??0HandlerMap@__FrameHandler3@@QAE@PBU_s_TryBlockMapEntry@@II@Z 1004157e f i libvcruntime:frame.obj
 0001:00040595       ??0TryBlockMap@__FrameHandler3@@QAE@PBU_s_FuncInfo@@I@Z 10041595 f i libvcruntime:frame.obj
 0001:000405a9       ??0bad_exception@std@@QAE@ABV01@@Z 100415a9 f i libvcruntime:frame.obj
 0001:000405c4       ??0bad_exception@std@@QAE@XZ 100415c4 f i libvcruntime:frame.obj
 0001:000405dc       ??0iterator@HandlerMap@__FrameHandler3@@QAE@AAV12@I@Z 100415dc f i libvcruntime:frame.obj
 0001:000405f0       ??1bad_exception@std@@UAE@XZ 100415f0 f i libvcruntime:frame.obj
 0001:00040601       ??8iterator@HandlerMap@__FrameHandler3@@QBE_NABV012@@Z 10041601 f i libvcruntime:frame.obj
 0001:00040614       ??8type_info@@QBE_NABV0@@Z 10041614 f i libvcruntime:frame.obj
 0001:00040633       ??9iterator@HandlerMap@__FrameHandler3@@QBE_NABV012@@Z 10041633 f i libvcruntime:frame.obj
 0001:00040646       ??Diterator@HandlerMap@__FrameHandler3@@QAE?BU_s_HandlerType@@XZ 10041646 f i libvcruntime:frame.obj
 0001:00040665       ??Diterator@TryBlockMap@__FrameHandler3@@QAE?BU_s_TryBlockMapEntry@@XZ 10041665 f i libvcruntime:frame.obj
 0001:00040687       ??Eiterator@HandlerMap@__FrameHandler3@@QAEAAV012@XZ 10041687 f i libvcruntime:frame.obj
 0001:0004068d       ??Eiterator@TryBlockMap@__FrameHandler3@@QAEAAV012@XZ 1004168d f i libvcruntime:frame.obj
 0001:00040693       ??Miterator@TryBlockMap@__FrameHandler3@@QBE_NABV012@@Z 10041693 f i libvcruntime:frame.obj
 0001:000406a6       ??_Ebad_exception@std@@UAEPAXI@Z 100416a6 f i libvcruntime:frame.obj
 0001:000406a6       ??_Gbad_exception@std@@UAEPAXI@Z 100416a6 f i libvcruntime:frame.obj
 0001:000406d3       ?BuildCatchObject@__FrameHandler3@@SAXPAUEHExceptionRecord@@PAXPBU_s_HandlerType@@PBU_s_CatchableType@@@Z 100416d3 f   libvcruntime:frame.obj
 0001:000406d8       ?BuildCatchObjectHelper@__FrameHandler3@@SAHPAUEHExceptionRecord@@PAXPBU_s_HandlerType@@PBU_s_CatchableType@@@Z 100416d8 f   libvcruntime:frame.obj
 0001:00040939       ?FrameUnwindToEmptyState@__FrameHandler3@@SAXPAUEHRegistrationNode@@PAXPBU_s_FuncInfo@@@Z 10041939 f   libvcruntime:frame.obj
 0001:00040951       ?FrameUnwindToState@__FrameHandler3@@SAXPAUEHRegistrationNode@@PAXPBU_s_FuncInfo@@H@Z 10041951 f   libvcruntime:frame.obj
 0001:00040a39       ?GetMaxState@__FrameHandler3@@SAHPAXPBU_s_FuncInfo@@@Z 10041a39 f i libvcruntime:frame.obj
 0001:00040b17       ?TypeMatch@__FrameHandler3@@SAHPBU_s_HandlerType@@PBU_s_CatchableType@@PBU_s_ThrowInfo@@@Z 10041b17 f   libvcruntime:frame.obj
 0001:00040b20       ?_CallMemberFunction1@@YGXQAX00@Z 10041b20 f i libvcruntime:frame.obj
 0001:00040b30       ?_CallMemberFunction2@@YGXQAX00H@Z 10041b30 f i libvcruntime:frame.obj
 0001:00040b43       ?begin@HandlerMap@__FrameHandler3@@QAE?AViterator@12@XZ 10041b43 f i libvcruntime:frame.obj
 0001:00040b53       ?end@HandlerMap@__FrameHandler3@@QAE?AViterator@12@XZ 10041b53 f i libvcruntime:frame.obj
 0001:00040b64       ?getESTypes@__FrameHandler3@@SAPBU_s_ESTypeList@@PBU_s_FuncInfo@@@Z 10041b64 f i libvcruntime:frame.obj
 0001:00040b6f       ?getLastEntry@HandlerMap@__FrameHandler3@@QAEPBU_s_HandlerType@@XZ 10041b6f f i libvcruntime:frame.obj
 0001:00040b7d       ?getMagicNum@__FrameHandler3@@SAIPBU_s_FuncInfo@@@Z 10041b7d f i libvcruntime:frame.obj
 0001:00040b8c       ?getNumTryBlocks@TryBlockMap@__FrameHandler3@@QAEIXZ 10041b8c f i libvcruntime:frame.obj
 0001:00040b92       ?isEHs@__FrameHandler3@@SA_NPBU_s_FuncInfo@@@Z 10041b92 f i libvcruntime:frame.obj
 0001:00040b9f       ?isNoExcept@__FrameHandler3@@SA_NPBU_s_FuncInfo@@@Z 10041b9f f i libvcruntime:frame.obj
 0001:00040baf       ___BuildCatchObject        10041baf f   libvcruntime:frame.obj
 0001:00040bb4       ___BuildCatchObjectHelper  10041bb4 f   libvcruntime:frame.obj
 0001:00040bbd       ___TypeMatch               10041bbd f   libvcruntime:frame.obj
 0001:00040bc6       ___vcrt_EncodePointer      10041bc6 f i libvcruntime:frame.obj
 0001:00040be0       __CallSettingFrame@12      10041be0 f   libvcruntime:lowhelpr.obj
 0001:00040c07       __NLG_Return               10041c07     libvcruntime:lowhelpr.obj
 0001:00040c37       ___except_validate_context_record 10041c37 f   libvcruntime:jbcxrval.obj
 0001:00040c67       ___except_validate_jump_buffer 10041c67 f   libvcruntime:jbcxrval.obj
 0001:00040c94       ___except_validate_jump_buffer_common 10041c94 f i libvcruntime:jbcxrval.obj
 0001:00040ccd       _CallDestructExceptionObject 10041ccd f   libvcruntime:calldtor.obj
 0001:00040d10       __global_unwind2           10041d10 f   libvcruntime:exsup.obj
 0001:00040d90       __local_unwind2            10041d90 f   libvcruntime:exsup.obj
 0001:00040e30       __abnormal_termination     10041e30 f   libvcruntime:exsup.obj
 0001:00040e60       __NLG_Notify1              10041e60 f   libvcruntime:exsup.obj
 0001:00040e70       __NLG_Notify               10041e70 f   libvcruntime:exsup.obj
 0001:00040e87       __NLG_Dispatch             10041e87     libvcruntime:exsup.obj
 0001:00040e87       __NLG_Dispatch2            10041e87     libvcruntime:exsup.obj
 0001:00040e90       __NLG_Call                 10041e90 f   libvcruntime:exsup.obj
 0001:00040e92       __NLG_Return2              10041e92     libvcruntime:exsup.obj
 0001:00040f60       __ValidateEH3RN            10041f60 f   libvcruntime:eh3valid.obj
 0001:00041310       __local_unwind4            10042310 f   libvcruntime:exsup4.obj
 0001:00041400       __seh_longjmp_unwind4@4    10042400 f   libvcruntime:exsup4.obj
 0001:00041430       @_EH4_CallFilterFunc@8     10042430 f   libvcruntime:exsup4.obj
 0001:00041450       @_EH4_TransferToHandler@8  10042450 f   libvcruntime:exsup4.obj
 0001:00041470       @_EH4_GlobalUnwind2@8      10042470 f   libvcruntime:exsup4.obj
 0001:00041490       @_EH4_LocalUnwind@16       10042490 f   libvcruntime:exsup4.obj
 0001:000414a7       ??$?0$00@DName@@QAE@PBDU?$StringLifeSelector@$00@@@Z 100424a7 f i libvcruntime:undname.obj
 0001:000414da       ??$?0$00@pcharNode@@QAE@PBDHU?$StringLifeSelector@$00@@@Z 100424da f i libvcruntime:undname.obj
 0001:000414f5       ??$?0$01@DName@@QAE@PBDU?$StringLifeSelector@$01@@@Z 100424f5 f i libvcruntime:undname.obj
 0001:00041528       ??$?0$01@pcharNode@@QAE@PBDHU?$StringLifeSelector@$01@@@Z 10042528 f i libvcruntime:undname.obj
 0001:00041568       ??$?0$0A@@DName@@QAE@PBDU?$StringLifeSelector@$0A@@@@Z 10042568 f i libvcruntime:undname.obj
 0001:0004159b       ??$?0$0A@@pcharNode@@QAE@PBDHU?$StringLifeSelector@$0A@@@@Z 1004259b f i libvcruntime:undname.obj
 0001:000415db       ??$?0_K$0A@@?$optional@_K@std@@QAE@$$QA_K@Z 100425db f i libvcruntime:undname.obj
 0001:000415f5       ??$?0_K@?$_Optional_construct_base@_K@std@@QAE@Uin_place_t@1@$$QA_K@Z 100425f5 f i libvcruntime:undname.obj
 0001:0004160f       ??$?0_K@?$_Optional_destruct_base@_K$00@std@@QAE@Uin_place_t@1@$$QA_K@Z 1004260f f i libvcruntime:undname.obj
 0001:00041629       ??$append@VDNameNode@@@DName@@AAEXPBVDNameNode@@@Z 10042629 f i libvcruntime:undname.obj
 0001:0004166a       ??$append@VDNameStatusNode@@@DName@@AAEXPBVDNameStatusNode@@@Z 1004266a f i libvcruntime:undname.obj
 0001:000416ab       ??$append@VcharNode@@@DName@@AAEXPBVcharNode@@@Z 100426ab f i libvcruntime:undname.obj
 0001:000416ec       ??$append@VpDNameNode@@@DName@@AAEXPBVpDNameNode@@@Z 100426ec f i libvcruntime:undname.obj
 0001:0004172d       ??$append@VpcharNode@@@DName@@AAEXPBVpcharNode@@@Z 1004272d f i libvcruntime:undname.obj
 0001:0004176e       ??$doPchar@$00@DName@@AAEXPBDH@Z 1004276e f i libvcruntime:undname.obj
 0001:000417d9       ??$doPchar@$01@DName@@AAEXPBDH@Z 100427d9 f i libvcruntime:undname.obj
 0001:0004184a       ??$doPchar@$0A@@DName@@AAEXPBDH@Z 1004284a f i libvcruntime:undname.obj
 0001:000418bb       ??$forward@_K@std@@YA$$QA_KAA_K@Z 100428bb f i libvcruntime:undname.obj
 0001:0004197f       ??$size@D$04@std@@YAIAAY04$$CBD@Z 1004297f f i libvcruntime:undname.obj
 0001:00041983       ??0?$_Optional_construct_base@_K@std@@QAE@XZ 10042983 f i libvcruntime:undname.obj
 0001:0004198a       ??0?$_Optional_destruct_base@_K$00@std@@QAE@XZ 1004298a f i libvcruntime:undname.obj
 0001:00041991       ??0?$optional@_K@std@@QAE@XZ 10042991 f i libvcruntime:undname.obj
 0001:00041998       ??0Block@_HeapManager@@QAE@XZ 10042998 f i libvcruntime:undname.obj
 0001:0004199e       ??0DName@@QAE@AAPBDD@Z     1004299e f   libvcruntime:undname.obj
 0001:00041a1e       ??0DName@@QAE@ABUStringLiteral@@@Z 10042a1e f   libvcruntime:undname.obj
 0001:00041a45       ??0DName@@QAE@ABV0@@Z      10042a45 f i libvcruntime:undname.obj
 0001:00041a5b       ??0DName@@QAE@D@Z          10042a5b f   libvcruntime:undname.obj
 0001:00041a77       ??0DName@@QAE@PAV0@@Z      10042a77 f   libvcruntime:undname.obj
 0001:00041ac0       ??0DName@@QAE@W4DNameStatus@@@Z 10042ac0 f   libvcruntime:undname.obj
 0001:00041b00       ??0DName@@QAE@XZ           10042b00 f i libvcruntime:undname.obj
 0001:00041b0a       ??0DName@@QAE@_J@Z         10042b0a f   libvcruntime:undname.obj
 0001:00041b9d       ??0DName@@QAE@_K@Z         10042b9d f   libvcruntime:undname.obj
 0001:00041c0f       ??0DNameNode@@IAE@XZ       10042c0f f i libvcruntime:undname.obj
 0001:00041c18       ??0Replicator@@QAE@XZ      10042c18 f i libvcruntime:undname.obj
 0001:00041c27       ??0UnDecorator@@QAE@PBDP6APADJ@ZK@Z 10042c27 f i libvcruntime:undname.obj
 0001:00041c73       ??0_Nontrivial_dummy_type@std@@QAE@XZ 10042c73 f i libvcruntime:undname.obj
 0001:00041c76       ??0charNode@@QAE@D@Z       10042c76 f i libvcruntime:undname.obj
 0001:00041c8b       ??0pDNameNode@@QAE@PAVDName@@@Z 10042c8b f   libvcruntime:undname.obj
 0001:00041cb3       ??0pairNode@@QAE@PBVDNameNode@@0@Z 10042cb3 f i libvcruntime:undname.obj
 0001:00041cd9       ??2@YAPAXIAAV_HeapManager@@H@Z 10042cd9 f   libvcruntime:undname.obj
 0001:00041cf8       ??4DName@@QAEAAV0@ABUStringLiteral@@@Z 10042cf8 f   libvcruntime:undname.obj
 0001:00041d19       ??4DName@@QAEAAV0@ABV0@@Z  10042d19 f   libvcruntime:undname.obj
 0001:00041d2f       ??4DName@@QAEAAV0@D@Z      10042d2f f i libvcruntime:undname.obj
 0001:00041d4b       ??4DName@@QAEAAV0@PAV0@@Z  10042d4b f   libvcruntime:undname.obj
 0001:00041d8e       ??4DName@@QAEAAV0@W4DNameStatus@@@Z 10042d8e f   libvcruntime:undname.obj
 0001:00041dc0       ??AReplicator@@QBE?AVDName@@H@Z 10042dc0 f   libvcruntime:undname.obj
 0001:00041dfc       ??B?$optional@_K@std@@QBE_NXZ 10042dfc f i libvcruntime:undname.obj
 0001:00041e00       ??D?$_Optional_construct_base@_K@std@@QGAEAA_KXZ 10042e00 f i libvcruntime:undname.obj
 0001:00041e03       ??H@YA?AVDName@@ABUStringLiteral@@ABV0@@Z 10042e03 f i libvcruntime:undname.obj
 0001:00041e25       ??H@YA?AVDName@@DABV0@@Z   10042e25 f i libvcruntime:undname.obj
 0001:00041e50       ??H@YA?AVDName@@W4DNameStatus@@ABV0@@Z 10042e50 f i libvcruntime:undname.obj
 0001:00041e72       ??HDName@@QBE?AV0@ABUStringLiteral@@@Z 10042e72 f   libvcruntime:undname.obj
 0001:00041e94       ??HDName@@QBE?AV0@ABV0@@Z  10042e94 f   libvcruntime:undname.obj
 0001:00041eb6       ??HDName@@QBE?AV0@D@Z      10042eb6 f   libvcruntime:undname.obj
 0001:00041ed8       ??HDName@@QBE?AV0@PAV0@@Z  10042ed8 f   libvcruntime:undname.obj
 0001:00041efa       ??HDName@@QBE?AV0@W4DNameStatus@@@Z 10042efa f   libvcruntime:undname.obj
 0001:00041f1c       ??HStringLiteral@@QBE?AU0@H@Z 10042f1c f i libvcruntime:undname.obj
 0001:00041f36       ??YDName@@QAEAAV0@ABUStringLiteral@@@Z 10042f36 f   libvcruntime:undname.obj
 0001:00041f8e       ??YDName@@QAEAAV0@ABV0@@Z  10042f8e f   libvcruntime:undname.obj
 0001:00041fe5       ??YDName@@QAEAAV0@D@Z      10042fe5 f   libvcruntime:undname.obj
 0001:0004203a       ??YDName@@QAEAAV0@PAV0@@Z  1004303a f   libvcruntime:undname.obj
 0001:0004209e       ??YDName@@QAEAAV0@W4DNameStatus@@@Z 1004309e f   libvcruntime:undname.obj
 0001:000420de       ??YReplicator@@QAEAAV0@ABVDName@@@Z 100430de f   libvcruntime:undname.obj
 0001:0004211e       ??_5DName@@QAEAAV0@ABV0@@Z 1004311e f   libvcruntime:undname.obj
 0001:0004213a       ??__K_l@@YA?AUStringLiteral@@PBDI@Z 1004313a f i libvcruntime:undname.obj
 0001:00042145       ?Constructor@_HeapManager@@QAEXP6APAXI@ZP6AXPAX@Z@Z 10043145 f i libvcruntime:undname.obj
 0001:00042162       ?Destructor@_HeapManager@@QAEXXZ 10043162 f i libvcruntime:undname.obj
 0001:000421a6       ?UScore@UnDecorator@@SA?AUStringLiteral@@W4Tokens@@@Z 100431a6 f   libvcruntime:undname.obj
 0001:000421cd       ?composeDeclaration@UnDecorator@@CA?AVDName@@ABV2@@Z 100431cd f i libvcruntime:undname.obj
 0001:00042ec5       ?doAccessSpecifiers@UnDecorator@@SAHXZ 10043ec5 f i libvcruntime:undname.obj
 0001:00042ed3       ?doAllocationLanguage@UnDecorator@@SAHXZ 10043ed3 f i libvcruntime:undname.obj
 0001:00042ee1       ?doAllocationModel@UnDecorator@@SAHXZ 10043ee1 f i libvcruntime:undname.obj
 0001:00042eef       ?doEcsu@UnDecorator@@SAHXZ 10043eef f i libvcruntime:undname.obj
 0001:00042efd       ?doEllipsis@UnDecorator@@SAHXZ 10043efd f i libvcruntime:undname.obj
 0001:00042f0b       ?doFunctionReturns@UnDecorator@@SAHXZ 10043f0b f i libvcruntime:undname.obj
 0001:00042f19       ?doMSKeywords@UnDecorator@@SAHXZ 10043f19 f i libvcruntime:undname.obj
 0001:00042f26       ?doMemberTypes@UnDecorator@@SAHXZ 10043f26 f i libvcruntime:undname.obj
 0001:00042f34       ?doNameOnly@UnDecorator@@SAHXZ 10043f34 f i libvcruntime:undname.obj
 0001:00042f3f       ?doNoIdentCharCheck@UnDecorator@@SAHXZ 10043f3f f i libvcruntime:undname.obj
 0001:00042f4a       ?doPchar@DName@@AAEXD@Z    10043f4a f   libvcruntime:undname.obj
 0001:00042f82       ?doPtr64@UnDecorator@@SAHXZ 10043f82 f i libvcruntime:undname.obj
 0001:00042f90       ?doRestrictionSpec@UnDecorator@@SAHXZ 10043f90 f i libvcruntime:undname.obj
 0001:00042f9e       ?doThisTypes@UnDecorator@@SAHXZ 10043f9e f i libvcruntime:undname.obj
 0001:00042fb0       ?doThrowTypes@UnDecorator@@SAHXZ 10043fb0 f i libvcruntime:undname.obj
 0001:00042fbe       ?doTypeOnly@UnDecorator@@SAHXZ 10043fbe f i libvcruntime:undname.obj
 0001:00042fc9       ?doUnderScore@UnDecorator@@SAHXZ 10043fc9 f i libvcruntime:undname.obj
 0001:00042fd4       ?getAddressOf@UnDecorator@@CA?AVDName@@XZ 10043fd4 f   libvcruntime:undname.obj
 0001:0004303c       ?getArgumentList@UnDecorator@@CA?AVDName@@XZ 1004403c f   libvcruntime:undname.obj
 0001:000431a6       ?getArgumentTypes@UnDecorator@@CA?AVDName@@XZ 100441a6 f   libvcruntime:undname.obj
 0001:000432ae       ?getArrayAccess@UnDecorator@@CA?AVDName@@XZ 100442ae f   libvcruntime:undname.obj
 0001:00043322       ?getArrayObject@UnDecorator@@CA?AVDName@@XZ 10044322 f   libvcruntime:undname.obj
 0001:000433ad       ?getArrayType@UnDecorator@@CA?AVDName@@ABV2@@Z 100443ad f i libvcruntime:undname.obj
 0001:0004354a       ?getBasedType@UnDecorator@@CA?AVDName@@XZ 1004454a f   libvcruntime:undname.obj
 0001:00043600       ?getBasicDataType@UnDecorator@@CA?AVDName@@ABV2@@Z 10044600 f   libvcruntime:undname.obj
 0001:00043b68       ?getCHPEName@UnDecorator@@QAEPADPADH@Z 10044b68 f i libvcruntime:undname.obj
 0001:00043c45       ?getCallIndex@UnDecorator@@CA?AVDName@@XZ 10044c45 f i libvcruntime:undname.obj
 0001:00043c59       ?getCallingConvention@UnDecorator@@CA?AVDName@@XZ 10044c59 f   libvcruntime:undname.obj
 0001:00043d2e       ?getDataIndirectType@UnDecorator@@CA?AVDName@@ABV2@W4IndirectionKind@@0H@Z 10044d2e f   libvcruntime:undname.obj
 0001:000444cb       ?getDataIndirectType@UnDecorator@@CA?AVDName@@XZ 100454cb f i libvcruntime:undname.obj
 0001:000444f9       ?getDataType@UnDecorator@@CA?AVDName@@PAV2@@Z 100454f9 f   libvcruntime:undname.obj
 0001:000445d0       ?getDecoratedName@UnDecorator@@CA?AVDName@@XZ 100455d0 f   libvcruntime:undname.obj
 0001:00044824       ?getDimension@UnDecorator@@CA?AVDName@@_N@Z 10045824 f   libvcruntime:undname.obj
 0001:00044932       ?getDispatchTarget@UnDecorator@@CA?AVDName@@XZ 10045932 f   libvcruntime:undname.obj
 0001:00044985       ?getDisplacement@UnDecorator@@CA?AVDName@@XZ 10045985 f i libvcruntime:undname.obj
 0001:00044999       ?getECSUDataType@UnDecorator@@CA?AVDName@@XZ 10045999 f   libvcruntime:undname.obj
 0001:00044b2b       ?getECSUName@UnDecorator@@CA?AVDName@@XZ 10045b2b f i libvcruntime:undname.obj
 0001:00044b3c       ?getEnumType@UnDecorator@@CA?AVDName@@XZ 10045b3c f i libvcruntime:undname.obj
 0001:00044c50       ?getExtendedDataIndirectType@UnDecorator@@CA?AVDName@@AAW4IndirectionKind@@AA_NH@Z 10045c50 f   libvcruntime:undname.obj
 0001:00044dfb       ?getExternalDataType@UnDecorator@@CA?AVDName@@ABV2@@Z 10045dfb f i libvcruntime:undname.obj
 0001:00044e60       ?getFloatingPoint@UnDecorator@@CA?AVDName@@H@Z 10045e60 f   libvcruntime:undname.obj
 0001:00044f1e       ?getFunctionIndirectType@UnDecorator@@CA?AVDName@@ABV2@@Z 10045f1e f   libvcruntime:undname.obj
 0001:000452c8       ?getGuardNumber@UnDecorator@@CA?AVDName@@XZ 100462c8 f i libvcruntime:undname.obj
 0001:000452dc       ?getLastChar@DName@@QBEDXZ 100462dc f i libvcruntime:undname.obj
 0001:000452fc       ?getLastChar@DNameStatusNode@@UBEDXZ 100462fc f i libvcruntime:undname.obj
 0001:00045308       ?getLastChar@charNode@@UBEDXZ 10046308 f i libvcruntime:undname.obj
 0001:0004530c       ?getLastChar@pDNameNode@@UBEDXZ 1004630c f i libvcruntime:undname.obj
 0001:0004531a       ?getLastChar@pairNode@@UBEDXZ 1004631a f i libvcruntime:undname.obj
 0001:0004534f       ?getLastChar@pcharNode@@UBEDXZ 1004634f f i libvcruntime:undname.obj
 0001:00045361       ?getLexicalFrame@UnDecorator@@CA?AVDName@@XZ 10046361 f i libvcruntime:undname.obj
 0001:00045392       ?getMemberAccess@UnDecorator@@CA?AVDName@@XZ 10046392 f   libvcruntime:undname.obj
 0001:00045402       ?getMemoryWithBuffer@_HeapManager@@QAEPAXI@Z 10046402 f   libvcruntime:undname.obj
 0001:0004546c       ?getMemoryWithoutBuffer@_HeapManager@@QAEPAXI@Z 1004646c f   libvcruntime:undname.obj
 0001:0004548c       ?getNoexcept@UnDecorator@@CA?AVDName@@XZ 1004648c f   libvcruntime:undname.obj
 0001:000454e0       ?getNumberOfDimensions@UnDecorator@@CAHXZ 100464e0 f   libvcruntime:undname.obj
 0001:00045542       ?getOperatorName@UnDecorator@@CA?AVDName@@_NPA_N@Z 10046542 f i libvcruntime:undname.obj
 0001:00045e58       ?getPointerToMember@UnDecorator@@CA?AVDName@@XZ 10046e58 f   libvcruntime:undname.obj
 0001:00045f14       ?getPointerType@UnDecorator@@CA?AVDName@@ABV2@0@Z 10046f14 f i libvcruntime:undname.obj
 0001:00045f2f       ?getPointerTypeArray@UnDecorator@@CA?AVDName@@ABV2@0@Z 10046f2f f i libvcruntime:undname.obj
 0001:00045f4a       ?getPrimaryDataType@UnDecorator@@CA?AVDName@@ABV2@@Z 10046f4a f   libvcruntime:undname.obj
 0001:00046198       ?getPtrRefDataType@UnDecorator@@CA?AVDName@@ABV2@H@Z 10047198 f   libvcruntime:undname.obj
 0001:00046305       ?getPtrRefType@UnDecorator@@CA?AVDName@@ABV2@0W4IndirectionKind@@@Z 10047305 f   libvcruntime:undname.obj
 0001:00046416       ?getReferenceType@UnDecorator@@CA?AVDName@@ABV2@0W4IndirectionKind@@@Z 10047416 f i libvcruntime:undname.obj
 0001:00046432       ?getRestrictionSpec@UnDecorator@@CA?AVDName@@XZ 10047432 f   libvcruntime:undname.obj
 0001:00046557       ?getReturnType@UnDecorator@@CA?AVDName@@PAV2@@Z 10047557 f   libvcruntime:undname.obj
 0001:00046586       ?getScope@UnDecorator@@CA?AVDName@@XZ 10047586 f   libvcruntime:undname.obj
 0001:00046944       ?getScopedName@UnDecorator@@CA?AVDName@@XZ 10047944 f   libvcruntime:undname.obj
 0001:00046a37       ?getSignedDimension@UnDecorator@@CA?AVDName@@XZ 10047a37 f   libvcruntime:undname.obj
 0001:00046a88       ?getStorageConvention@UnDecorator@@CA?AVDName@@XZ 10047a88 f i libvcruntime:undname.obj
 0001:00046a99       ?getString@DName@@QBEPADPAD0@Z 10047a99 f i libvcruntime:undname.obj
 0001:00046ac6       ?getString@DName@@QBEPADPADH@Z 10047ac6 f i libvcruntime:undname.obj
 0001:00046b1b       ?getString@DNameStatusNode@@UBEPADPAD0@Z 10047b1b f i libvcruntime:undname.obj
 0001:00046b62       ?getString@charNode@@UBEPADPAD0@Z 10047b62 f i libvcruntime:undname.obj
 0001:00046b77       ?getString@pDNameNode@@UBEPADPAD0@Z 10047b77 f i libvcruntime:undname.obj
 0001:00046b8e       ?getString@pairNode@@UBEPADPAD0@Z 10047b8e f i libvcruntime:undname.obj
 0001:00046bd4       ?getString@pcharNode@@UBEPADPAD0@Z 10047bd4 f i libvcruntime:undname.obj
 0001:00046bef       ?getStringEncoding@UnDecorator@@CA?AVDName@@W4PrefixKind@@H@Z 10047bef f   libvcruntime:undname.obj
 0001:00046c8c       ?getStringHelper@@YAPADPADPBD1H@Z 10047c8c f i libvcruntime:undname.obj
 0001:00046cb6       ?getStringObject@UnDecorator@@CA?AVDName@@XZ 10047cb6 f   libvcruntime:undname.obj
 0001:00046d01       ?getSymbolName@UnDecorator@@CA?AVDName@@XZ 10047d01 f i libvcruntime:undname.obj
 0001:00046d49       ?getTemplateArgumentList@UnDecorator@@CA?AVDName@@XZ 10047d49 f   libvcruntime:undname.obj
 0001:00046ef9       ?getTemplateName@UnDecorator@@CA?AVDName@@_N@Z 10047ef9 f   libvcruntime:undname.obj
 0001:00047059       ?getTemplateNonTypeArgument@UnDecorator@@CA?AVDName@@XZ 10048059 f   libvcruntime:undname.obj
 0001:00047431       ?getTemplateTypeArgument@UnDecorator@@CA?AVDName@@XZ 10048431 f   libvcruntime:undname.obj
 0001:00047542       ?getThisType@UnDecorator@@CA?AVDName@@XZ 10048542 f i libvcruntime:undname.obj
 0001:00047571       ?getThrowTypes@UnDecorator@@CA?AVDName@@XZ 10048571 f   libvcruntime:undname.obj
 0001:00047594       ?getTypeEncoding@UnDecorator@@CAHXZ 10048594 f i libvcruntime:undname.obj
 0001:000478cc       ?getUndecoratedName@UnDecorator@@QAEPADPADH@Z 100488cc f i libvcruntime:undname.obj
 0001:000479eb       ?getUnionObject@UnDecorator@@CA?AVDName@@XZ 100489eb f   libvcruntime:undname.obj
 0001:00047a92       ?getVCallThunkType@UnDecorator@@CA?AVDName@@XZ 10048a92 f i libvcruntime:undname.obj
 0001:00047adc       ?getValue@UnDecorator@@CA?AV?$optional@_K@std@@XZ 10048adc f   libvcruntime:undname.obj
 0001:00047b64       ?getValueObject@UnDecorator@@CA?AVDName@@XZ 10048b64 f   libvcruntime:undname.obj
 0001:00047c5e       ?getVbTableType@UnDecorator@@CA?AVDName@@ABV2@@Z 10048c5e f i libvcruntime:undname.obj
 0001:00047c73       ?getVdispMapType@UnDecorator@@CA?AVDName@@ABV2@@Z 10048c73 f i libvcruntime:undname.obj
 0001:00047cd4       ?getVfTableType@UnDecorator@@CA?AVDName@@ABV2@@Z 10048cd4 f i libvcruntime:undname.obj
 0001:00047e28       ?getZName@UnDecorator@@CA?AVDName@@_N0@Z 10048e28 f   libvcruntime:undname.obj
 0001:00048046       ?haveTemplateParameters@UnDecorator@@SAHXZ 10049046 f i libvcruntime:undname.obj
 0001:00048051       ?isArray@DName@@QBEHXZ     10049051 f i libvcruntime:undname.obj
 0001:0004805b       ?isComArray@DName@@QBEHXZ  1004905b f i libvcruntime:undname.obj
 0001:00048065       ?isEmpty@DName@@QBEHXZ     10049065 f i libvcruntime:undname.obj
 0001:0004806d       ?isFull@Replicator@@QBEHXZ 1004906d f i libvcruntime:undname.obj
 0001:00048076       ?isNoTE@DName@@QBEHXZ      10049076 f i libvcruntime:undname.obj
 0001:00048080       ?isPinPtr@DName@@QBEHXZ    10049080 f i libvcruntime:undname.obj
 0001:0004808a       ?isPtrRef@DName@@QBEHXZ    1004908a f i libvcruntime:undname.obj
 0001:00048094       ?isUDC@DName@@QBEHXZ       10049094 f i libvcruntime:undname.obj
 0001:000480a5       ?isUDTThunk@DName@@QBEHXZ  100490a5 f i libvcruntime:undname.obj
 0001:000480b6       ?isVCallThunk@DName@@QBEHXZ 100490b6 f i libvcruntime:undname.obj
 0001:000480c0       ?isValid@DName@@QBEHXZ     100490c0 f i libvcruntime:undname.obj
 0001:000480ca       ?length@DName@@QBEHXZ      100490ca f i libvcruntime:undname.obj
 0001:000480e9       ?length@DNameStatusNode@@UBEHXZ 100490e9 f i libvcruntime:undname.obj
 0001:000480ed       ?length@charNode@@UBEHXZ   100490ed f i libvcruntime:undname.obj
 0001:000480f1       ?length@pDNameNode@@UBEHXZ 100490f1 f i libvcruntime:undname.obj
 0001:000480ff       ?length@pairNode@@UBEHXZ   100490ff f i libvcruntime:undname.obj
 0001:00048148       ?length@pcharNode@@UBEHXZ  10049148 f i libvcruntime:undname.obj
 0001:0004814c       ?make@DNameStatusNode@@SAPBV1@W4DNameStatus@@@Z 1004914c f i libvcruntime:undname.obj
 0001:00048168       ?parseDecoratedName@UnDecorator@@CA?AVDName@@XZ 10049168 f   libvcruntime:undname.obj
 0001:00048262       ?raw_length@DNameStatusNode@@UBEHXZ 10049262 f i libvcruntime:undname.obj
 0001:00048266       ?raw_length@charNode@@UBEHXZ 10049266 f i libvcruntime:undname.obj
 0001:0004826a       ?raw_length@pDNameNode@@UBEHXZ 1004926a f i libvcruntime:undname.obj
 0001:0004826e       ?raw_length@pairNode@@UBEHXZ 1004926e f i libvcruntime:undname.obj
 0001:00048272       ?raw_length@pcharNode@@UBEHXZ 10049272 f i libvcruntime:undname.obj
 0001:00048276       ?setIsArray@DName@@QAEXXZ  10049276 f i libvcruntime:undname.obj
 0001:0004827e       ?setIsComArray@DName@@QAEXXZ 1004927e f i libvcruntime:undname.obj
 0001:00048286       ?setIsNoTE@DName@@QAEXXZ   10049286 f i libvcruntime:undname.obj
 0001:0004828e       ?setIsPinPtr@DName@@QAEXXZ 1004928e f i libvcruntime:undname.obj
 0001:00048296       ?setIsUDC@DName@@QAEXXZ    10049296 f i libvcruntime:undname.obj
 0001:000482a3       ?setIsVCallThunk@DName@@QAEXXZ 100492a3 f i libvcruntime:undname.obj
 0001:000482ab       ?setPtrRef@DName@@QAEAAV1@XZ 100492ab f i libvcruntime:undname.obj
 0001:000482b5       ?status@DName@@QBE?AW4DNameStatus@@XZ 100492b5 f i libvcruntime:undname.obj
 0001:00048321       ___unDName                 10049321 f   libvcruntime:undname.obj
 0001:00048344       ___unDNameEx               10049344 f   libvcruntime:undname.obj
 0001:000483e3       _snprintf                  100493e3 f i libvcruntime:undname.obj
 0001:000483fd       _unDNameGenerateCHPE       100493fd f   libvcruntime:undname.obj
 0001:0004849a       _vsnprintf                 1004949a f i libvcruntime:undname.obj
 0001:000484ca       ___vcrt_initialize_locks   100494ca f   libvcruntime:locks.obj
 0001:00048506       ___vcrt_lock               10049506 f   libvcruntime:locks.obj
 0001:0004851b       ___vcrt_uninitialize_locks 1004951b f   libvcruntime:locks.obj
 0001:0004854a       ___vcrt_unlock             1004954a f   libvcruntime:locks.obj
 0001:0004855f       ??$__crt_interlocked_exchange_pointer@UHINSTANCE__@@PAU1@@@YAPAUHINSTANCE__@@PDSAU0@QAU0@@Z 1004955f f i libvcruntime:winapi_downlevel.obj
 0001:0004856c       ??$__crt_interlocked_exchange_pointer@UHINSTANCE__@@PAX@@YAPAUHINSTANCE__@@PDSAU0@QAX@Z 1004956c f i libvcruntime:winapi_downlevel.obj
 0001:00048579       ??$__crt_interlocked_exchange_pointer@XPAX@@YAPAXPDSAXQAX@Z 10049579 f i libvcruntime:winapi_downlevel.obj
 0001:00048586       ??$__crt_interlocked_read_pointer@UHINSTANCE__@@@@YAPAUHINSTANCE__@@PDSAU0@@Z 10049586 f i libvcruntime:winapi_downlevel.obj
 0001:00048591       ??$__crt_interlocked_read_pointer@X@@YAPAXPDSAX@Z 10049591 f i libvcruntime:winapi_downlevel.obj
 0001:0004881d       ___vcrt_FlsAlloc           1004981d f   libvcruntime:winapi_downlevel.obj
 0001:00048858       ___vcrt_FlsFree            10049858 f   libvcruntime:winapi_downlevel.obj
 0001:00048893       ___vcrt_FlsGetValue        10049893 f   libvcruntime:winapi_downlevel.obj
 0001:000488ce       ___vcrt_FlsSetValue        100498ce f   libvcruntime:winapi_downlevel.obj
 0001:0004890c       ___vcrt_InitializeCriticalSectionEx 1004990c f   libvcruntime:winapi_downlevel.obj
 0001:00048967       __get_unexpected           10049967 f   libvcruntime:unexpected.obj
 0001:00048979       _set_unexpected            10049979 f   libvcruntime:unexpected.obj
 0001:00048997       _unexpected                10049997 f   libvcruntime:unexpected.obj
 0001:000489b4       ?GetCurrentState@__FrameHandler3@@SAHPAUEHRegistrationNode@@PAXPBU_s_FuncInfo@@@Z 100499b4 f   libvcruntime:ehstate.obj
 0001:000489d1       ?SetState@__FrameHandler3@@SAXPAUEHRegistrationNode@@PBU_s_FuncInfo@@H@Z 100499d1 f   libvcruntime:ehstate.obj
 0001:000489df       ??$__crt_interlocked_exchange_pointer@$$A6AXXZP6AXXZ@@YAP6AXXZPDS6AXXZQ6AXXZ@Z 100499df f i libvcruntime:purevirt.obj
 0001:000489ec       ??$__crt_interlocked_read_pointer@$$A6AXXZ@@YAP6AXXZPDS6AXXZ@Z 100499ec f i libvcruntime:purevirt.obj
 0001:000489f7       __get_purecall_handler     100499f7 f   libvcruntime:purevirt.obj
 0001:000489fe       __purecall                 100499fe f   libvcruntime:purevirt.obj
 0001:00048a1a       __set_purecall_handler     10049a1a f   libvcruntime:purevirt.obj
 0001:00048a29       _malloc                    10049a29 f   libucrt:malloc.obj
 0001:00048a34       _labs                      10049a34 f   libucrt:labs.obj
 0001:00048a43       ??$__crt_fast_decode_pointer@P6AXPB_W00II@Z@@YAP6AXPB_W00II@ZQ6AX000II@Z@Z 10049a43 f i libucrt:invalid_parameter.obj
 0001:00048a59       ??$__crt_fast_encode_pointer@P6AXPB_W00II@Z@@YAP6AXPB_W00II@ZQ6AX000II@Z@Z 10049a59 f i libucrt:invalid_parameter.obj
 0001:00048a78       ??$initialize_from_array@$$BY00Q6AXPB_W00II@Z@?$dual_state_global@P6AXPB_W00II@Z@__crt_state_management@@QAAXAAY00Q6AXPB_W00II@Z@Z 10049a78 f i libucrt:invalid_parameter.obj
 0001:00048a89       ?__crt_rotate_pointer_value@@YAIIH@Z 10049a89 f i libucrt:invalid_parameter.obj
 0001:00048a98       ?dangerous_get_state_array@?$dual_state_global@P6AXPB_W00II@Z@__crt_state_management@@QAEPAP6AXPB_W00II@ZXZ 10049a98 f i libucrt:invalid_parameter.obj
 0001:00048a9b       ?get_current_state_index@__crt_state_management@@YAIXZ 10049a9b f i libucrt:invalid_parameter.obj
 0001:00048a9e       ?value@?$dual_state_global@P6AXPB_W00II@Z@__crt_state_management@@QAEAAP6AXPB_W00II@ZXZ 10049a9e f i libucrt:invalid_parameter.obj
 0001:00048aa1       ___acrt_call_reportfault   10049aa1 f   libucrt:invalid_parameter.obj
 0001:00048bda       ___acrt_initialize_invalid_parameter_handler 10049bda f   libucrt:invalid_parameter.obj
 0001:00048be9       __get_invalid_parameter_handler 10049be9 f   libucrt:invalid_parameter.obj
 0001:00048bfc       __get_thread_local_invalid_parameter_handler 10049bfc f   libucrt:invalid_parameter.obj
 0001:00048c0d       __invalid_parameter        10049c0d f   libucrt:invalid_parameter.obj
 0001:00048c71       __invalid_parameter_noinfo 10049c71 f   libucrt:invalid_parameter.obj
 0001:00048c81       __invalid_parameter_noinfo_noreturn 10049c81 f   libucrt:invalid_parameter.obj
 0001:00048c9e       __invoke_watson            10049c9e f   libucrt:invalid_parameter.obj
 0001:00048cd2       __set_invalid_parameter_handler 10049cd2 f   libucrt:invalid_parameter.obj
 0001:00048d02       __set_thread_local_invalid_parameter_handler 10049d02 f   libucrt:invalid_parameter.obj
 0001:00048d1f       _free                      10049d1f f   libucrt:free.obj
 0001:00048d40       _sqrt                      10049d40 f   libucrt:sqrt.obj
 0001:00048d4e       ??$?0ABV?$stream_output_adapter@D@__crt_stdio_output@@AB_KABQBDABQAU__crt_locale_pointers@@ABQAD@?$format_validation_base@DV?$stream_output_adapter@D@__crt_stdio_output@@@__crt_stdio_output@@IAE@ABV?$stream_output_adapter@D@1@AB_KABQBDABQAU__crt_locale_pointers@@ABQAD@Z 10049d4e f i libucrt:output.obj
 0001:00048d71       ??$?0ABV?$stream_output_adapter@D@__crt_stdio_output@@AB_KABQBDABQAU__crt_locale_pointers@@ABQAD@?$positional_parameter_base@DV?$stream_output_adapter@D@__crt_stdio_output@@@__crt_stdio_output@@IAE@ABV?$stream_output_adapter@D@1@AB_KABQBDABQAU__crt_locale_pointers@@ABQAD@Z 10049d71 f i libucrt:output.obj
 0001:00048db9       ??$?0ABV?$stream_output_adapter@D@__crt_stdio_output@@AB_KABQBDABQAU__crt_locale_pointers@@ABQAD@?$standard_base@DV?$stream_output_adapter@D@__crt_stdio_output@@@__crt_stdio_output@@IAE@ABV?$stream_output_adapter@D@1@AB_KABQBDABQAU__crt_locale_pointers@@ABQAD@Z 10049db9 f i libucrt:output.obj
 0001:00048dee       ??$?0ABV?$stream_output_adapter@_W@__crt_stdio_output@@AB_KABQB_WABQAU__crt_locale_pointers@@ABQAD@?$format_validation_base@_WV?$stream_output_adapter@_W@__crt_stdio_output@@@__crt_stdio_output@@IAE@ABV?$stream_output_adapter@_W@1@AB_KABQB_WABQAU__crt_locale_pointers@@ABQAD@Z 10049dee f i libucrt:output.obj
 0001:00048e11       ??$?0ABV?$stream_output_adapter@_W@__crt_stdio_output@@AB_KABQB_WABQAU__crt_locale_pointers@@ABQAD@?$positional_parameter_base@_WV?$stream_output_adapter@_W@__crt_stdio_output@@@__crt_stdio_output@@IAE@ABV?$stream_output_adapter@_W@1@AB_KABQB_WABQAU__crt_locale_pointers@@ABQAD@Z 10049e11 f i libucrt:output.obj
 0001:00048e59       ??$?0ABV?$stream_output_adapter@_W@__crt_stdio_output@@AB_KABQB_WABQAU__crt_locale_pointers@@ABQAD@?$standard_base@_WV?$stream_output_adapter@_W@__crt_stdio_output@@@__crt_stdio_output@@IAE@ABV?$stream_output_adapter@_W@1@AB_KABQB_WABQAU__crt_locale_pointers@@ABQAD@Z 10049e59 f i libucrt:output.obj
 0001:00048e8e       ??$?0ABV?$string_output_adapter@D@__crt_stdio_output@@AB_KABQBDABQAU__crt_locale_pointers@@ABQAD@?$format_validation_base@DV?$string_output_adapter@D@__crt_stdio_output@@@__crt_stdio_output@@IAE@ABV?$string_output_adapter@D@1@AB_KABQBDABQAU__crt_locale_pointers@@ABQAD@Z 10049e8e f i libucrt:output.obj
 0001:00048eb1       ??$?0ABV?$string_output_adapter@D@__crt_stdio_output@@AB_KABQBDABQAU__crt_locale_pointers@@ABQAD@?$positional_parameter_base@DV?$string_output_adapter@D@__crt_stdio_output@@@__crt_stdio_output@@IAE@ABV?$string_output_adapter@D@1@AB_KABQBDABQAU__crt_locale_pointers@@ABQAD@Z 10049eb1 f i libucrt:output.obj
 0001:00048ef9       ??$?0ABV?$string_output_adapter@D@__crt_stdio_output@@AB_KABQBDABQAU__crt_locale_pointers@@ABQAD@?$standard_base@DV?$string_output_adapter@D@__crt_stdio_output@@@__crt_stdio_output@@IAE@ABV?$string_output_adapter@D@1@AB_KABQBDABQAU__crt_locale_pointers@@ABQAD@Z 10049ef9 f i libucrt:output.obj
 0001:00048f2e       ??$?0ABV?$string_output_adapter@_W@__crt_stdio_output@@AB_KABQB_WABQAU__crt_locale_pointers@@ABQAD@?$format_validation_base@_WV?$string_output_adapter@_W@__crt_stdio_output@@@__crt_stdio_output@@IAE@ABV?$string_output_adapter@_W@1@AB_KABQB_WABQAU__crt_locale_pointers@@ABQAD@Z 10049f2e f i libucrt:output.obj
 0001:00048f51       ??$?0ABV?$string_output_adapter@_W@__crt_stdio_output@@AB_KABQB_WABQAU__crt_locale_pointers@@ABQAD@?$positional_parameter_base@_WV?$string_output_adapter@_W@__crt_stdio_output@@@__crt_stdio_output@@IAE@ABV?$string_output_adapter@_W@1@AB_KABQB_WABQAU__crt_locale_pointers@@ABQAD@Z 10049f51 f i libucrt:output.obj
 0001:00048f99       ??$?0ABV?$string_output_adapter@_W@__crt_stdio_output@@AB_KABQB_WABQAU__crt_locale_pointers@@ABQAD@?$standard_base@_WV?$string_output_adapter@_W@__crt_stdio_output@@@__crt_stdio_output@@IAE@ABV?$string_output_adapter@_W@1@AB_KABQB_WABQAU__crt_locale_pointers@@ABQAD@Z 10049f99 f i libucrt:output.obj
 0001:000492d4       ??$__crt_interlocked_read@J@@YAJPDJ@Z 1004a2d4 f i libucrt:output.obj
 0001:0004a1a0       ??$count@D@formatting_buffer@__crt_stdio_output@@QBEIXZ 1004b1a0 f i libucrt:output.obj
 0001:0004a1b8       ??$count@_W@formatting_buffer@__crt_stdio_output@@QBEIXZ 1004b1b8 f i libucrt:output.obj
 0001:0004a1d1       ??$data@D@formatting_buffer@__crt_stdio_output@@QAEPADXZ 1004b1d1 f i libucrt:output.obj
 0001:0004a1de       ??$data@_W@formatting_buffer@__crt_stdio_output@@QAEPA_WXZ 1004b1de f i libucrt:output.obj
 0001:0004a1eb       ??$ensure_buffer_is_big_enough@D@formatting_buffer@__crt_stdio_output@@QAE_NI@Z 1004b1eb f i libucrt:output.obj
 0001:0004a268       ??$ensure_buffer_is_big_enough@_W@formatting_buffer@__crt_stdio_output@@QAE_NI@Z 1004b268 f i libucrt:output.obj
 0001:0004a2e6       ??$extract_argument_from_va_list@C_J@?$positional_parameter_base@DV?$stream_output_adapter@D@__crt_stdio_output@@@__crt_stdio_output@@IAE_NAA_J@Z 1004b2e6 f i libucrt:output.obj
 0001:0004a35f       ??$extract_argument_from_va_list@C_J@?$positional_parameter_base@DV?$string_output_adapter@D@__crt_stdio_output@@@__crt_stdio_output@@IAE_NAA_J@Z 1004b35f f i libucrt:output.obj
 0001:0004a3d8       ??$extract_argument_from_va_list@C_J@?$positional_parameter_base@_WV?$stream_output_adapter@_W@__crt_stdio_output@@@__crt_stdio_output@@IAE_NAA_J@Z 1004b3d8 f i libucrt:output.obj
 0001:0004a451       ??$extract_argument_from_va_list@C_J@?$positional_parameter_base@_WV?$string_output_adapter@_W@__crt_stdio_output@@@__crt_stdio_output@@IAE_NAA_J@Z 1004b451 f i libucrt:output.obj
 0001:0004a4ca       ??$extract_argument_from_va_list@C_J@?$standard_base@DV?$stream_output_adapter@D@__crt_stdio_output@@@__crt_stdio_output@@IAE_NAA_J@Z 1004b4ca f i libucrt:output.obj
 0001:0004a4e9       ??$extract_argument_from_va_list@C_J@?$standard_base@DV?$string_output_adapter@D@__crt_stdio_output@@@__crt_stdio_output@@IAE_NAA_J@Z 1004b4e9 f i libucrt:output.obj
 0001:0004a508       ??$extract_argument_from_va_list@C_J@?$standard_base@_WV?$stream_output_adapter@_W@__crt_stdio_output@@@__crt_stdio_output@@IAE_NAA_J@Z 1004b508 f i libucrt:output.obj
 0001:0004a527       ??$extract_argument_from_va_list@C_J@?$standard_base@_WV?$string_output_adapter@_W@__crt_stdio_output@@@__crt_stdio_output@@IAE_NAA_J@Z 1004b527 f i libucrt:output.obj
 0001:0004a546       ??$extract_argument_from_va_list@E_J@?$positional_parameter_base@DV?$stream_output_adapter@D@__crt_stdio_output@@@__crt_stdio_output@@IAE_NAA_J@Z 1004b546 f i libucrt:output.obj
 0001:0004a5bf       ??$extract_argument_from_va_list@E_J@?$positional_parameter_base@DV?$string_output_adapter@D@__crt_stdio_output@@@__crt_stdio_output@@IAE_NAA_J@Z 1004b5bf f i libucrt:output.obj
 0001:0004a638       ??$extract_argument_from_va_list@E_J@?$positional_parameter_base@_WV?$stream_output_adapter@_W@__crt_stdio_output@@@__crt_stdio_output@@IAE_NAA_J@Z 1004b638 f i libucrt:output.obj
 0001:0004a6b1       ??$extract_argument_from_va_list@E_J@?$positional_parameter_base@_WV?$string_output_adapter@_W@__crt_stdio_output@@@__crt_stdio_output@@IAE_NAA_J@Z 1004b6b1 f i libucrt:output.obj
 0001:0004a72a       ??$extract_argument_from_va_list@E_J@?$standard_base@DV?$stream_output_adapter@D@__crt_stdio_output@@@__crt_stdio_output@@IAE_NAA_J@Z 1004b72a f i libucrt:output.obj
 0001:0004a749       ??$extract_argument_from_va_list@E_J@?$standard_base@DV?$string_output_adapter@D@__crt_stdio_output@@@__crt_stdio_output@@IAE_NAA_J@Z 1004b749 f i libucrt:output.obj
 0001:0004a768       ??$extract_argument_from_va_list@E_J@?$standard_base@_WV?$stream_output_adapter@_W@__crt_stdio_output@@@__crt_stdio_output@@IAE_NAA_J@Z 1004b768 f i libucrt:output.obj
 0001:0004a787       ??$extract_argument_from_va_list@E_J@?$standard_base@_WV?$string_output_adapter@_W@__crt_stdio_output@@@__crt_stdio_output@@IAE_NAA_J@Z 1004b787 f i libucrt:output.obj
 0001:0004a7a6       ??$extract_argument_from_va_list@F_J@?$positional_parameter_base@DV?$stream_output_adapter@D@__crt_stdio_output@@@__crt_stdio_output@@IAE_NAA_J@Z 1004b7a6 f i libucrt:output.obj
 0001:0004a81f       ??$extract_argument_from_va_list@F_J@?$positional_parameter_base@DV?$string_output_adapter@D@__crt_stdio_output@@@__crt_stdio_output@@IAE_NAA_J@Z 1004b81f f i libucrt:output.obj
 0001:0004a898       ??$extract_argument_from_va_list@F_J@?$positional_parameter_base@_WV?$stream_output_adapter@_W@__crt_stdio_output@@@__crt_stdio_output@@IAE_NAA_J@Z 1004b898 f i libucrt:output.obj
 0001:0004a911       ??$extract_argument_from_va_list@F_J@?$positional_parameter_base@_WV?$string_output_adapter@_W@__crt_stdio_output@@@__crt_stdio_output@@IAE_NAA_J@Z 1004b911 f i libucrt:output.obj
 0001:0004a98a       ??$extract_argument_from_va_list@F_J@?$standard_base@DV?$stream_output_adapter@D@__crt_stdio_output@@@__crt_stdio_output@@IAE_NAA_J@Z 1004b98a f i libucrt:output.obj
 0001:0004a9a9       ??$extract_argument_from_va_list@F_J@?$standard_base@DV?$string_output_adapter@D@__crt_stdio_output@@@__crt_stdio_output@@IAE_NAA_J@Z 1004b9a9 f i libucrt:output.obj
 0001:0004a9c8       ??$extract_argument_from_va_list@F_J@?$standard_base@_WV?$stream_output_adapter@_W@__crt_stdio_output@@@__crt_stdio_output@@IAE_NAA_J@Z 1004b9c8 f i libucrt:output.obj
 0001:0004a9e7       ??$extract_argument_from_va_list@F_J@?$standard_base@_WV?$string_output_adapter@_W@__crt_stdio_output@@@__crt_stdio_output@@IAE_NAA_J@Z 1004b9e7 f i libucrt:output.obj
 0001:0004aa06       ??$extract_argument_from_va_list@GD@?$positional_parameter_base@DV?$stream_output_adapter@D@__crt_stdio_output@@@__crt_stdio_output@@IAE_NAAD@Z 1004ba06 f i libucrt:output.obj
 0001:0004aa7e       ??$extract_argument_from_va_list@GD@?$positional_parameter_base@DV?$string_output_adapter@D@__crt_stdio_output@@@__crt_stdio_output@@IAE_NAAD@Z 1004ba7e f i libucrt:output.obj
 0001:0004aaf6       ??$extract_argument_from_va_list@GD@?$standard_base@DV?$stream_output_adapter@D@__crt_stdio_output@@@__crt_stdio_output@@IAE_NAAD@Z 1004baf6 f i libucrt:output.obj
 0001:0004ab10       ??$extract_argument_from_va_list@GD@?$standard_base@DV?$string_output_adapter@D@__crt_stdio_output@@@__crt_stdio_output@@IAE_NAAD@Z 1004bb10 f i libucrt:output.obj
 0001:0004ab2a       ??$extract_argument_from_va_list@G_J@?$positional_parameter_base@DV?$stream_output_adapter@D@__crt_stdio_output@@@__crt_stdio_output@@IAE_NAA_J@Z 1004bb2a f i libucrt:output.obj
 0001:0004aba3       ??$extract_argument_from_va_list@G_J@?$positional_parameter_base@DV?$string_output_adapter@D@__crt_stdio_output@@@__crt_stdio_output@@IAE_NAA_J@Z 1004bba3 f i libucrt:output.obj
 0001:0004ac1c       ??$extract_argument_from_va_list@G_J@?$positional_parameter_base@_WV?$stream_output_adapter@_W@__crt_stdio_output@@@__crt_stdio_output@@IAE_NAA_J@Z 1004bc1c f i libucrt:output.obj
 0001:0004ac95       ??$extract_argument_from_va_list@G_J@?$positional_parameter_base@_WV?$string_output_adapter@_W@__crt_stdio_output@@@__crt_stdio_output@@IAE_NAA_J@Z 1004bc95 f i libucrt:output.obj
 0001:0004ad0e       ??$extract_argument_from_va_list@G_J@?$standard_base@DV?$stream_output_adapter@D@__crt_stdio_output@@@__crt_stdio_output@@IAE_NAA_J@Z 1004bd0e f i libucrt:output.obj
 0001:0004ad2d       ??$extract_argument_from_va_list@G_J@?$standard_base@DV?$string_output_adapter@D@__crt_stdio_output@@@__crt_stdio_output@@IAE_NAA_J@Z 1004bd2d f i libucrt:output.obj
 0001:0004ad4c       ??$extract_argument_from_va_list@G_J@?$standard_base@_WV?$stream_output_adapter@_W@__crt_stdio_output@@@__crt_stdio_output@@IAE_NAA_J@Z 1004bd4c f i libucrt:output.obj
 0001:0004ad6b       ??$extract_argument_from_va_list@G_J@?$standard_base@_WV?$string_output_adapter@_W@__crt_stdio_output@@@__crt_stdio_output@@IAE_NAA_J@Z 1004bd6b f i libucrt:output.obj
 0001:0004ad8a       ??$extract_argument_from_va_list@H_J@?$positional_parameter_base@DV?$stream_output_adapter@D@__crt_stdio_output@@@__crt_stdio_output@@IAE_NAA_J@Z 1004bd8a f i libucrt:output.obj
 0001:0004ae01       ??$extract_argument_from_va_list@H_J@?$positional_parameter_base@DV?$string_output_adapter@D@__crt_stdio_output@@@__crt_stdio_output@@IAE_NAA_J@Z 1004be01 f i libucrt:output.obj
 0001:0004ae78       ??$extract_argument_from_va_list@H_J@?$positional_parameter_base@_WV?$stream_output_adapter@_W@__crt_stdio_output@@@__crt_stdio_output@@IAE_NAA_J@Z 1004be78 f i libucrt:output.obj
 0001:0004aeef       ??$extract_argument_from_va_list@H_J@?$positional_parameter_base@_WV?$string_output_adapter@_W@__crt_stdio_output@@@__crt_stdio_output@@IAE_NAA_J@Z 1004beef f i libucrt:output.obj
 0001:0004af66       ??$extract_argument_from_va_list@H_J@?$standard_base@DV?$stream_output_adapter@D@__crt_stdio_output@@@__crt_stdio_output@@IAE_NAA_J@Z 1004bf66 f i libucrt:output.obj
 0001:0004af84       ??$extract_argument_from_va_list@H_J@?$standard_base@DV?$string_output_adapter@D@__crt_stdio_output@@@__crt_stdio_output@@IAE_NAA_J@Z 1004bf84 f i libucrt:output.obj
 0001:0004afa2       ??$extract_argument_from_va_list@H_J@?$standard_base@_WV?$stream_output_adapter@_W@__crt_stdio_output@@@__crt_stdio_output@@IAE_NAA_J@Z 1004bfa2 f i libucrt:output.obj
 0001:0004afc0       ??$extract_argument_from_va_list@H_J@?$standard_base@_WV?$string_output_adapter@_W@__crt_stdio_output@@@__crt_stdio_output@@IAE_NAA_J@Z 1004bfc0 f i libucrt:output.obj
 0001:0004afde       ??$extract_argument_from_va_list@I_J@?$positional_parameter_base@DV?$stream_output_adapter@D@__crt_stdio_output@@@__crt_stdio_output@@IAE_NAA_J@Z 1004bfde f i libucrt:output.obj
 0001:0004b05e       ??$extract_argument_from_va_list@I_J@?$positional_parameter_base@DV?$string_output_adapter@D@__crt_stdio_output@@@__crt_stdio_output@@IAE_NAA_J@Z 1004c05e f i libucrt:output.obj
 0001:0004b0de       ??$extract_argument_from_va_list@I_J@?$positional_parameter_base@_WV?$stream_output_adapter@_W@__crt_stdio_output@@@__crt_stdio_output@@IAE_NAA_J@Z 1004c0de f i libucrt:output.obj
 0001:0004b15e       ??$extract_argument_from_va_list@I_J@?$positional_parameter_base@_WV?$string_output_adapter@_W@__crt_stdio_output@@@__crt_stdio_output@@IAE_NAA_J@Z 1004c15e f i libucrt:output.obj
 0001:0004b1de       ??$extract_argument_from_va_list@I_J@?$standard_base@DV?$stream_output_adapter@D@__crt_stdio_output@@@__crt_stdio_output@@IAE_NAA_J@Z 1004c1de f i libucrt:output.obj
 0001:0004b1fc       ??$extract_argument_from_va_list@I_J@?$standard_base@DV?$string_output_adapter@D@__crt_stdio_output@@@__crt_stdio_output@@IAE_NAA_J@Z 1004c1fc f i libucrt:output.obj
 0001:0004b21a       ??$extract_argument_from_va_list@I_J@?$standard_base@_WV?$stream_output_adapter@_W@__crt_stdio_output@@@__crt_stdio_output@@IAE_NAA_J@Z 1004c21a f i libucrt:output.obj
 0001:0004b238       ??$extract_argument_from_va_list@I_J@?$standard_base@_WV?$string_output_adapter@_W@__crt_stdio_output@@@__crt_stdio_output@@IAE_NAA_J@Z 1004c238 f i libucrt:output.obj
 0001:0004b256       ??$extract_argument_from_va_list@PADPAD@?$positional_parameter_base@DV?$stream_output_adapter@D@__crt_stdio_output@@@__crt_stdio_output@@IAE_NAAPAD@Z 1004c256 f i libucrt:output.obj
 0001:0004b2ce       ??$extract_argument_from_va_list@PADPAD@?$positional_parameter_base@DV?$string_output_adapter@D@__crt_stdio_output@@@__crt_stdio_output@@IAE_NAAPAD@Z 1004c2ce f i libucrt:output.obj
 0001:0004b346       ??$extract_argument_from_va_list@PADPAD@?$positional_parameter_base@_WV?$stream_output_adapter@_W@__crt_stdio_output@@@__crt_stdio_output@@IAE_NAAPAD@Z 1004c346 f i libucrt:output.obj
 0001:0004b3be       ??$extract_argument_from_va_list@PADPAD@?$positional_parameter_base@_WV?$string_output_adapter@_W@__crt_stdio_output@@@__crt_stdio_output@@IAE_NAAPAD@Z 1004c3be f i libucrt:output.obj
 0001:0004b436       ??$extract_argument_from_va_list@PADPAD@?$standard_base@DV?$stream_output_adapter@D@__crt_stdio_output@@@__crt_stdio_output@@IAE_NAAPAD@Z 1004c436 f i libucrt:output.obj
 0001:0004b450       ??$extract_argument_from_va_list@PADPAD@?$standard_base@DV?$string_output_adapter@D@__crt_stdio_output@@@__crt_stdio_output@@IAE_NAAPAD@Z 1004c450 f i libucrt:output.obj
 0001:0004b46a       ??$extract_argument_from_va_list@PADPAD@?$standard_base@_WV?$stream_output_adapter@_W@__crt_stdio_output@@@__crt_stdio_output@@IAE_NAAPAD@Z 1004c46a f i libucrt:output.obj
 0001:0004b484       ??$extract_argument_from_va_list@PADPAD@?$standard_base@_WV?$string_output_adapter@_W@__crt_stdio_output@@@__crt_stdio_output@@IAE_NAAPAD@Z 1004c484 f i libucrt:output.obj
 0001:0004b49e       ??$extract_argument_from_va_list@PAUansi_string@?1??type_case_Z@?$output_processor@DV?$stream_output_adapter@D@__crt_stdio_output@@V?$format_validation_base@DV?$stream_output_adapter@D@__crt_stdio_output@@@2@@__crt_stdio_output@@AAE_NXZ@PAU1?1??234@AAE_NXZ@@?$standard_base@DV?$stream_output_adapter@D@__crt_stdio_output@@@__crt_stdio_output@@IAE_NAAPAUansi_string@?1??type_case_Z@?$output_processor@DV?$stream_output_adapter@D@__crt_stdio_output@@V?$format_validation_base@DV?$stream_output_adapter@D@__crt_stdio_output@@@2@@1@AAE_NXZ@@Z 1004c49e f i libucrt:output.obj
 0001:0004b4b8       ??$extract_argument_from_va_list@PAUansi_string@?1??type_case_Z@?$output_processor@DV?$stream_output_adapter@D@__crt_stdio_output@@V?$positional_parameter_base@DV?$stream_output_adapter@D@__crt_stdio_output@@@2@@__crt_stdio_output@@AAE_NXZ@PAU1?1??234@AAE_NXZ@@?$positional_parameter_base@DV?$stream_output_adapter@D@__crt_stdio_output@@@__crt_stdio_output@@IAE_NAAPAUansi_string@?1??type_case_Z@?$output_processor@DV?$stream_output_adapter@D@__crt_stdio_output@@V?$positional_parameter_base@DV?$stream_output_adapter@D@__crt_stdio_output@@@2@@1@AAE_NXZ@@Z 1004c4b8 f i libucrt:output.obj
 0001:0004b530       ??$extract_argument_from_va_list@PAUansi_string@?1??type_case_Z@?$output_processor@DV?$stream_output_adapter@D@__crt_stdio_output@@V?$positional_parameter_base@DV?$stream_output_adapter@D@__crt_stdio_output@@@2@@__crt_stdio_output@@AAE_NXZ@PAU1?1??234@AAE_NXZ@@?$standard_base@DV?$stream_output_adapter@D@__crt_stdio_output@@@__crt_stdio_output@@IAE_NAAPAUansi_string@?1??type_case_Z@?$output_processor@DV?$stream_output_adapter@D@__crt_stdio_output@@V?$positional_parameter_base@DV?$stream_output_adapter@D@__crt_stdio_output@@@2@@1@AAE_NXZ@@Z 1004c530 f i libucrt:output.obj
 0001:0004b54a       ??$extract_argument_from_va_list@PAUansi_string@?1??type_case_Z@?$output_processor@DV?$stream_output_adapter@D@__crt_stdio_output@@V?$standard_base@DV?$stream_output_adapter@D@__crt_stdio_output@@@2@@__crt_stdio_output@@AAE_NXZ@PAU1?1??234@AAE_NXZ@@?$standard_base@DV?$stream_output_adapter@D@__crt_stdio_output@@@__crt_stdio_output@@IAE_NAAPAUansi_string@?1??type_case_Z@?$output_processor@DV?$stream_output_adapter@D@__crt_stdio_output@@V?$standard_base@DV?$stream_output_adapter@D@__crt_stdio_output@@@2@@1@AAE_NXZ@@Z 1004c54a f i libucrt:output.obj
 0001:0004b564       ??$extract_argument_from_va_list@PAUansi_string@?1??type_case_Z@?$output_processor@DV?$string_output_adapter@D@__crt_stdio_output@@V?$format_validation_base@DV?$string_output_adapter@D@__crt_stdio_output@@@2@@__crt_stdio_output@@AAE_NXZ@PAU1?1??234@AAE_NXZ@@?$standard_base@DV?$string_output_adapter@D@__crt_stdio_output@@@__crt_stdio_output@@IAE_NAAPAUansi_string@?1??type_case_Z@?$output_processor@DV?$string_output_adapter@D@__crt_stdio_output@@V?$format_validation_base@DV?$string_output_adapter@D@__crt_stdio_output@@@2@@1@AAE_NXZ@@Z 1004c564 f i libucrt:output.obj
 0001:0004b57e       ??$extract_argument_from_va_list@PAUansi_string@?1??type_case_Z@?$output_processor@DV?$string_output_adapter@D@__crt_stdio_output@@V?$positional_parameter_base@DV?$string_output_adapter@D@__crt_stdio_output@@@2@@__crt_stdio_output@@AAE_NXZ@PAU1?1??234@AAE_NXZ@@?$positional_parameter_base@DV?$string_output_adapter@D@__crt_stdio_output@@@__crt_stdio_output@@IAE_NAAPAUansi_string@?1??type_case_Z@?$output_processor@DV?$string_output_adapter@D@__crt_stdio_output@@V?$positional_parameter_base@DV?$string_output_adapter@D@__crt_stdio_output@@@2@@1@AAE_NXZ@@Z 1004c57e f i libucrt:output.obj
 0001:0004b5f6       ??$extract_argument_from_va_list@PAUansi_string@?1??type_case_Z@?$output_processor@DV?$string_output_adapter@D@__crt_stdio_output@@V?$positional_parameter_base@DV?$string_output_adapter@D@__crt_stdio_output@@@2@@__crt_stdio_output@@AAE_NXZ@PAU1?1??234@AAE_NXZ@@?$standard_base@DV?$string_output_adapter@D@__crt_stdio_output@@@__crt_stdio_output@@IAE_NAAPAUansi_string@?1??type_case_Z@?$output_processor@DV?$string_output_adapter@D@__crt_stdio_output@@V?$positional_parameter_base@DV?$string_output_adapter@D@__crt_stdio_output@@@2@@1@AAE_NXZ@@Z 1004c5f6 f i libucrt:output.obj
 0001:0004b610       ??$extract_argument_from_va_list@PAUansi_string@?1??type_case_Z@?$output_processor@DV?$string_output_adapter@D@__crt_stdio_output@@V?$standard_base@DV?$string_output_adapter@D@__crt_stdio_output@@@2@@__crt_stdio_output@@AAE_NXZ@PAU1?1??234@AAE_NXZ@@?$standard_base@DV?$string_output_adapter@D@__crt_stdio_output@@@__crt_stdio_output@@IAE_NAAPAUansi_string@?1??type_case_Z@?$output_processor@DV?$string_output_adapter@D@__crt_stdio_output@@V?$standard_base@DV?$string_output_adapter@D@__crt_stdio_output@@@2@@1@AAE_NXZ@@Z 1004c610 f i libucrt:output.obj
 0001:0004b62a       ??$extract_argument_from_va_list@PAUansi_string@?1??type_case_Z@?$output_processor@_WV?$stream_output_adapter@_W@__crt_stdio_output@@V?$format_validation_base@_WV?$stream_output_adapter@_W@__crt_stdio_output@@@2@@__crt_stdio_output@@AAE_NXZ@PAU1?1??234@AAE_NXZ@@?$standard_base@_WV?$stream_output_adapter@_W@__crt_stdio_output@@@__crt_stdio_output@@IAE_NAAPAUansi_string@?1??type_case_Z@?$output_processor@_WV?$stream_output_adapter@_W@__crt_stdio_output@@V?$format_validation_base@_WV?$stream_output_adapter@_W@__crt_stdio_output@@@2@@1@AAE_NXZ@@Z 1004c62a f i libucrt:output.obj
 0001:0004b644       ??$extract_argument_from_va_list@PAUansi_string@?1??type_case_Z@?$output_processor@_WV?$stream_output_adapter@_W@__crt_stdio_output@@V?$positional_parameter_base@_WV?$stream_output_adapter@_W@__crt_stdio_output@@@2@@__crt_stdio_output@@AAE_NXZ@PAU1?1??234@AAE_NXZ@@?$positional_parameter_base@_WV?$stream_output_adapter@_W@__crt_stdio_output@@@__crt_stdio_output@@IAE_NAAPAUansi_string@?1??type_case_Z@?$output_processor@_WV?$stream_output_adapter@_W@__crt_stdio_output@@V?$positional_parameter_base@_WV?$stream_output_adapter@_W@__crt_stdio_output@@@2@@1@AAE_NXZ@@Z 1004c644 f i libucrt:output.obj
 0001:0004b6bc       ??$extract_argument_from_va_list@PAUansi_string@?1??type_case_Z@?$output_processor@_WV?$stream_output_adapter@_W@__crt_stdio_output@@V?$positional_parameter_base@_WV?$stream_output_adapter@_W@__crt_stdio_output@@@2@@__crt_stdio_output@@AAE_NXZ@PAU1?1??234@AAE_NXZ@@?$standard_base@_WV?$stream_output_adapter@_W@__crt_stdio_output@@@__crt_stdio_output@@IAE_NAAPAUansi_string@?1??type_case_Z@?$output_processor@_WV?$stream_output_adapter@_W@__crt_stdio_output@@V?$positional_parameter_base@_WV?$stream_output_adapter@_W@__crt_stdio_output@@@2@@1@AAE_NXZ@@Z 1004c6bc f i libucrt:output.obj
 0001:0004b6d6       ??$extract_argument_from_va_list@PAUansi_string@?1??type_case_Z@?$output_processor@_WV?$stream_output_adapter@_W@__crt_stdio_output@@V?$standard_base@_WV?$stream_output_adapter@_W@__crt_stdio_output@@@2@@__crt_stdio_output@@AAE_NXZ@PAU1?1??234@AAE_NXZ@@?$standard_base@_WV?$stream_output_adapter@_W@__crt_stdio_output@@@__crt_stdio_output@@IAE_NAAPAUansi_string@?1??type_case_Z@?$output_processor@_WV?$stream_output_adapter@_W@__crt_stdio_output@@V?$standard_base@_WV?$stream_output_adapter@_W@__crt_stdio_output@@@2@@1@AAE_NXZ@@Z 1004c6d6 f i libucrt:output.obj
 0001:0004b6f0       ??$extract_argument_from_va_list@PAUansi_string@?1??type_case_Z@?$output_processor@_WV?$string_output_adapter@_W@__crt_stdio_output@@V?$format_validation_base@_WV?$string_output_adapter@_W@__crt_stdio_output@@@2@@__crt_stdio_output@@AAE_NXZ@PAU1?1??234@AAE_NXZ@@?$standard_base@_WV?$string_output_adapter@_W@__crt_stdio_output@@@__crt_stdio_output@@IAE_NAAPAUansi_string@?1??type_case_Z@?$output_processor@_WV?$string_output_adapter@_W@__crt_stdio_output@@V?$format_validation_base@_WV?$string_output_adapter@_W@__crt_stdio_output@@@2@@1@AAE_NXZ@@Z 1004c6f0 f i libucrt:output.obj
 0001:0004b70a       ??$extract_argument_from_va_list@PAUansi_string@?1??type_case_Z@?$output_processor@_WV?$string_output_adapter@_W@__crt_stdio_output@@V?$positional_parameter_base@_WV?$string_output_adapter@_W@__crt_stdio_output@@@2@@__crt_stdio_output@@AAE_NXZ@PAU1?1??234@AAE_NXZ@@?$positional_parameter_base@_WV?$string_output_adapter@_W@__crt_stdio_output@@@__crt_stdio_output@@IAE_NAAPAUansi_string@?1??type_case_Z@?$output_processor@_WV?$string_output_adapter@_W@__crt_stdio_output@@V?$positional_parameter_base@_WV?$string_output_adapter@_W@__crt_stdio_output@@@2@@1@AAE_NXZ@@Z 1004c70a f i libucrt:output.obj
 0001:0004b782       ??$extract_argument_from_va_list@PAUansi_string@?1??type_case_Z@?$output_processor@_WV?$string_output_adapter@_W@__crt_stdio_output@@V?$positional_parameter_base@_WV?$string_output_adapter@_W@__crt_stdio_output@@@2@@__crt_stdio_output@@AAE_NXZ@PAU1?1??234@AAE_NXZ@@?$standard_base@_WV?$string_output_adapter@_W@__crt_stdio_output@@@__crt_stdio_output@@IAE_NAAPAUansi_string@?1??type_case_Z@?$output_processor@_WV?$string_output_adapter@_W@__crt_stdio_output@@V?$positional_parameter_base@_WV?$string_output_adapter@_W@__crt_stdio_output@@@2@@1@AAE_NXZ@@Z 1004c782 f i libucrt:output.obj
 0001:0004b79c       ??$extract_argument_from_va_list@PAUansi_string@?1??type_case_Z@?$output_processor@_WV?$string_output_adapter@_W@__crt_stdio_output@@V?$standard_base@_WV?$string_output_adapter@_W@__crt_stdio_output@@@2@@__crt_stdio_output@@AAE_NXZ@PAU1?1??234@AAE_NXZ@@?$standard_base@_WV?$string_output_adapter@_W@__crt_stdio_output@@@__crt_stdio_output@@IAE_NAAPAUansi_string@?1??type_case_Z@?$output_processor@_WV?$string_output_adapter@_W@__crt_stdio_output@@V?$standard_base@_WV?$string_output_adapter@_W@__crt_stdio_output@@@2@@1@AAE_NXZ@@Z 1004c79c f i libucrt:output.obj
 0001:0004b7b6       ??$extract_argument_from_va_list@PAXPAX@?$positional_parameter_base@DV?$stream_output_adapter@D@__crt_stdio_output@@@__crt_stdio_output@@IAE_NAAPAX@Z 1004c7b6 f i libucrt:output.obj
 0001:0004b82e       ??$extract_argument_from_va_list@PAXPAX@?$positional_parameter_base@DV?$string_output_adapter@D@__crt_stdio_output@@@__crt_stdio_output@@IAE_NAAPAX@Z 1004c82e f i libucrt:output.obj
 0001:0004b8a6       ??$extract_argument_from_va_list@PAXPAX@?$positional_parameter_base@_WV?$stream_output_adapter@_W@__crt_stdio_output@@@__crt_stdio_output@@IAE_NAAPAX@Z 1004c8a6 f i libucrt:output.obj
 0001:0004b91e       ??$extract_argument_from_va_list@PAXPAX@?$positional_parameter_base@_WV?$string_output_adapter@_W@__crt_stdio_output@@@__crt_stdio_output@@IAE_NAAPAX@Z 1004c91e f i libucrt:output.obj
 0001:0004b996       ??$extract_argument_from_va_list@PAXPAX@?$standard_base@DV?$stream_output_adapter@D@__crt_stdio_output@@@__crt_stdio_output@@IAE_NAAPAX@Z 1004c996 f i libucrt:output.obj
 0001:0004b9b0       ??$extract_argument_from_va_list@PAXPAX@?$standard_base@DV?$string_output_adapter@D@__crt_stdio_output@@@__crt_stdio_output@@IAE_NAAPAX@Z 1004c9b0 f i libucrt:output.obj
 0001:0004b9ca       ??$extract_argument_from_va_list@PAXPAX@?$standard_base@_WV?$stream_output_adapter@_W@__crt_stdio_output@@@__crt_stdio_output@@IAE_NAAPAX@Z 1004c9ca f i libucrt:output.obj
 0001:0004b9e4       ??$extract_argument_from_va_list@PAXPAX@?$standard_base@_WV?$string_output_adapter@_W@__crt_stdio_output@@@__crt_stdio_output@@IAE_NAAPAX@Z 1004c9e4 f i libucrt:output.obj
 0001:0004b9fe       ??$extract_argument_from_va_list@U_CRT_DOUBLE@@U1@@?$positional_parameter_base@DV?$stream_output_adapter@D@__crt_stdio_output@@@__crt_stdio_output@@IAE_NAAU_CRT_DOUBLE@@@Z 1004c9fe f i libucrt:output.obj
 0001:0004ba84       ??$extract_argument_from_va_list@U_CRT_DOUBLE@@U1@@?$positional_parameter_base@DV?$string_output_adapter@D@__crt_stdio_output@@@__crt_stdio_output@@IAE_NAAU_CRT_DOUBLE@@@Z 1004ca84 f i libucrt:output.obj
 0001:0004bb0a       ??$extract_argument_from_va_list@U_CRT_DOUBLE@@U1@@?$positional_parameter_base@_WV?$stream_output_adapter@_W@__crt_stdio_output@@@__crt_stdio_output@@IAE_NAAU_CRT_DOUBLE@@@Z 1004cb0a f i libucrt:output.obj
 0001:0004bb90       ??$extract_argument_from_va_list@U_CRT_DOUBLE@@U1@@?$positional_parameter_base@_WV?$string_output_adapter@_W@__crt_stdio_output@@@__crt_stdio_output@@IAE_NAAU_CRT_DOUBLE@@@Z 1004cb90 f i libucrt:output.obj
 0001:0004bc16       ??$extract_argument_from_va_list@U_CRT_DOUBLE@@U1@@?$standard_base@DV?$stream_output_adapter@D@__crt_stdio_output@@@__crt_stdio_output@@IAE_NAAU_CRT_DOUBLE@@@Z 1004cc16 f i libucrt:output.obj
 0001:0004bc36       ??$extract_argument_from_va_list@U_CRT_DOUBLE@@U1@@?$standard_base@DV?$string_output_adapter@D@__crt_stdio_output@@@__crt_stdio_output@@IAE_NAAU_CRT_DOUBLE@@@Z 1004cc36 f i libucrt:output.obj
 0001:0004bc56       ??$extract_argument_from_va_list@U_CRT_DOUBLE@@U1@@?$standard_base@_WV?$stream_output_adapter@_W@__crt_stdio_output@@@__crt_stdio_output@@IAE_NAAU_CRT_DOUBLE@@@Z 1004cc56 f i libucrt:output.obj
 0001:0004bc76       ??$extract_argument_from_va_list@U_CRT_DOUBLE@@U1@@?$standard_base@_WV?$string_output_adapter@_W@__crt_stdio_output@@@__crt_stdio_output@@IAE_NAAU_CRT_DOUBLE@@@Z 1004cc76 f i libucrt:output.obj
 0001:0004bc96       ??$extract_argument_from_va_list@_J_J@?$positional_parameter_base@DV?$stream_output_adapter@D@__crt_stdio_output@@@__crt_stdio_output@@IAE_NAA_J@Z 1004cc96 f i libucrt:output.obj
 0001:0004bd1c       ??$extract_argument_from_va_list@_J_J@?$positional_parameter_base@DV?$string_output_adapter@D@__crt_stdio_output@@@__crt_stdio_output@@IAE_NAA_J@Z 1004cd1c f i libucrt:output.obj
 0001:0004bda2       ??$extract_argument_from_va_list@_J_J@?$positional_parameter_base@_WV?$stream_output_adapter@_W@__crt_stdio_output@@@__crt_stdio_output@@IAE_NAA_J@Z 1004cda2 f i libucrt:output.obj
 0001:0004be28       ??$extract_argument_from_va_list@_J_J@?$positional_parameter_base@_WV?$string_output_adapter@_W@__crt_stdio_output@@@__crt_stdio_output@@IAE_NAA_J@Z 1004ce28 f i libucrt:output.obj
 0001:0004beae       ??$extract_argument_from_va_list@_J_J@?$standard_base@DV?$stream_output_adapter@D@__crt_stdio_output@@@__crt_stdio_output@@IAE_NAA_J@Z 1004ceae f i libucrt:output.obj
 0001:0004bece       ??$extract_argument_from_va_list@_J_J@?$standard_base@DV?$string_output_adapter@D@__crt_stdio_output@@@__crt_stdio_output@@IAE_NAA_J@Z 1004cece f i libucrt:output.obj
 0001:0004beee       ??$extract_argument_from_va_list@_J_J@?$standard_base@_WV?$stream_output_adapter@_W@__crt_stdio_output@@@__crt_stdio_output@@IAE_NAA_J@Z 1004ceee f i libucrt:output.obj
 0001:0004bf0e       ??$extract_argument_from_va_list@_J_J@?$standard_base@_WV?$string_output_adapter@_W@__crt_stdio_output@@@__crt_stdio_output@@IAE_NAA_J@Z 1004cf0e f i libucrt:output.obj
 0001:0004bf2e       ??$extract_argument_from_va_list@_K_J@?$positional_parameter_base@DV?$stream_output_adapter@D@__crt_stdio_output@@@__crt_stdio_output@@IAE_NAA_J@Z 1004cf2e f i libucrt:output.obj
 0001:0004bfb4       ??$extract_argument_from_va_list@_K_J@?$positional_parameter_base@DV?$string_output_adapter@D@__crt_stdio_output@@@__crt_stdio_output@@IAE_NAA_J@Z 1004cfb4 f i libucrt:output.obj
 0001:0004c03a       ??$extract_argument_from_va_list@_K_J@?$positional_parameter_base@_WV?$stream_output_adapter@_W@__crt_stdio_output@@@__crt_stdio_output@@IAE_NAA_J@Z 1004d03a f i libucrt:output.obj
 0001:0004c0c0       ??$extract_argument_from_va_list@_K_J@?$positional_parameter_base@_WV?$string_output_adapter@_W@__crt_stdio_output@@@__crt_stdio_output@@IAE_NAA_J@Z 1004d0c0 f i libucrt:output.obj
 0001:0004c146       ??$extract_argument_from_va_list@_K_J@?$standard_base@DV?$stream_output_adapter@D@__crt_stdio_output@@@__crt_stdio_output@@IAE_NAA_J@Z 1004d146 f i libucrt:output.obj
 0001:0004c166       ??$extract_argument_from_va_list@_K_J@?$standard_base@DV?$string_output_adapter@D@__crt_stdio_output@@@__crt_stdio_output@@IAE_NAA_J@Z 1004d166 f i libucrt:output.obj
 0001:0004c186       ??$extract_argument_from_va_list@_K_J@?$standard_base@_WV?$stream_output_adapter@_W@__crt_stdio_output@@@__crt_stdio_output@@IAE_NAA_J@Z 1004d186 f i libucrt:output.obj
 0001:0004c1a6       ??$extract_argument_from_va_list@_K_J@?$standard_base@_WV?$string_output_adapter@_W@__crt_stdio_output@@@__crt_stdio_output@@IAE_NAA_J@Z 1004d1a6 f i libucrt:output.obj
 0001:0004c1c6       ??$extract_argument_from_va_list@_W_W@?$positional_parameter_base@DV?$stream_output_adapter@D@__crt_stdio_output@@@__crt_stdio_output@@IAE_NAA_W@Z 1004d1c6 f i libucrt:output.obj
 0001:0004c242       ??$extract_argument_from_va_list@_W_W@?$positional_parameter_base@DV?$string_output_adapter@D@__crt_stdio_output@@@__crt_stdio_output@@IAE_NAA_W@Z 1004d242 f i libucrt:output.obj
 0001:0004c2be       ??$extract_argument_from_va_list@_W_W@?$positional_parameter_base@_WV?$stream_output_adapter@_W@__crt_stdio_output@@@__crt_stdio_output@@IAE_NAA_W@Z 1004d2be f i libucrt:output.obj
 0001:0004c33a       ??$extract_argument_from_va_list@_W_W@?$positional_parameter_base@_WV?$string_output_adapter@_W@__crt_stdio_output@@@__crt_stdio_output@@IAE_NAA_W@Z 1004d33a f i libucrt:output.obj
 0001:0004c3b6       ??$extract_argument_from_va_list@_W_W@?$standard_base@DV?$stream_output_adapter@D@__crt_stdio_output@@@__crt_stdio_output@@IAE_NAA_W@Z 1004d3b6 f i libucrt:output.obj
 0001:0004c3d2       ??$extract_argument_from_va_list@_W_W@?$standard_base@DV?$string_output_adapter@D@__crt_stdio_output@@@__crt_stdio_output@@IAE_NAA_W@Z 1004d3d2 f i libucrt:output.obj
 0001:0004c3ee       ??$extract_argument_from_va_list@_W_W@?$standard_base@_WV?$stream_output_adapter@_W@__crt_stdio_output@@@__crt_stdio_output@@IAE_NAA_W@Z 1004d3ee f i libucrt:output.obj
 0001:0004c40a       ??$extract_argument_from_va_list@_W_W@?$standard_base@_WV?$string_output_adapter@_W@__crt_stdio_output@@@__crt_stdio_output@@IAE_NAA_W@Z 1004d40a f i libucrt:output.obj
 0001:0004c426       ??$get_parameter_type@D@?$positional_parameter_base@DV?$stream_output_adapter@D@__crt_stdio_output@@@__crt_stdio_output@@CA?AW4parameter_type@01@PAD@Z 1004d426 f i libucrt:output.obj
 0001:0004c42a       ??$get_parameter_type@D@?$positional_parameter_base@DV?$string_output_adapter@D@__crt_stdio_output@@@__crt_stdio_output@@CA?AW4parameter_type@01@PAD@Z 1004d42a f i libucrt:output.obj
 0001:0004c42e       ??$get_parameter_type@D@?$positional_parameter_base@_WV?$stream_output_adapter@_W@__crt_stdio_output@@@__crt_stdio_output@@CA?AW4parameter_type@01@PAD@Z 1004d42e f i libucrt:output.obj
 0001:0004c432       ??$get_parameter_type@D@?$positional_parameter_base@_WV?$string_output_adapter@_W@__crt_stdio_output@@@__crt_stdio_output@@CA?AW4parameter_type@01@PAD@Z 1004d432 f i libucrt:output.obj
 0001:0004c436       ??$get_parameter_type@Uansi_string@?1??type_case_Z@?$output_processor@DV?$stream_output_adapter@D@__crt_stdio_output@@V?$positional_parameter_base@DV?$stream_output_adapter@D@__crt_stdio_output@@@2@@__crt_stdio_output@@AAE_NXZ@@?$positional_parameter_base@DV?$stream_output_adapter@D@__crt_stdio_output@@@__crt_stdio_output@@CA?AW4parameter_type@01@PAUansi_string@?1??type_case_Z@?$output_processor@DV?$stream_output_adapter@D@__crt_stdio_output@@V?$positional_parameter_base@DV?$stream_output_adapter@D@__crt_stdio_output@@@2@@1@AAE_NXZ@@Z 1004d436 f i libucrt:output.obj
 0001:0004c43a       ??$get_parameter_type@Uansi_string@?1??type_case_Z@?$output_processor@DV?$string_output_adapter@D@__crt_stdio_output@@V?$positional_parameter_base@DV?$string_output_adapter@D@__crt_stdio_output@@@2@@__crt_stdio_output@@AAE_NXZ@@?$positional_parameter_base@DV?$string_output_adapter@D@__crt_stdio_output@@@__crt_stdio_output@@CA?AW4parameter_type@01@PAUansi_string@?1??type_case_Z@?$output_processor@DV?$string_output_adapter@D@__crt_stdio_output@@V?$positional_parameter_base@DV?$string_output_adapter@D@__crt_stdio_output@@@2@@1@AAE_NXZ@@Z 1004d43a f i libucrt:output.obj
 0001:0004c43e       ??$get_parameter_type@Uansi_string@?1??type_case_Z@?$output_processor@_WV?$stream_output_adapter@_W@__crt_stdio_output@@V?$positional_parameter_base@_WV?$stream_output_adapter@_W@__crt_stdio_output@@@2@@__crt_stdio_output@@AAE_NXZ@@?$positional_parameter_base@_WV?$stream_output_adapter@_W@__crt_stdio_output@@@__crt_stdio_output@@CA?AW4parameter_type@01@PAUansi_string@?1??type_case_Z@?$output_processor@_WV?$stream_output_adapter@_W@__crt_stdio_output@@V?$positional_parameter_base@_WV?$stream_output_adapter@_W@__crt_stdio_output@@@2@@1@AAE_NXZ@@Z 1004d43e f i libucrt:output.obj
 0001:0004c442       ??$get_parameter_type@Uansi_string@?1??type_case_Z@?$output_processor@_WV?$string_output_adapter@_W@__crt_stdio_output@@V?$positional_parameter_base@_WV?$string_output_adapter@_W@__crt_stdio_output@@@2@@__crt_stdio_output@@AAE_NXZ@@?$positional_parameter_base@_WV?$string_output_adapter@_W@__crt_stdio_output@@@__crt_stdio_output@@CA?AW4parameter_type@01@PAUansi_string@?1??type_case_Z@?$output_processor@_WV?$string_output_adapter@_W@__crt_stdio_output@@V?$positional_parameter_base@_WV?$string_output_adapter@_W@__crt_stdio_output@@@2@@1@AAE_NXZ@@Z 1004d442 f i libucrt:output.obj
 0001:0004c446       ??$get_parameter_type@X@?$positional_parameter_base@DV?$stream_output_adapter@D@__crt_stdio_output@@@__crt_stdio_output@@CA?AW4parameter_type@01@PAX@Z 1004d446 f i libucrt:output.obj
 0001:0004c44a       ??$get_parameter_type@X@?$positional_parameter_base@DV?$string_output_adapter@D@__crt_stdio_output@@@__crt_stdio_output@@CA?AW4parameter_type@01@PAX@Z 1004d44a f i libucrt:output.obj
 0001:0004c44e       ??$get_parameter_type@X@?$positional_parameter_base@_WV?$stream_output_adapter@_W@__crt_stdio_output@@@__crt_stdio_output@@CA?AW4parameter_type@01@PAX@Z 1004d44e f i libucrt:output.obj
 0001:0004c452       ??$get_parameter_type@X@?$positional_parameter_base@_WV?$string_output_adapter@_W@__crt_stdio_output@@@__crt_stdio_output@@CA?AW4parameter_type@01@PAX@Z 1004d452 f i libucrt:output.obj
 0001:0004c456       ??$is_character_specifier@D@?$positional_parameter_base@DV?$stream_output_adapter@D@__crt_stdio_output@@@__crt_stdio_output@@CA_ND@Z 1004d456 f i libucrt:output.obj
 0001:0004c46e       ??$is_character_specifier@D@?$positional_parameter_base@DV?$string_output_adapter@D@__crt_stdio_output@@@__crt_stdio_output@@CA_ND@Z 1004d46e f i libucrt:output.obj
 0001:0004c486       ??$is_character_specifier@_W@?$positional_parameter_base@_WV?$stream_output_adapter@_W@__crt_stdio_output@@@__crt_stdio_output@@CA_N_W@Z 1004d486 f i libucrt:output.obj
 0001:0004c4a1       ??$is_character_specifier@_W@?$positional_parameter_base@_WV?$string_output_adapter@_W@__crt_stdio_output@@@__crt_stdio_output@@CA_N_W@Z 1004d4a1 f i libucrt:output.obj
 0001:0004c4bc       ??$is_integral_specifier@D@?$positional_parameter_base@DV?$stream_output_adapter@D@__crt_stdio_output@@@__crt_stdio_output@@CA_ND@Z 1004d4bc f i libucrt:output.obj
 0001:0004c4e8       ??$is_integral_specifier@D@?$positional_parameter_base@DV?$string_output_adapter@D@__crt_stdio_output@@@__crt_stdio_output@@CA_ND@Z 1004d4e8 f i libucrt:output.obj
 0001:0004c514       ??$is_integral_specifier@_W@?$positional_parameter_base@_WV?$stream_output_adapter@_W@__crt_stdio_output@@@__crt_stdio_output@@CA_N_W@Z 1004d514 f i libucrt:output.obj
 0001:0004c54f       ??$is_integral_specifier@_W@?$positional_parameter_base@_WV?$string_output_adapter@_W@__crt_stdio_output@@@__crt_stdio_output@@CA_N_W@Z 1004d54f f i libucrt:output.obj
 0001:0004c58a       ??$is_pointer_specifier@D@?$positional_parameter_base@DV?$stream_output_adapter@D@__crt_stdio_output@@@__crt_stdio_output@@CA_ND@Z 1004d58a f i libucrt:output.obj
 0001:0004c598       ??$is_pointer_specifier@D@?$positional_parameter_base@DV?$string_output_adapter@D@__crt_stdio_output@@@__crt_stdio_output@@CA_ND@Z 1004d598 f i libucrt:output.obj
 0001:0004c5a6       ??$is_pointer_specifier@_W@?$positional_parameter_base@_WV?$stream_output_adapter@_W@__crt_stdio_output@@@__crt_stdio_output@@CA_N_W@Z 1004d5a6 f i libucrt:output.obj
 0001:0004c5b5       ??$is_pointer_specifier@_W@?$positional_parameter_base@_WV?$string_output_adapter@_W@__crt_stdio_output@@@__crt_stdio_output@@CA_N_W@Z 1004d5b5 f i libucrt:output.obj
 0001:0004c5c4       ??$is_string_specifier@D@?$positional_parameter_base@DV?$stream_output_adapter@D@__crt_stdio_output@@@__crt_stdio_output@@CA_ND@Z 1004d5c4 f i libucrt:output.obj
 0001:0004c5dc       ??$is_string_specifier@D@?$positional_parameter_base@DV?$string_output_adapter@D@__crt_stdio_output@@@__crt_stdio_output@@CA_ND@Z 1004d5dc f i libucrt:output.obj
 0001:0004c5f4       ??$is_string_specifier@_W@?$positional_parameter_base@_WV?$stream_output_adapter@_W@__crt_stdio_output@@@__crt_stdio_output@@CA_N_W@Z 1004d5f4 f i libucrt:output.obj
 0001:0004c60f       ??$is_string_specifier@_W@?$positional_parameter_base@_WV?$string_output_adapter@_W@__crt_stdio_output@@@__crt_stdio_output@@CA_N_W@Z 1004d60f f i libucrt:output.obj
 0001:0004c62a       ??$is_wide_character_specifier@D@__crt_stdio_output@@YA_N_KDW4length_modifier@0@@Z 1004d62a f i libucrt:output.obj
 0001:0004c65b       ??$is_wide_character_specifier@_W@__crt_stdio_output@@YA_N_K_WW4length_modifier@0@@Z 1004d65b f i libucrt:output.obj
 0001:0004c6a9       ??$peek_va_arg@C@__crt_stdio_output@@YACPAD@Z 1004d6a9 f i libucrt:output.obj
 0001:0004c6b5       ??$peek_va_arg@E@__crt_stdio_output@@YAEPAD@Z 1004d6b5 f i libucrt:output.obj
 0001:0004c6c1       ??$peek_va_arg@F@__crt_stdio_output@@YAFPAD@Z 1004d6c1 f i libucrt:output.obj
 0001:0004c6ce       ??$peek_va_arg@G@__crt_stdio_output@@YAGPAD@Z 1004d6ce f i libucrt:output.obj
 0001:0004c6db       ??$peek_va_arg@H@__crt_stdio_output@@YAHPAD@Z 1004d6db f i libucrt:output.obj
 0001:0004c6e7       ??$peek_va_arg@I@__crt_stdio_output@@YAIPAD@Z 1004d6e7 f i libucrt:output.obj
 0001:0004c6f3       ??$peek_va_arg@PAD@__crt_stdio_output@@YAPADPAD@Z 1004d6f3 f i libucrt:output.obj
 0001:0004c6ff       ??$peek_va_arg@PAUansi_string@?1??type_case_Z@?$output_processor@DV?$stream_output_adapter@D@__crt_stdio_output@@V?$positional_parameter_base@DV?$stream_output_adapter@D@__crt_stdio_output@@@2@@__crt_stdio_output@@AAE_NXZ@@__crt_stdio_output@@YAPAUansi_string@?1??type_case_Z@?$output_processor@DV?$stream_output_adapter@D@__crt_stdio_output@@V?$positional_parameter_base@DV?$stream_output_adapter@D@__crt_stdio_output@@@2@@0@AAE_NXZ@PAD@Z 1004d6ff f i libucrt:output.obj
 0001:0004c70b       ??$peek_va_arg@PAUansi_string@?1??type_case_Z@?$output_processor@DV?$string_output_adapter@D@__crt_stdio_output@@V?$positional_parameter_base@DV?$string_output_adapter@D@__crt_stdio_output@@@2@@__crt_stdio_output@@AAE_NXZ@@__crt_stdio_output@@YAPAUansi_string@?1??type_case_Z@?$output_processor@DV?$string_output_adapter@D@__crt_stdio_output@@V?$positional_parameter_base@DV?$string_output_adapter@D@__crt_stdio_output@@@2@@0@AAE_NXZ@PAD@Z 1004d70b f i libucrt:output.obj
 0001:0004c717       ??$peek_va_arg@PAUansi_string@?1??type_case_Z@?$output_processor@_WV?$stream_output_adapter@_W@__crt_stdio_output@@V?$positional_parameter_base@_WV?$stream_output_adapter@_W@__crt_stdio_output@@@2@@__crt_stdio_output@@AAE_NXZ@@__crt_stdio_output@@YAPAUansi_string@?1??type_case_Z@?$output_processor@_WV?$stream_output_adapter@_W@__crt_stdio_output@@V?$positional_parameter_base@_WV?$stream_output_adapter@_W@__crt_stdio_output@@@2@@0@AAE_NXZ@PAD@Z 1004d717 f i libucrt:output.obj
 0001:0004c723       ??$peek_va_arg@PAUansi_string@?1??type_case_Z@?$output_processor@_WV?$string_output_adapter@_W@__crt_stdio_output@@V?$positional_parameter_base@_WV?$string_output_adapter@_W@__crt_stdio_output@@@2@@__crt_stdio_output@@AAE_NXZ@@__crt_stdio_output@@YAPAUansi_string@?1??type_case_Z@?$output_processor@_WV?$string_output_adapter@_W@__crt_stdio_output@@V?$positional_parameter_base@_WV?$string_output_adapter@_W@__crt_stdio_output@@@2@@0@AAE_NXZ@PAD@Z 1004d723 f i libucrt:output.obj
 0001:0004c72f       ??$peek_va_arg@PAX@__crt_stdio_output@@YAPAXPAD@Z 1004d72f f i libucrt:output.obj
 0001:0004c73b       ??$peek_va_arg@U_CRT_DOUBLE@@@__crt_stdio_output@@YA?AU_CRT_DOUBLE@@PAD@Z 1004d73b f i libucrt:output.obj
 0001:0004c74a       ??$peek_va_arg@_J@__crt_stdio_output@@YA_JPAD@Z 1004d74a f i libucrt:output.obj
 0001:0004c759       ??$peek_va_arg@_K@__crt_stdio_output@@YA_KPAD@Z 1004d759 f i libucrt:output.obj
 0001:0004c768       ??$peek_va_arg@_W@__crt_stdio_output@@YA_WPAD@Z 1004d768 f i libucrt:output.obj
 0001:0004c775       ??$puttc_nolock@ABDPAU_iobuf@@@?$__crt_char_traits@D@@SAHABD$$QAPAU_iobuf@@@Z 1004d775 f i libucrt:output.obj
 0001:0004c78f       ??$puttc_nolock@AB_WPAU_iobuf@@@?$__crt_char_traits@_W@@SAGAB_W$$QAPAU_iobuf@@@Z 1004d78f f i libucrt:output.obj
 0001:0004c7a9       ??$read_va_arg@C@__crt_stdio_output@@YACAAPAD@Z 1004d7a9 f i libucrt:output.obj
 0001:0004c7bb       ??$read_va_arg@E@__crt_stdio_output@@YAEAAPAD@Z 1004d7bb f i libucrt:output.obj
 0001:0004c7cd       ??$read_va_arg@F@__crt_stdio_output@@YAFAAPAD@Z 1004d7cd f i libucrt:output.obj
 0001:0004c7e0       ??$read_va_arg@G@__crt_stdio_output@@YAGAAPAD@Z 1004d7e0 f i libucrt:output.obj
 0001:0004c7f3       ??$read_va_arg@H@__crt_stdio_output@@YAHAAPAD@Z 1004d7f3 f i libucrt:output.obj
 0001:0004c805       ??$read_va_arg@I@__crt_stdio_output@@YAIAAPAD@Z 1004d805 f i libucrt:output.obj
 0001:0004c817       ??$read_va_arg@PAD@__crt_stdio_output@@YAPADAAPAD@Z 1004d817 f i libucrt:output.obj
 0001:0004c829       ??$read_va_arg@PAUansi_string@?1??type_case_Z@?$output_processor@DV?$stream_output_adapter@D@__crt_stdio_output@@V?$format_validation_base@DV?$stream_output_adapter@D@__crt_stdio_output@@@2@@__crt_stdio_output@@AAE_NXZ@@__crt_stdio_output@@YAPAUansi_string@?1??type_case_Z@?$output_processor@DV?$stream_output_adapter@D@__crt_stdio_output@@V?$format_validation_base@DV?$stream_output_adapter@D@__crt_stdio_output@@@2@@0@AAE_NXZ@AAPAD@Z 1004d829 f i libucrt:output.obj
 0001:0004c83b       ??$read_va_arg@PAUansi_string@?1??type_case_Z@?$output_processor@DV?$stream_output_adapter@D@__crt_stdio_output@@V?$positional_parameter_base@DV?$stream_output_adapter@D@__crt_stdio_output@@@2@@__crt_stdio_output@@AAE_NXZ@@__crt_stdio_output@@YAPAUansi_string@?1??type_case_Z@?$output_processor@DV?$stream_output_adapter@D@__crt_stdio_output@@V?$positional_parameter_base@DV?$stream_output_adapter@D@__crt_stdio_output@@@2@@0@AAE_NXZ@AAPAD@Z 1004d83b f i libucrt:output.obj
 0001:0004c84d       ??$read_va_arg@PAUansi_string@?1??type_case_Z@?$output_processor@DV?$stream_output_adapter@D@__crt_stdio_output@@V?$standard_base@DV?$stream_output_adapter@D@__crt_stdio_output@@@2@@__crt_stdio_output@@AAE_NXZ@@__crt_stdio_output@@YAPAUansi_string@?1??type_case_Z@?$output_processor@DV?$stream_output_adapter@D@__crt_stdio_output@@V?$standard_base@DV?$stream_output_adapter@D@__crt_stdio_output@@@2@@0@AAE_NXZ@AAPAD@Z 1004d84d f i libucrt:output.obj
 0001:0004c85f       ??$read_va_arg@PAUansi_string@?1??type_case_Z@?$output_processor@DV?$string_output_adapter@D@__crt_stdio_output@@V?$format_validation_base@DV?$string_output_adapter@D@__crt_stdio_output@@@2@@__crt_stdio_output@@AAE_NXZ@@__crt_stdio_output@@YAPAUansi_string@?1??type_case_Z@?$output_processor@DV?$string_output_adapter@D@__crt_stdio_output@@V?$format_validation_base@DV?$string_output_adapter@D@__crt_stdio_output@@@2@@0@AAE_NXZ@AAPAD@Z 1004d85f f i libucrt:output.obj
 0001:0004c871       ??$read_va_arg@PAUansi_string@?1??type_case_Z@?$output_processor@DV?$string_output_adapter@D@__crt_stdio_output@@V?$positional_parameter_base@DV?$string_output_adapter@D@__crt_stdio_output@@@2@@__crt_stdio_output@@AAE_NXZ@@__crt_stdio_output@@YAPAUansi_string@?1??type_case_Z@?$output_processor@DV?$string_output_adapter@D@__crt_stdio_output@@V?$positional_parameter_base@DV?$string_output_adapter@D@__crt_stdio_output@@@2@@0@AAE_NXZ@AAPAD@Z 1004d871 f i libucrt:output.obj
 0001:0004c883       ??$read_va_arg@PAUansi_string@?1??type_case_Z@?$output_processor@DV?$string_output_adapter@D@__crt_stdio_output@@V?$standard_base@DV?$string_output_adapter@D@__crt_stdio_output@@@2@@__crt_stdio_output@@AAE_NXZ@@__crt_stdio_output@@YAPAUansi_string@?1??type_case_Z@?$output_processor@DV?$string_output_adapter@D@__crt_stdio_output@@V?$standard_base@DV?$string_output_adapter@D@__crt_stdio_output@@@2@@0@AAE_NXZ@AAPAD@Z 1004d883 f i libucrt:output.obj
 0001:0004c895       ??$read_va_arg@PAUansi_string@?1??type_case_Z@?$output_processor@_WV?$stream_output_adapter@_W@__crt_stdio_output@@V?$format_validation_base@_WV?$stream_output_adapter@_W@__crt_stdio_output@@@2@@__crt_stdio_output@@AAE_NXZ@@__crt_stdio_output@@YAPAUansi_string@?1??type_case_Z@?$output_processor@_WV?$stream_output_adapter@_W@__crt_stdio_output@@V?$format_validation_base@_WV?$stream_output_adapter@_W@__crt_stdio_output@@@2@@0@AAE_NXZ@AAPAD@Z 1004d895 f i libucrt:output.obj
 0001:0004c8a7       ??$read_va_arg@PAUansi_string@?1??type_case_Z@?$output_processor@_WV?$stream_output_adapter@_W@__crt_stdio_output@@V?$positional_parameter_base@_WV?$stream_output_adapter@_W@__crt_stdio_output@@@2@@__crt_stdio_output@@AAE_NXZ@@__crt_stdio_output@@YAPAUansi_string@?1??type_case_Z@?$output_processor@_WV?$stream_output_adapter@_W@__crt_stdio_output@@V?$positional_parameter_base@_WV?$stream_output_adapter@_W@__crt_stdio_output@@@2@@0@AAE_NXZ@AAPAD@Z 1004d8a7 f i libucrt:output.obj
 0001:0004c8b9       ??$read_va_arg@PAUansi_string@?1??type_case_Z@?$output_processor@_WV?$stream_output_adapter@_W@__crt_stdio_output@@V?$standard_base@_WV?$stream_output_adapter@_W@__crt_stdio_output@@@2@@__crt_stdio_output@@AAE_NXZ@@__crt_stdio_output@@YAPAUansi_string@?1??type_case_Z@?$output_processor@_WV?$stream_output_adapter@_W@__crt_stdio_output@@V?$standard_base@_WV?$stream_output_adapter@_W@__crt_stdio_output@@@2@@0@AAE_NXZ@AAPAD@Z 1004d8b9 f i libucrt:output.obj
 0001:0004c8cb       ??$read_va_arg@PAUansi_string@?1??type_case_Z@?$output_processor@_WV?$string_output_adapter@_W@__crt_stdio_output@@V?$format_validation_base@_WV?$string_output_adapter@_W@__crt_stdio_output@@@2@@__crt_stdio_output@@AAE_NXZ@@__crt_stdio_output@@YAPAUansi_string@?1??type_case_Z@?$output_processor@_WV?$string_output_adapter@_W@__crt_stdio_output@@V?$format_validation_base@_WV?$string_output_adapter@_W@__crt_stdio_output@@@2@@0@AAE_NXZ@AAPAD@Z 1004d8cb f i libucrt:output.obj
 0001:0004c8dd       ??$read_va_arg@PAUansi_string@?1??type_case_Z@?$output_processor@_WV?$string_output_adapter@_W@__crt_stdio_output@@V?$positional_parameter_base@_WV?$string_output_adapter@_W@__crt_stdio_output@@@2@@__crt_stdio_output@@AAE_NXZ@@__crt_stdio_output@@YAPAUansi_string@?1??type_case_Z@?$output_processor@_WV?$string_output_adapter@_W@__crt_stdio_output@@V?$positional_parameter_base@_WV?$string_output_adapter@_W@__crt_stdio_output@@@2@@0@AAE_NXZ@AAPAD@Z 1004d8dd f i libucrt:output.obj
 0001:0004c8ef       ??$read_va_arg@PAUansi_string@?1??type_case_Z@?$output_processor@_WV?$string_output_adapter@_W@__crt_stdio_output@@V?$standard_base@_WV?$string_output_adapter@_W@__crt_stdio_output@@@2@@__crt_stdio_output@@AAE_NXZ@@__crt_stdio_output@@YAPAUansi_string@?1??type_case_Z@?$output_processor@_WV?$string_output_adapter@_W@__crt_stdio_output@@V?$standard_base@_WV?$string_output_adapter@_W@__crt_stdio_output@@@2@@0@AAE_NXZ@AAPAD@Z 1004d8ef f i libucrt:output.obj
 0001:0004c901       ??$read_va_arg@PAX@__crt_stdio_output@@YAPAXAAPAD@Z 1004d901 f i libucrt:output.obj
 0001:0004c913       ??$read_va_arg@U_CRT_DOUBLE@@@__crt_stdio_output@@YA?AU_CRT_DOUBLE@@AAPAD@Z 1004d913 f i libucrt:output.obj
 0001:0004c929       ??$read_va_arg@_J@__crt_stdio_output@@YA_JAAPAD@Z 1004d929 f i libucrt:output.obj
 0001:0004c93e       ??$read_va_arg@_K@__crt_stdio_output@@YA_KAAPAD@Z 1004d93e f i libucrt:output.obj
 0001:0004c953       ??$read_va_arg@_W@__crt_stdio_output@@YA_WAAPAD@Z 1004d953 f i libucrt:output.obj
 0001:0004c966       ??$scratch_count@D@formatting_buffer@__crt_stdio_output@@QBEIXZ 1004d966 f i libucrt:output.obj
 0001:0004c96b       ??$scratch_data@D@formatting_buffer@__crt_stdio_output@@QAEPADXZ 1004d96b f i libucrt:output.obj
 0001:0004c989       ??$tcstol@AAPBDPAPADH@?$__crt_char_traits@D@@SAJAAPBD$$QAPAPAD$$QAH@Z 1004d989 f i libucrt:output.obj
 0001:0004c9a7       ??$tcstol@AAPB_WPAPA_WH@?$__crt_char_traits@_W@@SAJAAPB_W$$QAPAPA_W$$QAH@Z 1004d9a7 f i libucrt:output.obj
 0001:0004c9c5       ??$tcstol@PBDPAPADH@?$__crt_char_traits@D@@SAJ$$QAPBD$$QAPAPAD$$QAH@Z 1004d9c5 f i libucrt:output.obj
 0001:0004c9e3       ??$tcstol@PB_WPAPA_WH@?$__crt_char_traits@_W@@SAJ$$QAPB_W$$QAPAPA_W$$QAH@Z 1004d9e3 f i libucrt:output.obj
 0001:0004ca01       ??$type_case_integer_parse_into_buffer@I@?$output_processor@DV?$stream_output_adapter@D@__crt_stdio_output@@V?$format_validation_base@DV?$stream_output_adapter@D@__crt_stdio_output@@@2@@__crt_stdio_output@@AAEXII_N@Z 1004da01 f i libucrt:output.obj
 0001:0004ca74       ??$type_case_integer_parse_into_buffer@I@?$output_processor@DV?$stream_output_adapter@D@__crt_stdio_output@@V?$positional_parameter_base@DV?$stream_output_adapter@D@__crt_stdio_output@@@2@@__crt_stdio_output@@AAEXII_N@Z 1004da74 f i libucrt:output.obj
 0001:0004cae7       ??$type_case_integer_parse_into_buffer@I@?$output_processor@DV?$stream_output_adapter@D@__crt_stdio_output@@V?$standard_base@DV?$stream_output_adapter@D@__crt_stdio_output@@@2@@__crt_stdio_output@@AAEXII_N@Z 1004dae7 f i libucrt:output.obj
 0001:0004cb5a       ??$type_case_integer_parse_into_buffer@I@?$output_processor@DV?$string_output_adapter@D@__crt_stdio_output@@V?$format_validation_base@DV?$string_output_adapter@D@__crt_stdio_output@@@2@@__crt_stdio_output@@AAEXII_N@Z 1004db5a f i libucrt:output.obj
 0001:0004cbcd       ??$type_case_integer_parse_into_buffer@I@?$output_processor@DV?$string_output_adapter@D@__crt_stdio_output@@V?$positional_parameter_base@DV?$string_output_adapter@D@__crt_stdio_output@@@2@@__crt_stdio_output@@AAEXII_N@Z 1004dbcd f i libucrt:output.obj
 0001:0004cc40       ??$type_case_integer_parse_into_buffer@I@?$output_processor@DV?$string_output_adapter@D@__crt_stdio_output@@V?$standard_base@DV?$string_output_adapter@D@__crt_stdio_output@@@2@@__crt_stdio_output@@AAEXII_N@Z 1004dc40 f i libucrt:output.obj
 0001:0004ccb3       ??$type_case_integer_parse_into_buffer@I@?$output_processor@_WV?$stream_output_adapter@_W@__crt_stdio_output@@V?$format_validation_base@_WV?$stream_output_adapter@_W@__crt_stdio_output@@@2@@__crt_stdio_output@@AAEXII_N@Z 1004dcb3 f i libucrt:output.obj
 0001:0004cd3a       ??$type_case_integer_parse_into_buffer@I@?$output_processor@_WV?$stream_output_adapter@_W@__crt_stdio_output@@V?$positional_parameter_base@_WV?$stream_output_adapter@_W@__crt_stdio_output@@@2@@__crt_stdio_output@@AAEXII_N@Z 1004dd3a f i libucrt:output.obj
 0001:0004cdc1       ??$type_case_integer_parse_into_buffer@I@?$output_processor@_WV?$stream_output_adapter@_W@__crt_stdio_output@@V?$standard_base@_WV?$stream_output_adapter@_W@__crt_stdio_output@@@2@@__crt_stdio_output@@AAEXII_N@Z 1004ddc1 f i libucrt:output.obj
 0001:0004ce48       ??$type_case_integer_parse_into_buffer@I@?$output_processor@_WV?$string_output_adapter@_W@__crt_stdio_output@@V?$format_validation_base@_WV?$string_output_adapter@_W@__crt_stdio_output@@@2@@__crt_stdio_output@@AAEXII_N@Z 1004de48 f i libucrt:output.obj
 0001:0004cecf       ??$type_case_integer_parse_into_buffer@I@?$output_processor@_WV?$string_output_adapter@_W@__crt_stdio_output@@V?$positional_parameter_base@_WV?$string_output_adapter@_W@__crt_stdio_output@@@2@@__crt_stdio_output@@AAEXII_N@Z 1004decf f i libucrt:output.obj
 0001:0004cf56       ??$type_case_integer_parse_into_buffer@I@?$output_processor@_WV?$string_output_adapter@_W@__crt_stdio_output@@V?$standard_base@_WV?$string_output_adapter@_W@__crt_stdio_output@@@2@@__crt_stdio_output@@AAEXII_N@Z 1004df56 f i libucrt:output.obj
 0001:0004cfdd       ??$type_case_integer_parse_into_buffer@_K@?$output_processor@DV?$stream_output_adapter@D@__crt_stdio_output@@V?$format_validation_base@DV?$stream_output_adapter@D@__crt_stdio_output@@@2@@__crt_stdio_output@@AAEX_KI_N@Z 1004dfdd f i libucrt:output.obj
 0001:0004d06b       ??$type_case_integer_parse_into_buffer@_K@?$output_processor@DV?$stream_output_adapter@D@__crt_stdio_output@@V?$positional_parameter_base@DV?$stream_output_adapter@D@__crt_stdio_output@@@2@@__crt_stdio_output@@AAEX_KI_N@Z 1004e06b f i libucrt:output.obj
 0001:0004d0f9       ??$type_case_integer_parse_into_buffer@_K@?$output_processor@DV?$stream_output_adapter@D@__crt_stdio_output@@V?$standard_base@DV?$stream_output_adapter@D@__crt_stdio_output@@@2@@__crt_stdio_output@@AAEX_KI_N@Z 1004e0f9 f i libucrt:output.obj
 0001:0004d187       ??$type_case_integer_parse_into_buffer@_K@?$output_processor@DV?$string_output_adapter@D@__crt_stdio_output@@V?$format_validation_base@DV?$string_output_adapter@D@__crt_stdio_output@@@2@@__crt_stdio_output@@AAEX_KI_N@Z 1004e187 f i libucrt:output.obj
 0001:0004d215       ??$type_case_integer_parse_into_buffer@_K@?$output_processor@DV?$string_output_adapter@D@__crt_stdio_output@@V?$positional_parameter_base@DV?$string_output_adapter@D@__crt_stdio_output@@@2@@__crt_stdio_output@@AAEX_KI_N@Z 1004e215 f i libucrt:output.obj
 0001:0004d2a3       ??$type_case_integer_parse_into_buffer@_K@?$output_processor@DV?$string_output_adapter@D@__crt_stdio_output@@V?$standard_base@DV?$string_output_adapter@D@__crt_stdio_output@@@2@@__crt_stdio_output@@AAEX_KI_N@Z 1004e2a3 f i libucrt:output.obj
 0001:0004d331       ??$type_case_integer_parse_into_buffer@_K@?$output_processor@_WV?$stream_output_adapter@_W@__crt_stdio_output@@V?$format_validation_base@_WV?$stream_output_adapter@_W@__crt_stdio_output@@@2@@__crt_stdio_output@@AAEX_KI_N@Z 1004e331 f i libucrt:output.obj
 0001:0004d3d3       ??$type_case_integer_parse_into_buffer@_K@?$output_processor@_WV?$stream_output_adapter@_W@__crt_stdio_output@@V?$positional_parameter_base@_WV?$stream_output_adapter@_W@__crt_stdio_output@@@2@@__crt_stdio_output@@AAEX_KI_N@Z 1004e3d3 f i libucrt:output.obj
 0001:0004d475       ??$type_case_integer_parse_into_buffer@_K@?$output_processor@_WV?$stream_output_adapter@_W@__crt_stdio_output@@V?$standard_base@_WV?$stream_output_adapter@_W@__crt_stdio_output@@@2@@__crt_stdio_output@@AAEX_KI_N@Z 1004e475 f i libucrt:output.obj
 0001:0004d517       ??$type_case_integer_parse_into_buffer@_K@?$output_processor@_WV?$string_output_adapter@_W@__crt_stdio_output@@V?$format_validation_base@_WV?$string_output_adapter@_W@__crt_stdio_output@@@2@@__crt_stdio_output@@AAEX_KI_N@Z 1004e517 f i libucrt:output.obj
 0001:0004d5b9       ??$type_case_integer_parse_into_buffer@_K@?$output_processor@_WV?$string_output_adapter@_W@__crt_stdio_output@@V?$positional_parameter_base@_WV?$string_output_adapter@_W@__crt_stdio_output@@@2@@__crt_stdio_output@@AAEX_KI_N@Z 1004e5b9 f i libucrt:output.obj
 0001:0004d65b       ??$type_case_integer_parse_into_buffer@_K@?$output_processor@_WV?$string_output_adapter@_W@__crt_stdio_output@@V?$standard_base@_WV?$string_output_adapter@_W@__crt_stdio_output@@@2@@__crt_stdio_output@@AAEX_KI_N@Z 1004e65b f i libucrt:output.obj
 0001:0004d6fd       ??$write_multiple_characters@V?$stream_output_adapter@D@__crt_stdio_output@@D@__crt_stdio_output@@YAXABV?$stream_output_adapter@D@0@DHQAH@Z 1004e6fd f i libucrt:output.obj
 0001:0004d738       ??$write_multiple_characters@V?$stream_output_adapter@_W@__crt_stdio_output@@D@__crt_stdio_output@@YAXABV?$stream_output_adapter@_W@0@DHQAH@Z 1004e738 f i libucrt:output.obj
 0001:0004d778       ??$write_multiple_characters@V?$string_output_adapter@D@__crt_stdio_output@@D@__crt_stdio_output@@YAXABV?$string_output_adapter@D@0@DHQAH@Z 1004e778 f i libucrt:output.obj
 0001:0004d7a4       ??$write_multiple_characters@V?$string_output_adapter@_W@__crt_stdio_output@@D@__crt_stdio_output@@YAXABV?$string_output_adapter@_W@0@DHQAH@Z 1004e7a4 f i libucrt:output.obj
 0001:0004d99d       ??0?$common_data@D@__crt_stdio_output@@IAE@XZ 1004e99d f i libucrt:output.obj
 0001:0004d9e2       ??0?$common_data@_W@__crt_stdio_output@@IAE@XZ 1004e9e2 f i libucrt:output.obj
 0001:0004da2c       ??0?$output_adapter_data@DV?$stream_output_adapter@D@__crt_stdio_output@@@__crt_stdio_output@@IAE@ABV?$stream_output_adapter@D@1@_KQBDQAU__crt_locale_pointers@@QAD@Z 1004ea2c f i libucrt:output.obj
 0001:0004da68       ??0?$output_adapter_data@DV?$string_output_adapter@D@__crt_stdio_output@@@__crt_stdio_output@@IAE@ABV?$string_output_adapter@D@1@_KQBDQAU__crt_locale_pointers@@QAD@Z 1004ea68 f i libucrt:output.obj
 0001:0004daa4       ??0?$output_adapter_data@_WV?$stream_output_adapter@_W@__crt_stdio_output@@@__crt_stdio_output@@IAE@ABV?$stream_output_adapter@_W@1@_KQB_WQAU__crt_locale_pointers@@QAD@Z 1004eaa4 f i libucrt:output.obj
 0001:0004dae0       ??0?$output_adapter_data@_WV?$string_output_adapter@_W@__crt_stdio_output@@@__crt_stdio_output@@IAE@ABV?$string_output_adapter@_W@1@_KQB_WQAU__crt_locale_pointers@@QAD@Z 1004eae0 f i libucrt:output.obj
 0001:0004db1c       ??0?$output_processor@DV?$stream_output_adapter@D@__crt_stdio_output@@V?$format_validation_base@DV?$stream_output_adapter@D@__crt_stdio_output@@@2@@__crt_stdio_output@@QAE@ABV?$stream_output_adapter@D@1@_KQBDQAU__crt_locale_pointers@@QAD@Z 1004eb1c f i libucrt:output.obj
 0001:0004db49       ??0?$output_processor@DV?$stream_output_adapter@D@__crt_stdio_output@@V?$positional_parameter_base@DV?$stream_output_adapter@D@__crt_stdio_output@@@2@@__crt_stdio_output@@QAE@ABV?$stream_output_adapter@D@1@_KQBDQAU__crt_locale_pointers@@QAD@Z 1004eb49 f i libucrt:output.obj
 0001:0004db70       ??0?$output_processor@DV?$stream_output_adapter@D@__crt_stdio_output@@V?$standard_base@DV?$stream_output_adapter@D@__crt_stdio_output@@@2@@__crt_stdio_output@@QAE@ABV?$stream_output_adapter@D@1@_KQBDQAU__crt_locale_pointers@@QAD@Z 1004eb70 f i libucrt:output.obj
 0001:0004db9d       ??0?$output_processor@DV?$string_output_adapter@D@__crt_stdio_output@@V?$format_validation_base@DV?$string_output_adapter@D@__crt_stdio_output@@@2@@__crt_stdio_output@@QAE@ABV?$string_output_adapter@D@1@_KQBDQAU__crt_locale_pointers@@QAD@Z 1004eb9d f i libucrt:output.obj
 0001:0004dbca       ??0?$output_processor@DV?$string_output_adapter@D@__crt_stdio_output@@V?$positional_parameter_base@DV?$string_output_adapter@D@__crt_stdio_output@@@2@@__crt_stdio_output@@QAE@ABV?$string_output_adapter@D@1@_KQBDQAU__crt_locale_pointers@@QAD@Z 1004ebca f i libucrt:output.obj
 0001:0004dbf1       ??0?$output_processor@DV?$string_output_adapter@D@__crt_stdio_output@@V?$standard_base@DV?$string_output_adapter@D@__crt_stdio_output@@@2@@__crt_stdio_output@@QAE@ABV?$string_output_adapter@D@1@_KQBDQAU__crt_locale_pointers@@QAD@Z 1004ebf1 f i libucrt:output.obj
 0001:0004dc1e       ??0?$output_processor@_WV?$stream_output_adapter@_W@__crt_stdio_output@@V?$format_validation_base@_WV?$stream_output_adapter@_W@__crt_stdio_output@@@2@@__crt_stdio_output@@QAE@ABV?$stream_output_adapter@_W@1@_KQB_WQAU__crt_locale_pointers@@QAD@Z 1004ec1e f i libucrt:output.obj
 0001:0004dc4b       ??0?$output_processor@_WV?$stream_output_adapter@_W@__crt_stdio_output@@V?$positional_parameter_base@_WV?$stream_output_adapter@_W@__crt_stdio_output@@@2@@__crt_stdio_output@@QAE@ABV?$stream_output_adapter@_W@1@_KQB_WQAU__crt_locale_pointers@@QAD@Z 1004ec4b f i libucrt:output.obj
 0001:0004dc72       ??0?$output_processor@_WV?$stream_output_adapter@_W@__crt_stdio_output@@V?$standard_base@_WV?$stream_output_adapter@_W@__crt_stdio_output@@@2@@__crt_stdio_output@@QAE@ABV?$stream_output_adapter@_W@1@_KQB_WQAU__crt_locale_pointers@@QAD@Z 1004ec72 f i libucrt:output.obj
 0001:0004dc9f       ??0?$output_processor@_WV?$string_output_adapter@_W@__crt_stdio_output@@V?$format_validation_base@_WV?$string_output_adapter@_W@__crt_stdio_output@@@2@@__crt_stdio_output@@QAE@ABV?$string_output_adapter@_W@1@_KQB_WQAU__crt_locale_pointers@@QAD@Z 1004ec9f f i libucrt:output.obj
 0001:0004dccc       ??0?$output_processor@_WV?$string_output_adapter@_W@__crt_stdio_output@@V?$positional_parameter_base@_WV?$string_output_adapter@_W@__crt_stdio_output@@@2@@__crt_stdio_output@@QAE@ABV?$string_output_adapter@_W@1@_KQB_WQAU__crt_locale_pointers@@QAD@Z 1004eccc f i libucrt:output.obj
 0001:0004dcf3       ??0?$output_processor@_WV?$string_output_adapter@_W@__crt_stdio_output@@V?$standard_base@_WV?$string_output_adapter@_W@__crt_stdio_output@@@2@@__crt_stdio_output@@QAE@ABV?$string_output_adapter@_W@1@_KQB_WQAU__crt_locale_pointers@@QAD@Z 1004ecf3 f i libucrt:output.obj
 0001:0004dd20       ??0?$stream_output_adapter@D@__crt_stdio_output@@QAE@QAU_iobuf@@@Z 1004ed20 f i libucrt:output.obj
 0001:0004dd30       ??0?$stream_output_adapter@_W@__crt_stdio_output@@QAE@QAU_iobuf@@@Z 1004ed30 f i libucrt:output.obj
 0001:0004dd40       ??0?$string_output_adapter@D@__crt_stdio_output@@QAE@QAU?$string_output_adapter_context@D@1@@Z 1004ed40 f i libucrt:output.obj
 0001:0004dd50       ??0?$string_output_adapter@_W@__crt_stdio_output@@QAE@QAU?$string_output_adapter_context@_W@1@@Z 1004ed50 f i libucrt:output.obj
 0001:0004dd60       ??0_LocaleUpdate@@QAE@QAU__crt_locale_pointers@@@Z 1004ed60 f i libucrt:output.obj
 0001:0004dde3       ??0__acrt_stdio_temporary_buffering_guard@@QAE@QAU_iobuf@@@Z 1004ede3 f i libucrt:output.obj
 0001:0004de01       ??0__crt_deferred_errno_cache@@QAE@XZ 1004ee01 f i libucrt:output.obj
 0001:0004de07       ??0__crt_errno_guard@@QAE@QAH@Z 1004ee07 f i libucrt:output.obj
 0001:0004de1f       ??0__crt_stdio_stream@@QAE@QAU_iobuf@@@Z 1004ee1f f i libucrt:output.obj
 0001:0004de30       ??0formatting_buffer@__crt_stdio_output@@QAE@XZ 1004ee30 f i libucrt:output.obj
 0001:0004de47       ??1?$common_data@D@__crt_stdio_output@@QAE@XZ 1004ee47 f i libucrt:output.obj
 0001:0004de4f       ??1?$common_data@_W@__crt_stdio_output@@QAE@XZ 1004ee4f f i libucrt:output.obj
 0001:0004de57       ??1?$format_validation_base@DV?$stream_output_adapter@D@__crt_stdio_output@@@__crt_stdio_output@@QAE@XZ 1004ee57 f i libucrt:output.obj
 0001:0004de5f       ??1?$format_validation_base@DV?$string_output_adapter@D@__crt_stdio_output@@@__crt_stdio_output@@QAE@XZ 1004ee5f f i libucrt:output.obj
 0001:0004de67       ??1?$format_validation_base@_WV?$stream_output_adapter@_W@__crt_stdio_output@@@__crt_stdio_output@@QAE@XZ 1004ee67 f i libucrt:output.obj
 0001:0004de6f       ??1?$format_validation_base@_WV?$string_output_adapter@_W@__crt_stdio_output@@@__crt_stdio_output@@QAE@XZ 1004ee6f f i libucrt:output.obj
 0001:0004de77       ??1?$output_adapter_data@DV?$stream_output_adapter@D@__crt_stdio_output@@@__crt_stdio_output@@QAE@XZ 1004ee77 f i libucrt:output.obj
 0001:0004de7f       ??1?$output_adapter_data@DV?$string_output_adapter@D@__crt_stdio_output@@@__crt_stdio_output@@QAE@XZ 1004ee7f f i libucrt:output.obj
 0001:0004de87       ??1?$output_adapter_data@_WV?$stream_output_adapter@_W@__crt_stdio_output@@@__crt_stdio_output@@QAE@XZ 1004ee87 f i libucrt:output.obj
 0001:0004de8f       ??1?$output_adapter_data@_WV?$string_output_adapter@_W@__crt_stdio_output@@@__crt_stdio_output@@QAE@XZ 1004ee8f f i libucrt:output.obj
 0001:0004de97       ??1?$output_processor@DV?$stream_output_adapter@D@__crt_stdio_output@@V?$format_validation_base@DV?$stream_output_adapter@D@__crt_stdio_output@@@2@@__crt_stdio_output@@QAE@XZ 1004ee97 f i libucrt:output.obj
 0001:0004de9f       ??1?$output_processor@DV?$stream_output_adapter@D@__crt_stdio_output@@V?$positional_parameter_base@DV?$stream_output_adapter@D@__crt_stdio_output@@@2@@__crt_stdio_output@@QAE@XZ 1004ee9f f i libucrt:output.obj
 0001:0004dea7       ??1?$output_processor@DV?$stream_output_adapter@D@__crt_stdio_output@@V?$standard_base@DV?$stream_output_adapter@D@__crt_stdio_output@@@2@@__crt_stdio_output@@QAE@XZ 1004eea7 f i libucrt:output.obj
 0001:0004deaf       ??1?$output_processor@DV?$string_output_adapter@D@__crt_stdio_output@@V?$format_validation_base@DV?$string_output_adapter@D@__crt_stdio_output@@@2@@__crt_stdio_output@@QAE@XZ 1004eeaf f i libucrt:output.obj
 0001:0004deb7       ??1?$output_processor@DV?$string_output_adapter@D@__crt_stdio_output@@V?$positional_parameter_base@DV?$string_output_adapter@D@__crt_stdio_output@@@2@@__crt_stdio_output@@QAE@XZ 1004eeb7 f i libucrt:output.obj
 0001:0004debf       ??1?$output_processor@DV?$string_output_adapter@D@__crt_stdio_output@@V?$standard_base@DV?$string_output_adapter@D@__crt_stdio_output@@@2@@__crt_stdio_output@@QAE@XZ 1004eebf f i libucrt:output.obj
 0001:0004dec7       ??1?$output_processor@_WV?$stream_output_adapter@_W@__crt_stdio_output@@V?$format_validation_base@_WV?$stream_output_adapter@_W@__crt_stdio_output@@@2@@__crt_stdio_output@@QAE@XZ 1004eec7 f i libucrt:output.obj
 0001:0004decf       ??1?$output_processor@_WV?$stream_output_adapter@_W@__crt_stdio_output@@V?$positional_parameter_base@_WV?$stream_output_adapter@_W@__crt_stdio_output@@@2@@__crt_stdio_output@@QAE@XZ 1004eecf f i libucrt:output.obj
 0001:0004ded7       ??1?$output_processor@_WV?$stream_output_adapter@_W@__crt_stdio_output@@V?$standard_base@_WV?$stream_output_adapter@_W@__crt_stdio_output@@@2@@__crt_stdio_output@@QAE@XZ 1004eed7 f i libucrt:output.obj
 0001:0004dedf       ??1?$output_processor@_WV?$string_output_adapter@_W@__crt_stdio_output@@V?$format_validation_base@_WV?$string_output_adapter@_W@__crt_stdio_output@@@2@@__crt_stdio_output@@QAE@XZ 1004eedf f i libucrt:output.obj
 0001:0004dee7       ??1?$output_processor@_WV?$string_output_adapter@_W@__crt_stdio_output@@V?$positional_parameter_base@_WV?$string_output_adapter@_W@__crt_stdio_output@@@2@@__crt_stdio_output@@QAE@XZ 1004eee7 f i libucrt:output.obj
 0001:0004deef       ??1?$output_processor@_WV?$string_output_adapter@_W@__crt_stdio_output@@V?$standard_base@_WV?$string_output_adapter@_W@__crt_stdio_output@@@2@@__crt_stdio_output@@QAE@XZ 1004eeef f i libucrt:output.obj
 0001:0004def7       ??1?$positional_parameter_base@DV?$stream_output_adapter@D@__crt_stdio_output@@@__crt_stdio_output@@QAE@XZ 1004eef7 f i libucrt:output.obj
 0001:0004deff       ??1?$positional_parameter_base@DV?$string_output_adapter@D@__crt_stdio_output@@@__crt_stdio_output@@QAE@XZ 1004eeff f i libucrt:output.obj
 0001:0004df07       ??1?$positional_parameter_base@_WV?$stream_output_adapter@_W@__crt_stdio_output@@@__crt_stdio_output@@QAE@XZ 1004ef07 f i libucrt:output.obj
 0001:0004df0f       ??1?$positional_parameter_base@_WV?$string_output_adapter@_W@__crt_stdio_output@@@__crt_stdio_output@@QAE@XZ 1004ef0f f i libucrt:output.obj
 0001:0004df17       ??1?$standard_base@DV?$stream_output_adapter@D@__crt_stdio_output@@@__crt_stdio_output@@QAE@XZ 1004ef17 f i libucrt:output.obj
 0001:0004df1f       ??1?$standard_base@DV?$string_output_adapter@D@__crt_stdio_output@@@__crt_stdio_output@@QAE@XZ 1004ef1f f i libucrt:output.obj
 0001:0004df27       ??1?$standard_base@_WV?$stream_output_adapter@_W@__crt_stdio_output@@@__crt_stdio_output@@QAE@XZ 1004ef27 f i libucrt:output.obj
 0001:0004df2f       ??1?$standard_base@_WV?$string_output_adapter@_W@__crt_stdio_output@@@__crt_stdio_output@@QAE@XZ 1004ef2f f i libucrt:output.obj
 0001:0004df37       ??1_LocaleUpdate@@QAE@XZ   1004ef37 f i libucrt:output.obj
 0001:0004df47       ??1__acrt_stdio_temporary_buffering_guard@@QAE@XZ 1004ef47 f i libucrt:output.obj
 0001:0004df56       ??1__crt_errno_guard@@QAE@XZ 1004ef56 f i libucrt:output.obj
 0001:0004df67       ??1formatting_buffer@__crt_stdio_output@@QAE@XZ 1004ef67 f i libucrt:output.obj
 0001:0004df81       ??4?$__crt_unique_heap_ptr@DU__crt_internal_free_policy@@@@QAEAAV0@$$QAV0@@Z 1004ef81 f i libucrt:output.obj
 0001:0004dfa5       ??A?$spectre_mitigated_lookup_table@Ustate_transition_pair@__crt_stdio_output@@$0IA@@__crt_stdio_output@@QBEABUstate_transition_pair@1@I@Z 1004efa5 f i libucrt:output.obj
 0001:0004dfb7       ??C__crt_stdio_stream@@QBEPAU__crt_stdio_stream_data@@XZ 1004efb7 f i libucrt:output.obj
 0001:0004e50a       ?GetLocaleT@_LocaleUpdate@@QAEPAU__crt_locale_pointers@@XZ 1004f50a f i libucrt:output.obj
 0001:0004e50e       ?adjust_hexit@?$output_processor@DV?$stream_output_adapter@D@__crt_stdio_output@@V?$format_validation_base@DV?$stream_output_adapter@D@__crt_stdio_output@@@2@@__crt_stdio_output@@CADH_N@Z 1004f50e f i libucrt:output.obj
 0001:0004e522       ?adjust_hexit@?$output_processor@DV?$stream_output_adapter@D@__crt_stdio_output@@V?$positional_parameter_base@DV?$stream_output_adapter@D@__crt_stdio_output@@@2@@__crt_stdio_output@@CADH_N@Z 1004f522 f i libucrt:output.obj
 0001:0004e536       ?adjust_hexit@?$output_processor@DV?$stream_output_adapter@D@__crt_stdio_output@@V?$standard_base@DV?$stream_output_adapter@D@__crt_stdio_output@@@2@@__crt_stdio_output@@CADH_N@Z 1004f536 f i libucrt:output.obj
 0001:0004e54a       ?adjust_hexit@?$output_processor@DV?$string_output_adapter@D@__crt_stdio_output@@V?$format_validation_base@DV?$string_output_adapter@D@__crt_stdio_output@@@2@@__crt_stdio_output@@CADH_N@Z 1004f54a f i libucrt:output.obj
 0001:0004e55e       ?adjust_hexit@?$output_processor@DV?$string_output_adapter@D@__crt_stdio_output@@V?$positional_parameter_base@DV?$string_output_adapter@D@__crt_stdio_output@@@2@@__crt_stdio_output@@CADH_N@Z 1004f55e f i libucrt:output.obj
 0001:0004e572       ?adjust_hexit@?$output_processor@DV?$string_output_adapter@D@__crt_stdio_output@@V?$standard_base@DV?$string_output_adapter@D@__crt_stdio_output@@@2@@__crt_stdio_output@@CADH_N@Z 1004f572 f i libucrt:output.obj
 0001:0004e586       ?adjust_hexit@?$output_processor@_WV?$stream_output_adapter@_W@__crt_stdio_output@@V?$format_validation_base@_WV?$stream_output_adapter@_W@__crt_stdio_output@@@2@@__crt_stdio_output@@CADH_N@Z 1004f586 f i libucrt:output.obj
 0001:0004e59a       ?adjust_hexit@?$output_processor@_WV?$stream_output_adapter@_W@__crt_stdio_output@@V?$positional_parameter_base@_WV?$stream_output_adapter@_W@__crt_stdio_output@@@2@@__crt_stdio_output@@CADH_N@Z 1004f59a f i libucrt:output.obj
 0001:0004e5ae       ?adjust_hexit@?$output_processor@_WV?$stream_output_adapter@_W@__crt_stdio_output@@V?$standard_base@_WV?$stream_output_adapter@_W@__crt_stdio_output@@@2@@__crt_stdio_output@@CADH_N@Z 1004f5ae f i libucrt:output.obj
 0001:0004e5c2       ?adjust_hexit@?$output_processor@_WV?$string_output_adapter@_W@__crt_stdio_output@@V?$format_validation_base@_WV?$string_output_adapter@_W@__crt_stdio_output@@@2@@__crt_stdio_output@@CADH_N@Z 1004f5c2 f i libucrt:output.obj
 0001:0004e5d6       ?adjust_hexit@?$output_processor@_WV?$string_output_adapter@_W@__crt_stdio_output@@V?$positional_parameter_base@_WV?$string_output_adapter@_W@__crt_stdio_output@@@2@@__crt_stdio_output@@CADH_N@Z 1004f5d6 f i libucrt:output.obj
 0001:0004e5ea       ?adjust_hexit@?$output_processor@_WV?$string_output_adapter@_W@__crt_stdio_output@@V?$standard_base@_WV?$string_output_adapter@_W@__crt_stdio_output@@@2@@__crt_stdio_output@@CADH_N@Z 1004f5ea f i libucrt:output.obj
 0001:0004e5fe       ?advance_to_next_pass@?$positional_parameter_base@DV?$stream_output_adapter@D@__crt_stdio_output@@@__crt_stdio_output@@IAE_NXZ 1004f5fe f i libucrt:output.obj
 0001:0004e64a       ?advance_to_next_pass@?$positional_parameter_base@DV?$string_output_adapter@D@__crt_stdio_output@@@__crt_stdio_output@@IAE_NXZ 1004f64a f i libucrt:output.obj
 0001:0004e696       ?advance_to_next_pass@?$positional_parameter_base@_WV?$stream_output_adapter@_W@__crt_stdio_output@@@__crt_stdio_output@@IAE_NXZ 1004f696 f i libucrt:output.obj
 0001:0004e6e2       ?advance_to_next_pass@?$positional_parameter_base@_WV?$string_output_adapter@_W@__crt_stdio_output@@@__crt_stdio_output@@IAE_NXZ 1004f6e2 f i libucrt:output.obj
 0001:0004e72e       ?advance_to_next_pass@?$standard_base@DV?$stream_output_adapter@D@__crt_stdio_output@@@__crt_stdio_output@@IAE_NXZ 1004f72e f i libucrt:output.obj
 0001:0004e73f       ?advance_to_next_pass@?$standard_base@DV?$string_output_adapter@D@__crt_stdio_output@@@__crt_stdio_output@@IAE_NXZ 1004f73f f i libucrt:output.obj
 0001:0004e750       ?advance_to_next_pass@?$standard_base@_WV?$stream_output_adapter@_W@__crt_stdio_output@@@__crt_stdio_output@@IAE_NXZ 1004f750 f i libucrt:output.obj
 0001:0004e761       ?advance_to_next_pass@?$standard_base@_WV?$string_output_adapter@_W@__crt_stdio_output@@@__crt_stdio_output@@IAE_NXZ 1004f761 f i libucrt:output.obj
 0001:0004e780       ?crop_zeroes@__crt_stdio_output@@YAXPADQAU__crt_locale_pointers@@@Z 1004f780 f i libucrt:output.obj
 0001:0004e801       ?find_next_state@?$output_processor@DV?$stream_output_adapter@D@__crt_stdio_output@@V?$format_validation_base@DV?$stream_output_adapter@D@__crt_stdio_output@@@2@@__crt_stdio_output@@ABE?AW4state@2@DW432@@Z 1004f801 f i libucrt:output.obj
 0001:0004e838       ?find_next_state@?$output_processor@DV?$stream_output_adapter@D@__crt_stdio_output@@V?$positional_parameter_base@DV?$stream_output_adapter@D@__crt_stdio_output@@@2@@__crt_stdio_output@@ABE?AW4state@2@DW432@@Z 1004f838 f i libucrt:output.obj
 0001:0004e86f       ?find_next_state@?$output_processor@DV?$stream_output_adapter@D@__crt_stdio_output@@V?$standard_base@DV?$stream_output_adapter@D@__crt_stdio_output@@@2@@__crt_stdio_output@@ABE?AW4state@2@DW432@@Z 1004f86f f i libucrt:output.obj
 0001:0004e8a6       ?find_next_state@?$output_processor@DV?$string_output_adapter@D@__crt_stdio_output@@V?$format_validation_base@DV?$string_output_adapter@D@__crt_stdio_output@@@2@@__crt_stdio_output@@ABE?AW4state@2@DW432@@Z 1004f8a6 f i libucrt:output.obj
 0001:0004e8dd       ?find_next_state@?$output_processor@DV?$string_output_adapter@D@__crt_stdio_output@@V?$positional_parameter_base@DV?$string_output_adapter@D@__crt_stdio_output@@@2@@__crt_stdio_output@@ABE?AW4state@2@DW432@@Z 1004f8dd f i libucrt:output.obj
 0001:0004e914       ?find_next_state@?$output_processor@DV?$string_output_adapter@D@__crt_stdio_output@@V?$standard_base@DV?$string_output_adapter@D@__crt_stdio_output@@@2@@__crt_stdio_output@@ABE?AW4state@2@DW432@@Z 1004f914 f i libucrt:output.obj
 0001:0004e94b       ?find_next_state@?$output_processor@_WV?$stream_output_adapter@_W@__crt_stdio_output@@V?$format_validation_base@_WV?$stream_output_adapter@_W@__crt_stdio_output@@@2@@__crt_stdio_output@@ABE?AW4state@2@_WW432@@Z 1004f94b f i libucrt:output.obj
 0001:0004e981       ?find_next_state@?$output_processor@_WV?$stream_output_adapter@_W@__crt_stdio_output@@V?$positional_parameter_base@_WV?$stream_output_adapter@_W@__crt_stdio_output@@@2@@__crt_stdio_output@@ABE?AW4state@2@_WW432@@Z 1004f981 f i libucrt:output.obj
 0001:0004e9b7       ?find_next_state@?$output_processor@_WV?$stream_output_adapter@_W@__crt_stdio_output@@V?$standard_base@_WV?$stream_output_adapter@_W@__crt_stdio_output@@@2@@__crt_stdio_output@@ABE?AW4state@2@_WW432@@Z 1004f9b7 f i libucrt:output.obj
 0001:0004e9ed       ?find_next_state@?$output_processor@_WV?$string_output_adapter@_W@__crt_stdio_output@@V?$format_validation_base@_WV?$string_output_adapter@_W@__crt_stdio_output@@@2@@__crt_stdio_output@@ABE?AW4state@2@_WW432@@Z 1004f9ed f i libucrt:output.obj
 0001:0004ea23       ?find_next_state@?$output_processor@_WV?$string_output_adapter@_W@__crt_stdio_output@@V?$positional_parameter_base@_WV?$string_output_adapter@_W@__crt_stdio_output@@@2@@__crt_stdio_output@@ABE?AW4state@2@_WW432@@Z 1004fa23 f i libucrt:output.obj
 0001:0004ea59       ?find_next_state@?$output_processor@_WV?$string_output_adapter@_W@__crt_stdio_output@@V?$standard_base@_WV?$string_output_adapter@_W@__crt_stdio_output@@@2@@__crt_stdio_output@@ABE?AW4state@2@_WW432@@Z 1004fa59 f i libucrt:output.obj
 0001:0004ea90       ?force_decimal_point@__crt_stdio_output@@YAXPADQAU__crt_locale_pointers@@@Z 1004fa90 f i libucrt:output.obj
 0001:0004eaf5       ?get@__crt_deferred_errno_cache@@QAEAAHXZ 1004faf5 f i libucrt:output.obj
 0001:0004eb09       ?get_flags@__crt_stdio_stream@@QBEJXZ 1004fb09 f i libucrt:output.obj
 0001:0004eb10       ?get_parameter_type@?$positional_parameter_base@DV?$stream_output_adapter@D@__crt_stdio_output@@@__crt_stdio_output@@CA?AW4parameter_type@12@F@Z 1004fb10 f i libucrt:output.obj
 0001:0004eb14       ?get_parameter_type@?$positional_parameter_base@DV?$stream_output_adapter@D@__crt_stdio_output@@@__crt_stdio_output@@CA?AW4parameter_type@12@G@Z 1004fb14 f i libucrt:output.obj
 0001:0004eb18       ?get_parameter_type@?$positional_parameter_base@DV?$stream_output_adapter@D@__crt_stdio_output@@@__crt_stdio_output@@CA?AW4parameter_type@12@H@Z 1004fb18 f i libucrt:output.obj
 0001:0004eb1c       ?get_parameter_type@?$positional_parameter_base@DV?$stream_output_adapter@D@__crt_stdio_output@@@__crt_stdio_output@@CA?AW4parameter_type@12@I@Z 1004fb1c f i libucrt:output.obj
 0001:0004eb20       ?get_parameter_type@?$positional_parameter_base@DV?$stream_output_adapter@D@__crt_stdio_output@@@__crt_stdio_output@@CA?AW4parameter_type@12@U_CRT_DOUBLE@@@Z 1004fb20 f i libucrt:output.obj
 0001:0004eb24       ?get_parameter_type@?$positional_parameter_base@DV?$stream_output_adapter@D@__crt_stdio_output@@@__crt_stdio_output@@CA?AW4parameter_type@12@_J@Z 1004fb24 f i libucrt:output.obj
 0001:0004eb28       ?get_parameter_type@?$positional_parameter_base@DV?$stream_output_adapter@D@__crt_stdio_output@@@__crt_stdio_output@@CA?AW4parameter_type@12@_K@Z 1004fb28 f i libucrt:output.obj
 0001:0004eb2c       ?get_parameter_type@?$positional_parameter_base@DV?$stream_output_adapter@D@__crt_stdio_output@@@__crt_stdio_output@@CA?AW4parameter_type@12@_W@Z 1004fb2c f i libucrt:output.obj
 0001:0004eb30       ?get_parameter_type@?$positional_parameter_base@DV?$string_output_adapter@D@__crt_stdio_output@@@__crt_stdio_output@@CA?AW4parameter_type@12@F@Z 1004fb30 f i libucrt:output.obj
 0001:0004eb34       ?get_parameter_type@?$positional_parameter_base@DV?$string_output_adapter@D@__crt_stdio_output@@@__crt_stdio_output@@CA?AW4parameter_type@12@G@Z 1004fb34 f i libucrt:output.obj
 0001:0004eb38       ?get_parameter_type@?$positional_parameter_base@DV?$string_output_adapter@D@__crt_stdio_output@@@__crt_stdio_output@@CA?AW4parameter_type@12@H@Z 1004fb38 f i libucrt:output.obj
 0001:0004eb3c       ?get_parameter_type@?$positional_parameter_base@DV?$string_output_adapter@D@__crt_stdio_output@@@__crt_stdio_output@@CA?AW4parameter_type@12@I@Z 1004fb3c f i libucrt:output.obj
 0001:0004eb40       ?get_parameter_type@?$positional_parameter_base@DV?$string_output_adapter@D@__crt_stdio_output@@@__crt_stdio_output@@CA?AW4parameter_type@12@U_CRT_DOUBLE@@@Z 1004fb40 f i libucrt:output.obj
 0001:0004eb44       ?get_parameter_type@?$positional_parameter_base@DV?$string_output_adapter@D@__crt_stdio_output@@@__crt_stdio_output@@CA?AW4parameter_type@12@_J@Z 1004fb44 f i libucrt:output.obj
 0001:0004eb48       ?get_parameter_type@?$positional_parameter_base@DV?$string_output_adapter@D@__crt_stdio_output@@@__crt_stdio_output@@CA?AW4parameter_type@12@_K@Z 1004fb48 f i libucrt:output.obj
 0001:0004eb4c       ?get_parameter_type@?$positional_parameter_base@DV?$string_output_adapter@D@__crt_stdio_output@@@__crt_stdio_output@@CA?AW4parameter_type@12@_W@Z 1004fb4c f i libucrt:output.obj
 0001:0004eb50       ?get_parameter_type@?$positional_parameter_base@_WV?$stream_output_adapter@_W@__crt_stdio_output@@@__crt_stdio_output@@CA?AW4parameter_type@12@F@Z 1004fb50 f i libucrt:output.obj
 0001:0004eb54       ?get_parameter_type@?$positional_parameter_base@_WV?$stream_output_adapter@_W@__crt_stdio_output@@@__crt_stdio_output@@CA?AW4parameter_type@12@G@Z 1004fb54 f i libucrt:output.obj
 0001:0004eb58       ?get_parameter_type@?$positional_parameter_base@_WV?$stream_output_adapter@_W@__crt_stdio_output@@@__crt_stdio_output@@CA?AW4parameter_type@12@H@Z 1004fb58 f i libucrt:output.obj
 0001:0004eb5c       ?get_parameter_type@?$positional_parameter_base@_WV?$stream_output_adapter@_W@__crt_stdio_output@@@__crt_stdio_output@@CA?AW4parameter_type@12@I@Z 1004fb5c f i libucrt:output.obj
 0001:0004eb60       ?get_parameter_type@?$positional_parameter_base@_WV?$stream_output_adapter@_W@__crt_stdio_output@@@__crt_stdio_output@@CA?AW4parameter_type@12@U_CRT_DOUBLE@@@Z 1004fb60 f i libucrt:output.obj
 0001:0004eb64       ?get_parameter_type@?$positional_parameter_base@_WV?$stream_output_adapter@_W@__crt_stdio_output@@@__crt_stdio_output@@CA?AW4parameter_type@12@_J@Z 1004fb64 f i libucrt:output.obj
 0001:0004eb68       ?get_parameter_type@?$positional_parameter_base@_WV?$stream_output_adapter@_W@__crt_stdio_output@@@__crt_stdio_output@@CA?AW4parameter_type@12@_K@Z 1004fb68 f i libucrt:output.obj
 0001:0004eb6c       ?get_parameter_type@?$positional_parameter_base@_WV?$stream_output_adapter@_W@__crt_stdio_output@@@__crt_stdio_output@@CA?AW4parameter_type@12@_W@Z 1004fb6c f i libucrt:output.obj
 0001:0004eb70       ?get_parameter_type@?$positional_parameter_base@_WV?$string_output_adapter@_W@__crt_stdio_output@@@__crt_stdio_output@@CA?AW4parameter_type@12@F@Z 1004fb70 f i libucrt:output.obj
 0001:0004eb74       ?get_parameter_type@?$positional_parameter_base@_WV?$string_output_adapter@_W@__crt_stdio_output@@@__crt_stdio_output@@CA?AW4parameter_type@12@G@Z 1004fb74 f i libucrt:output.obj
 0001:0004eb78       ?get_parameter_type@?$positional_parameter_base@_WV?$string_output_adapter@_W@__crt_stdio_output@@@__crt_stdio_output@@CA?AW4parameter_type@12@H@Z 1004fb78 f i libucrt:output.obj
 0001:0004eb7c       ?get_parameter_type@?$positional_parameter_base@_WV?$string_output_adapter@_W@__crt_stdio_output@@@__crt_stdio_output@@CA?AW4parameter_type@12@I@Z 1004fb7c f i libucrt:output.obj
 0001:0004eb80       ?get_parameter_type@?$positional_parameter_base@_WV?$string_output_adapter@_W@__crt_stdio_output@@@__crt_stdio_output@@CA?AW4parameter_type@12@U_CRT_DOUBLE@@@Z 1004fb80 f i libucrt:output.obj
 0001:0004eb84       ?get_parameter_type@?$positional_parameter_base@_WV?$string_output_adapter@_W@__crt_stdio_output@@@__crt_stdio_output@@CA?AW4parameter_type@12@_J@Z 1004fb84 f i libucrt:output.obj
 0001:0004eb88       ?get_parameter_type@?$positional_parameter_base@_WV?$string_output_adapter@_W@__crt_stdio_output@@@__crt_stdio_output@@CA?AW4parameter_type@12@_K@Z 1004fb88 f i libucrt:output.obj
 0001:0004eb8c       ?get_parameter_type@?$positional_parameter_base@_WV?$string_output_adapter@_W@__crt_stdio_output@@@__crt_stdio_output@@CA?AW4parameter_type@12@_W@Z 1004fb8c f i libucrt:output.obj
 0001:0004eb90       ?has_flag@?$output_processor@DV?$stream_output_adapter@D@__crt_stdio_output@@V?$format_validation_base@DV?$stream_output_adapter@D@__crt_stdio_output@@@2@@__crt_stdio_output@@ABE_NI@Z 1004fb90 f i libucrt:output.obj
 0001:0004eba2       ?has_flag@?$output_processor@DV?$stream_output_adapter@D@__crt_stdio_output@@V?$positional_parameter_base@DV?$stream_output_adapter@D@__crt_stdio_output@@@2@@__crt_stdio_output@@ABE_NI@Z 1004fba2 f i libucrt:output.obj
 0001:0004ebb4       ?has_flag@?$output_processor@DV?$stream_output_adapter@D@__crt_stdio_output@@V?$standard_base@DV?$stream_output_adapter@D@__crt_stdio_output@@@2@@__crt_stdio_output@@ABE_NI@Z 1004fbb4 f i libucrt:output.obj
 0001:0004ebc6       ?has_flag@?$output_processor@DV?$string_output_adapter@D@__crt_stdio_output@@V?$format_validation_base@DV?$string_output_adapter@D@__crt_stdio_output@@@2@@__crt_stdio_output@@ABE_NI@Z 1004fbc6 f i libucrt:output.obj
 0001:0004ebd8       ?has_flag@?$output_processor@DV?$string_output_adapter@D@__crt_stdio_output@@V?$positional_parameter_base@DV?$string_output_adapter@D@__crt_stdio_output@@@2@@__crt_stdio_output@@ABE_NI@Z 1004fbd8 f i libucrt:output.obj
 0001:0004ebea       ?has_flag@?$output_processor@DV?$string_output_adapter@D@__crt_stdio_output@@V?$standard_base@DV?$string_output_adapter@D@__crt_stdio_output@@@2@@__crt_stdio_output@@ABE_NI@Z 1004fbea f i libucrt:output.obj
 0001:0004ebfc       ?has_flag@?$output_processor@_WV?$stream_output_adapter@_W@__crt_stdio_output@@V?$format_validation_base@_WV?$stream_output_adapter@_W@__crt_stdio_output@@@2@@__crt_stdio_output@@ABE_NI@Z 1004fbfc f i libucrt:output.obj
 0001:0004ec0e       ?has_flag@?$output_processor@_WV?$stream_output_adapter@_W@__crt_stdio_output@@V?$positional_parameter_base@_WV?$stream_output_adapter@_W@__crt_stdio_output@@@2@@__crt_stdio_output@@ABE_NI@Z 1004fc0e f i libucrt:output.obj
 0001:0004ec20       ?has_flag@?$output_processor@_WV?$stream_output_adapter@_W@__crt_stdio_output@@V?$standard_base@_WV?$stream_output_adapter@_W@__crt_stdio_output@@@2@@__crt_stdio_output@@ABE_NI@Z 1004fc20 f i libucrt:output.obj
 0001:0004ec32       ?has_flag@?$output_processor@_WV?$string_output_adapter@_W@__crt_stdio_output@@V?$format_validation_base@_WV?$string_output_adapter@_W@__crt_stdio_output@@@2@@__crt_stdio_output@@ABE_NI@Z 1004fc32 f i libucrt:output.obj
 0001:0004ec44       ?has_flag@?$output_processor@_WV?$string_output_adapter@_W@__crt_stdio_output@@V?$positional_parameter_base@_WV?$string_output_adapter@_W@__crt_stdio_output@@@2@@__crt_stdio_output@@ABE_NI@Z 1004fc44 f i libucrt:output.obj
 0001:0004ec56       ?has_flag@?$output_processor@_WV?$string_output_adapter@_W@__crt_stdio_output@@V?$standard_base@_WV?$string_output_adapter@_W@__crt_stdio_output@@@2@@__crt_stdio_output@@ABE_NI@Z 1004fc56 f i libucrt:output.obj
 0001:0004ec68       ?is_positional_parameter_reappearance_consistent@?$positional_parameter_base@DV?$stream_output_adapter@D@__crt_stdio_output@@@__crt_stdio_output@@AAE_NABUparameter_data@12@W4parameter_type@12@DW4length_modifier@2@@Z 1004fc68 f i libucrt:output.obj
 0001:0004ed82       ?is_positional_parameter_reappearance_consistent@?$positional_parameter_base@DV?$string_output_adapter@D@__crt_stdio_output@@@__crt_stdio_output@@AAE_NABUparameter_data@12@W4parameter_type@12@DW4length_modifier@2@@Z 1004fd82 f i libucrt:output.obj
 0001:0004ee9c       ?is_positional_parameter_reappearance_consistent@?$positional_parameter_base@_WV?$stream_output_adapter@_W@__crt_stdio_output@@@__crt_stdio_output@@AAE_NABUparameter_data@12@W4parameter_type@12@_WW4length_modifier@2@@Z 1004fe9c f i libucrt:output.obj
 0001:0004efb7       ?is_positional_parameter_reappearance_consistent@?$positional_parameter_base@_WV?$string_output_adapter@_W@__crt_stdio_output@@@__crt_stdio_output@@AAE_NABUparameter_data@12@W4parameter_type@12@_WW4length_modifier@2@@Z 1004ffb7 f i libucrt:output.obj
 0001:0004f0d2       ?is_string_backed@__crt_stdio_stream@@QBE_NXZ 100500d2 f i libucrt:output.obj
 0001:0004f0de       ?narrow_null_string@?$output_processor@DV?$stream_output_adapter@D@__crt_stdio_output@@V?$format_validation_base@DV?$stream_output_adapter@D@__crt_stdio_output@@@2@@__crt_stdio_output@@CAPADXZ 100500de f i libucrt:output.obj
 0001:0004f0e4       ?narrow_null_string@?$output_processor@DV?$stream_output_adapter@D@__crt_stdio_output@@V?$positional_parameter_base@DV?$stream_output_adapter@D@__crt_stdio_output@@@2@@__crt_stdio_output@@CAPADXZ 100500e4 f i libucrt:output.obj
 0001:0004f0ea       ?narrow_null_string@?$output_processor@DV?$stream_output_adapter@D@__crt_stdio_output@@V?$standard_base@DV?$stream_output_adapter@D@__crt_stdio_output@@@2@@__crt_stdio_output@@CAPADXZ 100500ea f i libucrt:output.obj
 0001:0004f0f0       ?narrow_null_string@?$output_processor@DV?$string_output_adapter@D@__crt_stdio_output@@V?$format_validation_base@DV?$string_output_adapter@D@__crt_stdio_output@@@2@@__crt_stdio_output@@CAPADXZ 100500f0 f i libucrt:output.obj
 0001:0004f0f6       ?narrow_null_string@?$output_processor@DV?$string_output_adapter@D@__crt_stdio_output@@V?$positional_parameter_base@DV?$string_output_adapter@D@__crt_stdio_output@@@2@@__crt_stdio_output@@CAPADXZ 100500f6 f i libucrt:output.obj
 0001:0004f0fc       ?narrow_null_string@?$output_processor@DV?$string_output_adapter@D@__crt_stdio_output@@V?$standard_base@DV?$string_output_adapter@D@__crt_stdio_output@@@2@@__crt_stdio_output@@CAPADXZ 100500fc f i libucrt:output.obj
 0001:0004f102       ?narrow_null_string@?$output_processor@_WV?$stream_output_adapter@_W@__crt_stdio_output@@V?$format_validation_base@_WV?$stream_output_adapter@_W@__crt_stdio_output@@@2@@__crt_stdio_output@@CAPADXZ 10050102 f i libucrt:output.obj
 0001:0004f108       ?narrow_null_string@?$output_processor@_WV?$stream_output_adapter@_W@__crt_stdio_output@@V?$positional_parameter_base@_WV?$stream_output_adapter@_W@__crt_stdio_output@@@2@@__crt_stdio_output@@CAPADXZ 10050108 f i libucrt:output.obj
 0001:0004f10e       ?narrow_null_string@?$output_processor@_WV?$stream_output_adapter@_W@__crt_stdio_output@@V?$standard_base@_WV?$stream_output_adapter@_W@__crt_stdio_output@@@2@@__crt_stdio_output@@CAPADXZ 1005010e f i libucrt:output.obj
 0001:0004f114       ?narrow_null_string@?$output_processor@_WV?$string_output_adapter@_W@__crt_stdio_output@@V?$format_validation_base@_WV?$string_output_adapter@_W@__crt_stdio_output@@@2@@__crt_stdio_output@@CAPADXZ 10050114 f i libucrt:output.obj
 0001:0004f11a       ?narrow_null_string@?$output_processor@_WV?$string_output_adapter@_W@__crt_stdio_output@@V?$positional_parameter_base@_WV?$string_output_adapter@_W@__crt_stdio_output@@@2@@__crt_stdio_output@@CAPADXZ 1005011a f i libucrt:output.obj
 0001:0004f120       ?narrow_null_string@?$output_processor@_WV?$string_output_adapter@_W@__crt_stdio_output@@V?$standard_base@_WV?$string_output_adapter@_W@__crt_stdio_output@@@2@@__crt_stdio_output@@CAPADXZ 10050120 f i libucrt:output.obj
 0001:0004f126       ?parse_int_from_format_string@?$output_processor@DV?$stream_output_adapter@D@__crt_stdio_output@@V?$format_validation_base@DV?$stream_output_adapter@D@__crt_stdio_output@@@2@@__crt_stdio_output@@AAE_NQAH@Z 10050126 f i libucrt:output.obj
 0001:0004f19a       ?parse_int_from_format_string@?$output_processor@DV?$stream_output_adapter@D@__crt_stdio_output@@V?$positional_parameter_base@DV?$stream_output_adapter@D@__crt_stdio_output@@@2@@__crt_stdio_output@@AAE_NQAH@Z 1005019a f i libucrt:output.obj
 0001:0004f20e       ?parse_int_from_format_string@?$output_processor@DV?$stream_output_adapter@D@__crt_stdio_output@@V?$standard_base@DV?$stream_output_adapter@D@__crt_stdio_output@@@2@@__crt_stdio_output@@AAE_NQAH@Z 1005020e f i libucrt:output.obj
 0001:0004f282       ?parse_int_from_format_string@?$output_processor@DV?$string_output_adapter@D@__crt_stdio_output@@V?$format_validation_base@DV?$string_output_adapter@D@__crt_stdio_output@@@2@@__crt_stdio_output@@AAE_NQAH@Z 10050282 f i libucrt:output.obj
 0001:0004f2f6       ?parse_int_from_format_string@?$output_processor@DV?$string_output_adapter@D@__crt_stdio_output@@V?$positional_parameter_base@DV?$string_output_adapter@D@__crt_stdio_output@@@2@@__crt_stdio_output@@AAE_NQAH@Z 100502f6 f i libucrt:output.obj
 0001:0004f36a       ?parse_int_from_format_string@?$output_processor@DV?$string_output_adapter@D@__crt_stdio_output@@V?$standard_base@DV?$string_output_adapter@D@__crt_stdio_output@@@2@@__crt_stdio_output@@AAE_NQAH@Z 1005036a f i libucrt:output.obj
 0001:0004f3de       ?parse_int_from_format_string@?$output_processor@_WV?$stream_output_adapter@_W@__crt_stdio_output@@V?$format_validation_base@_WV?$stream_output_adapter@_W@__crt_stdio_output@@@2@@__crt_stdio_output@@AAE_NQAH@Z 100503de f i libucrt:output.obj
 0001:0004f454       ?parse_int_from_format_string@?$output_processor@_WV?$stream_output_adapter@_W@__crt_stdio_output@@V?$positional_parameter_base@_WV?$stream_output_adapter@_W@__crt_stdio_output@@@2@@__crt_stdio_output@@AAE_NQAH@Z 10050454 f i libucrt:output.obj
 0001:0004f4ca       ?parse_int_from_format_string@?$output_processor@_WV?$stream_output_adapter@_W@__crt_stdio_output@@V?$standard_base@_WV?$stream_output_adapter@_W@__crt_stdio_output@@@2@@__crt_stdio_output@@AAE_NQAH@Z 100504ca f i libucrt:output.obj
 0001:0004f540       ?parse_int_from_format_string@?$output_processor@_WV?$string_output_adapter@_W@__crt_stdio_output@@V?$format_validation_base@_WV?$string_output_adapter@_W@__crt_stdio_output@@@2@@__crt_stdio_output@@AAE_NQAH@Z 10050540 f i libucrt:output.obj
 0001:0004f5b6       ?parse_int_from_format_string@?$output_processor@_WV?$string_output_adapter@_W@__crt_stdio_output@@V?$positional_parameter_base@_WV?$string_output_adapter@_W@__crt_stdio_output@@@2@@__crt_stdio_output@@AAE_NQAH@Z 100505b6 f i libucrt:output.obj
 0001:0004f62c       ?parse_int_from_format_string@?$output_processor@_WV?$string_output_adapter@_W@__crt_stdio_output@@V?$standard_base@_WV?$string_output_adapter@_W@__crt_stdio_output@@@2@@__crt_stdio_output@@AAE_NQAH@Z 1005062c f i libucrt:output.obj
 0001:0004f6a2       ?process@?$output_processor@DV?$stream_output_adapter@D@__crt_stdio_output@@V?$format_validation_base@DV?$stream_output_adapter@D@__crt_stdio_output@@@2@@__crt_stdio_output@@QAEHXZ 100506a2 f i libucrt:output.obj
 0001:0004f7c6       ?process@?$output_processor@DV?$stream_output_adapter@D@__crt_stdio_output@@V?$positional_parameter_base@DV?$stream_output_adapter@D@__crt_stdio_output@@@2@@__crt_stdio_output@@QAEHXZ 100507c6 f i libucrt:output.obj
 0001:0004f8f6       ?process@?$output_processor@DV?$stream_output_adapter@D@__crt_stdio_output@@V?$standard_base@DV?$stream_output_adapter@D@__crt_stdio_output@@@2@@__crt_stdio_output@@QAEHXZ 100508f6 f i libucrt:output.obj
 0001:0004fa0a       ?process@?$output_processor@DV?$string_output_adapter@D@__crt_stdio_output@@V?$format_validation_base@DV?$string_output_adapter@D@__crt_stdio_output@@@2@@__crt_stdio_output@@QAEHXZ 10050a0a f i libucrt:output.obj
 0001:0004fb2e       ?process@?$output_processor@DV?$string_output_adapter@D@__crt_stdio_output@@V?$positional_parameter_base@DV?$string_output_adapter@D@__crt_stdio_output@@@2@@__crt_stdio_output@@QAEHXZ 10050b2e f i libucrt:output.obj
 0001:0004fc5e       ?process@?$output_processor@DV?$string_output_adapter@D@__crt_stdio_output@@V?$standard_base@DV?$string_output_adapter@D@__crt_stdio_output@@@2@@__crt_stdio_output@@QAEHXZ 10050c5e f i libucrt:output.obj
 0001:0004fd72       ?process@?$output_processor@_WV?$stream_output_adapter@_W@__crt_stdio_output@@V?$format_validation_base@_WV?$stream_output_adapter@_W@__crt_stdio_output@@@2@@__crt_stdio_output@@QAEHXZ 10050d72 f i libucrt:output.obj
 0001:0004fe9a       ?process@?$output_processor@_WV?$stream_output_adapter@_W@__crt_stdio_output@@V?$positional_parameter_base@_WV?$stream_output_adapter@_W@__crt_stdio_output@@@2@@__crt_stdio_output@@QAEHXZ 10050e9a f i libucrt:output.obj
 0001:0004ffce       ?process@?$output_processor@_WV?$stream_output_adapter@_W@__crt_stdio_output@@V?$standard_base@_WV?$stream_output_adapter@_W@__crt_stdio_output@@@2@@__crt_stdio_output@@QAEHXZ 10050fce f i libucrt:output.obj
 0001:000500ea       ?process@?$output_processor@_WV?$string_output_adapter@_W@__crt_stdio_output@@V?$format_validation_base@_WV?$string_output_adapter@_W@__crt_stdio_output@@@2@@__crt_stdio_output@@QAEHXZ 100510ea f i libucrt:output.obj
 0001:00050212       ?process@?$output_processor@_WV?$string_output_adapter@_W@__crt_stdio_output@@V?$positional_parameter_base@_WV?$string_output_adapter@_W@__crt_stdio_output@@@2@@__crt_stdio_output@@QAEHXZ 10051212 f i libucrt:output.obj
 0001:00050346       ?process@?$output_processor@_WV?$string_output_adapter@_W@__crt_stdio_output@@V?$standard_base@_WV?$string_output_adapter@_W@__crt_stdio_output@@@2@@__crt_stdio_output@@QAEHXZ 10051346 f i libucrt:output.obj
 0001:00050462       ?public_stream@__crt_stdio_stream@@QBEPAU_iobuf@@XZ 10051462 f i libucrt:output.obj
 0001:00050465       ?set_flag@?$output_processor@DV?$stream_output_adapter@D@__crt_stdio_output@@V?$format_validation_base@DV?$stream_output_adapter@D@__crt_stdio_output@@@2@@__crt_stdio_output@@AAEXI@Z 10051465 f i libucrt:output.obj
 0001:00050474       ?set_flag@?$output_processor@DV?$stream_output_adapter@D@__crt_stdio_output@@V?$positional_parameter_base@DV?$stream_output_adapter@D@__crt_stdio_output@@@2@@__crt_stdio_output@@AAEXI@Z 10051474 f i libucrt:output.obj
 0001:00050483       ?set_flag@?$output_processor@DV?$stream_output_adapter@D@__crt_stdio_output@@V?$standard_base@DV?$stream_output_adapter@D@__crt_stdio_output@@@2@@__crt_stdio_output@@AAEXI@Z 10051483 f i libucrt:output.obj
 0001:00050492       ?set_flag@?$output_processor@DV?$string_output_adapter@D@__crt_stdio_output@@V?$format_validation_base@DV?$string_output_adapter@D@__crt_stdio_output@@@2@@__crt_stdio_output@@AAEXI@Z 10051492 f i libucrt:output.obj
 0001:000504a1       ?set_flag@?$output_processor@DV?$string_output_adapter@D@__crt_stdio_output@@V?$positional_parameter_base@DV?$string_output_adapter@D@__crt_stdio_output@@@2@@__crt_stdio_output@@AAEXI@Z 100514a1 f i libucrt:output.obj
 0001:000504b0       ?set_flag@?$output_processor@DV?$string_output_adapter@D@__crt_stdio_output@@V?$standard_base@DV?$string_output_adapter@D@__crt_stdio_output@@@2@@__crt_stdio_output@@AAEXI@Z 100514b0 f i libucrt:output.obj
 0001:000504bf       ?set_flag@?$output_processor@_WV?$stream_output_adapter@_W@__crt_stdio_output@@V?$format_validation_base@_WV?$stream_output_adapter@_W@__crt_stdio_output@@@2@@__crt_stdio_output@@AAEXI@Z 100514bf f i libucrt:output.obj
 0001:000504ce       ?set_flag@?$output_processor@_WV?$stream_output_adapter@_W@__crt_stdio_output@@V?$positional_parameter_base@_WV?$stream_output_adapter@_W@__crt_stdio_output@@@2@@__crt_stdio_output@@AAEXI@Z 100514ce f i libucrt:output.obj
 0001:000504dd       ?set_flag@?$output_processor@_WV?$stream_output_adapter@_W@__crt_stdio_output@@V?$standard_base@_WV?$stream_output_adapter@_W@__crt_stdio_output@@@2@@__crt_stdio_output@@AAEXI@Z 100514dd f i libucrt:output.obj
 0001:000504ec       ?set_flag@?$output_processor@_WV?$string_output_adapter@_W@__crt_stdio_output@@V?$format_validation_base@_WV?$string_output_adapter@_W@__crt_stdio_output@@@2@@__crt_stdio_output@@AAEXI@Z 100514ec f i libucrt:output.obj
 0001:000504fb       ?set_flag@?$output_processor@_WV?$string_output_adapter@_W@__crt_stdio_output@@V?$positional_parameter_base@_WV?$string_output_adapter@_W@__crt_stdio_output@@@2@@__crt_stdio_output@@AAEXI@Z 100514fb f i libucrt:output.obj
 0001:0005050a       ?set_flag@?$output_processor@_WV?$string_output_adapter@_W@__crt_stdio_output@@V?$standard_base@_WV?$string_output_adapter@_W@__crt_stdio_output@@@2@@__crt_stdio_output@@AAEXI@Z 1005150a f i libucrt:output.obj
 0001:00050519       ?should_format@?$positional_parameter_base@DV?$stream_output_adapter@D@__crt_stdio_output@@@__crt_stdio_output@@IAE_NXZ 10051519 f i libucrt:output.obj
 0001:0005052f       ?should_format@?$positional_parameter_base@DV?$string_output_adapter@D@__crt_stdio_output@@@__crt_stdio_output@@IAE_NXZ 1005152f f i libucrt:output.obj
 0001:00050545       ?should_format@?$positional_parameter_base@_WV?$stream_output_adapter@_W@__crt_stdio_output@@@__crt_stdio_output@@IAE_NXZ 10051545 f i libucrt:output.obj
 0001:0005055b       ?should_format@?$positional_parameter_base@_WV?$string_output_adapter@_W@__crt_stdio_output@@@__crt_stdio_output@@IAE_NXZ 1005155b f i libucrt:output.obj
 0001:00050571       ?should_format@?$standard_base@DV?$stream_output_adapter@D@__crt_stdio_output@@@__crt_stdio_output@@IAE_NXZ 10051571 f i libucrt:output.obj
 0001:00050574       ?should_format@?$standard_base@DV?$string_output_adapter@D@__crt_stdio_output@@@__crt_stdio_output@@IAE_NXZ 10051574 f i libucrt:output.obj
 0001:00050577       ?should_format@?$standard_base@_WV?$stream_output_adapter@_W@__crt_stdio_output@@@__crt_stdio_output@@IAE_NXZ 10051577 f i libucrt:output.obj
 0001:0005057a       ?should_format@?$standard_base@_WV?$string_output_adapter@_W@__crt_stdio_output@@@__crt_stdio_output@@IAE_NXZ 1005157a f i libucrt:output.obj
 0001:0005057d       ?should_skip_normal_state_processing@?$positional_parameter_base@DV?$stream_output_adapter@D@__crt_stdio_output@@@__crt_stdio_output@@IAE_NXZ 1005157d f i libucrt:output.obj
 0001:000505a5       ?should_skip_normal_state_processing@?$positional_parameter_base@DV?$string_output_adapter@D@__crt_stdio_output@@@__crt_stdio_output@@IAE_NXZ 100515a5 f i libucrt:output.obj
 0001:000505cd       ?should_skip_normal_state_processing@?$positional_parameter_base@_WV?$stream_output_adapter@_W@__crt_stdio_output@@@__crt_stdio_output@@IAE_NXZ 100515cd f i libucrt:output.obj
 0001:000505f5       ?should_skip_normal_state_processing@?$positional_parameter_base@_WV?$string_output_adapter@_W@__crt_stdio_output@@@__crt_stdio_output@@IAE_NXZ 100515f5 f i libucrt:output.obj
 0001:0005061d       ?should_skip_normal_state_processing@?$standard_base@DV?$stream_output_adapter@D@__crt_stdio_output@@@__crt_stdio_output@@IAE_NXZ 1005161d f i libucrt:output.obj
 0001:00050620       ?should_skip_normal_state_processing@?$standard_base@DV?$string_output_adapter@D@__crt_stdio_output@@@__crt_stdio_output@@IAE_NXZ 10051620 f i libucrt:output.obj
 0001:00050623       ?should_skip_normal_state_processing@?$standard_base@_WV?$stream_output_adapter@_W@__crt_stdio_output@@@__crt_stdio_output@@IAE_NXZ 10051623 f i libucrt:output.obj
 0001:00050626       ?should_skip_normal_state_processing@?$standard_base@_WV?$string_output_adapter@_W@__crt_stdio_output@@@__crt_stdio_output@@IAE_NXZ 10051626 f i libucrt:output.obj
 0001:00050629       ?should_skip_type_state_output@?$positional_parameter_base@DV?$stream_output_adapter@D@__crt_stdio_output@@@__crt_stdio_output@@IBE_NXZ 10051629 f i libucrt:output.obj
 0001:00050640       ?should_skip_type_state_output@?$positional_parameter_base@DV?$string_output_adapter@D@__crt_stdio_output@@@__crt_stdio_output@@IBE_NXZ 10051640 f i libucrt:output.obj
 0001:00050657       ?should_skip_type_state_output@?$positional_parameter_base@_WV?$stream_output_adapter@_W@__crt_stdio_output@@@__crt_stdio_output@@IBE_NXZ 10051657 f i libucrt:output.obj
 0001:0005066e       ?should_skip_type_state_output@?$positional_parameter_base@_WV?$string_output_adapter@_W@__crt_stdio_output@@@__crt_stdio_output@@IBE_NXZ 1005166e f i libucrt:output.obj
 0001:00050685       ?should_skip_type_state_output@?$standard_base@DV?$stream_output_adapter@D@__crt_stdio_output@@@__crt_stdio_output@@IBE_NXZ 10051685 f i libucrt:output.obj
 0001:00050688       ?should_skip_type_state_output@?$standard_base@DV?$string_output_adapter@D@__crt_stdio_output@@@__crt_stdio_output@@IBE_NXZ 10051688 f i libucrt:output.obj
 0001:0005068b       ?should_skip_type_state_output@?$standard_base@_WV?$stream_output_adapter@_W@__crt_stdio_output@@@__crt_stdio_output@@IBE_NXZ 1005168b f i libucrt:output.obj
 0001:0005068e       ?should_skip_type_state_output@?$standard_base@_WV?$string_output_adapter@_W@__crt_stdio_output@@@__crt_stdio_output@@IBE_NXZ 1005168e f i libucrt:output.obj
 0001:00050691       ?state_case_dot@?$output_processor@DV?$stream_output_adapter@D@__crt_stdio_output@@V?$format_validation_base@DV?$stream_output_adapter@D@__crt_stdio_output@@@2@@__crt_stdio_output@@AAE_NXZ 10051691 f i libucrt:output.obj
 0001:00050698       ?state_case_dot@?$output_processor@DV?$stream_output_adapter@D@__crt_stdio_output@@V?$positional_parameter_base@DV?$stream_output_adapter@D@__crt_stdio_output@@@2@@__crt_stdio_output@@AAE_NXZ 10051698 f i libucrt:output.obj
 0001:0005069f       ?state_case_dot@?$output_processor@DV?$stream_output_adapter@D@__crt_stdio_output@@V?$standard_base@DV?$stream_output_adapter@D@__crt_stdio_output@@@2@@__crt_stdio_output@@AAE_NXZ 1005169f f i libucrt:output.obj
 0001:000506a6       ?state_case_dot@?$output_processor@DV?$string_output_adapter@D@__crt_stdio_output@@V?$format_validation_base@DV?$string_output_adapter@D@__crt_stdio_output@@@2@@__crt_stdio_output@@AAE_NXZ 100516a6 f i libucrt:output.obj
 0001:000506ad       ?state_case_dot@?$output_processor@DV?$string_output_adapter@D@__crt_stdio_output@@V?$positional_parameter_base@DV?$string_output_adapter@D@__crt_stdio_output@@@2@@__crt_stdio_output@@AAE_NXZ 100516ad f i libucrt:output.obj
 0001:000506b4       ?state_case_dot@?$output_processor@DV?$string_output_adapter@D@__crt_stdio_output@@V?$standard_base@DV?$string_output_adapter@D@__crt_stdio_output@@@2@@__crt_stdio_output@@AAE_NXZ 100516b4 f i libucrt:output.obj
 0001:000506bb       ?state_case_dot@?$output_processor@_WV?$stream_output_adapter@_W@__crt_stdio_output@@V?$format_validation_base@_WV?$stream_output_adapter@_W@__crt_stdio_output@@@2@@__crt_stdio_output@@AAE_NXZ 100516bb f i libucrt:output.obj
 0001:000506c2       ?state_case_dot@?$output_processor@_WV?$stream_output_adapter@_W@__crt_stdio_output@@V?$positional_parameter_base@_WV?$stream_output_adapter@_W@__crt_stdio_output@@@2@@__crt_stdio_output@@AAE_NXZ 100516c2 f i libucrt:output.obj
 0001:000506c9       ?state_case_dot@?$output_processor@_WV?$stream_output_adapter@_W@__crt_stdio_output@@V?$standard_base@_WV?$stream_output_adapter@_W@__crt_stdio_output@@@2@@__crt_stdio_output@@AAE_NXZ 100516c9 f i libucrt:output.obj
 0001:000506d0       ?state_case_dot@?$output_processor@_WV?$string_output_adapter@_W@__crt_stdio_output@@V?$format_validation_base@_WV?$string_output_adapter@_W@__crt_stdio_output@@@2@@__crt_stdio_output@@AAE_NXZ 100516d0 f i libucrt:output.obj
 0001:000506d7       ?state_case_dot@?$output_processor@_WV?$string_output_adapter@_W@__crt_stdio_output@@V?$positional_parameter_base@_WV?$string_output_adapter@_W@__crt_stdio_output@@@2@@__crt_stdio_output@@AAE_NXZ 100516d7 f i libucrt:output.obj
 0001:000506de       ?state_case_dot@?$output_processor@_WV?$string_output_adapter@_W@__crt_stdio_output@@V?$standard_base@_WV?$string_output_adapter@_W@__crt_stdio_output@@@2@@__crt_stdio_output@@AAE_NXZ 100516de f i libucrt:output.obj
 0001:000506e5       ?state_case_flag@?$output_processor@DV?$stream_output_adapter@D@__crt_stdio_output@@V?$format_validation_base@DV?$stream_output_adapter@D@__crt_stdio_output@@@2@@__crt_stdio_output@@AAE_NXZ 100516e5 f i libucrt:output.obj
 0001:00050722       ?state_case_flag@?$output_processor@DV?$stream_output_adapter@D@__crt_stdio_output@@V?$positional_parameter_base@DV?$stream_output_adapter@D@__crt_stdio_output@@@2@@__crt_stdio_output@@AAE_NXZ 10051722 f i libucrt:output.obj
 0001:0005075f       ?state_case_flag@?$output_processor@DV?$stream_output_adapter@D@__crt_stdio_output@@V?$standard_base@DV?$stream_output_adapter@D@__crt_stdio_output@@@2@@__crt_stdio_output@@AAE_NXZ 1005175f f i libucrt:output.obj
 0001:0005079c       ?state_case_flag@?$output_processor@DV?$string_output_adapter@D@__crt_stdio_output@@V?$format_validation_base@DV?$string_output_adapter@D@__crt_stdio_output@@@2@@__crt_stdio_output@@AAE_NXZ 1005179c f i libucrt:output.obj
 0001:000507d9       ?state_case_flag@?$output_processor@DV?$string_output_adapter@D@__crt_stdio_output@@V?$positional_parameter_base@DV?$string_output_adapter@D@__crt_stdio_output@@@2@@__crt_stdio_output@@AAE_NXZ 100517d9 f i libucrt:output.obj
 0001:00050816       ?state_case_flag@?$output_processor@DV?$string_output_adapter@D@__crt_stdio_output@@V?$standard_base@DV?$string_output_adapter@D@__crt_stdio_output@@@2@@__crt_stdio_output@@AAE_NXZ 10051816 f i libucrt:output.obj
 0001:00050853       ?state_case_flag@?$output_processor@_WV?$stream_output_adapter@_W@__crt_stdio_output@@V?$format_validation_base@_WV?$stream_output_adapter@_W@__crt_stdio_output@@@2@@__crt_stdio_output@@AAE_NXZ 10051853 f i libucrt:output.obj
 0001:00050890       ?state_case_flag@?$output_processor@_WV?$stream_output_adapter@_W@__crt_stdio_output@@V?$positional_parameter_base@_WV?$stream_output_adapter@_W@__crt_stdio_output@@@2@@__crt_stdio_output@@AAE_NXZ 10051890 f i libucrt:output.obj
 0001:000508cd       ?state_case_flag@?$output_processor@_WV?$stream_output_adapter@_W@__crt_stdio_output@@V?$standard_base@_WV?$stream_output_adapter@_W@__crt_stdio_output@@@2@@__crt_stdio_output@@AAE_NXZ 100518cd f i libucrt:output.obj
 0001:0005090a       ?state_case_flag@?$output_processor@_WV?$string_output_adapter@_W@__crt_stdio_output@@V?$format_validation_base@_WV?$string_output_adapter@_W@__crt_stdio_output@@@2@@__crt_stdio_output@@AAE_NXZ 1005190a f i libucrt:output.obj
 0001:00050947       ?state_case_flag@?$output_processor@_WV?$string_output_adapter@_W@__crt_stdio_output@@V?$positional_parameter_base@_WV?$string_output_adapter@_W@__crt_stdio_output@@@2@@__crt_stdio_output@@AAE_NXZ 10051947 f i libucrt:output.obj
 0001:00050984       ?state_case_flag@?$output_processor@_WV?$string_output_adapter@_W@__crt_stdio_output@@V?$standard_base@_WV?$string_output_adapter@_W@__crt_stdio_output@@@2@@__crt_stdio_output@@AAE_NXZ 10051984 f i libucrt:output.obj
 0001:000509c1       ?state_case_normal@?$output_processor@DV?$stream_output_adapter@D@__crt_stdio_output@@V?$format_validation_base@DV?$stream_output_adapter@D@__crt_stdio_output@@@2@@__crt_stdio_output@@AAE_NXZ 100519c1 f i libucrt:output.obj
 0001:000509e0       ?state_case_normal@?$output_processor@DV?$stream_output_adapter@D@__crt_stdio_output@@V?$positional_parameter_base@DV?$stream_output_adapter@D@__crt_stdio_output@@@2@@__crt_stdio_output@@AAE_NXZ 100519e0 f i libucrt:output.obj
 0001:00050a11       ?state_case_normal@?$output_processor@DV?$stream_output_adapter@D@__crt_stdio_output@@V?$standard_base@DV?$stream_output_adapter@D@__crt_stdio_output@@@2@@__crt_stdio_output@@AAE_NXZ 10051a11 f i libucrt:output.obj
 0001:00050a30       ?state_case_normal@?$output_processor@DV?$string_output_adapter@D@__crt_stdio_output@@V?$format_validation_base@DV?$string_output_adapter@D@__crt_stdio_output@@@2@@__crt_stdio_output@@AAE_NXZ 10051a30 f i libucrt:output.obj
 0001:00050a4f       ?state_case_normal@?$output_processor@DV?$string_output_adapter@D@__crt_stdio_output@@V?$positional_parameter_base@DV?$string_output_adapter@D@__crt_stdio_output@@@2@@__crt_stdio_output@@AAE_NXZ 10051a4f f i libucrt:output.obj
 0001:00050a80       ?state_case_normal@?$output_processor@DV?$string_output_adapter@D@__crt_stdio_output@@V?$standard_base@DV?$string_output_adapter@D@__crt_stdio_output@@@2@@__crt_stdio_output@@AAE_NXZ 10051a80 f i libucrt:output.obj
 0001:00050a9f       ?state_case_normal@?$output_processor@_WV?$stream_output_adapter@_W@__crt_stdio_output@@V?$format_validation_base@_WV?$stream_output_adapter@_W@__crt_stdio_output@@@2@@__crt_stdio_output@@AAE_NXZ 10051a9f f i libucrt:output.obj
 0001:00050abe       ?state_case_normal@?$output_processor@_WV?$stream_output_adapter@_W@__crt_stdio_output@@V?$positional_parameter_base@_WV?$stream_output_adapter@_W@__crt_stdio_output@@@2@@__crt_stdio_output@@AAE_NXZ 10051abe f i libucrt:output.obj
 0001:00050aef       ?state_case_normal@?$output_processor@_WV?$stream_output_adapter@_W@__crt_stdio_output@@V?$standard_base@_WV?$stream_output_adapter@_W@__crt_stdio_output@@@2@@__crt_stdio_output@@AAE_NXZ 10051aef f i libucrt:output.obj
 0001:00050b0e       ?state_case_normal@?$output_processor@_WV?$string_output_adapter@_W@__crt_stdio_output@@V?$format_validation_base@_WV?$string_output_adapter@_W@__crt_stdio_output@@@2@@__crt_stdio_output@@AAE_NXZ 10051b0e f i libucrt:output.obj
 0001:00050b2d       ?state_case_normal@?$output_processor@_WV?$string_output_adapter@_W@__crt_stdio_output@@V?$positional_parameter_base@_WV?$string_output_adapter@_W@__crt_stdio_output@@@2@@__crt_stdio_output@@AAE_NXZ 10051b2d f i libucrt:output.obj
 0001:00050b5e       ?state_case_normal@?$output_processor@_WV?$string_output_adapter@_W@__crt_stdio_output@@V?$standard_base@_WV?$string_output_adapter@_W@__crt_stdio_output@@@2@@__crt_stdio_output@@AAE_NXZ 10051b5e f i libucrt:output.obj
 0001:00050b7d       ?state_case_normal_common@?$output_processor@DV?$stream_output_adapter@D@__crt_stdio_output@@V?$format_validation_base@DV?$stream_output_adapter@D@__crt_stdio_output@@@2@@__crt_stdio_output@@AAE_NXZ 10051b7d f i libucrt:output.obj
 0001:00050bb7       ?state_case_normal_common@?$output_processor@DV?$stream_output_adapter@D@__crt_stdio_output@@V?$positional_parameter_base@DV?$stream_output_adapter@D@__crt_stdio_output@@@2@@__crt_stdio_output@@AAE_NXZ 10051bb7 f i libucrt:output.obj
 0001:00050bf1       ?state_case_normal_common@?$output_processor@DV?$stream_output_adapter@D@__crt_stdio_output@@V?$standard_base@DV?$stream_output_adapter@D@__crt_stdio_output@@@2@@__crt_stdio_output@@AAE_NXZ 10051bf1 f i libucrt:output.obj
 0001:00050c2b       ?state_case_normal_common@?$output_processor@DV?$string_output_adapter@D@__crt_stdio_output@@V?$format_validation_base@DV?$string_output_adapter@D@__crt_stdio_output@@@2@@__crt_stdio_output@@AAE_NXZ 10051c2b f i libucrt:output.obj
 0001:00050c55       ?state_case_normal_common@?$output_processor@DV?$string_output_adapter@D@__crt_stdio_output@@V?$positional_parameter_base@DV?$string_output_adapter@D@__crt_stdio_output@@@2@@__crt_stdio_output@@AAE_NXZ 10051c55 f i libucrt:output.obj
 0001:00050c7f       ?state_case_normal_common@?$output_processor@DV?$string_output_adapter@D@__crt_stdio_output@@V?$standard_base@DV?$string_output_adapter@D@__crt_stdio_output@@@2@@__crt_stdio_output@@AAE_NXZ 10051c7f f i libucrt:output.obj
 0001:00050ca9       ?state_case_normal_common@?$output_processor@_WV?$stream_output_adapter@_W@__crt_stdio_output@@V?$format_validation_base@_WV?$stream_output_adapter@_W@__crt_stdio_output@@@2@@__crt_stdio_output@@AAE_NXZ 10051ca9 f i libucrt:output.obj
 0001:00050cd3       ?state_case_normal_common@?$output_processor@_WV?$stream_output_adapter@_W@__crt_stdio_output@@V?$positional_parameter_base@_WV?$stream_output_adapter@_W@__crt_stdio_output@@@2@@__crt_stdio_output@@AAE_NXZ 10051cd3 f i libucrt:output.obj
 0001:00050cfd       ?state_case_normal_common@?$output_processor@_WV?$stream_output_adapter@_W@__crt_stdio_output@@V?$standard_base@_WV?$stream_output_adapter@_W@__crt_stdio_output@@@2@@__crt_stdio_output@@AAE_NXZ 10051cfd f i libucrt:output.obj
 0001:00050d27       ?state_case_normal_common@?$output_processor@_WV?$string_output_adapter@_W@__crt_stdio_output@@V?$format_validation_base@_WV?$string_output_adapter@_W@__crt_stdio_output@@@2@@__crt_stdio_output@@AAE_NXZ 10051d27 f i libucrt:output.obj
 0001:00050d42       ?state_case_normal_common@?$output_processor@_WV?$string_output_adapter@_W@__crt_stdio_output@@V?$positional_parameter_base@_WV?$string_output_adapter@_W@__crt_stdio_output@@@2@@__crt_stdio_output@@AAE_NXZ 10051d42 f i libucrt:output.obj
 0001:00050d5d       ?state_case_normal_common@?$output_processor@_WV?$string_output_adapter@_W@__crt_stdio_output@@V?$standard_base@_WV?$string_output_adapter@_W@__crt_stdio_output@@@2@@__crt_stdio_output@@AAE_NXZ 10051d5d f i libucrt:output.obj
 0001:00050d78       ?state_case_normal_tchar@?$output_processor@DV?$stream_output_adapter@D@__crt_stdio_output@@V?$format_validation_base@DV?$stream_output_adapter@D@__crt_stdio_output@@@2@@__crt_stdio_output@@AAE_ND@Z 10051d78 f i libucrt:output.obj
 0001:00050de5       ?state_case_normal_tchar@?$output_processor@DV?$stream_output_adapter@D@__crt_stdio_output@@V?$positional_parameter_base@DV?$stream_output_adapter@D@__crt_stdio_output@@@2@@__crt_stdio_output@@AAE_ND@Z 10051de5 f i libucrt:output.obj
 0001:00050e52       ?state_case_normal_tchar@?$output_processor@DV?$stream_output_adapter@D@__crt_stdio_output@@V?$standard_base@DV?$stream_output_adapter@D@__crt_stdio_output@@@2@@__crt_stdio_output@@AAE_ND@Z 10051e52 f i libucrt:output.obj
 0001:00050ebf       ?state_case_normal_tchar@?$output_processor@DV?$string_output_adapter@D@__crt_stdio_output@@V?$format_validation_base@DV?$string_output_adapter@D@__crt_stdio_output@@@2@@__crt_stdio_output@@AAE_ND@Z 10051ebf f i libucrt:output.obj
 0001:00050f23       ?state_case_normal_tchar@?$output_processor@DV?$string_output_adapter@D@__crt_stdio_output@@V?$positional_parameter_base@DV?$string_output_adapter@D@__crt_stdio_output@@@2@@__crt_stdio_output@@AAE_ND@Z 10051f23 f i libucrt:output.obj
 0001:00050f87       ?state_case_normal_tchar@?$output_processor@DV?$string_output_adapter@D@__crt_stdio_output@@V?$standard_base@DV?$string_output_adapter@D@__crt_stdio_output@@@2@@__crt_stdio_output@@AAE_ND@Z 10051f87 f i libucrt:output.obj
 0001:00050feb       ?state_case_normal_tchar@?$output_processor@_WV?$stream_output_adapter@_W@__crt_stdio_output@@V?$format_validation_base@_WV?$stream_output_adapter@_W@__crt_stdio_output@@@2@@__crt_stdio_output@@AAE_N_W@Z 10051feb f i libucrt:output.obj
 0001:00050ff4       ?state_case_normal_tchar@?$output_processor@_WV?$stream_output_adapter@_W@__crt_stdio_output@@V?$positional_parameter_base@_WV?$stream_output_adapter@_W@__crt_stdio_output@@@2@@__crt_stdio_output@@AAE_N_W@Z 10051ff4 f i libucrt:output.obj
 0001:00050ffd       ?state_case_normal_tchar@?$output_processor@_WV?$stream_output_adapter@_W@__crt_stdio_output@@V?$standard_base@_WV?$stream_output_adapter@_W@__crt_stdio_output@@@2@@__crt_stdio_output@@AAE_N_W@Z 10051ffd f i libucrt:output.obj
 0001:00051006       ?state_case_normal_tchar@?$output_processor@_WV?$string_output_adapter@_W@__crt_stdio_output@@V?$format_validation_base@_WV?$string_output_adapter@_W@__crt_stdio_output@@@2@@__crt_stdio_output@@AAE_N_W@Z 10052006 f i libucrt:output.obj
 0001:0005100f       ?state_case_normal_tchar@?$output_processor@_WV?$string_output_adapter@_W@__crt_stdio_output@@V?$positional_parameter_base@_WV?$string_output_adapter@_W@__crt_stdio_output@@@2@@__crt_stdio_output@@AAE_N_W@Z 1005200f f i libucrt:output.obj
 0001:00051018       ?state_case_normal_tchar@?$output_processor@_WV?$string_output_adapter@_W@__crt_stdio_output@@V?$standard_base@_WV?$string_output_adapter@_W@__crt_stdio_output@@@2@@__crt_stdio_output@@AAE_N_W@Z 10052018 f i libucrt:output.obj
 0001:00051021       ?state_case_percent@?$output_processor@DV?$stream_output_adapter@D@__crt_stdio_output@@V?$format_validation_base@DV?$stream_output_adapter@D@__crt_stdio_output@@@2@@__crt_stdio_output@@AAE_NXZ 10052021 f i libucrt:output.obj
 0001:00051039       ?state_case_percent@?$output_processor@DV?$stream_output_adapter@D@__crt_stdio_output@@V?$positional_parameter_base@DV?$stream_output_adapter@D@__crt_stdio_output@@@2@@__crt_stdio_output@@AAE_NXZ 10052039 f i libucrt:output.obj
 0001:00051051       ?state_case_percent@?$output_processor@DV?$stream_output_adapter@D@__crt_stdio_output@@V?$standard_base@DV?$stream_output_adapter@D@__crt_stdio_output@@@2@@__crt_stdio_output@@AAE_NXZ 10052051 f i libucrt:output.obj
 0001:00051069       ?state_case_percent@?$output_processor@DV?$string_output_adapter@D@__crt_stdio_output@@V?$format_validation_base@DV?$string_output_adapter@D@__crt_stdio_output@@@2@@__crt_stdio_output@@AAE_NXZ 10052069 f i libucrt:output.obj
 0001:00051081       ?state_case_percent@?$output_processor@DV?$string_output_adapter@D@__crt_stdio_output@@V?$positional_parameter_base@DV?$string_output_adapter@D@__crt_stdio_output@@@2@@__crt_stdio_output@@AAE_NXZ 10052081 f i libucrt:output.obj
 0001:00051099       ?state_case_percent@?$output_processor@DV?$string_output_adapter@D@__crt_stdio_output@@V?$standard_base@DV?$string_output_adapter@D@__crt_stdio_output@@@2@@__crt_stdio_output@@AAE_NXZ 10052099 f i libucrt:output.obj
 0001:000510b1       ?state_case_percent@?$output_processor@_WV?$stream_output_adapter@_W@__crt_stdio_output@@V?$format_validation_base@_WV?$stream_output_adapter@_W@__crt_stdio_output@@@2@@__crt_stdio_output@@AAE_NXZ 100520b1 f i libucrt:output.obj
 0001:000510c9       ?state_case_percent@?$output_processor@_WV?$stream_output_adapter@_W@__crt_stdio_output@@V?$positional_parameter_base@_WV?$stream_output_adapter@_W@__crt_stdio_output@@@2@@__crt_stdio_output@@AAE_NXZ 100520c9 f i libucrt:output.obj
 0001:000510e1       ?state_case_percent@?$output_processor@_WV?$stream_output_adapter@_W@__crt_stdio_output@@V?$standard_base@_WV?$stream_output_adapter@_W@__crt_stdio_output@@@2@@__crt_stdio_output@@AAE_NXZ 100520e1 f i libucrt:output.obj
 0001:000510f9       ?state_case_percent@?$output_processor@_WV?$string_output_adapter@_W@__crt_stdio_output@@V?$format_validation_base@_WV?$string_output_adapter@_W@__crt_stdio_output@@@2@@__crt_stdio_output@@AAE_NXZ 100520f9 f i libucrt:output.obj
 0001:00051111       ?state_case_percent@?$output_processor@_WV?$string_output_adapter@_W@__crt_stdio_output@@V?$positional_parameter_base@_WV?$string_output_adapter@_W@__crt_stdio_output@@@2@@__crt_stdio_output@@AAE_NXZ 10052111 f i libucrt:output.obj
 0001:00051129       ?state_case_percent@?$output_processor@_WV?$string_output_adapter@_W@__crt_stdio_output@@V?$standard_base@_WV?$string_output_adapter@_W@__crt_stdio_output@@@2@@__crt_stdio_output@@AAE_NXZ 10052129 f i libucrt:output.obj
 0001:00051141       ?state_case_precision@?$output_processor@DV?$stream_output_adapter@D@__crt_stdio_output@@V?$format_validation_base@DV?$stream_output_adapter@D@__crt_stdio_output@@@2@@__crt_stdio_output@@AAE_NXZ 10052141 f i libucrt:output.obj
 0001:00051167       ?state_case_precision@?$output_processor@DV?$stream_output_adapter@D@__crt_stdio_output@@V?$positional_parameter_base@DV?$stream_output_adapter@D@__crt_stdio_output@@@2@@__crt_stdio_output@@AAE_NXZ 10052167 f i libucrt:output.obj
 0001:000511a1       ?state_case_precision@?$output_processor@DV?$stream_output_adapter@D@__crt_stdio_output@@V?$standard_base@DV?$stream_output_adapter@D@__crt_stdio_output@@@2@@__crt_stdio_output@@AAE_NXZ 100521a1 f i libucrt:output.obj
 0001:000511c7       ?state_case_precision@?$output_processor@DV?$string_output_adapter@D@__crt_stdio_output@@V?$format_validation_base@DV?$string_output_adapter@D@__crt_stdio_output@@@2@@__crt_stdio_output@@AAE_NXZ 100521c7 f i libucrt:output.obj
 0001:000511ed       ?state_case_precision@?$output_processor@DV?$string_output_adapter@D@__crt_stdio_output@@V?$positional_parameter_base@DV?$string_output_adapter@D@__crt_stdio_output@@@2@@__crt_stdio_output@@AAE_NXZ 100521ed f i libucrt:output.obj
 0001:00051227       ?state_case_precision@?$output_processor@DV?$string_output_adapter@D@__crt_stdio_output@@V?$standard_base@DV?$string_output_adapter@D@__crt_stdio_output@@@2@@__crt_stdio_output@@AAE_NXZ 10052227 f i libucrt:output.obj
 0001:0005124d       ?state_case_precision@?$output_processor@_WV?$stream_output_adapter@_W@__crt_stdio_output@@V?$format_validation_base@_WV?$stream_output_adapter@_W@__crt_stdio_output@@@2@@__crt_stdio_output@@AAE_NXZ 1005224d f i libucrt:output.obj
 0001:00051274       ?state_case_precision@?$output_processor@_WV?$stream_output_adapter@_W@__crt_stdio_output@@V?$positional_parameter_base@_WV?$stream_output_adapter@_W@__crt_stdio_output@@@2@@__crt_stdio_output@@AAE_NXZ 10052274 f i libucrt:output.obj
 0001:000512af       ?state_case_precision@?$output_processor@_WV?$stream_output_adapter@_W@__crt_stdio_output@@V?$standard_base@_WV?$stream_output_adapter@_W@__crt_stdio_output@@@2@@__crt_stdio_output@@AAE_NXZ 100522af f i libucrt:output.obj
 0001:000512d6       ?state_case_precision@?$output_processor@_WV?$string_output_adapter@_W@__crt_stdio_output@@V?$format_validation_base@_WV?$string_output_adapter@_W@__crt_stdio_output@@@2@@__crt_stdio_output@@AAE_NXZ 100522d6 f i libucrt:output.obj
 0001:000512fd       ?state_case_precision@?$output_processor@_WV?$string_output_adapter@_W@__crt_stdio_output@@V?$positional_parameter_base@_WV?$string_output_adapter@_W@__crt_stdio_output@@@2@@__crt_stdio_output@@AAE_NXZ 100522fd f i libucrt:output.obj
 0001:00051338       ?state_case_precision@?$output_processor@_WV?$string_output_adapter@_W@__crt_stdio_output@@V?$standard_base@_WV?$string_output_adapter@_W@__crt_stdio_output@@@2@@__crt_stdio_output@@AAE_NXZ 10052338 f i libucrt:output.obj
 0001:0005135f       ?state_case_size@?$output_processor@DV?$stream_output_adapter@D@__crt_stdio_output@@V?$format_validation_base@DV?$stream_output_adapter@D@__crt_stdio_output@@@2@@__crt_stdio_output@@AAE_NXZ 1005235f f i libucrt:output.obj
 0001:000514ad       ?state_case_size@?$output_processor@DV?$stream_output_adapter@D@__crt_stdio_output@@V?$positional_parameter_base@DV?$stream_output_adapter@D@__crt_stdio_output@@@2@@__crt_stdio_output@@AAE_NXZ 100524ad f i libucrt:output.obj
 0001:000515fb       ?state_case_size@?$output_processor@DV?$stream_output_adapter@D@__crt_stdio_output@@V?$standard_base@DV?$stream_output_adapter@D@__crt_stdio_output@@@2@@__crt_stdio_output@@AAE_NXZ 100525fb f i libucrt:output.obj
 0001:00051749       ?state_case_size@?$output_processor@DV?$string_output_adapter@D@__crt_stdio_output@@V?$format_validation_base@DV?$string_output_adapter@D@__crt_stdio_output@@@2@@__crt_stdio_output@@AAE_NXZ 10052749 f i libucrt:output.obj
 0001:00051897       ?state_case_size@?$output_processor@DV?$string_output_adapter@D@__crt_stdio_output@@V?$positional_parameter_base@DV?$string_output_adapter@D@__crt_stdio_output@@@2@@__crt_stdio_output@@AAE_NXZ 10052897 f i libucrt:output.obj
 0001:000519e5       ?state_case_size@?$output_processor@DV?$string_output_adapter@D@__crt_stdio_output@@V?$standard_base@DV?$string_output_adapter@D@__crt_stdio_output@@@2@@__crt_stdio_output@@AAE_NXZ 100529e5 f i libucrt:output.obj
 0001:00051b33       ?state_case_size@?$output_processor@_WV?$stream_output_adapter@_W@__crt_stdio_output@@V?$format_validation_base@_WV?$stream_output_adapter@_W@__crt_stdio_output@@@2@@__crt_stdio_output@@AAE_NXZ 10052b33 f i libucrt:output.obj
 0001:00051cab       ?state_case_size@?$output_processor@_WV?$stream_output_adapter@_W@__crt_stdio_output@@V?$positional_parameter_base@_WV?$stream_output_adapter@_W@__crt_stdio_output@@@2@@__crt_stdio_output@@AAE_NXZ 10052cab f i libucrt:output.obj
 0001:00051e23       ?state_case_size@?$output_processor@_WV?$stream_output_adapter@_W@__crt_stdio_output@@V?$standard_base@_WV?$stream_output_adapter@_W@__crt_stdio_output@@@2@@__crt_stdio_output@@AAE_NXZ 10052e23 f i libucrt:output.obj
 0001:00051f9b       ?state_case_size@?$output_processor@_WV?$string_output_adapter@_W@__crt_stdio_output@@V?$format_validation_base@_WV?$string_output_adapter@_W@__crt_stdio_output@@@2@@__crt_stdio_output@@AAE_NXZ 10052f9b f i libucrt:output.obj
 0001:00052113       ?state_case_size@?$output_processor@_WV?$string_output_adapter@_W@__crt_stdio_output@@V?$positional_parameter_base@_WV?$string_output_adapter@_W@__crt_stdio_output@@@2@@__crt_stdio_output@@AAE_NXZ 10053113 f i libucrt:output.obj
 0001:0005228b       ?state_case_size@?$output_processor@_WV?$string_output_adapter@_W@__crt_stdio_output@@V?$standard_base@_WV?$string_output_adapter@_W@__crt_stdio_output@@@2@@__crt_stdio_output@@AAE_NXZ 1005328b f i libucrt:output.obj
 0001:00052403       ?state_case_type@?$output_processor@DV?$stream_output_adapter@D@__crt_stdio_output@@V?$format_validation_base@DV?$stream_output_adapter@D@__crt_stdio_output@@@2@@__crt_stdio_output@@AAE_NXZ 10053403 f i libucrt:output.obj
 0001:00052635       ?state_case_type@?$output_processor@DV?$stream_output_adapter@D@__crt_stdio_output@@V?$positional_parameter_base@DV?$stream_output_adapter@D@__crt_stdio_output@@@2@@__crt_stdio_output@@AAE_NXZ 10053635 f i libucrt:output.obj
 0001:00052876       ?state_case_type@?$output_processor@DV?$stream_output_adapter@D@__crt_stdio_output@@V?$standard_base@DV?$stream_output_adapter@D@__crt_stdio_output@@@2@@__crt_stdio_output@@AAE_NXZ 10053876 f i libucrt:output.obj
 0001:00052aa8       ?state_case_type@?$output_processor@DV?$string_output_adapter@D@__crt_stdio_output@@V?$format_validation_base@DV?$string_output_adapter@D@__crt_stdio_output@@@2@@__crt_stdio_output@@AAE_NXZ 10053aa8 f i libucrt:output.obj
 0001:00052cda       ?state_case_type@?$output_processor@DV?$string_output_adapter@D@__crt_stdio_output@@V?$positional_parameter_base@DV?$string_output_adapter@D@__crt_stdio_output@@@2@@__crt_stdio_output@@AAE_NXZ 10053cda f i libucrt:output.obj
 0001:00052f1b       ?state_case_type@?$output_processor@DV?$string_output_adapter@D@__crt_stdio_output@@V?$standard_base@DV?$string_output_adapter@D@__crt_stdio_output@@@2@@__crt_stdio_output@@AAE_NXZ 10053f1b f i libucrt:output.obj
 0001:0005314d       ?state_case_type@?$output_processor@_WV?$stream_output_adapter@_W@__crt_stdio_output@@V?$format_validation_base@_WV?$stream_output_adapter@_W@__crt_stdio_output@@@2@@__crt_stdio_output@@AAE_NXZ 1005414d f i libucrt:output.obj
 0001:000533aa       ?state_case_type@?$output_processor@_WV?$stream_output_adapter@_W@__crt_stdio_output@@V?$positional_parameter_base@_WV?$stream_output_adapter@_W@__crt_stdio_output@@@2@@__crt_stdio_output@@AAE_NXZ 100543aa f i libucrt:output.obj
 0001:00053616       ?state_case_type@?$output_processor@_WV?$stream_output_adapter@_W@__crt_stdio_output@@V?$standard_base@_WV?$stream_output_adapter@_W@__crt_stdio_output@@@2@@__crt_stdio_output@@AAE_NXZ 10054616 f i libucrt:output.obj
 0001:00053873       ?state_case_type@?$output_processor@_WV?$string_output_adapter@_W@__crt_stdio_output@@V?$format_validation_base@_WV?$string_output_adapter@_W@__crt_stdio_output@@@2@@__crt_stdio_output@@AAE_NXZ 10054873 f i libucrt:output.obj
 0001:00053ad0       ?state_case_type@?$output_processor@_WV?$string_output_adapter@_W@__crt_stdio_output@@V?$positional_parameter_base@_WV?$string_output_adapter@_W@__crt_stdio_output@@@2@@__crt_stdio_output@@AAE_NXZ 10054ad0 f i libucrt:output.obj
 0001:00053d3c       ?state_case_type@?$output_processor@_WV?$string_output_adapter@_W@__crt_stdio_output@@V?$standard_base@_WV?$string_output_adapter@_W@__crt_stdio_output@@@2@@__crt_stdio_output@@AAE_NXZ 10054d3c f i libucrt:output.obj
 0001:00053f99       ?state_case_width@?$output_processor@DV?$stream_output_adapter@D@__crt_stdio_output@@V?$format_validation_base@DV?$stream_output_adapter@D@__crt_stdio_output@@@2@@__crt_stdio_output@@AAE_NXZ 10054f99 f i libucrt:output.obj
 0001:00053fc4       ?state_case_width@?$output_processor@DV?$stream_output_adapter@D@__crt_stdio_output@@V?$positional_parameter_base@DV?$stream_output_adapter@D@__crt_stdio_output@@@2@@__crt_stdio_output@@AAE_NXZ 10054fc4 f i libucrt:output.obj
 0001:00054004       ?state_case_width@?$output_processor@DV?$stream_output_adapter@D@__crt_stdio_output@@V?$standard_base@DV?$stream_output_adapter@D@__crt_stdio_output@@@2@@__crt_stdio_output@@AAE_NXZ 10055004 f i libucrt:output.obj
 0001:0005402f       ?state_case_width@?$output_processor@DV?$string_output_adapter@D@__crt_stdio_output@@V?$format_validation_base@DV?$string_output_adapter@D@__crt_stdio_output@@@2@@__crt_stdio_output@@AAE_NXZ 1005502f f i libucrt:output.obj
 0001:0005405a       ?state_case_width@?$output_processor@DV?$string_output_adapter@D@__crt_stdio_output@@V?$positional_parameter_base@DV?$string_output_adapter@D@__crt_stdio_output@@@2@@__crt_stdio_output@@AAE_NXZ 1005505a f i libucrt:output.obj
 0001:0005409a       ?state_case_width@?$output_processor@DV?$string_output_adapter@D@__crt_stdio_output@@V?$standard_base@DV?$string_output_adapter@D@__crt_stdio_output@@@2@@__crt_stdio_output@@AAE_NXZ 1005509a f i libucrt:output.obj
 0001:000540c5       ?state_case_width@?$output_processor@_WV?$stream_output_adapter@_W@__crt_stdio_output@@V?$format_validation_base@_WV?$stream_output_adapter@_W@__crt_stdio_output@@@2@@__crt_stdio_output@@AAE_NXZ 100550c5 f i libucrt:output.obj
 0001:000540f1       ?state_case_width@?$output_processor@_WV?$stream_output_adapter@_W@__crt_stdio_output@@V?$positional_parameter_base@_WV?$stream_output_adapter@_W@__crt_stdio_output@@@2@@__crt_stdio_output@@AAE_NXZ 100550f1 f i libucrt:output.obj
 0001:00054132       ?state_case_width@?$output_processor@_WV?$stream_output_adapter@_W@__crt_stdio_output@@V?$standard_base@_WV?$stream_output_adapter@_W@__crt_stdio_output@@@2@@__crt_stdio_output@@AAE_NXZ 10055132 f i libucrt:output.obj
 0001:0005415e       ?state_case_width@?$output_processor@_WV?$string_output_adapter@_W@__crt_stdio_output@@V?$format_validation_base@_WV?$string_output_adapter@_W@__crt_stdio_output@@@2@@__crt_stdio_output@@AAE_NXZ 1005515e f i libucrt:output.obj
 0001:0005418a       ?state_case_width@?$output_processor@_WV?$string_output_adapter@_W@__crt_stdio_output@@V?$positional_parameter_base@_WV?$string_output_adapter@_W@__crt_stdio_output@@@2@@__crt_stdio_output@@AAE_NXZ 1005518a f i libucrt:output.obj
 0001:000541cb       ?state_case_width@?$output_processor@_WV?$string_output_adapter@_W@__crt_stdio_output@@V?$standard_base@_WV?$string_output_adapter@_W@__crt_stdio_output@@@2@@__crt_stdio_output@@AAE_NXZ 100551cb f i libucrt:output.obj
 0001:000541f7       ?state_count@?$format_validation_base@DV?$stream_output_adapter@D@__crt_stdio_output@@@__crt_stdio_output@@KAIXZ 100551f7 f i libucrt:output.obj
 0001:000541fb       ?state_count@?$format_validation_base@DV?$string_output_adapter@D@__crt_stdio_output@@@__crt_stdio_output@@KAIXZ 100551fb f i libucrt:output.obj
 0001:000541ff       ?state_count@?$format_validation_base@_WV?$stream_output_adapter@_W@__crt_stdio_output@@@__crt_stdio_output@@KAIXZ 100551ff f i libucrt:output.obj
 0001:00054203       ?state_count@?$format_validation_base@_WV?$string_output_adapter@_W@__crt_stdio_output@@@__crt_stdio_output@@KAIXZ 10055203 f i libucrt:output.obj
 0001:00054207       ?state_count@?$standard_base@DV?$stream_output_adapter@D@__crt_stdio_output@@@__crt_stdio_output@@KAIXZ 10055207 f i libucrt:output.obj
 0001:0005420b       ?state_count@?$standard_base@DV?$string_output_adapter@D@__crt_stdio_output@@@__crt_stdio_output@@KAIXZ 1005520b f i libucrt:output.obj
 0001:0005420f       ?state_count@?$standard_base@_WV?$stream_output_adapter@_W@__crt_stdio_output@@@__crt_stdio_output@@KAIXZ 1005520f f i libucrt:output.obj
 0001:00054213       ?state_count@?$standard_base@_WV?$string_output_adapter@_W@__crt_stdio_output@@@__crt_stdio_output@@KAIXZ 10055213 f i libucrt:output.obj
 0001:00054217       ?state_transition_table@?$format_validation_base@DV?$stream_output_adapter@D@__crt_stdio_output@@@__crt_stdio_output@@KAABV?$spectre_mitigated_lookup_table@Ustate_transition_pair@__crt_stdio_output@@$0IA@@2@XZ 10055217 f i libucrt:output.obj
 0001:0005421d       ?state_transition_table@?$format_validation_base@DV?$string_output_adapter@D@__crt_stdio_output@@@__crt_stdio_output@@KAABV?$spectre_mitigated_lookup_table@Ustate_transition_pair@__crt_stdio_output@@$0IA@@2@XZ 1005521d f i libucrt:output.obj
 0001:00054223       ?state_transition_table@?$format_validation_base@_WV?$stream_output_adapter@_W@__crt_stdio_output@@@__crt_stdio_output@@KAABV?$spectre_mitigated_lookup_table@Ustate_transition_pair@__crt_stdio_output@@$0IA@@2@XZ 10055223 f i libucrt:output.obj
 0001:00054229       ?state_transition_table@?$format_validation_base@_WV?$string_output_adapter@_W@__crt_stdio_output@@@__crt_stdio_output@@KAABV?$spectre_mitigated_lookup_table@Ustate_transition_pair@__crt_stdio_output@@$0IA@@2@XZ 10055229 f i libucrt:output.obj
 0001:0005422f       ?state_transition_table@?$standard_base@DV?$stream_output_adapter@D@__crt_stdio_output@@@__crt_stdio_output@@KAABV?$spectre_mitigated_lookup_table@Ustate_transition_pair@__crt_stdio_output@@$0IA@@2@XZ 1005522f f i libucrt:output.obj
 0001:00054235       ?state_transition_table@?$standard_base@DV?$string_output_adapter@D@__crt_stdio_output@@@__crt_stdio_output@@KAABV?$spectre_mitigated_lookup_table@Ustate_transition_pair@__crt_stdio_output@@$0IA@@2@XZ 10055235 f i libucrt:output.obj
 0001:0005423b       ?state_transition_table@?$standard_base@_WV?$stream_output_adapter@_W@__crt_stdio_output@@@__crt_stdio_output@@KAABV?$spectre_mitigated_lookup_table@Ustate_transition_pair@__crt_stdio_output@@$0IA@@2@XZ 1005523b f i libucrt:output.obj
 0001:00054241       ?state_transition_table@?$standard_base@_WV?$string_output_adapter@_W@__crt_stdio_output@@@__crt_stdio_output@@KAABV?$spectre_mitigated_lookup_table@Ustate_transition_pair@__crt_stdio_output@@$0IA@@2@XZ 10055241 f i libucrt:output.obj
 0001:00054247       ?tchar_string@?$common_data@D@__crt_stdio_output@@IAEAAPADD@Z 10055247 f i libucrt:output.obj
 0001:0005424d       ?tchar_string@?$common_data@D@__crt_stdio_output@@IAEAAPADXZ 1005524d f i libucrt:output.obj
 0001:00054251       ?tchar_string@?$common_data@_W@__crt_stdio_output@@IAEAAPA_WXZ 10055251 f i libucrt:output.obj
 0001:00054255       ?tchar_string@?$common_data@_W@__crt_stdio_output@@IAEAAPA_W_W@Z 10055255 f i libucrt:output.obj
 0001:00054260       ?to_integer_size@__crt_stdio_output@@YAIW4length_modifier@1@@Z 10055260 f i libucrt:output.obj
 0001:000542bc       ?type_case_X@?$output_processor@DV?$stream_output_adapter@D@__crt_stdio_output@@V?$format_validation_base@DV?$stream_output_adapter@D@__crt_stdio_output@@@2@@__crt_stdio_output@@AAE_NXZ 100552bc f i libucrt:output.obj
 0001:000542c6       ?type_case_X@?$output_processor@DV?$stream_output_adapter@D@__crt_stdio_output@@V?$positional_parameter_base@DV?$stream_output_adapter@D@__crt_stdio_output@@@2@@__crt_stdio_output@@AAE_NXZ 100552c6 f i libucrt:output.obj
 0001:000542d0       ?type_case_X@?$output_processor@DV?$stream_output_adapter@D@__crt_stdio_output@@V?$standard_base@DV?$stream_output_adapter@D@__crt_stdio_output@@@2@@__crt_stdio_output@@AAE_NXZ 100552d0 f i libucrt:output.obj
 0001:000542da       ?type_case_X@?$output_processor@DV?$string_output_adapter@D@__crt_stdio_output@@V?$format_validation_base@DV?$string_output_adapter@D@__crt_stdio_output@@@2@@__crt_stdio_output@@AAE_NXZ 100552da f i libucrt:output.obj
 0001:000542e4       ?type_case_X@?$output_processor@DV?$string_output_adapter@D@__crt_stdio_output@@V?$positional_parameter_base@DV?$string_output_adapter@D@__crt_stdio_output@@@2@@__crt_stdio_output@@AAE_NXZ 100552e4 f i libucrt:output.obj
 0001:000542ee       ?type_case_X@?$output_processor@DV?$string_output_adapter@D@__crt_stdio_output@@V?$standard_base@DV?$string_output_adapter@D@__crt_stdio_output@@@2@@__crt_stdio_output@@AAE_NXZ 100552ee f i libucrt:output.obj
 0001:000542f8       ?type_case_X@?$output_processor@_WV?$stream_output_adapter@_W@__crt_stdio_output@@V?$format_validation_base@_WV?$stream_output_adapter@_W@__crt_stdio_output@@@2@@__crt_stdio_output@@AAE_NXZ 100552f8 f i libucrt:output.obj
 0001:00054302       ?type_case_X@?$output_processor@_WV?$stream_output_adapter@_W@__crt_stdio_output@@V?$positional_parameter_base@_WV?$stream_output_adapter@_W@__crt_stdio_output@@@2@@__crt_stdio_output@@AAE_NXZ 10055302 f i libucrt:output.obj
 0001:0005430c       ?type_case_X@?$output_processor@_WV?$stream_output_adapter@_W@__crt_stdio_output@@V?$standard_base@_WV?$stream_output_adapter@_W@__crt_stdio_output@@@2@@__crt_stdio_output@@AAE_NXZ 1005530c f i libucrt:output.obj
 0001:00054316       ?type_case_X@?$output_processor@_WV?$string_output_adapter@_W@__crt_stdio_output@@V?$format_validation_base@_WV?$string_output_adapter@_W@__crt_stdio_output@@@2@@__crt_stdio_output@@AAE_NXZ 10055316 f i libucrt:output.obj
 0001:00054320       ?type_case_X@?$output_processor@_WV?$string_output_adapter@_W@__crt_stdio_output@@V?$positional_parameter_base@_WV?$string_output_adapter@_W@__crt_stdio_output@@@2@@__crt_stdio_output@@AAE_NXZ 10055320 f i libucrt:output.obj
 0001:0005432a       ?type_case_X@?$output_processor@_WV?$string_output_adapter@_W@__crt_stdio_output@@V?$standard_base@_WV?$string_output_adapter@_W@__crt_stdio_output@@@2@@__crt_stdio_output@@AAE_NXZ 1005532a f i libucrt:output.obj
 0001:00054334       ?type_case_Z@?$output_processor@DV?$stream_output_adapter@D@__crt_stdio_output@@V?$format_validation_base@DV?$stream_output_adapter@D@__crt_stdio_output@@@2@@__crt_stdio_output@@AAE_NXZ 10055334 f i libucrt:output.obj
 0001:0005438e       ?type_case_Z@?$output_processor@DV?$stream_output_adapter@D@__crt_stdio_output@@V?$positional_parameter_base@DV?$stream_output_adapter@D@__crt_stdio_output@@@2@@__crt_stdio_output@@AAE_NXZ 1005538e f i libucrt:output.obj
 0001:00054402       ?type_case_Z@?$output_processor@DV?$stream_output_adapter@D@__crt_stdio_output@@V?$standard_base@DV?$stream_output_adapter@D@__crt_stdio_output@@@2@@__crt_stdio_output@@AAE_NXZ 10055402 f i libucrt:output.obj
 0001:0005445c       ?type_case_Z@?$output_processor@DV?$string_output_adapter@D@__crt_stdio_output@@V?$format_validation_base@DV?$string_output_adapter@D@__crt_stdio_output@@@2@@__crt_stdio_output@@AAE_NXZ 1005545c f i libucrt:output.obj
 0001:000544b6       ?type_case_Z@?$output_processor@DV?$string_output_adapter@D@__crt_stdio_output@@V?$positional_parameter_base@DV?$string_output_adapter@D@__crt_stdio_output@@@2@@__crt_stdio_output@@AAE_NXZ 100554b6 f i libucrt:output.obj
 0001:0005452a       ?type_case_Z@?$output_processor@DV?$string_output_adapter@D@__crt_stdio_output@@V?$standard_base@DV?$string_output_adapter@D@__crt_stdio_output@@@2@@__crt_stdio_output@@AAE_NXZ 1005552a f i libucrt:output.obj
 0001:00054584       ?type_case_Z@?$output_processor@_WV?$stream_output_adapter@_W@__crt_stdio_output@@V?$format_validation_base@_WV?$stream_output_adapter@_W@__crt_stdio_output@@@2@@__crt_stdio_output@@AAE_NXZ 10055584 f i libucrt:output.obj
 0001:000545de       ?type_case_Z@?$output_processor@_WV?$stream_output_adapter@_W@__crt_stdio_output@@V?$positional_parameter_base@_WV?$stream_output_adapter@_W@__crt_stdio_output@@@2@@__crt_stdio_output@@AAE_NXZ 100555de f i libucrt:output.obj
 0001:00054652       ?type_case_Z@?$output_processor@_WV?$stream_output_adapter@_W@__crt_stdio_output@@V?$standard_base@_WV?$stream_output_adapter@_W@__crt_stdio_output@@@2@@__crt_stdio_output@@AAE_NXZ 10055652 f i libucrt:output.obj
 0001:000546ac       ?type_case_Z@?$output_processor@_WV?$string_output_adapter@_W@__crt_stdio_output@@V?$format_validation_base@_WV?$string_output_adapter@_W@__crt_stdio_output@@@2@@__crt_stdio_output@@AAE_NXZ 100556ac f i libucrt:output.obj
 0001:00054706       ?type_case_Z@?$output_processor@_WV?$string_output_adapter@_W@__crt_stdio_output@@V?$positional_parameter_base@_WV?$string_output_adapter@_W@__crt_stdio_output@@@2@@__crt_stdio_output@@AAE_NXZ 10055706 f i libucrt:output.obj
 0001:0005477a       ?type_case_Z@?$output_processor@_WV?$string_output_adapter@_W@__crt_stdio_output@@V?$standard_base@_WV?$string_output_adapter@_W@__crt_stdio_output@@@2@@__crt_stdio_output@@AAE_NXZ 1005577a f i libucrt:output.obj
 0001:000547d4       ?type_case_a@?$output_processor@DV?$stream_output_adapter@D@__crt_stdio_output@@V?$format_validation_base@DV?$stream_output_adapter@D@__crt_stdio_output@@@2@@__crt_stdio_output@@AAE_NXZ 100557d4 f i libucrt:output.obj
 0001:00054925       ?type_case_a@?$output_processor@DV?$stream_output_adapter@D@__crt_stdio_output@@V?$positional_parameter_base@DV?$stream_output_adapter@D@__crt_stdio_output@@@2@@__crt_stdio_output@@AAE_NXZ 10055925 f i libucrt:output.obj
 0001:00054aa2       ?type_case_a@?$output_processor@DV?$stream_output_adapter@D@__crt_stdio_output@@V?$standard_base@DV?$stream_output_adapter@D@__crt_stdio_output@@@2@@__crt_stdio_output@@AAE_NXZ 10055aa2 f i libucrt:output.obj
 0001:00054bf3       ?type_case_a@?$output_processor@DV?$string_output_adapter@D@__crt_stdio_output@@V?$format_validation_base@DV?$string_output_adapter@D@__crt_stdio_output@@@2@@__crt_stdio_output@@AAE_NXZ 10055bf3 f i libucrt:output.obj
 0001:00054d44       ?type_case_a@?$output_processor@DV?$string_output_adapter@D@__crt_stdio_output@@V?$positional_parameter_base@DV?$string_output_adapter@D@__crt_stdio_output@@@2@@__crt_stdio_output@@AAE_NXZ 10055d44 f i libucrt:output.obj
 0001:00054ec1       ?type_case_a@?$output_processor@DV?$string_output_adapter@D@__crt_stdio_output@@V?$standard_base@DV?$string_output_adapter@D@__crt_stdio_output@@@2@@__crt_stdio_output@@AAE_NXZ 10055ec1 f i libucrt:output.obj
 0001:00055012       ?type_case_a@?$output_processor@_WV?$stream_output_adapter@_W@__crt_stdio_output@@V?$format_validation_base@_WV?$stream_output_adapter@_W@__crt_stdio_output@@@2@@__crt_stdio_output@@AAE_NXZ 10056012 f i libucrt:output.obj
 0001:00055179       ?type_case_a@?$output_processor@_WV?$stream_output_adapter@_W@__crt_stdio_output@@V?$positional_parameter_base@_WV?$stream_output_adapter@_W@__crt_stdio_output@@@2@@__crt_stdio_output@@AAE_NXZ 10056179 f i libucrt:output.obj
 0001:0005530c       ?type_case_a@?$output_processor@_WV?$stream_output_adapter@_W@__crt_stdio_output@@V?$standard_base@_WV?$stream_output_adapter@_W@__crt_stdio_output@@@2@@__crt_stdio_output@@AAE_NXZ 1005630c f i libucrt:output.obj
 0001:00055473       ?type_case_a@?$output_processor@_WV?$string_output_adapter@_W@__crt_stdio_output@@V?$format_validation_base@_WV?$string_output_adapter@_W@__crt_stdio_output@@@2@@__crt_stdio_output@@AAE_NXZ 10056473 f i libucrt:output.obj
 0001:000555da       ?type_case_a@?$output_processor@_WV?$string_output_adapter@_W@__crt_stdio_output@@V?$positional_parameter_base@_WV?$string_output_adapter@_W@__crt_stdio_output@@@2@@__crt_stdio_output@@AAE_NXZ 100565da f i libucrt:output.obj
 0001:0005576d       ?type_case_a@?$output_processor@_WV?$string_output_adapter@_W@__crt_stdio_output@@V?$standard_base@_WV?$string_output_adapter@_W@__crt_stdio_output@@@2@@__crt_stdio_output@@AAE_NXZ 1005676d f i libucrt:output.obj
 0001:000558d4       ?type_case_c@?$output_processor@DV?$stream_output_adapter@D@__crt_stdio_output@@V?$format_validation_base@DV?$stream_output_adapter@D@__crt_stdio_output@@@2@@__crt_stdio_output@@AAE_NXZ 100568d4 f i libucrt:output.obj
 0001:000558dc       ?type_case_c@?$output_processor@DV?$stream_output_adapter@D@__crt_stdio_output@@V?$positional_parameter_base@DV?$stream_output_adapter@D@__crt_stdio_output@@@2@@__crt_stdio_output@@AAE_NXZ 100568dc f i libucrt:output.obj
 0001:000558e4       ?type_case_c@?$output_processor@DV?$stream_output_adapter@D@__crt_stdio_output@@V?$standard_base@DV?$stream_output_adapter@D@__crt_stdio_output@@@2@@__crt_stdio_output@@AAE_NXZ 100568e4 f i libucrt:output.obj
 0001:000558ec       ?type_case_c@?$output_processor@DV?$string_output_adapter@D@__crt_stdio_output@@V?$format_validation_base@DV?$string_output_adapter@D@__crt_stdio_output@@@2@@__crt_stdio_output@@AAE_NXZ 100568ec f i libucrt:output.obj
 0001:000558f4       ?type_case_c@?$output_processor@DV?$string_output_adapter@D@__crt_stdio_output@@V?$positional_parameter_base@DV?$string_output_adapter@D@__crt_stdio_output@@@2@@__crt_stdio_output@@AAE_NXZ 100568f4 f i libucrt:output.obj
 0001:000558fc       ?type_case_c@?$output_processor@DV?$string_output_adapter@D@__crt_stdio_output@@V?$standard_base@DV?$string_output_adapter@D@__crt_stdio_output@@@2@@__crt_stdio_output@@AAE_NXZ 100568fc f i libucrt:output.obj
 0001:00055904       ?type_case_c@?$output_processor@_WV?$stream_output_adapter@_W@__crt_stdio_output@@V?$format_validation_base@_WV?$stream_output_adapter@_W@__crt_stdio_output@@@2@@__crt_stdio_output@@AAE_NXZ 10056904 f i libucrt:output.obj
 0001:0005590c       ?type_case_c@?$output_processor@_WV?$stream_output_adapter@_W@__crt_stdio_output@@V?$positional_parameter_base@_WV?$stream_output_adapter@_W@__crt_stdio_output@@@2@@__crt_stdio_output@@AAE_NXZ 1005690c f i libucrt:output.obj
 0001:00055914       ?type_case_c@?$output_processor@_WV?$stream_output_adapter@_W@__crt_stdio_output@@V?$standard_base@_WV?$stream_output_adapter@_W@__crt_stdio_output@@@2@@__crt_stdio_output@@AAE_NXZ 10056914 f i libucrt:output.obj
 0001:0005591c       ?type_case_c@?$output_processor@_WV?$string_output_adapter@_W@__crt_stdio_output@@V?$format_validation_base@_WV?$string_output_adapter@_W@__crt_stdio_output@@@2@@__crt_stdio_output@@AAE_NXZ 1005691c f i libucrt:output.obj
 0001:00055924       ?type_case_c@?$output_processor@_WV?$string_output_adapter@_W@__crt_stdio_output@@V?$positional_parameter_base@_WV?$string_output_adapter@_W@__crt_stdio_output@@@2@@__crt_stdio_output@@AAE_NXZ 10056924 f i libucrt:output.obj
 0001:0005592c       ?type_case_c@?$output_processor@_WV?$string_output_adapter@_W@__crt_stdio_output@@V?$standard_base@_WV?$string_output_adapter@_W@__crt_stdio_output@@@2@@__crt_stdio_output@@AAE_NXZ 1005692c f i libucrt:output.obj
 0001:00055934       ?type_case_c_tchar@?$output_processor@DV?$stream_output_adapter@D@__crt_stdio_output@@V?$format_validation_base@DV?$stream_output_adapter@D@__crt_stdio_output@@@2@@__crt_stdio_output@@AAE_ND@Z 10056934 f i libucrt:output.obj
 0001:000559c7       ?type_case_c_tchar@?$output_processor@DV?$stream_output_adapter@D@__crt_stdio_output@@V?$positional_parameter_base@DV?$stream_output_adapter@D@__crt_stdio_output@@@2@@__crt_stdio_output@@AAE_ND@Z 100569c7 f i libucrt:output.obj
 0001:00055a88       ?type_case_c_tchar@?$output_processor@DV?$stream_output_adapter@D@__crt_stdio_output@@V?$standard_base@DV?$stream_output_adapter@D@__crt_stdio_output@@@2@@__crt_stdio_output@@AAE_ND@Z 10056a88 f i libucrt:output.obj
 0001:00055b1b       ?type_case_c_tchar@?$output_processor@DV?$string_output_adapter@D@__crt_stdio_output@@V?$format_validation_base@DV?$string_output_adapter@D@__crt_stdio_output@@@2@@__crt_stdio_output@@AAE_ND@Z 10056b1b f i libucrt:output.obj
 0001:00055bae       ?type_case_c_tchar@?$output_processor@DV?$string_output_adapter@D@__crt_stdio_output@@V?$positional_parameter_base@DV?$string_output_adapter@D@__crt_stdio_output@@@2@@__crt_stdio_output@@AAE_ND@Z 10056bae f i libucrt:output.obj
 0001:00055c6f       ?type_case_c_tchar@?$output_processor@DV?$string_output_adapter@D@__crt_stdio_output@@V?$standard_base@DV?$string_output_adapter@D@__crt_stdio_output@@@2@@__crt_stdio_output@@AAE_ND@Z 10056c6f f i libucrt:output.obj
 0001:00055d02       ?type_case_c_tchar@?$output_processor@_WV?$stream_output_adapter@_W@__crt_stdio_output@@V?$format_validation_base@_WV?$stream_output_adapter@_W@__crt_stdio_output@@@2@@__crt_stdio_output@@AAE_N_W@Z 10056d02 f i libucrt:output.obj
 0001:00055d98       ?type_case_c_tchar@?$output_processor@_WV?$stream_output_adapter@_W@__crt_stdio_output@@V?$positional_parameter_base@_WV?$stream_output_adapter@_W@__crt_stdio_output@@@2@@__crt_stdio_output@@AAE_N_W@Z 10056d98 f i libucrt:output.obj
 0001:00055e45       ?type_case_c_tchar@?$output_processor@_WV?$stream_output_adapter@_W@__crt_stdio_output@@V?$standard_base@_WV?$stream_output_adapter@_W@__crt_stdio_output@@@2@@__crt_stdio_output@@AAE_N_W@Z 10056e45 f i libucrt:output.obj
 0001:00055edb       ?type_case_c_tchar@?$output_processor@_WV?$string_output_adapter@_W@__crt_stdio_output@@V?$format_validation_base@_WV?$string_output_adapter@_W@__crt_stdio_output@@@2@@__crt_stdio_output@@AAE_N_W@Z 10056edb f i libucrt:output.obj
 0001:00055f71       ?type_case_c_tchar@?$output_processor@_WV?$string_output_adapter@_W@__crt_stdio_output@@V?$positional_parameter_base@_WV?$string_output_adapter@_W@__crt_stdio_output@@@2@@__crt_stdio_output@@AAE_N_W@Z 10056f71 f i libucrt:output.obj
 0001:0005601e       ?type_case_c_tchar@?$output_processor@_WV?$string_output_adapter@_W@__crt_stdio_output@@V?$standard_base@_WV?$string_output_adapter@_W@__crt_stdio_output@@@2@@__crt_stdio_output@@AAE_N_W@Z 1005701e f i libucrt:output.obj
 0001:000560b4       ?type_case_d@?$output_processor@DV?$stream_output_adapter@D@__crt_stdio_output@@V?$format_validation_base@DV?$stream_output_adapter@D@__crt_stdio_output@@@2@@__crt_stdio_output@@AAE_NXZ 100570b4 f i libucrt:output.obj
 0001:000560c2       ?type_case_d@?$output_processor@DV?$stream_output_adapter@D@__crt_stdio_output@@V?$positional_parameter_base@DV?$stream_output_adapter@D@__crt_stdio_output@@@2@@__crt_stdio_output@@AAE_NXZ 100570c2 f i libucrt:output.obj
 0001:000560d0       ?type_case_d@?$output_processor@DV?$stream_output_adapter@D@__crt_stdio_output@@V?$standard_base@DV?$stream_output_adapter@D@__crt_stdio_output@@@2@@__crt_stdio_output@@AAE_NXZ 100570d0 f i libucrt:output.obj
 0001:000560de       ?type_case_d@?$output_processor@DV?$string_output_adapter@D@__crt_stdio_output@@V?$format_validation_base@DV?$string_output_adapter@D@__crt_stdio_output@@@2@@__crt_stdio_output@@AAE_NXZ 100570de f i libucrt:output.obj
 0001:000560ec       ?type_case_d@?$output_processor@DV?$string_output_adapter@D@__crt_stdio_output@@V?$positional_parameter_base@DV?$string_output_adapter@D@__crt_stdio_output@@@2@@__crt_stdio_output@@AAE_NXZ 100570ec f i libucrt:output.obj
 0001:000560fa       ?type_case_d@?$output_processor@DV?$string_output_adapter@D@__crt_stdio_output@@V?$standard_base@DV?$string_output_adapter@D@__crt_stdio_output@@@2@@__crt_stdio_output@@AAE_NXZ 100570fa f i libucrt:output.obj
 0001:00056108       ?type_case_d@?$output_processor@_WV?$stream_output_adapter@_W@__crt_stdio_output@@V?$format_validation_base@_WV?$stream_output_adapter@_W@__crt_stdio_output@@@2@@__crt_stdio_output@@AAE_NXZ 10057108 f i libucrt:output.obj
 0001:00056116       ?type_case_d@?$output_processor@_WV?$stream_output_adapter@_W@__crt_stdio_output@@V?$positional_parameter_base@_WV?$stream_output_adapter@_W@__crt_stdio_output@@@2@@__crt_stdio_output@@AAE_NXZ 10057116 f i libucrt:output.obj
 0001:00056124       ?type_case_d@?$output_processor@_WV?$stream_output_adapter@_W@__crt_stdio_output@@V?$standard_base@_WV?$stream_output_adapter@_W@__crt_stdio_output@@@2@@__crt_stdio_output@@AAE_NXZ 10057124 f i libucrt:output.obj
 0001:00056132       ?type_case_d@?$output_processor@_WV?$string_output_adapter@_W@__crt_stdio_output@@V?$format_validation_base@_WV?$string_output_adapter@_W@__crt_stdio_output@@@2@@__crt_stdio_output@@AAE_NXZ 10057132 f i libucrt:output.obj
 0001:00056140       ?type_case_d@?$output_processor@_WV?$string_output_adapter@_W@__crt_stdio_output@@V?$positional_parameter_base@_WV?$string_output_adapter@_W@__crt_stdio_output@@@2@@__crt_stdio_output@@AAE_NXZ 10057140 f i libucrt:output.obj
 0001:0005614e       ?type_case_d@?$output_processor@_WV?$string_output_adapter@_W@__crt_stdio_output@@V?$standard_base@_WV?$string_output_adapter@_W@__crt_stdio_output@@@2@@__crt_stdio_output@@AAE_NXZ 1005714e f i libucrt:output.obj
 0001:0005615c       ?type_case_integer@?$output_processor@DV?$stream_output_adapter@D@__crt_stdio_output@@V?$format_validation_base@DV?$stream_output_adapter@D@__crt_stdio_output@@@2@@__crt_stdio_output@@AAE_NI_N@Z 1005715c f i libucrt:output.obj
 0001:000562ad       ?type_case_integer@?$output_processor@DV?$stream_output_adapter@D@__crt_stdio_output@@V?$positional_parameter_base@DV?$stream_output_adapter@D@__crt_stdio_output@@@2@@__crt_stdio_output@@AAE_NI_N@Z 100572ad f i libucrt:output.obj
 0001:0005642e       ?type_case_integer@?$output_processor@DV?$stream_output_adapter@D@__crt_stdio_output@@V?$standard_base@DV?$stream_output_adapter@D@__crt_stdio_output@@@2@@__crt_stdio_output@@AAE_NI_N@Z 1005742e f i libucrt:output.obj
 0001:0005657f       ?type_case_integer@?$output_processor@DV?$string_output_adapter@D@__crt_stdio_output@@V?$format_validation_base@DV?$string_output_adapter@D@__crt_stdio_output@@@2@@__crt_stdio_output@@AAE_NI_N@Z 1005757f f i libucrt:output.obj
 0001:000566d0       ?type_case_integer@?$output_processor@DV?$string_output_adapter@D@__crt_stdio_output@@V?$positional_parameter_base@DV?$string_output_adapter@D@__crt_stdio_output@@@2@@__crt_stdio_output@@AAE_NI_N@Z 100576d0 f i libucrt:output.obj
 0001:00056851       ?type_case_integer@?$output_processor@DV?$string_output_adapter@D@__crt_stdio_output@@V?$standard_base@DV?$string_output_adapter@D@__crt_stdio_output@@@2@@__crt_stdio_output@@AAE_NI_N@Z 10057851 f i libucrt:output.obj
 0001:000569a2       ?type_case_integer@?$output_processor@_WV?$stream_output_adapter@_W@__crt_stdio_output@@V?$format_validation_base@_WV?$stream_output_adapter@_W@__crt_stdio_output@@@2@@__crt_stdio_output@@AAE_NI_N@Z 100579a2 f i libucrt:output.obj
 0001:00056af7       ?type_case_integer@?$output_processor@_WV?$stream_output_adapter@_W@__crt_stdio_output@@V?$positional_parameter_base@_WV?$stream_output_adapter@_W@__crt_stdio_output@@@2@@__crt_stdio_output@@AAE_NI_N@Z 10057af7 f i libucrt:output.obj
 0001:00056c7c       ?type_case_integer@?$output_processor@_WV?$stream_output_adapter@_W@__crt_stdio_output@@V?$standard_base@_WV?$stream_output_adapter@_W@__crt_stdio_output@@@2@@__crt_stdio_output@@AAE_NI_N@Z 10057c7c f i libucrt:output.obj
 0001:00056dd1       ?type_case_integer@?$output_processor@_WV?$string_output_adapter@_W@__crt_stdio_output@@V?$format_validation_base@_WV?$string_output_adapter@_W@__crt_stdio_output@@@2@@__crt_stdio_output@@AAE_NI_N@Z 10057dd1 f i libucrt:output.obj
 0001:00056f26       ?type_case_integer@?$output_processor@_WV?$string_output_adapter@_W@__crt_stdio_output@@V?$positional_parameter_base@_WV?$string_output_adapter@_W@__crt_stdio_output@@@2@@__crt_stdio_output@@AAE_NI_N@Z 10057f26 f i libucrt:output.obj
 0001:000570ab       ?type_case_integer@?$output_processor@_WV?$string_output_adapter@_W@__crt_stdio_output@@V?$standard_base@_WV?$string_output_adapter@_W@__crt_stdio_output@@@2@@__crt_stdio_output@@AAE_NI_N@Z 100580ab f i libucrt:output.obj
 0001:00057200       ?type_case_n@?$output_processor@DV?$stream_output_adapter@D@__crt_stdio_output@@V?$format_validation_base@DV?$stream_output_adapter@D@__crt_stdio_output@@@2@@__crt_stdio_output@@AAE_NXZ 10058200 f i libucrt:output.obj
 0001:00057274       ?type_case_n@?$output_processor@DV?$stream_output_adapter@D@__crt_stdio_output@@V?$positional_parameter_base@DV?$stream_output_adapter@D@__crt_stdio_output@@@2@@__crt_stdio_output@@AAE_NXZ 10058274 f i libucrt:output.obj
 0001:0005730b       ?type_case_n@?$output_processor@DV?$stream_output_adapter@D@__crt_stdio_output@@V?$standard_base@DV?$stream_output_adapter@D@__crt_stdio_output@@@2@@__crt_stdio_output@@AAE_NXZ 1005830b f i libucrt:output.obj
 0001:0005737f       ?type_case_n@?$output_processor@DV?$string_output_adapter@D@__crt_stdio_output@@V?$format_validation_base@DV?$string_output_adapter@D@__crt_stdio_output@@@2@@__crt_stdio_output@@AAE_NXZ 1005837f f i libucrt:output.obj
 0001:000573f3       ?type_case_n@?$output_processor@DV?$string_output_adapter@D@__crt_stdio_output@@V?$positional_parameter_base@DV?$string_output_adapter@D@__crt_stdio_output@@@2@@__crt_stdio_output@@AAE_NXZ 100583f3 f i libucrt:output.obj
 0001:0005748a       ?type_case_n@?$output_processor@DV?$string_output_adapter@D@__crt_stdio_output@@V?$standard_base@DV?$string_output_adapter@D@__crt_stdio_output@@@2@@__crt_stdio_output@@AAE_NXZ 1005848a f i libucrt:output.obj
 0001:000574fe       ?type_case_n@?$output_processor@_WV?$stream_output_adapter@_W@__crt_stdio_output@@V?$format_validation_base@_WV?$stream_output_adapter@_W@__crt_stdio_output@@@2@@__crt_stdio_output@@AAE_NXZ 100584fe f i libucrt:output.obj
 0001:00057572       ?type_case_n@?$output_processor@_WV?$stream_output_adapter@_W@__crt_stdio_output@@V?$positional_parameter_base@_WV?$stream_output_adapter@_W@__crt_stdio_output@@@2@@__crt_stdio_output@@AAE_NXZ 10058572 f i libucrt:output.obj
 0001:00057609       ?type_case_n@?$output_processor@_WV?$stream_output_adapter@_W@__crt_stdio_output@@V?$standard_base@_WV?$stream_output_adapter@_W@__crt_stdio_output@@@2@@__crt_stdio_output@@AAE_NXZ 10058609 f i libucrt:output.obj
 0001:0005767d       ?type_case_n@?$output_processor@_WV?$string_output_adapter@_W@__crt_stdio_output@@V?$format_validation_base@_WV?$string_output_adapter@_W@__crt_stdio_output@@@2@@__crt_stdio_output@@AAE_NXZ 1005867d f i libucrt:output.obj
 0001:000576f1       ?type_case_n@?$output_processor@_WV?$string_output_adapter@_W@__crt_stdio_output@@V?$positional_parameter_base@_WV?$string_output_adapter@_W@__crt_stdio_output@@@2@@__crt_stdio_output@@AAE_NXZ 100586f1 f i libucrt:output.obj
 0001:00057788       ?type_case_n@?$output_processor@_WV?$string_output_adapter@_W@__crt_stdio_output@@V?$standard_base@_WV?$string_output_adapter@_W@__crt_stdio_output@@@2@@__crt_stdio_output@@AAE_NXZ 10058788 f i libucrt:output.obj
 0001:000577fc       ?type_case_o@?$output_processor@DV?$stream_output_adapter@D@__crt_stdio_output@@V?$format_validation_base@DV?$stream_output_adapter@D@__crt_stdio_output@@@2@@__crt_stdio_output@@AAE_NXZ 100587fc f i libucrt:output.obj
 0001:0005781b       ?type_case_o@?$output_processor@DV?$stream_output_adapter@D@__crt_stdio_output@@V?$positional_parameter_base@DV?$stream_output_adapter@D@__crt_stdio_output@@@2@@__crt_stdio_output@@AAE_NXZ 1005881b f i libucrt:output.obj
 0001:0005783a       ?type_case_o@?$output_processor@DV?$stream_output_adapter@D@__crt_stdio_output@@V?$standard_base@DV?$stream_output_adapter@D@__crt_stdio_output@@@2@@__crt_stdio_output@@AAE_NXZ 1005883a f i libucrt:output.obj
 0001:00057859       ?type_case_o@?$output_processor@DV?$string_output_adapter@D@__crt_stdio_output@@V?$format_validation_base@DV?$string_output_adapter@D@__crt_stdio_output@@@2@@__crt_stdio_output@@AAE_NXZ 10058859 f i libucrt:output.obj
 0001:00057878       ?type_case_o@?$output_processor@DV?$string_output_adapter@D@__crt_stdio_output@@V?$positional_parameter_base@DV?$string_output_adapter@D@__crt_stdio_output@@@2@@__crt_stdio_output@@AAE_NXZ 10058878 f i libucrt:output.obj
 0001:00057897       ?type_case_o@?$output_processor@DV?$string_output_adapter@D@__crt_stdio_output@@V?$standard_base@DV?$string_output_adapter@D@__crt_stdio_output@@@2@@__crt_stdio_output@@AAE_NXZ 10058897 f i libucrt:output.obj
 0001:000578b6       ?type_case_o@?$output_processor@_WV?$stream_output_adapter@_W@__crt_stdio_output@@V?$format_validation_base@_WV?$stream_output_adapter@_W@__crt_stdio_output@@@2@@__crt_stdio_output@@AAE_NXZ 100588b6 f i libucrt:output.obj
 0001:000578d5       ?type_case_o@?$output_processor@_WV?$stream_output_adapter@_W@__crt_stdio_output@@V?$positional_parameter_base@_WV?$stream_output_adapter@_W@__crt_stdio_output@@@2@@__crt_stdio_output@@AAE_NXZ 100588d5 f i libucrt:output.obj
 0001:000578f4       ?type_case_o@?$output_processor@_WV?$stream_output_adapter@_W@__crt_stdio_output@@V?$standard_base@_WV?$stream_output_adapter@_W@__crt_stdio_output@@@2@@__crt_stdio_output@@AAE_NXZ 100588f4 f i libucrt:output.obj
 0001:00057913       ?type_case_o@?$output_processor@_WV?$string_output_adapter@_W@__crt_stdio_output@@V?$format_validation_base@_WV?$string_output_adapter@_W@__crt_stdio_output@@@2@@__crt_stdio_output@@AAE_NXZ 10058913 f i libucrt:output.obj
 0001:00057932       ?type_case_o@?$output_processor@_WV?$string_output_adapter@_W@__crt_stdio_output@@V?$positional_parameter_base@_WV?$string_output_adapter@_W@__crt_stdio_output@@@2@@__crt_stdio_output@@AAE_NXZ 10058932 f i libucrt:output.obj
 0001:00057951       ?type_case_o@?$output_processor@_WV?$string_output_adapter@_W@__crt_stdio_output@@V?$standard_base@_WV?$string_output_adapter@_W@__crt_stdio_output@@@2@@__crt_stdio_output@@AAE_NXZ 10058951 f i libucrt:output.obj
 0001:00057970       ?type_case_p@?$output_processor@DV?$stream_output_adapter@D@__crt_stdio_output@@V?$format_validation_base@DV?$stream_output_adapter@D@__crt_stdio_output@@@2@@__crt_stdio_output@@AAE_NXZ 10058970 f i libucrt:output.obj
 0001:00057988       ?type_case_p@?$output_processor@DV?$stream_output_adapter@D@__crt_stdio_output@@V?$positional_parameter_base@DV?$stream_output_adapter@D@__crt_stdio_output@@@2@@__crt_stdio_output@@AAE_NXZ 10058988 f i libucrt:output.obj
 0001:000579a0       ?type_case_p@?$output_processor@DV?$stream_output_adapter@D@__crt_stdio_output@@V?$standard_base@DV?$stream_output_adapter@D@__crt_stdio_output@@@2@@__crt_stdio_output@@AAE_NXZ 100589a0 f i libucrt:output.obj
 0001:000579b8       ?type_case_p@?$output_processor@DV?$string_output_adapter@D@__crt_stdio_output@@V?$format_validation_base@DV?$string_output_adapter@D@__crt_stdio_output@@@2@@__crt_stdio_output@@AAE_NXZ 100589b8 f i libucrt:output.obj
 0001:000579d0       ?type_case_p@?$output_processor@DV?$string_output_adapter@D@__crt_stdio_output@@V?$positional_parameter_base@DV?$string_output_adapter@D@__crt_stdio_output@@@2@@__crt_stdio_output@@AAE_NXZ 100589d0 f i libucrt:output.obj
 0001:000579e8       ?type_case_p@?$output_processor@DV?$string_output_adapter@D@__crt_stdio_output@@V?$standard_base@DV?$string_output_adapter@D@__crt_stdio_output@@@2@@__crt_stdio_output@@AAE_NXZ 100589e8 f i libucrt:output.obj
 0001:00057a00       ?type_case_p@?$output_processor@_WV?$stream_output_adapter@_W@__crt_stdio_output@@V?$format_validation_base@_WV?$stream_output_adapter@_W@__crt_stdio_output@@@2@@__crt_stdio_output@@AAE_NXZ 10058a00 f i libucrt:output.obj
 0001:00057a18       ?type_case_p@?$output_processor@_WV?$stream_output_adapter@_W@__crt_stdio_output@@V?$positional_parameter_base@_WV?$stream_output_adapter@_W@__crt_stdio_output@@@2@@__crt_stdio_output@@AAE_NXZ 10058a18 f i libucrt:output.obj
 0001:00057a30       ?type_case_p@?$output_processor@_WV?$stream_output_adapter@_W@__crt_stdio_output@@V?$standard_base@_WV?$stream_output_adapter@_W@__crt_stdio_output@@@2@@__crt_stdio_output@@AAE_NXZ 10058a30 f i libucrt:output.obj
 0001:00057a48       ?type_case_p@?$output_processor@_WV?$string_output_adapter@_W@__crt_stdio_output@@V?$format_validation_base@_WV?$string_output_adapter@_W@__crt_stdio_output@@@2@@__crt_stdio_output@@AAE_NXZ 10058a48 f i libucrt:output.obj
 0001:00057a60       ?type_case_p@?$output_processor@_WV?$string_output_adapter@_W@__crt_stdio_output@@V?$positional_parameter_base@_WV?$string_output_adapter@_W@__crt_stdio_output@@@2@@__crt_stdio_output@@AAE_NXZ 10058a60 f i libucrt:output.obj
 0001:00057a78       ?type_case_p@?$output_processor@_WV?$string_output_adapter@_W@__crt_stdio_output@@V?$standard_base@_WV?$string_output_adapter@_W@__crt_stdio_output@@@2@@__crt_stdio_output@@AAE_NXZ 10058a78 f i libucrt:output.obj
 0001:00057a90       ?type_case_s@?$output_processor@DV?$stream_output_adapter@D@__crt_stdio_output@@V?$format_validation_base@DV?$stream_output_adapter@D@__crt_stdio_output@@@2@@__crt_stdio_output@@AAE_NXZ 10058a90 f i libucrt:output.obj
 0001:00057b01       ?type_case_s@?$output_processor@DV?$stream_output_adapter@D@__crt_stdio_output@@V?$positional_parameter_base@DV?$stream_output_adapter@D@__crt_stdio_output@@@2@@__crt_stdio_output@@AAE_NXZ 10058b01 f i libucrt:output.obj
 0001:00057b7f       ?type_case_s@?$output_processor@DV?$stream_output_adapter@D@__crt_stdio_output@@V?$standard_base@DV?$stream_output_adapter@D@__crt_stdio_output@@@2@@__crt_stdio_output@@AAE_NXZ 10058b7f f i libucrt:output.obj
 0001:00057bf0       ?type_case_s@?$output_processor@DV?$string_output_adapter@D@__crt_stdio_output@@V?$format_validation_base@DV?$string_output_adapter@D@__crt_stdio_output@@@2@@__crt_stdio_output@@AAE_NXZ 10058bf0 f i libucrt:output.obj
 0001:00057c61       ?type_case_s@?$output_processor@DV?$string_output_adapter@D@__crt_stdio_output@@V?$positional_parameter_base@DV?$string_output_adapter@D@__crt_stdio_output@@@2@@__crt_stdio_output@@AAE_NXZ 10058c61 f i libucrt:output.obj
 0001:00057cdf       ?type_case_s@?$output_processor@DV?$string_output_adapter@D@__crt_stdio_output@@V?$standard_base@DV?$string_output_adapter@D@__crt_stdio_output@@@2@@__crt_stdio_output@@AAE_NXZ 10058cdf f i libucrt:output.obj
 0001:00057d50       ?type_case_s@?$output_processor@_WV?$stream_output_adapter@_W@__crt_stdio_output@@V?$format_validation_base@_WV?$stream_output_adapter@_W@__crt_stdio_output@@@2@@__crt_stdio_output@@AAE_NXZ 10058d50 f i libucrt:output.obj
 0001:00057dc3       ?type_case_s@?$output_processor@_WV?$stream_output_adapter@_W@__crt_stdio_output@@V?$positional_parameter_base@_WV?$stream_output_adapter@_W@__crt_stdio_output@@@2@@__crt_stdio_output@@AAE_NXZ 10058dc3 f i libucrt:output.obj
 0001:00057e43       ?type_case_s@?$output_processor@_WV?$stream_output_adapter@_W@__crt_stdio_output@@V?$standard_base@_WV?$stream_output_adapter@_W@__crt_stdio_output@@@2@@__crt_stdio_output@@AAE_NXZ 10058e43 f i libucrt:output.obj
 0001:00057eb6       ?type_case_s@?$output_processor@_WV?$string_output_adapter@_W@__crt_stdio_output@@V?$format_validation_base@_WV?$string_output_adapter@_W@__crt_stdio_output@@@2@@__crt_stdio_output@@AAE_NXZ 10058eb6 f i libucrt:output.obj
 0001:00057f29       ?type_case_s@?$output_processor@_WV?$string_output_adapter@_W@__crt_stdio_output@@V?$positional_parameter_base@_WV?$string_output_adapter@_W@__crt_stdio_output@@@2@@__crt_stdio_output@@AAE_NXZ 10058f29 f i libucrt:output.obj
 0001:00057fa9       ?type_case_s@?$output_processor@_WV?$string_output_adapter@_W@__crt_stdio_output@@V?$standard_base@_WV?$string_output_adapter@_W@__crt_stdio_output@@@2@@__crt_stdio_output@@AAE_NXZ 10058fa9 f i libucrt:output.obj
 0001:0005801c       ?type_case_s_compute_narrow_string_length@?$output_processor@DV?$stream_output_adapter@D@__crt_stdio_output@@V?$format_validation_base@DV?$stream_output_adapter@D@__crt_stdio_output@@@2@@__crt_stdio_output@@ABEHHD@Z 1005901c f i libucrt:output.obj
 0001:00058032       ?type_case_s_compute_narrow_string_length@?$output_processor@DV?$stream_output_adapter@D@__crt_stdio_output@@V?$positional_parameter_base@DV?$stream_output_adapter@D@__crt_stdio_output@@@2@@__crt_stdio_output@@ABEHHD@Z 10059032 f i libucrt:output.obj
 0001:00058048       ?type_case_s_compute_narrow_string_length@?$output_processor@DV?$stream_output_adapter@D@__crt_stdio_output@@V?$standard_base@DV?$stream_output_adapter@D@__crt_stdio_output@@@2@@__crt_stdio_output@@ABEHHD@Z 10059048 f i libucrt:output.obj
 0001:0005805e       ?type_case_s_compute_narrow_string_length@?$output_processor@DV?$string_output_adapter@D@__crt_stdio_output@@V?$format_validation_base@DV?$string_output_adapter@D@__crt_stdio_output@@@2@@__crt_stdio_output@@ABEHHD@Z 1005905e f i libucrt:output.obj
 0001:00058074       ?type_case_s_compute_narrow_string_length@?$output_processor@DV?$string_output_adapter@D@__crt_stdio_output@@V?$positional_parameter_base@DV?$string_output_adapter@D@__crt_stdio_output@@@2@@__crt_stdio_output@@ABEHHD@Z 10059074 f i libucrt:output.obj
 0001:0005808a       ?type_case_s_compute_narrow_string_length@?$output_processor@DV?$string_output_adapter@D@__crt_stdio_output@@V?$standard_base@DV?$string_output_adapter@D@__crt_stdio_output@@@2@@__crt_stdio_output@@ABEHHD@Z 1005908a f i libucrt:output.obj
 0001:000580a0       ?type_case_s_compute_narrow_string_length@?$output_processor@_WV?$stream_output_adapter@_W@__crt_stdio_output@@V?$format_validation_base@_WV?$stream_output_adapter@_W@__crt_stdio_output@@@2@@__crt_stdio_output@@ABEHH_W@Z 100590a0 f i libucrt:output.obj
 0001:000580e7       ?type_case_s_compute_narrow_string_length@?$output_processor@_WV?$stream_output_adapter@_W@__crt_stdio_output@@V?$positional_parameter_base@_WV?$stream_output_adapter@_W@__crt_stdio_output@@@2@@__crt_stdio_output@@ABEHH_W@Z 100590e7 f i libucrt:output.obj
 0001:0005812e       ?type_case_s_compute_narrow_string_length@?$output_processor@_WV?$stream_output_adapter@_W@__crt_stdio_output@@V?$standard_base@_WV?$stream_output_adapter@_W@__crt_stdio_output@@@2@@__crt_stdio_output@@ABEHH_W@Z 1005912e f i libucrt:output.obj
 0001:00058175       ?type_case_s_compute_narrow_string_length@?$output_processor@_WV?$string_output_adapter@_W@__crt_stdio_output@@V?$format_validation_base@_WV?$string_output_adapter@_W@__crt_stdio_output@@@2@@__crt_stdio_output@@ABEHH_W@Z 10059175 f i libucrt:output.obj
 0001:000581bc       ?type_case_s_compute_narrow_string_length@?$output_processor@_WV?$string_output_adapter@_W@__crt_stdio_output@@V?$positional_parameter_base@_WV?$string_output_adapter@_W@__crt_stdio_output@@@2@@__crt_stdio_output@@ABEHH_W@Z 100591bc f i libucrt:output.obj
 0001:00058203       ?type_case_s_compute_narrow_string_length@?$output_processor@_WV?$string_output_adapter@_W@__crt_stdio_output@@V?$standard_base@_WV?$string_output_adapter@_W@__crt_stdio_output@@@2@@__crt_stdio_output@@ABEHH_W@Z 10059203 f i libucrt:output.obj
 0001:0005824a       ?type_case_u@?$output_processor@DV?$stream_output_adapter@D@__crt_stdio_output@@V?$format_validation_base@DV?$stream_output_adapter@D@__crt_stdio_output@@@2@@__crt_stdio_output@@AAE_NXZ 1005924a f i libucrt:output.obj
 0001:00058254       ?type_case_u@?$output_processor@DV?$stream_output_adapter@D@__crt_stdio_output@@V?$positional_parameter_base@DV?$stream_output_adapter@D@__crt_stdio_output@@@2@@__crt_stdio_output@@AAE_NXZ 10059254 f i libucrt:output.obj
 0001:0005825e       ?type_case_u@?$output_processor@DV?$stream_output_adapter@D@__crt_stdio_output@@V?$standard_base@DV?$stream_output_adapter@D@__crt_stdio_output@@@2@@__crt_stdio_output@@AAE_NXZ 1005925e f i libucrt:output.obj
 0001:00058268       ?type_case_u@?$output_processor@DV?$string_output_adapter@D@__crt_stdio_output@@V?$format_validation_base@DV?$string_output_adapter@D@__crt_stdio_output@@@2@@__crt_stdio_output@@AAE_NXZ 10059268 f i libucrt:output.obj
 0001:00058272       ?type_case_u@?$output_processor@DV?$string_output_adapter@D@__crt_stdio_output@@V?$positional_parameter_base@DV?$string_output_adapter@D@__crt_stdio_output@@@2@@__crt_stdio_output@@AAE_NXZ 10059272 f i libucrt:output.obj
 0001:0005827c       ?type_case_u@?$output_processor@DV?$string_output_adapter@D@__crt_stdio_output@@V?$standard_base@DV?$string_output_adapter@D@__crt_stdio_output@@@2@@__crt_stdio_output@@AAE_NXZ 1005927c f i libucrt:output.obj
 0001:00058286       ?type_case_u@?$output_processor@_WV?$stream_output_adapter@_W@__crt_stdio_output@@V?$format_validation_base@_WV?$stream_output_adapter@_W@__crt_stdio_output@@@2@@__crt_stdio_output@@AAE_NXZ 10059286 f i libucrt:output.obj
 0001:00058290       ?type_case_u@?$output_processor@_WV?$stream_output_adapter@_W@__crt_stdio_output@@V?$positional_parameter_base@_WV?$stream_output_adapter@_W@__crt_stdio_output@@@2@@__crt_stdio_output@@AAE_NXZ 10059290 f i libucrt:output.obj
 0001:0005829a       ?type_case_u@?$output_processor@_WV?$stream_output_adapter@_W@__crt_stdio_output@@V?$standard_base@_WV?$stream_output_adapter@_W@__crt_stdio_output@@@2@@__crt_stdio_output@@AAE_NXZ 1005929a f i libucrt:output.obj
 0001:000582a4       ?type_case_u@?$output_processor@_WV?$string_output_adapter@_W@__crt_stdio_output@@V?$format_validation_base@_WV?$string_output_adapter@_W@__crt_stdio_output@@@2@@__crt_stdio_output@@AAE_NXZ 100592a4 f i libucrt:output.obj
 0001:000582ae       ?type_case_u@?$output_processor@_WV?$string_output_adapter@_W@__crt_stdio_output@@V?$positional_parameter_base@_WV?$string_output_adapter@_W@__crt_stdio_output@@@2@@__crt_stdio_output@@AAE_NXZ 100592ae f i libucrt:output.obj
 0001:000582b8       ?type_case_u@?$output_processor@_WV?$string_output_adapter@_W@__crt_stdio_output@@V?$standard_base@_WV?$string_output_adapter@_W@__crt_stdio_output@@@2@@__crt_stdio_output@@AAE_NXZ 100592b8 f i libucrt:output.obj
 0001:000582c2       ?type_case_x@?$output_processor@DV?$stream_output_adapter@D@__crt_stdio_output@@V?$format_validation_base@DV?$stream_output_adapter@D@__crt_stdio_output@@@2@@__crt_stdio_output@@AAE_NXZ 100592c2 f i libucrt:output.obj
 0001:000582cc       ?type_case_x@?$output_processor@DV?$stream_output_adapter@D@__crt_stdio_output@@V?$positional_parameter_base@DV?$stream_output_adapter@D@__crt_stdio_output@@@2@@__crt_stdio_output@@AAE_NXZ 100592cc f i libucrt:output.obj
 0001:000582d6       ?type_case_x@?$output_processor@DV?$stream_output_adapter@D@__crt_stdio_output@@V?$standard_base@DV?$stream_output_adapter@D@__crt_stdio_output@@@2@@__crt_stdio_output@@AAE_NXZ 100592d6 f i libucrt:output.obj
 0001:000582e0       ?type_case_x@?$output_processor@DV?$string_output_adapter@D@__crt_stdio_output@@V?$format_validation_base@DV?$string_output_adapter@D@__crt_stdio_output@@@2@@__crt_stdio_output@@AAE_NXZ 100592e0 f i libucrt:output.obj
 0001:000582ea       ?type_case_x@?$output_processor@DV?$string_output_adapter@D@__crt_stdio_output@@V?$positional_parameter_base@DV?$string_output_adapter@D@__crt_stdio_output@@@2@@__crt_stdio_output@@AAE_NXZ 100592ea f i libucrt:output.obj
 0001:000582f4       ?type_case_x@?$output_processor@DV?$string_output_adapter@D@__crt_stdio_output@@V?$standard_base@DV?$string_output_adapter@D@__crt_stdio_output@@@2@@__crt_stdio_output@@AAE_NXZ 100592f4 f i libucrt:output.obj
 0001:000582fe       ?type_case_x@?$output_processor@_WV?$stream_output_adapter@_W@__crt_stdio_output@@V?$format_validation_base@_WV?$stream_output_adapter@_W@__crt_stdio_output@@@2@@__crt_stdio_output@@AAE_NXZ 100592fe f i libucrt:output.obj
 0001:00058308       ?type_case_x@?$output_processor@_WV?$stream_output_adapter@_W@__crt_stdio_output@@V?$positional_parameter_base@_WV?$stream_output_adapter@_W@__crt_stdio_output@@@2@@__crt_stdio_output@@AAE_NXZ 10059308 f i libucrt:output.obj
 0001:00058312       ?type_case_x@?$output_processor@_WV?$stream_output_adapter@_W@__crt_stdio_output@@V?$standard_base@_WV?$stream_output_adapter@_W@__crt_stdio_output@@@2@@__crt_stdio_output@@AAE_NXZ 10059312 f i libucrt:output.obj
 0001:0005831c       ?type_case_x@?$output_processor@_WV?$string_output_adapter@_W@__crt_stdio_output@@V?$format_validation_base@_WV?$string_output_adapter@_W@__crt_stdio_output@@@2@@__crt_stdio_output@@AAE_NXZ 1005931c f i libucrt:output.obj
 0001:00058326       ?type_case_x@?$output_processor@_WV?$string_output_adapter@_W@__crt_stdio_output@@V?$positional_parameter_base@_WV?$string_output_adapter@_W@__crt_stdio_output@@@2@@__crt_stdio_output@@AAE_NXZ 10059326 f i libucrt:output.obj
 0001:00058330       ?type_case_x@?$output_processor@_WV?$string_output_adapter@_W@__crt_stdio_output@@V?$standard_base@_WV?$string_output_adapter@_W@__crt_stdio_output@@@2@@__crt_stdio_output@@AAE_NXZ 10059330 f i libucrt:output.obj
 0001:0005833a       ?unset_flag@?$output_processor@DV?$stream_output_adapter@D@__crt_stdio_output@@V?$format_validation_base@DV?$stream_output_adapter@D@__crt_stdio_output@@@2@@__crt_stdio_output@@AAEXI@Z 1005933a f i libucrt:output.obj
 0001:0005834b       ?unset_flag@?$output_processor@DV?$stream_output_adapter@D@__crt_stdio_output@@V?$positional_parameter_base@DV?$stream_output_adapter@D@__crt_stdio_output@@@2@@__crt_stdio_output@@AAEXI@Z 1005934b f i libucrt:output.obj
 0001:0005835c       ?unset_flag@?$output_processor@DV?$stream_output_adapter@D@__crt_stdio_output@@V?$standard_base@DV?$stream_output_adapter@D@__crt_stdio_output@@@2@@__crt_stdio_output@@AAEXI@Z 1005935c f i libucrt:output.obj
 0001:0005836d       ?unset_flag@?$output_processor@DV?$string_output_adapter@D@__crt_stdio_output@@V?$format_validation_base@DV?$string_output_adapter@D@__crt_stdio_output@@@2@@__crt_stdio_output@@AAEXI@Z 1005936d f i libucrt:output.obj
 0001:0005837e       ?unset_flag@?$output_processor@DV?$string_output_adapter@D@__crt_stdio_output@@V?$positional_parameter_base@DV?$string_output_adapter@D@__crt_stdio_output@@@2@@__crt_stdio_output@@AAEXI@Z 1005937e f i libucrt:output.obj
 0001:0005838f       ?unset_flag@?$output_processor@DV?$string_output_adapter@D@__crt_stdio_output@@V?$standard_base@DV?$string_output_adapter@D@__crt_stdio_output@@@2@@__crt_stdio_output@@AAEXI@Z 1005938f f i libucrt:output.obj
 0001:000583a0       ?unset_flag@?$output_processor@_WV?$stream_output_adapter@_W@__crt_stdio_output@@V?$format_validation_base@_WV?$stream_output_adapter@_W@__crt_stdio_output@@@2@@__crt_stdio_output@@AAEXI@Z 100593a0 f i libucrt:output.obj
 0001:000583b1       ?unset_flag@?$output_processor@_WV?$stream_output_adapter@_W@__crt_stdio_output@@V?$positional_parameter_base@_WV?$stream_output_adapter@_W@__crt_stdio_output@@@2@@__crt_stdio_output@@AAEXI@Z 100593b1 f i libucrt:output.obj
 0001:000583c2       ?unset_flag@?$output_processor@_WV?$stream_output_adapter@_W@__crt_stdio_output@@V?$standard_base@_WV?$stream_output_adapter@_W@__crt_stdio_output@@@2@@__crt_stdio_output@@AAEXI@Z 100593c2 f i libucrt:output.obj
 0001:000583d3       ?unset_flag@?$output_processor@_WV?$string_output_adapter@_W@__crt_stdio_output@@V?$format_validation_base@_WV?$string_output_adapter@_W@__crt_stdio_output@@@2@@__crt_stdio_output@@AAEXI@Z 100593d3 f i libucrt:output.obj
 0001:000583e4       ?unset_flag@?$output_processor@_WV?$string_output_adapter@_W@__crt_stdio_output@@V?$positional_parameter_base@_WV?$string_output_adapter@_W@__crt_stdio_output@@@2@@__crt_stdio_output@@AAEXI@Z 100593e4 f i libucrt:output.obj
 0001:000583f5       ?unset_flag@?$output_processor@_WV?$string_output_adapter@_W@__crt_stdio_output@@V?$standard_base@_WV?$string_output_adapter@_W@__crt_stdio_output@@@2@@__crt_stdio_output@@AAEXI@Z 100593f5 f i libucrt:output.obj
 0001:00058406       ?update_field_width@?$positional_parameter_base@DV?$stream_output_adapter@D@__crt_stdio_output@@@__crt_stdio_output@@IAE_NXZ 10059406 f i libucrt:output.obj
 0001:000584ba       ?update_field_width@?$positional_parameter_base@DV?$string_output_adapter@D@__crt_stdio_output@@@__crt_stdio_output@@IAE_NXZ 100594ba f i libucrt:output.obj
 0001:0005856e       ?update_field_width@?$positional_parameter_base@_WV?$stream_output_adapter@_W@__crt_stdio_output@@@__crt_stdio_output@@IAE_NXZ 1005956e f i libucrt:output.obj
 0001:00058623       ?update_field_width@?$positional_parameter_base@_WV?$string_output_adapter@_W@__crt_stdio_output@@@__crt_stdio_output@@IAE_NXZ 10059623 f i libucrt:output.obj
 0001:000586d8       ?update_field_width@?$standard_base@DV?$stream_output_adapter@D@__crt_stdio_output@@@__crt_stdio_output@@IAE_NXZ 100596d8 f i libucrt:output.obj
 0001:000586e8       ?update_field_width@?$standard_base@DV?$string_output_adapter@D@__crt_stdio_output@@@__crt_stdio_output@@IAE_NXZ 100596e8 f i libucrt:output.obj
 0001:000586f8       ?update_field_width@?$standard_base@_WV?$stream_output_adapter@_W@__crt_stdio_output@@@__crt_stdio_output@@IAE_NXZ 100596f8 f i libucrt:output.obj
 0001:00058708       ?update_field_width@?$standard_base@_WV?$string_output_adapter@_W@__crt_stdio_output@@@__crt_stdio_output@@IAE_NXZ 10059708 f i libucrt:output.obj
 0001:00058718       ?update_precision@?$positional_parameter_base@DV?$stream_output_adapter@D@__crt_stdio_output@@@__crt_stdio_output@@IAE_NXZ 10059718 f i libucrt:output.obj
 0001:000587cc       ?update_precision@?$positional_parameter_base@DV?$string_output_adapter@D@__crt_stdio_output@@@__crt_stdio_output@@IAE_NXZ 100597cc f i libucrt:output.obj
 0001:00058880       ?update_precision@?$positional_parameter_base@_WV?$stream_output_adapter@_W@__crt_stdio_output@@@__crt_stdio_output@@IAE_NXZ 10059880 f i libucrt:output.obj
 0001:00058935       ?update_precision@?$positional_parameter_base@_WV?$string_output_adapter@_W@__crt_stdio_output@@@__crt_stdio_output@@IAE_NXZ 10059935 f i libucrt:output.obj
 0001:000589ea       ?update_precision@?$standard_base@DV?$stream_output_adapter@D@__crt_stdio_output@@@__crt_stdio_output@@IAE_NXZ 100599ea f i libucrt:output.obj
 0001:000589fa       ?update_precision@?$standard_base@DV?$string_output_adapter@D@__crt_stdio_output@@@__crt_stdio_output@@IAE_NXZ 100599fa f i libucrt:output.obj
 0001:00058a0a       ?update_precision@?$standard_base@_WV?$stream_output_adapter@_W@__crt_stdio_output@@@__crt_stdio_output@@IAE_NXZ 10059a0a f i libucrt:output.obj
 0001:00058a1a       ?update_precision@?$standard_base@_WV?$string_output_adapter@_W@__crt_stdio_output@@@__crt_stdio_output@@IAE_NXZ 10059a1a f i libucrt:output.obj
 0001:00058a2a       ?valid@__crt_stdio_stream@@QBE_NXZ 10059a2a f i libucrt:output.obj
 0001:00058a31       ?validate@?$stream_output_adapter@D@__crt_stdio_output@@QBE_NXZ 10059a31 f i libucrt:output.obj
 0001:00058a52       ?validate@?$stream_output_adapter@_W@__crt_stdio_output@@QBE_NXZ 10059a52 f i libucrt:output.obj
 0001:00058a6d       ?validate@?$string_output_adapter@D@__crt_stdio_output@@QBE_NXZ 10059a6d f i libucrt:output.obj
 0001:00058a88       ?validate@?$string_output_adapter@_W@__crt_stdio_output@@QBE_NXZ 10059a88 f i libucrt:output.obj
 0001:00058aa3       ?validate_and_store_parameter_data@?$positional_parameter_base@DV?$stream_output_adapter@D@__crt_stdio_output@@@__crt_stdio_output@@AAE_NAAUparameter_data@12@W4parameter_type@12@DW4length_modifier@2@@Z 10059aa3 f i libucrt:output.obj
 0001:00058aee       ?validate_and_store_parameter_data@?$positional_parameter_base@DV?$string_output_adapter@D@__crt_stdio_output@@@__crt_stdio_output@@AAE_NAAUparameter_data@12@W4parameter_type@12@DW4length_modifier@2@@Z 10059aee f i libucrt:output.obj
 0001:00058b39       ?validate_and_store_parameter_data@?$positional_parameter_base@_WV?$stream_output_adapter@_W@__crt_stdio_output@@@__crt_stdio_output@@AAE_NAAUparameter_data@12@W4parameter_type@12@_WW4length_modifier@2@@Z 10059b39 f i libucrt:output.obj
 0001:00058b86       ?validate_and_store_parameter_data@?$positional_parameter_base@_WV?$string_output_adapter@_W@__crt_stdio_output@@@__crt_stdio_output@@AAE_NAAUparameter_data@12@W4parameter_type@12@_WW4length_modifier@2@@Z 10059b86 f i libucrt:output.obj
 0001:00058bd3       ?validate_and_update_state_at_beginning_of_format_character@?$positional_parameter_base@DV?$stream_output_adapter@D@__crt_stdio_output@@@__crt_stdio_output@@IAE_NXZ 10059bd3 f i libucrt:output.obj
 0001:00058ccb       ?validate_and_update_state_at_beginning_of_format_character@?$positional_parameter_base@DV?$string_output_adapter@D@__crt_stdio_output@@@__crt_stdio_output@@IAE_NXZ 10059ccb f i libucrt:output.obj
 0001:00058dc3       ?validate_and_update_state_at_beginning_of_format_character@?$positional_parameter_base@_WV?$stream_output_adapter@_W@__crt_stdio_output@@@__crt_stdio_output@@IAE_NXZ 10059dc3 f i libucrt:output.obj
 0001:00058ec4       ?validate_and_update_state_at_beginning_of_format_character@?$positional_parameter_base@_WV?$string_output_adapter@_W@__crt_stdio_output@@@__crt_stdio_output@@IAE_NXZ 10059ec4 f i libucrt:output.obj
 0001:00058fc5       ?validate_and_update_state_at_beginning_of_format_character@?$standard_base@DV?$stream_output_adapter@D@__crt_stdio_output@@@__crt_stdio_output@@IAE_NXZ 10059fc5 f i libucrt:output.obj
 0001:00058fc8       ?validate_and_update_state_at_beginning_of_format_character@?$standard_base@DV?$string_output_adapter@D@__crt_stdio_output@@@__crt_stdio_output@@IAE_NXZ 10059fc8 f i libucrt:output.obj
 0001:00058fcb       ?validate_and_update_state_at_beginning_of_format_character@?$standard_base@_WV?$stream_output_adapter@_W@__crt_stdio_output@@@__crt_stdio_output@@IAE_NXZ 10059fcb f i libucrt:output.obj
 0001:00058fce       ?validate_and_update_state_at_beginning_of_format_character@?$standard_base@_WV?$string_output_adapter@_W@__crt_stdio_output@@@__crt_stdio_output@@IAE_NXZ 10059fce f i libucrt:output.obj
 0001:00058fd1       ?validate_and_update_state_at_end_of_format_string@?$format_validation_base@DV?$stream_output_adapter@D@__crt_stdio_output@@@__crt_stdio_output@@IBE_NXZ 10059fd1 f i libucrt:output.obj
 0001:00058ff3       ?validate_and_update_state_at_end_of_format_string@?$format_validation_base@DV?$string_output_adapter@D@__crt_stdio_output@@@__crt_stdio_output@@IBE_NXZ 10059ff3 f i libucrt:output.obj
 0001:00059015       ?validate_and_update_state_at_end_of_format_string@?$format_validation_base@_WV?$stream_output_adapter@_W@__crt_stdio_output@@@__crt_stdio_output@@IBE_NXZ 1005a015 f i libucrt:output.obj
 0001:00059037       ?validate_and_update_state_at_end_of_format_string@?$format_validation_base@_WV?$string_output_adapter@_W@__crt_stdio_output@@@__crt_stdio_output@@IBE_NXZ 1005a037 f i libucrt:output.obj
 0001:00059059       ?validate_and_update_state_at_end_of_format_string@?$positional_parameter_base@DV?$stream_output_adapter@D@__crt_stdio_output@@@__crt_stdio_output@@IAE_NXZ 1005a059 f i libucrt:output.obj
 0001:000590e9       ?validate_and_update_state_at_end_of_format_string@?$positional_parameter_base@DV?$string_output_adapter@D@__crt_stdio_output@@@__crt_stdio_output@@IAE_NXZ 1005a0e9 f i libucrt:output.obj
 0001:00059179       ?validate_and_update_state_at_end_of_format_string@?$positional_parameter_base@_WV?$stream_output_adapter@_W@__crt_stdio_output@@@__crt_stdio_output@@IAE_NXZ 1005a179 f i libucrt:output.obj
 0001:00059209       ?validate_and_update_state_at_end_of_format_string@?$positional_parameter_base@_WV?$string_output_adapter@_W@__crt_stdio_output@@@__crt_stdio_output@@IAE_NXZ 1005a209 f i libucrt:output.obj
 0001:00059299       ?validate_and_update_state_at_end_of_format_string@?$standard_base@DV?$stream_output_adapter@D@__crt_stdio_output@@@__crt_stdio_output@@IBE_NXZ 1005a299 f i libucrt:output.obj
 0001:0005929c       ?validate_and_update_state_at_end_of_format_string@?$standard_base@DV?$string_output_adapter@D@__crt_stdio_output@@@__crt_stdio_output@@IBE_NXZ 1005a29c f i libucrt:output.obj
 0001:0005929f       ?validate_and_update_state_at_end_of_format_string@?$standard_base@_WV?$stream_output_adapter@_W@__crt_stdio_output@@@__crt_stdio_output@@IBE_NXZ 1005a29f f i libucrt:output.obj
 0001:000592a2       ?validate_and_update_state_at_end_of_format_string@?$standard_base@_WV?$string_output_adapter@_W@__crt_stdio_output@@@__crt_stdio_output@@IBE_NXZ 1005a2a2 f i libucrt:output.obj
 0001:000592a5       ?validate_state_for_type_case_a@?$positional_parameter_base@DV?$stream_output_adapter@D@__crt_stdio_output@@@__crt_stdio_output@@IAE_NXZ 1005a2a5 f i libucrt:output.obj
 0001:000592f4       ?validate_state_for_type_case_a@?$positional_parameter_base@DV?$string_output_adapter@D@__crt_stdio_output@@@__crt_stdio_output@@IAE_NXZ 1005a2f4 f i libucrt:output.obj
 0001:00059343       ?validate_state_for_type_case_a@?$positional_parameter_base@_WV?$stream_output_adapter@_W@__crt_stdio_output@@@__crt_stdio_output@@IAE_NXZ 1005a343 f i libucrt:output.obj
 0001:00059392       ?validate_state_for_type_case_a@?$positional_parameter_base@_WV?$string_output_adapter@_W@__crt_stdio_output@@@__crt_stdio_output@@IAE_NXZ 1005a392 f i libucrt:output.obj
 0001:000593e1       ?validate_state_for_type_case_a@?$standard_base@DV?$stream_output_adapter@D@__crt_stdio_output@@@__crt_stdio_output@@IBE_NXZ 1005a3e1 f i libucrt:output.obj
 0001:000593e4       ?validate_state_for_type_case_a@?$standard_base@DV?$string_output_adapter@D@__crt_stdio_output@@@__crt_stdio_output@@IBE_NXZ 1005a3e4 f i libucrt:output.obj
 0001:000593e7       ?validate_state_for_type_case_a@?$standard_base@_WV?$stream_output_adapter@_W@__crt_stdio_output@@@__crt_stdio_output@@IBE_NXZ 1005a3e7 f i libucrt:output.obj
 0001:000593ea       ?validate_state_for_type_case_a@?$standard_base@_WV?$string_output_adapter@_W@__crt_stdio_output@@@__crt_stdio_output@@IBE_NXZ 1005a3ea f i libucrt:output.obj
 0001:000593ed       ?validate_stream_is_ansi_if_required@?$__acrt_stdio_char_traits@D@@SA_NQAU_iobuf@@@Z 1005a3ed f i libucrt:output.obj
 0001:00059474       ?validate_stream_is_ansi_if_required@?$__acrt_stdio_char_traits@_W@@SA_NQAU_iobuf@@@Z 1005a474 f i libucrt:output.obj
 0001:00059477       ?wide_null_string@?$output_processor@DV?$stream_output_adapter@D@__crt_stdio_output@@V?$format_validation_base@DV?$stream_output_adapter@D@__crt_stdio_output@@@2@@__crt_stdio_output@@CAPA_WXZ 1005a477 f i libucrt:output.obj
 0001:0005947d       ?wide_null_string@?$output_processor@DV?$stream_output_adapter@D@__crt_stdio_output@@V?$positional_parameter_base@DV?$stream_output_adapter@D@__crt_stdio_output@@@2@@__crt_stdio_output@@CAPA_WXZ 1005a47d f i libucrt:output.obj
 0001:00059483       ?wide_null_string@?$output_processor@DV?$stream_output_adapter@D@__crt_stdio_output@@V?$standard_base@DV?$stream_output_adapter@D@__crt_stdio_output@@@2@@__crt_stdio_output@@CAPA_WXZ 1005a483 f i libucrt:output.obj
 0001:00059489       ?wide_null_string@?$output_processor@DV?$string_output_adapter@D@__crt_stdio_output@@V?$format_validation_base@DV?$string_output_adapter@D@__crt_stdio_output@@@2@@__crt_stdio_output@@CAPA_WXZ 1005a489 f i libucrt:output.obj
 0001:0005948f       ?wide_null_string@?$output_processor@DV?$string_output_adapter@D@__crt_stdio_output@@V?$positional_parameter_base@DV?$string_output_adapter@D@__crt_stdio_output@@@2@@__crt_stdio_output@@CAPA_WXZ 1005a48f f i libucrt:output.obj
 0001:00059495       ?wide_null_string@?$output_processor@DV?$string_output_adapter@D@__crt_stdio_output@@V?$standard_base@DV?$string_output_adapter@D@__crt_stdio_output@@@2@@__crt_stdio_output@@CAPA_WXZ 1005a495 f i libucrt:output.obj
 0001:0005949b       ?wide_null_string@?$output_processor@_WV?$stream_output_adapter@_W@__crt_stdio_output@@V?$format_validation_base@_WV?$stream_output_adapter@_W@__crt_stdio_output@@@2@@__crt_stdio_output@@CAPA_WXZ 1005a49b f i libucrt:output.obj
 0001:000594a1       ?wide_null_string@?$output_processor@_WV?$stream_output_adapter@_W@__crt_stdio_output@@V?$positional_parameter_base@_WV?$stream_output_adapter@_W@__crt_stdio_output@@@2@@__crt_stdio_output@@CAPA_WXZ 1005a4a1 f i libucrt:output.obj
 0001:000594a7       ?wide_null_string@?$output_processor@_WV?$stream_output_adapter@_W@__crt_stdio_output@@V?$standard_base@_WV?$stream_output_adapter@_W@__crt_stdio_output@@@2@@__crt_stdio_output@@CAPA_WXZ 1005a4a7 f i libucrt:output.obj
 0001:000594ad       ?wide_null_string@?$output_processor@_WV?$string_output_adapter@_W@__crt_stdio_output@@V?$format_validation_base@_WV?$string_output_adapter@_W@__crt_stdio_output@@@2@@__crt_stdio_output@@CAPA_WXZ 1005a4ad f i libucrt:output.obj
 0001:000594b3       ?wide_null_string@?$output_processor@_WV?$string_output_adapter@_W@__crt_stdio_output@@V?$positional_parameter_base@_WV?$string_output_adapter@_W@__crt_stdio_output@@@2@@__crt_stdio_output@@CAPA_WXZ 1005a4b3 f i libucrt:output.obj
 0001:000594b9       ?wide_null_string@?$output_processor@_WV?$string_output_adapter@_W@__crt_stdio_output@@V?$standard_base@_WV?$string_output_adapter@_W@__crt_stdio_output@@@2@@__crt_stdio_output@@CAPA_WXZ 1005a4b9 f i libucrt:output.obj
 0001:000594bf       ?write_character@?$output_adapter_common@DV?$stream_output_adapter@D@__crt_stdio_output@@@__crt_stdio_output@@QBEXDQAH@Z 1005a4bf f i libucrt:output.obj
 0001:000594de       ?write_character@?$output_adapter_common@_WV?$stream_output_adapter@_W@__crt_stdio_output@@@__crt_stdio_output@@QBEX_WQAH@Z 1005a4de f i libucrt:output.obj
 0001:000594fd       ?write_character@?$string_output_adapter@D@__crt_stdio_output@@QBE_NDQAH@Z 1005a4fd f i libucrt:output.obj
 0001:0005953f       ?write_character@?$string_output_adapter@_W@__crt_stdio_output@@QBE_N_WQAH@Z 1005a53f f i libucrt:output.obj
 0001:00059584       ?write_character_without_count_update@?$stream_output_adapter@D@__crt_stdio_output@@QBE_ND@Z 1005a584 f i libucrt:output.obj
 0001:000595ba       ?write_character_without_count_update@?$stream_output_adapter@_W@__crt_stdio_output@@QBE_N_W@Z 1005a5ba f i libucrt:output.obj
 0001:000595f3       ?write_stored_string_tchar@?$output_processor@DV?$stream_output_adapter@D@__crt_stdio_output@@V?$format_validation_base@DV?$stream_output_adapter@D@__crt_stdio_output@@@2@@__crt_stdio_output@@AAE_ND@Z 1005a5f3 f i libucrt:output.obj
 0001:00059698       ?write_stored_string_tchar@?$output_processor@DV?$stream_output_adapter@D@__crt_stdio_output@@V?$positional_parameter_base@DV?$stream_output_adapter@D@__crt_stdio_output@@@2@@__crt_stdio_output@@AAE_ND@Z 1005a698 f i libucrt:output.obj
 0001:0005973d       ?write_stored_string_tchar@?$output_processor@DV?$stream_output_adapter@D@__crt_stdio_output@@V?$standard_base@DV?$stream_output_adapter@D@__crt_stdio_output@@@2@@__crt_stdio_output@@AAE_ND@Z 1005a73d f i libucrt:output.obj
 0001:000597e2       ?write_stored_string_tchar@?$output_processor@DV?$string_output_adapter@D@__crt_stdio_output@@V?$format_validation_base@DV?$string_output_adapter@D@__crt_stdio_output@@@2@@__crt_stdio_output@@AAE_ND@Z 1005a7e2 f i libucrt:output.obj
 0001:00059887       ?write_stored_string_tchar@?$output_processor@DV?$string_output_adapter@D@__crt_stdio_output@@V?$positional_parameter_base@DV?$string_output_adapter@D@__crt_stdio_output@@@2@@__crt_stdio_output@@AAE_ND@Z 1005a887 f i libucrt:output.obj
 0001:0005992c       ?write_stored_string_tchar@?$output_processor@DV?$string_output_adapter@D@__crt_stdio_output@@V?$standard_base@DV?$string_output_adapter@D@__crt_stdio_output@@@2@@__crt_stdio_output@@AAE_ND@Z 1005a92c f i libucrt:output.obj
 0001:000599d1       ?write_stored_string_tchar@?$output_processor@_WV?$stream_output_adapter@_W@__crt_stdio_output@@V?$format_validation_base@_WV?$stream_output_adapter@_W@__crt_stdio_output@@@2@@__crt_stdio_output@@AAE_N_W@Z 1005a9d1 f i libucrt:output.obj
 0001:00059a5e       ?write_stored_string_tchar@?$output_processor@_WV?$stream_output_adapter@_W@__crt_stdio_output@@V?$positional_parameter_base@_WV?$stream_output_adapter@_W@__crt_stdio_output@@@2@@__crt_stdio_output@@AAE_N_W@Z 1005aa5e f i libucrt:output.obj
 0001:00059aeb       ?write_stored_string_tchar@?$output_processor@_WV?$stream_output_adapter@_W@__crt_stdio_output@@V?$standard_base@_WV?$stream_output_adapter@_W@__crt_stdio_output@@@2@@__crt_stdio_output@@AAE_N_W@Z 1005aaeb f i libucrt:output.obj
 0001:00059b78       ?write_stored_string_tchar@?$output_processor@_WV?$string_output_adapter@_W@__crt_stdio_output@@V?$format_validation_base@_WV?$string_output_adapter@_W@__crt_stdio_output@@@2@@__crt_stdio_output@@AAE_N_W@Z 1005ab78 f i libucrt:output.obj
 0001:00059c05       ?write_stored_string_tchar@?$output_processor@_WV?$string_output_adapter@_W@__crt_stdio_output@@V?$positional_parameter_base@_WV?$string_output_adapter@_W@__crt_stdio_output@@@2@@__crt_stdio_output@@AAE_N_W@Z 1005ac05 f i libucrt:output.obj
 0001:00059c92       ?write_stored_string_tchar@?$output_processor@_WV?$string_output_adapter@_W@__crt_stdio_output@@V?$standard_base@_WV?$string_output_adapter@_W@__crt_stdio_output@@@2@@__crt_stdio_output@@AAE_N_W@Z 1005ac92 f i libucrt:output.obj
 0001:00059d1f       ?write_string@?$stream_output_adapter@D@__crt_stdio_output@@QBEXQBDHQAHAAV__crt_deferred_errno_cache@@@Z 1005ad1f f i libucrt:output.obj
 0001:00059d4b       ?write_string@?$stream_output_adapter@_W@__crt_stdio_output@@QBEXQB_WHQAHAAV__crt_deferred_errno_cache@@@Z 1005ad4b f i libucrt:output.obj
 0001:00059d77       ?write_string@?$string_output_adapter@D@__crt_stdio_output@@QBEXQBDHQAHAAV__crt_deferred_errno_cache@@@Z 1005ad77 f i libucrt:output.obj
 0001:00059dde       ?write_string@?$string_output_adapter@_W@__crt_stdio_output@@QBEXQB_WHQAHAAV__crt_deferred_errno_cache@@@Z 1005adde f i libucrt:output.obj
 0001:00059e4f       ?write_string_impl@?$output_adapter_common@DV?$stream_output_adapter@D@__crt_stdio_output@@@__crt_stdio_output@@IBEXQBDHQAHAAV__crt_deferred_errno_cache@@@Z 1005ae4f f i libucrt:output.obj
 0001:00059eed       ?write_string_impl@?$output_adapter_common@_WV?$stream_output_adapter@_W@__crt_stdio_output@@@__crt_stdio_output@@IBEXQB_WHQAHAAV__crt_deferred_errno_cache@@@Z 1005aeed f i libucrt:output.obj
 0001:00059f8e       ___acrt_disable_global_locale_sync 1005af8e f i libucrt:output.obj
 0001:00059fa1       ___acrt_enable_global_locale_sync 1005afa1 f i libucrt:output.obj
 0001:00059fb6       ___acrt_isleadbyte_l_noupdate 1005afb6 f i libucrt:output.obj
 0001:00059fd4       ___acrt_locale_changed     1005afd4 f i libucrt:output.obj
 0001:00059fdf       ___acrt_locale_get_ctype_array_value 1005afdf f i libucrt:output.obj
 0001:0005a001       ___stdio_common_vfprintf   1005b001 f   libucrt:output.obj
 0001:0005a084       ___stdio_common_vfprintf_p 1005b084 f   libucrt:output.obj
 0001:0005a107       ___stdio_common_vfprintf_s 1005b107 f   libucrt:output.obj
 0001:0005a18a       ___stdio_common_vfwprintf  1005b18a f   libucrt:output.obj
 0001:0005a20d       ___stdio_common_vfwprintf_p 1005b20d f   libucrt:output.obj
 0001:0005a290       ___stdio_common_vfwprintf_s 1005b290 f   libucrt:output.obj
 0001:0005a313       ___stdio_common_vsnprintf_s 1005b313 f   libucrt:output.obj
 0001:0005a33a       ___stdio_common_vsnwprintf_s 1005b33a f   libucrt:output.obj
 0001:0005a361       ___stdio_common_vsprintf   1005b361 f   libucrt:output.obj
 0001:0005a385       ___stdio_common_vsprintf_p 1005b385 f   libucrt:output.obj
 0001:0005a3a9       ___stdio_common_vsprintf_s 1005b3a9 f   libucrt:output.obj
 0001:0005a3cd       ___stdio_common_vswprintf  1005b3cd f   libucrt:output.obj
 0001:0005a3f1       ___stdio_common_vswprintf_p 1005b3f1 f   libucrt:output.obj
 0001:0005a415       ___stdio_common_vswprintf_s 1005b415 f   libucrt:output.obj
 0001:0005a439       __ctype_fast_check_internal 1005b439 f i libucrt:output.obj
 0001:0005a453       __isdigit_fast_internal    1005b453 f i libucrt:output.obj
 0001:0005a46d       __tolower_fast_internal    1005b46d f i libucrt:output.obj
 0001:0005a4e0       _strcpy_s                  1005b4e0 f   libucrt:strcpy_s.obj
 0001:0005a540       _strcmp                    1005b540 f   libucrt:strcmp.obj
 0001:0005a5d0       _strlen                    1005b5d0 f   libucrt:strlen.obj
 0001:0005a65b       ??0?$__crt_scoped_stack_ptr@D@@QAE@U?$__crt_scoped_stack_ptr_tag@D@@@Z 1005b65b f i libucrt:strlwr.obj
 0001:0005a66b       ??0?$__crt_scoped_stack_ptr_tag@D@@QAE@QAD@Z 1005b66b f i libucrt:strlwr.obj
 0001:0005a67b       ??1?$__crt_scoped_stack_ptr@D@@QAE@XZ 1005b67b f i libucrt:strlwr.obj
 0001:0005a684       ??B?$__crt_scoped_stack_ptr@D@@QBE_NXZ 1005b684 f i libucrt:strlwr.obj
 0001:0005a7f7       ?get@?$__crt_scoped_stack_ptr@D@@QBEPADXZ 1005b7f7 f i libucrt:strlwr.obj
 0001:0005a7fa       __MallocaComputeSize       1005b7fa f i libucrt:strlwr.obj
 0001:0005a80d       __MarkAllocaS              1005b80d f i libucrt:strlwr.obj
 0001:0005a823       __freea_crt                1005b823 f i libucrt:strlwr.obj
 0001:0005a843       __strlwr                   1005b843 f   libucrt:strlwr.obj
 0001:0005a89f       __strlwr_l                 1005b89f f   libucrt:strlwr.obj
 0001:0005a8b9       __strlwr_s                 1005b8b9 f   libucrt:strlwr.obj
 0001:0005a8d0       __strlwr_s_l               1005b8d0 f   libucrt:strlwr.obj
 0001:0005adfb       ??$gmtime_s@ABQAUtm@@ABQBJ@?$__crt_integer_traits@J@@SAHABQAUtm@@ABQBJ@Z 1005bdfb f i libucrt:localtime.obj
 0001:0005ae13       ??$gmtime_s@ABQAUtm@@ABQB_J@?$__crt_integer_traits@_J@@SAHABQAUtm@@ABQB_J@Z 1005be13 f i libucrt:localtime.obj
 0001:0005ae2b       ??$gmtime_s@ABQAUtm@@PAJ@?$__crt_integer_traits@J@@SAHABQAUtm@@$$QAPAJ@Z 1005be2b f i libucrt:localtime.obj
 0001:0005ae43       ??$gmtime_s@ABQAUtm@@PA_J@?$__crt_integer_traits@_J@@SAHABQAUtm@@$$QAPA_J@Z 1005be43 f i libucrt:localtime.obj
 0001:0005ae5b       ??$localtime_s@ABQAUtm@@ABQBJ@?$__crt_integer_traits@J@@SAHABQAUtm@@ABQBJ@Z 1005be5b f i libucrt:localtime.obj
 0001:0005ae74       ??$localtime_s@ABQAUtm@@ABQB_J@?$__crt_integer_traits@_J@@SAHABQAUtm@@ABQB_J@Z 1005be74 f i libucrt:localtime.obj
 0001:0005ae8d       __invoke_watson_if_error   1005be8d f i libucrt:localtime.obj
 0001:0005aeaf       __localtime32              1005beaf f   libucrt:localtime.obj
 0001:0005aed6       __localtime32_s            1005bed6 f   libucrt:localtime.obj
 0001:0005aee1       __localtime64              1005bee1 f   libucrt:localtime.obj
 0001:0005af08       __localtime64_s            1005bf08 f   libucrt:localtime.obj
 0001:0005af13       ??$?R_W@__crt_internal_free_policy@@QBEXQB_W@Z 1005bf13 f i libucrt:strftime.obj
 0001:0005b09e       ??$__acrt_mbs_to_wcs_cp@U__crt_win32_buffer_internal_dynamic_resizing@@@@YAHQBDAAV?$__crt_win32_buffer@_WU__crt_win32_buffer_internal_dynamic_resizing@@@@I@Z 1005c09e f i libucrt:strftime.obj
 0001:0005b0bb       ??$__acrt_wcs_to_mbs_cp@U__crt_win32_buffer_no_resizing@@@@YAHQB_WAAV?$__crt_win32_buffer@DU__crt_win32_buffer_no_resizing@@@@I@Z 1005c0bb f i libucrt:strftime.obj
 0001:0005b0d8       ??0?$__crt_unique_heap_ptr@_WU__crt_internal_free_policy@@@@QAE@QA_W@Z 1005c0d8 f i libucrt:strftime.obj
 0001:0005b0e8       ??0?$__crt_win32_buffer@DU__crt_win32_buffer_no_resizing@@@@QAE@QADI@Z 1005c0e8 f i libucrt:strftime.obj
 0001:0005b10c       ??0?$__crt_win32_buffer@_WU__crt_win32_buffer_internal_dynamic_resizing@@@@QAE@XZ 1005c10c f i libucrt:strftime.obj
 0001:0005b122       ??1?$__crt_unique_heap_ptr@_WU__crt_internal_free_policy@@@@QAE@XZ 1005c122 f i libucrt:strftime.obj
 0001:0005b134       ??1?$__crt_win32_buffer@DU__crt_win32_buffer_no_resizing@@@@QAE@XZ 1005c134 f i libucrt:strftime.obj
 0001:0005b13f       ??1?$__crt_win32_buffer@_WU__crt_win32_buffer_internal_dynamic_resizing@@@@QAE@XZ 1005c13f f i libucrt:strftime.obj
 0001:0005b189       ?_deallocate@?$__crt_win32_buffer@DU__crt_win32_buffer_no_resizing@@@@AAEXXZ 1005c189 f i libucrt:strftime.obj
 0001:0005b194       ?_deallocate@?$__crt_win32_buffer@_WU__crt_win32_buffer_internal_dynamic_resizing@@@@AAEXXZ 1005c194 f i libucrt:strftime.obj
 0001:0005b1ae       ?allocate@?$__crt_win32_buffer@DU__crt_win32_buffer_no_resizing@@@@QAEHI@Z 1005c1ae f i libucrt:strftime.obj
 0001:0005b1d5       ?allocate@?$__crt_win32_buffer@_WU__crt_win32_buffer_internal_dynamic_resizing@@@@QAEHI@Z 1005c1d5 f i libucrt:strftime.obj
 0001:0005b214       ?allocate@__crt_win32_buffer_internal_dynamic_resizing@@SAHQAPAXIABV__crt_win32_buffer_empty_debug_info@@@Z 1005c214 f i libucrt:strftime.obj
 0001:0005b233       ?allocate@__crt_win32_buffer_no_resizing@@SAHQAPAXIABV__crt_win32_buffer_empty_debug_info@@@Z 1005c233 f i libucrt:strftime.obj
 0001:0005b240       ?capacity@?$__crt_win32_buffer@DU__crt_win32_buffer_no_resizing@@@@QBEIXZ 1005c240 f i libucrt:strftime.obj
 0001:0005b244       ?capacity@?$__crt_win32_buffer@_WU__crt_win32_buffer_internal_dynamic_resizing@@@@QBEIXZ 1005c244 f i libucrt:strftime.obj
 0001:0005b248       ?data@?$__crt_win32_buffer@DU__crt_win32_buffer_no_resizing@@@@QAEPADXZ 1005c248 f i libucrt:strftime.obj
 0001:0005b24c       ?data@?$__crt_win32_buffer@_WU__crt_win32_buffer_internal_dynamic_resizing@@@@QAEPA_WXZ 1005c24c f i libucrt:strftime.obj
 0001:0005b250       ?deallocate@__crt_win32_buffer_internal_dynamic_resizing@@SAXQAXABV__crt_win32_buffer_empty_debug_info@@@Z 1005c250 f i libucrt:strftime.obj
 0001:0005b260       ?deallocate@__crt_win32_buffer_no_resizing@@SAXQAXABV__crt_win32_buffer_empty_debug_info@@@Z 1005c260 f i libucrt:strftime.obj
 0001:0005b263       ?debug_info@?$__crt_win32_buffer@DU__crt_win32_buffer_no_resizing@@@@QBEABV__crt_win32_buffer_empty_debug_info@@XZ 1005c263 f i libucrt:strftime.obj
 0001:0005b266       ?debug_info@?$__crt_win32_buffer@_WU__crt_win32_buffer_internal_dynamic_resizing@@@@QBEABV__crt_win32_buffer_empty_debug_info@@XZ 1005c266 f i libucrt:strftime.obj
 0001:0005b269       ?detach@?$__crt_unique_heap_ptr@DU__crt_internal_free_policy@@@@QAEPADXZ 1005c269 f i libucrt:strftime.obj
 0001:0005b26f       ?get@?$__crt_unique_heap_ptr@_WU__crt_internal_free_policy@@@@QBEPA_WXZ 1005c26f f i libucrt:strftime.obj
 0001:0005b272       ?release@?$__crt_unique_heap_ptr@_WU__crt_internal_free_policy@@@@QAEXXZ 1005c272 f i libucrt:strftime.obj
 0001:0005b284       ?set_to_nullptr@?$__crt_win32_buffer@DU__crt_win32_buffer_no_resizing@@@@QAEXXZ 1005c284 f i libucrt:strftime.obj
 0001:0005b298       ?set_to_nullptr@?$__crt_win32_buffer@_WU__crt_win32_buffer_internal_dynamic_resizing@@@@QAEXXZ 1005c298 f i libucrt:strftime.obj
 0001:0005b2af       ?size@?$__crt_win32_buffer@DU__crt_win32_buffer_no_resizing@@@@QAEXI@Z 1005c2af f i libucrt:strftime.obj
 0001:0005b2be       ?size@?$__crt_win32_buffer@DU__crt_win32_buffer_no_resizing@@@@QBEIXZ 1005c2be f i libucrt:strftime.obj
 0001:0005b2c2       ?size@?$__crt_win32_buffer@_WU__crt_win32_buffer_internal_dynamic_resizing@@@@QAEXI@Z 1005c2c2 f i libucrt:strftime.obj
 0001:0005b2d1       __Getdays                  1005c2d1 f   libucrt:strftime.obj
 0001:0005b2da       __Getdays_l                1005c2da f   libucrt:strftime.obj
 0001:0005b3e0       __Getmonths                1005c3e0 f   libucrt:strftime.obj
 0001:0005b3e9       __Getmonths_l              1005c3e9 f   libucrt:strftime.obj
 0001:0005b4fd       __Gettnames                1005c4fd f   libucrt:strftime.obj
 0001:0005b502       __Strftime                 1005c502 f   libucrt:strftime.obj
 0001:0005b522       __Strftime_l               1005c522 f   libucrt:strftime.obj
 0001:0005b61f       __strftime_l               1005c61f f   libucrt:strftime.obj
 0001:0005b63f       _strftime                  1005c63f f   libucrt:strftime.obj
 0001:0005b94d       __time32                   1005c94d f   libucrt:time.obj
 0001:0005b9a6       __time64                   1005c9a6 f   libucrt:time.obj
 0001:0005ba04       __timespec32_get           1005ca04 f   libucrt:time.obj
 0001:0005ba0f       __timespec64_get           1005ca0f f   libucrt:time.obj
 0001:0005ba1a       ___acrt_errno_from_os_error 1005ca1a f   libucrt:errno.obj
 0001:0005ba5d       ___acrt_errno_map_os_error 1005ca5d f   libucrt:errno.obj
 0001:0005ba80       ___doserrno                1005ca80 f   libucrt:errno.obj
 0001:0005ba93       __errno                    1005ca93 f   libucrt:errno.obj
 0001:0005baa6       __get_doserrno             1005caa6 f   libucrt:errno.obj
 0001:0005bacb       __get_errno                1005cacb f   libucrt:errno.obj
 0001:0005baf0       __set_doserrno             1005caf0 f   libucrt:errno.obj
 0001:0005bb11       __set_errno                1005cb11 f   libucrt:errno.obj
 0001:0005bb32       ??$is_overflow_condition@K@__crt_strtox@@YA_NIK@Z 1005cb32 f i libucrt:atox.obj
 0001:0005bb63       ??$is_overflow_condition@_K@__crt_strtox@@YA_NI_K@Z 1005cb63 f i libucrt:atox.obj
 0001:0005bba4       ??$make_c_string_character_source@D$$T@__crt_strtox@@YA?AV?$c_string_character_source@D@0@QBD$$T@Z 1005cba4 f i libucrt:atox.obj
 0001:0005bbbf       ??$make_c_string_character_source@_W$$T@__crt_strtox@@YA?AV?$c_string_character_source@_W@0@QB_W$$T@Z 1005cbbf f i libucrt:atox.obj
 0001:0005bbda       ??$parse_integer@KV?$c_string_character_source@D@__crt_strtox@@@__crt_strtox@@YAKQAU__crt_locale_pointers@@V?$c_string_character_source@D@0@H_N@Z 1005cbda f i libucrt:atox.obj
 0001:0005bdfd       ??$parse_integer@KV?$c_string_character_source@_W@__crt_strtox@@@__crt_strtox@@YAKQAU__crt_locale_pointers@@V?$c_string_character_source@_W@0@H_N@Z 1005cdfd f i libucrt:atox.obj
 0001:0005c405       ??$parse_integer@_KV?$c_string_character_source@D@__crt_strtox@@@__crt_strtox@@YA_KQAU__crt_locale_pointers@@V?$c_string_character_source@D@0@H_N@Z 1005d405 f i libucrt:atox.obj
 0001:0005c6ab       ??$parse_integer@_KV?$c_string_character_source@_W@__crt_strtox@@@__crt_strtox@@YA_KQAU__crt_locale_pointers@@V?$c_string_character_source@_W@0@H_N@Z 1005d6ab f i libucrt:atox.obj
 0001:0005cd7c       ??$parse_integer_from_string@JD$$T@__crt_strtox@@YAJQBD$$THQAU__crt_locale_pointers@@@Z 1005dd7c f i libucrt:atox.obj
 0001:0005cda7       ??$parse_integer_from_string@J_W$$T@__crt_strtox@@YAJQB_W$$THQAU__crt_locale_pointers@@@Z 1005dda7 f i libucrt:atox.obj
 0001:0005cdd2       ??$parse_integer_from_string@_JD$$T@__crt_strtox@@YA_JQBD$$THQAU__crt_locale_pointers@@@Z 1005ddd2 f i libucrt:atox.obj
 0001:0005cdfd       ??$parse_integer_from_string@_J_W$$T@__crt_strtox@@YA_JQB_W$$THQAU__crt_locale_pointers@@@Z 1005ddfd f i libucrt:atox.obj
 0001:0005ce28       ??0?$c_string_character_source@D@__crt_strtox@@QAE@QBDQAPBD@Z 1005de28 f i libucrt:atox.obj
 0001:0005ce44       ??0?$c_string_character_source@_W@__crt_strtox@@QAE@QB_WQAPB_W@Z 1005de44 f i libucrt:atox.obj
 0001:0005ce60       ??1?$c_string_character_source@D@__crt_strtox@@QAE@XZ 1005de60 f i libucrt:atox.obj
 0001:0005ce6c       ??1?$c_string_character_source@_W@__crt_strtox@@QAE@XZ 1005de6c f i libucrt:atox.obj
 0001:0005ce78       ?get@?$c_string_character_source@D@__crt_strtox@@QAEDXZ 1005de78 f i libucrt:atox.obj
 0001:0005ce80       ?get@?$c_string_character_source@_W@__crt_strtox@@QAE_WXZ 1005de80 f i libucrt:atox.obj
 0001:0005ce8b       ?is_space@__crt_strtox@@YA_NDQAU__crt_locale_pointers@@@Z 1005de8b f i libucrt:atox.obj
 0001:0005cea9       ?is_space@__crt_strtox@@YA_N_WPAU__crt_locale_pointers@@@Z 1005dea9 f i libucrt:atox.obj
 0001:0005cec1       ?maximum_signed_value@__crt_strtox@@YAJK@Z 1005dec1 f i libucrt:atox.obj
 0001:0005cec7       ?maximum_signed_value@__crt_strtox@@YA_J_K@Z 1005dec7 f i libucrt:atox.obj
 0001:0005ced0       ?minimum_signed_value@__crt_strtox@@YAJK@Z 1005ded0 f i libucrt:atox.obj
 0001:0005ced6       ?minimum_signed_value@__crt_strtox@@YA_J_K@Z 1005ded6 f i libucrt:atox.obj
 0001:0005cede       ?parse_digit@__crt_strtox@@YAID@Z 1005dede f i libucrt:atox.obj
 0001:0005cf18       ?parse_digit@__crt_strtox@@YAI_W@Z 1005df18 f i libucrt:atox.obj
 0001:0005d0f7       ?restore_state@?$c_string_character_source@D@__crt_strtox@@QAE_NQBD@Z 1005e0f7 f i libucrt:atox.obj
 0001:0005d107       ?restore_state@?$c_string_character_source@_W@__crt_strtox@@QAE_NQB_W@Z 1005e107 f i libucrt:atox.obj
 0001:0005d117       ?save_state@?$c_string_character_source@D@__crt_strtox@@QBEPBDXZ 1005e117 f i libucrt:atox.obj
 0001:0005d11a       ?save_state@?$c_string_character_source@_W@__crt_strtox@@QBEPB_WXZ 1005e11a f i libucrt:atox.obj
 0001:0005d11d       ?unget@?$c_string_character_source@D@__crt_strtox@@QAEXD@Z 1005e11d f i libucrt:atox.obj
 0001:0005d146       ?unget@?$c_string_character_source@_W@__crt_strtox@@QAEX_W@Z 1005e146 f i libucrt:atox.obj
 0001:0005d174       ?validate@?$c_string_character_source@D@__crt_strtox@@QBE_NXZ 1005e174 f i libucrt:atox.obj
 0001:0005d18f       ?validate@?$c_string_character_source@_W@__crt_strtox@@QBE_NXZ 1005e18f f i libucrt:atox.obj
 0001:0005d1aa       ?wide_character_to_digit@__crt_strtox@@YAH_W@Z 1005e1aa f i libucrt:atox.obj
 0001:0005d34b       ___acrt_get_locale_data_prefix 1005e34b f i libucrt:atox.obj
 0001:0005d357       ___ascii_iswalpha          1005e357 f i libucrt:atox.obj
 0001:0005d37a       ___ascii_toupper           1005e37a f i libucrt:atox.obj
 0001:0005d391       ___ascii_towupper          1005e391 f i libucrt:atox.obj
 0001:0005d3a8       __atoi64                   1005e3a8 f   libucrt:atox.obj
 0001:0005d3cb       __atoi64_l                 1005e3cb f   libucrt:atox.obj
 0001:0005d3ef       __atoi_l                   1005e3ef f   libucrt:atox.obj
 0001:0005d413       __atol_l                   1005e413 f   libucrt:atox.obj
 0001:0005d437       __atoll_l                  1005e437 f   libucrt:atox.obj
 0001:0005d45b       __chvalidchk_l             1005e45b f i libucrt:atox.obj
 0001:0005d483       __ischartype_l             1005e483 f i libucrt:atox.obj
 0001:0005d4d7       __wtoi                     1005e4d7 f   libucrt:atox.obj
 0001:0005d4fa       __wtoi64                   1005e4fa f   libucrt:atox.obj
 0001:0005d51d       __wtoi64_l                 1005e51d f   libucrt:atox.obj
 0001:0005d541       __wtoi_l                   1005e541 f   libucrt:atox.obj
 0001:0005d565       __wtol                     1005e565 f   libucrt:atox.obj
 0001:0005d588       __wtol_l                   1005e588 f   libucrt:atox.obj
 0001:0005d5ac       __wtoll                    1005e5ac f   libucrt:atox.obj
 0001:0005d5cf       __wtoll_l                  1005e5cf f   libucrt:atox.obj
 0001:0005d5f3       _atoi                      1005e5f3 f   libucrt:atox.obj
 0001:0005d616       _atol                      1005e616 f   libucrt:atox.obj
 0001:0005d639       _atoll                     1005e639 f   libucrt:atox.obj
 0001:0005d6c5       _strcat_s                  1005e6c5 f   libucrt:strcat_s.obj
 0001:0005d730       _strncmp                   1005e730 f   libucrt:strncmp.obj
 0001:0005d914       __strupr                   1005e914 f   libucrt:strupr.obj
 0001:0005d970       __strupr_l                 1005e970 f   libucrt:strupr.obj
 0001:0005d98a       __strupr_s                 1005e98a f   libucrt:strupr.obj
 0001:0005d9a1       __strupr_s_l               1005e9a1 f   libucrt:strupr.obj
 0001:0005d9d8       ??$make_c_string_character_source@DPAPAD@__crt_strtox@@YA?AV?$c_string_character_source@D@0@QBDQAPAD@Z 1005e9d8 f i libucrt:strtox.obj
 0001:0005d9f3       ??$make_c_string_character_source@_WPAPA_W@__crt_strtox@@YA?AV?$c_string_character_source@_W@0@QB_WQAPA_W@Z 1005e9f3 f i libucrt:strtox.obj
 0001:0005da0e       ??$parse_integer_from_string@JDPAPAD@__crt_strtox@@YAJQBDQAPADHQAU__crt_locale_pointers@@@Z 1005ea0e f i libucrt:strtox.obj
 0001:0005da39       ??$parse_integer_from_string@J_WPAPA_W@__crt_strtox@@YAJQB_WQAPA_WHQAU__crt_locale_pointers@@@Z 1005ea39 f i libucrt:strtox.obj
 0001:0005da64       ??$parse_integer_from_string@KDPAPAD@__crt_strtox@@YAKQBDQAPADHQAU__crt_locale_pointers@@@Z 1005ea64 f i libucrt:strtox.obj
 0001:0005da8f       ??$parse_integer_from_string@K_WPAPA_W@__crt_strtox@@YAKQB_WQAPA_WHQAU__crt_locale_pointers@@@Z 1005ea8f f i libucrt:strtox.obj
 0001:0005daba       ??$parse_integer_from_string@_JDPAPAD@__crt_strtox@@YA_JQBDQAPADHQAU__crt_locale_pointers@@@Z 1005eaba f i libucrt:strtox.obj
 0001:0005dae5       ??$parse_integer_from_string@_J_WPAPA_W@__crt_strtox@@YA_JQB_WQAPA_WHQAU__crt_locale_pointers@@@Z 1005eae5 f i libucrt:strtox.obj
 0001:0005db10       ??$parse_integer_from_string@_KDPAPAD@__crt_strtox@@YA_KQBDQAPADHQAU__crt_locale_pointers@@@Z 1005eb10 f i libucrt:strtox.obj
 0001:0005db3b       ??$parse_integer_from_string@_K_WPAPA_W@__crt_strtox@@YA_KQB_WQAPA_WHQAU__crt_locale_pointers@@@Z 1005eb3b f i libucrt:strtox.obj
 0001:0005db66       __strtoi64                 1005eb66 f   libucrt:strtox.obj
 0001:0005db90       __strtoi64_l               1005eb90 f   libucrt:strtox.obj
 0001:0005dbbb       __strtoimax_l              1005ebbb f   libucrt:strtox.obj
 0001:0005dbe6       __strtol_l                 1005ebe6 f   libucrt:strtox.obj
 0001:0005dc11       __strtoll_l                1005ec11 f   libucrt:strtox.obj
 0001:0005dc3c       __strtoui64                1005ec3c f   libucrt:strtox.obj
 0001:0005dc66       __strtoui64_l              1005ec66 f   libucrt:strtox.obj
 0001:0005dc91       __strtoul_l                1005ec91 f   libucrt:strtox.obj
 0001:0005dcbc       __strtoull_l               1005ecbc f   libucrt:strtox.obj
 0001:0005dce7       __strtoumax_l              1005ece7 f   libucrt:strtox.obj
 0001:0005dd12       __wcstoi64                 1005ed12 f   libucrt:strtox.obj
 0001:0005dd3c       __wcstoi64_l               1005ed3c f   libucrt:strtox.obj
 0001:0005dd67       __wcstoimax_l              1005ed67 f   libucrt:strtox.obj
 0001:0005dd92       __wcstol_l                 1005ed92 f   libucrt:strtox.obj
 0001:0005ddbd       __wcstoll_l                1005edbd f   libucrt:strtox.obj
 0001:0005dde8       __wcstoui64                1005ede8 f   libucrt:strtox.obj
 0001:0005de12       __wcstoui64_l              1005ee12 f   libucrt:strtox.obj
 0001:0005de3d       __wcstoul_l                1005ee3d f   libucrt:strtox.obj
 0001:0005de68       __wcstoull_l               1005ee68 f   libucrt:strtox.obj
 0001:0005de93       __wcstoumax_l              1005ee93 f   libucrt:strtox.obj
 0001:0005debe       _strtoimax                 1005eebe f   libucrt:strtox.obj
 0001:0005dee8       _strtol                    1005eee8 f   libucrt:strtox.obj
 0001:0005df12       _strtoll                   1005ef12 f   libucrt:strtox.obj
 0001:0005df3c       _strtoul                   1005ef3c f   libucrt:strtox.obj
 0001:0005df66       _strtoull                  1005ef66 f   libucrt:strtox.obj
 0001:0005df90       _strtoumax                 1005ef90 f   libucrt:strtox.obj
 0001:0005dfba       _wcstoimax                 1005efba f   libucrt:strtox.obj
 0001:0005dfe4       _wcstol                    1005efe4 f   libucrt:strtox.obj
 0001:0005e00e       _wcstoll                   1005f00e f   libucrt:strtox.obj
 0001:0005e038       _wcstoul                   1005f038 f   libucrt:strtox.obj
 0001:0005e062       _wcstoull                  1005f062 f   libucrt:strtox.obj
 0001:0005e08c       _wcstoumax                 1005f08c f   libucrt:strtox.obj
 0001:0005eacb       ??$tcsncpy_s@AAPADIAAPBDABI@?$__crt_char_traits@D@@SAHAAPAD$$QAIAAPBDABI@Z 1005facb f i libucrt:splitpath.obj
 0001:0005eaee       ??$tcsncpy_s@AAPADIAAPBDH@?$__crt_char_traits@D@@SAHAAPAD$$QAIAAPBD$$QAH@Z 1005faee f i libucrt:splitpath.obj
 0001:0005eb11       ??$tcsncpy_s@AAPA_WIAAPB_WABI@?$__crt_char_traits@_W@@SAHAAPA_W$$QAIAAPB_WABI@Z 1005fb11 f i libucrt:splitpath.obj
 0001:0005eb34       ??$tcsncpy_s@AAPA_WIAAPB_WH@?$__crt_char_traits@_W@@SAHAAPA_W$$QAIAAPB_W$$QAH@Z 1005fb34 f i libucrt:splitpath.obj
 0001:0005ebf1       __splitpath                1005fbf1 f   libucrt:splitpath.obj
 0001:0005ec5a       __splitpath_s              1005fc5a f   libucrt:splitpath.obj
 0001:0005ecb1       __wsplitpath               1005fcb1 f   libucrt:splitpath.obj
 0001:0005ed1a       __wsplitpath_s             1005fd1a f   libucrt:splitpath.obj
 0001:0005f56c       ??1?$__crt_simd_cleanup_guard@$00@@QAE@XZ 1006056c f i libucrt:strnlen.obj
 0001:0005f570       ??1?$__crt_simd_cleanup_guard@$0A@@@QAE@XZ 10060570 f i libucrt:strnlen.obj
 0001:0005f573       ?compare_equals@?$__crt_simd_traits@$00E@@SA?AT__m256i@@T2@0@Z 10060573 f i libucrt:strnlen.obj
 0001:0005f578       ?compare_equals@?$__crt_simd_traits@$00G@@SA?AT__m256i@@T2@0@Z 10060578 f i libucrt:strnlen.obj
 0001:0005f57d       ?compare_equals@?$__crt_simd_traits@$0A@E@@SA?AT__m128i@@T2@0@Z 1006057d f i libucrt:strnlen.obj
 0001:0005f582       ?compare_equals@?$__crt_simd_traits@$0A@G@@SA?AT__m128i@@T2@0@Z 10060582 f i libucrt:strnlen.obj
 0001:0005f587       ?compute_byte_mask@?$__crt_simd_pack_traits@$00@@SAHT__m256i@@@Z 10060587 f i libucrt:strnlen.obj
 0001:0005f58c       ?compute_byte_mask@?$__crt_simd_pack_traits@$0A@@@SAHT__m128i@@@Z 1006058c f i libucrt:strnlen.obj
 0001:0005f591       ?get_zero_pack@?$__crt_simd_pack_traits@$00@@SA?AT__m256i@@XZ 10060591 f i libucrt:strnlen.obj
 0001:0005f596       ?get_zero_pack@?$__crt_simd_pack_traits@$0A@@@SA?AT__m128i@@XZ 10060596 f i libucrt:strnlen.obj
 0001:0005f59a       _strnlen                   1006059a f   libucrt:strnlen.obj
 0001:0005f6bc       _wcslen                    100606bc f   libucrt:strnlen.obj
 0001:0005f7e4       _wcsnlen                   100607e4 f   libucrt:strnlen.obj
 0001:0005f994       __abs64                    10060994 f   libucrt:abs.obj
 0001:0005f9ae       _abs                       100609ae f   libucrt:abs.obj
 0001:0005f9c0       _cos                       100609c0 f   libucrt:cos.obj
 0001:0005fa10       _sin                       10060a10 f   libucrt:sin.obj
 0001:0005fa53       ??$?B$$A6AHI@Z@__crt_fast_encoded_nullptr_t@@QBEP6AHI@ZXZ 10060a53 f i libucrt:new_handler.obj
 0001:0005fa59       ??$__crt_fast_decode_pointer@P6AHI@Z@@YAP6AHI@ZQ6AHI@Z@Z 10060a59 f i libucrt:new_handler.obj
 0001:0005fa6f       ??$__crt_fast_encode_pointer@P6AHI@Z@@YAP6AHI@ZQ6AHI@Z@Z 10060a6f f i libucrt:new_handler.obj
 0001:0005fa8e       ?__crt_fast_encode_pointer@@YA?AU__crt_fast_encoded_nullptr_t@@$$T@Z 10060a8e f i libucrt:new_handler.obj
 0001:0005fa99       ?_set_new_handler@@YAP6AHI@ZH@Z 10060a99 f   libucrt:new_handler.obj
 0001:0005faa6       ?initialize@?$dual_state_global@P6AHI@Z@__crt_state_management@@QAEXQ6AHI@Z@Z 10060aa6 f i libucrt:new_handler.obj
 0001:0005facc       ?value@?$dual_state_global@P6AHI@Z@__crt_state_management@@QAEAAP6AHI@ZXZ 10060acc f i libucrt:new_handler.obj
 0001:0005facf       ___acrt_initialize_new_handler 10060acf f   libucrt:new_handler.obj
 0001:0005fade       __callnewh                 10060ade f   libucrt:new_handler.obj
 0001:0005fb0b       __query_new_handler        10060b0b f   libucrt:new_handler.obj
 0001:0005fb67       __set_new_handler          10060b67 f   libucrt:new_handler.obj
 0001:0005fbd1       ___ascii_stricmp           10060bd1 f   libucrt:stricmp.obj
 0001:0005fc0a       ___ascii_tolower           10060c0a f i libucrt:stricmp.obj
 0001:0005fc21       __strcmpi                  10060c21 f   libucrt:stricmp.obj
 0001:0005fc21       __stricmp                  10060c21 f   libucrt:stricmp.obj
 0001:0005fc6a       __stricmp_l                10060c6a f   libucrt:stricmp.obj
 0001:0005fcf8       __errcode                  10060cf8 f   libucrt:fpexcept.obj
 0001:0005fd2c       __except1                  10060d2c f   libucrt:fpexcept.obj
 0001:0005fdfa       __except2                  10060dfa f   libucrt:fpexcept.obj
 0001:0005ff02       __handle_exc               10060f02 f   libucrt:fpexcept.obj
 0001:000600ed       __handle_qnan2             100610ed f   libucrt:fpexcept.obj
 0001:000600fa       __raise_exc                100610fa f   libucrt:fpexcept.obj
 0001:0006011d       __raise_exc_ex             1006111d f   libucrt:fpexcept.obj
 0001:00060413       __raise_excf               10061413 f   libucrt:fpexcept.obj
 0001:00060436       __set_errno_from_matherr   10061436 f   libucrt:fpexcept.obj
 0001:00060465       __umatherr                 10061465 f   libucrt:fpexcept.obj
 0001:0006051b       __get_terminate            1006151b f   libucrt:terminate.obj
 0001:0006052d       _set_terminate             1006152d f   libucrt:terminate.obj
 0001:0006054d       _terminate                 1006154d f   libucrt:terminate.obj
 0001:00060589       __initterm                 10061589 f   libucrt:initterm.obj
 0001:000605ce       __initterm_e               100615ce f   libucrt:initterm.obj
 0001:00060620       __seh_filter_dll           10061620 f   libucrt:exception_filter.obj
 0001:00060640       __seh_filter_exe           10061640 f   libucrt:exception_filter.obj
 0001:00060798       ??$?B$$A6GXPAXK0@Z@__crt_fast_encoded_nullptr_t@@QBEP6GXPAXK0@ZXZ 10061798 f i libucrt:exit.obj
 0001:00060811       ??$__crt_fast_decode_pointer@P6GXPAXK0@Z@@YAP6GXPAXK0@ZQ6GX0K0@Z@Z 10061811 f i libucrt:exit.obj
 0001:00060827       ??$__crt_fast_encode_pointer@P6GXPAXK0@Z@@YAP6GXPAXK0@ZQ6GX0K0@Z@Z 10061827 f i libucrt:exit.obj
 0001:00060846       ??$__crt_get_proc_address@P6GXI@Z@@YAP6GXI@ZQAUHINSTANCE__@@QBD@Z 10061846 f i libucrt:exit.obj
 0001:00060899       ??0?$__crt_unique_handle_t@U__crt_hmodule_traits@@@@QAE@QAUHINSTANCE__@@@Z 10061899 f i libucrt:exit.obj
 0001:000608a9       ??1?$__crt_unique_handle_t@U__crt_hmodule_traits@@@@QAE@XZ 100618a9 f i libucrt:exit.obj
 0001:000609ac       ?__acrt_select_exit_lock@@YA?AW4__acrt_lock_id@@XZ 100619ac f i libucrt:exit.obj
 0001:000609c3       ?close@?$__crt_unique_handle_t@U__crt_hmodule_traits@@@@QAEXXZ 100619c3 f i libucrt:exit.obj
 0001:000609da       ?close@__crt_hmodule_traits@@SA_NPAUHINSTANCE__@@@Z 100619da f i libucrt:exit.obj
 0001:00060a95       ?get@?$__crt_unique_handle_t@U__crt_hmodule_traits@@@@QBEPAUHINSTANCE__@@XZ 10061a95 f i libucrt:exit.obj
 0001:00060a98       ?get_address_of@?$__crt_unique_handle_t@U__crt_hmodule_traits@@@@QAEPAPAUHINSTANCE__@@XZ 10061a98 f i libucrt:exit.obj
 0001:00060a9b       ?get_invalid_value@__crt_hmodule_traits@@SAPAUHINSTANCE__@@XZ 10061a9b f i libucrt:exit.obj
 0001:00060b56       __Exit                     10061b56 f   libucrt:exit.obj
 0001:00060b6c       ___acrt_initialize_thread_local_exit_callback 10061b6c f   libucrt:exit.obj
 0001:00060b7b       __c_exit                   10061b7b f   libucrt:exit.obj
 0001:00060b8a       __cexit                    10061b8a f   libucrt:exit.obj
 0001:00060b99       __exit                     10061b99 f   libucrt:exit.obj
 0001:00060baf       __is_c_termination_complete 10061baf f   libucrt:exit.obj
 0001:00060bb6       __register_thread_local_exe_atexit_callback 10061bb6 f   libucrt:exit.obj
 0001:00060bdc       _exit                      10061bdc f   libucrt:exit.obj
 0001:00060bf2       _quick_exit                10061bf2 f   libucrt:exit.obj
 0001:00060c08       ??$?RE@__crt_internal_free_policy@@QBEXQBE@Z 10061c08 f i libucrt:argv_parsing.obj
 0001:00060c1a       ??$?RPAD@__crt_internal_free_policy@@QBEXQBQAD@Z 10061c1a f i libucrt:argv_parsing.obj
 0001:00060c2c       ??$?RPA_W@__crt_internal_free_policy@@QBEXQBQA_W@Z 10061c2c f i libucrt:argv_parsing.obj
 0001:00060ea3       ??$get_module_file_name@$$TAAY0BAF@DH@?$__crt_char_traits@D@@SAK$$QA$$TAAY0BAF@D$$QAH@Z 10061ea3 f i libucrt:argv_parsing.obj
 0001:00060ebf       ??$get_module_file_name@$$TAAY0BAF@_WH@?$__crt_char_traits@_W@@SAK$$QA$$TAAY0BAF@_W$$QAH@Z 10061ebf f i libucrt:argv_parsing.obj
 0001:000611e1       ??$set_program_name@PAD@?$__crt_char_traits@D@@SAX$$QAPAD@Z 100621e1 f i libucrt:argv_parsing.obj
 0001:000611f2       ??$set_program_name@PA_W@?$__crt_char_traits@_W@@SAX$$QAPA_W@Z 100621f2 f i libucrt:argv_parsing.obj
 0001:00061223       ??0?$__crt_unique_heap_ptr@EU__crt_internal_free_policy@@@@QAE@QAE@Z 10062223 f i libucrt:argv_parsing.obj
 0001:00061233       ??0?$__crt_unique_heap_ptr@PADU__crt_internal_free_policy@@@@QAE@QAPAD@Z 10062233 f i libucrt:argv_parsing.obj
 0001:00061243       ??0?$__crt_unique_heap_ptr@PA_WU__crt_internal_free_policy@@@@QAE@QAPA_W@Z 10062243 f i libucrt:argv_parsing.obj
 0001:00061253       ??1?$__crt_unique_heap_ptr@EU__crt_internal_free_policy@@@@QAE@XZ 10062253 f i libucrt:argv_parsing.obj
 0001:00061265       ??1?$__crt_unique_heap_ptr@PADU__crt_internal_free_policy@@@@QAE@XZ 10062265 f i libucrt:argv_parsing.obj
 0001:00061277       ??1?$__crt_unique_heap_ptr@PA_WU__crt_internal_free_policy@@@@QAE@XZ 10062277 f i libucrt:argv_parsing.obj
 0001:00061289       ??B?$__crt_unique_heap_ptr@EU__crt_internal_free_policy@@@@QBE_NXZ 10062289 f i libucrt:argv_parsing.obj
 0001:000612bc       ?detach@?$__crt_unique_heap_ptr@EU__crt_internal_free_policy@@@@QAEPAEXZ 100622bc f i libucrt:argv_parsing.obj
 0001:000612c2       ?detach@?$__crt_unique_heap_ptr@PADU__crt_internal_free_policy@@@@QAEPAPADXZ 100622c2 f i libucrt:argv_parsing.obj
 0001:000612c8       ?detach@?$__crt_unique_heap_ptr@PA_WU__crt_internal_free_policy@@@@QAEPAPA_WXZ 100622c8 f i libucrt:argv_parsing.obj
 0001:000612ec       ?get@?$__crt_unique_heap_ptr@EU__crt_internal_free_policy@@@@QBEPAEXZ 100622ec f i libucrt:argv_parsing.obj
 0001:000612ef       ?get@?$__crt_unique_heap_ptr@PADU__crt_internal_free_policy@@@@QBEPAPADXZ 100622ef f i libucrt:argv_parsing.obj
 0001:000612f2       ?get@?$__crt_unique_heap_ptr@PA_WU__crt_internal_free_policy@@@@QBEPAPA_WXZ 100622f2 f i libucrt:argv_parsing.obj
 0001:000612f5       ?get_address_of@?$__crt_unique_heap_ptr@PADU__crt_internal_free_policy@@@@QAEPAPAPADXZ 100622f5 f i libucrt:argv_parsing.obj
 0001:000612f8       ?get_address_of@?$__crt_unique_heap_ptr@PA_WU__crt_internal_free_policy@@@@QAEPAPAPA_WXZ 100622f8 f i libucrt:argv_parsing.obj
 0001:00061313       ?is_valid@?$__crt_unique_heap_ptr@EU__crt_internal_free_policy@@@@QBE_NXZ 10062313 f i libucrt:argv_parsing.obj
 0001:0006131a       ?release@?$__crt_unique_heap_ptr@EU__crt_internal_free_policy@@@@QAEXXZ 1006231a f i libucrt:argv_parsing.obj
 0001:0006132c       ?release@?$__crt_unique_heap_ptr@PADU__crt_internal_free_policy@@@@QAEXXZ 1006232c f i libucrt:argv_parsing.obj
 0001:0006133e       ?release@?$__crt_unique_heap_ptr@PA_WU__crt_internal_free_policy@@@@QAEXXZ 1006233e f i libucrt:argv_parsing.obj
 0001:0006136a       ___acrt_allocate_buffer_for_argv 1006236a f   libucrt:argv_parsing.obj
 0001:000613b9       __configure_narrow_argv    100623b9 f   libucrt:argv_parsing.obj
 0001:000613c4       __configure_wide_argv      100623c4 f   libucrt:argv_parsing.obj
 0001:000613cf       __set_pgmptr               100623cf f i libucrt:argv_parsing.obj
 0001:000613de       __set_wpgmptr              100623de f i libucrt:argv_parsing.obj
 0001:000617c6       ??$get_environment_from_os@$$V@?$__crt_char_traits@D@@SAPADXZ 100627c6 f i libucrt:environment_initialization.obj
 0001:000617cb       ??$get_environment_from_os@$$V@?$__crt_char_traits@_W@@SAPA_WXZ 100627cb f i libucrt:environment_initialization.obj
 0001:000618d0       ??$set_variable_in_environment_nolock@PADH@?$__crt_char_traits@D@@SAH$$QAPAD$$QAH@Z 100628d0 f i libucrt:environment_initialization.obj
 0001:000618e8       ??$set_variable_in_environment_nolock@PA_WH@?$__crt_char_traits@_W@@SAH$$QAPA_W$$QAH@Z 100628e8 f i libucrt:environment_initialization.obj
 0001:00061900       ??$tcscpy_s@PADABIAAPAD@?$__crt_char_traits@D@@SAH$$QAPADABIAAPAD@Z 10062900 f i libucrt:environment_initialization.obj
 0001:0006191e       ??$tcscpy_s@PA_WABIAAPA_W@?$__crt_char_traits@_W@@SAH$$QAPA_WABIAAPA_W@Z 1006291e f i libucrt:environment_initialization.obj
 0001:0006193c       ??$tcslen@AAPAD@?$__crt_char_traits@D@@SAIAAPAD@Z 1006293c f i libucrt:environment_initialization.obj
 0001:00061954       ??$tcslen@AAPA_W@?$__crt_char_traits@_W@@SAIAAPA_W@Z 10062954 f i libucrt:environment_initialization.obj
 0001:00061972       ??$uninitialize@A6AXAAPAPAD@Z@?$dual_state_global@PAPAD@__crt_state_management@@QAEXA6AXAAPAPAD@Z@Z 10062972 f i libucrt:environment_initialization.obj
 0001:0006199b       ??$uninitialize@A6AXAAPAPA_W@Z@?$dual_state_global@PAPA_W@__crt_state_management@@QAEXA6AXAAPAPA_W@Z@Z 1006299b f i libucrt:environment_initialization.obj
 0001:000619fa       ??B?$__crt_unique_heap_ptr@PADU__crt_internal_free_policy@@@@QBE_NXZ 100629fa f i libucrt:environment_initialization.obj
 0001:00061a01       ??B?$__crt_unique_heap_ptr@PA_WU__crt_internal_free_policy@@@@QBE_NXZ 10062a01 f i libucrt:environment_initialization.obj
 0001:00061a08       ??B?$__crt_unique_heap_ptr@_WU__crt_internal_free_policy@@@@QBE_NXZ 10062a08 f i libucrt:environment_initialization.obj
 0001:00061a0f       ?__crt_compute_required_transform_buffer_count@@YAIIQBD@Z 10062a0f f i libucrt:environment_initialization.obj
 0001:00061a2b       ?__crt_compute_required_transform_buffer_count@@YAIIQB_W@Z 10062a2b f i libucrt:environment_initialization.obj
 0001:00061a49       ?__crt_transform_string@@YAIIQBDQA_WI@Z 10062a49 f i libucrt:environment_initialization.obj
 0001:00061a68       ?__crt_transform_string@@YAIIQB_WQADI@Z 10062a68 f i libucrt:environment_initialization.obj
 0001:00061a8a       ?detach@?$__crt_unique_heap_ptr@_WU__crt_internal_free_policy@@@@QAEPA_WXZ 10062a8a f i libucrt:environment_initialization.obj
 0001:00061ab4       ?initialize@?$dual_state_global@PAPAD@__crt_state_management@@QAEXQAPAD@Z 10062ab4 f i libucrt:environment_initialization.obj
 0001:00061ada       ?initialize@?$dual_state_global@PAPA_W@__crt_state_management@@QAEXQAPA_W@Z 10062ada f i libucrt:environment_initialization.obj
 0001:00061b00       ?is_valid@?$__crt_unique_heap_ptr@PADU__crt_internal_free_policy@@@@QBE_NXZ 10062b00 f i libucrt:environment_initialization.obj
 0001:00061b07       ?is_valid@?$__crt_unique_heap_ptr@PA_WU__crt_internal_free_policy@@@@QBE_NXZ 10062b07 f i libucrt:environment_initialization.obj
 0001:00061b0e       ?is_valid@?$__crt_unique_heap_ptr@_WU__crt_internal_free_policy@@@@QBE_NXZ 10062b0e f i libucrt:environment_initialization.obj
 0001:00061b1d       ?value@?$dual_state_global@PAPAD@__crt_state_management@@QAEAAPAPADXZ 10062b1d f i libucrt:environment_initialization.obj
 0001:00061b20       ?value@?$dual_state_global@PAPA_W@__crt_state_management@@QAEAAPAPA_WXZ 10062b20 f i libucrt:environment_initialization.obj
 0001:00061b23       ___dcrt_get_or_create_narrow_environment_nolock 10062b23 f   libucrt:environment_initialization.obj
 0001:00061b28       ___dcrt_get_or_create_wide_environment_nolock 10062b28 f   libucrt:environment_initialization.obj
 0001:00061b2d       ___dcrt_uninitialize_environments_nolock 10062b2d f   libucrt:environment_initialization.obj
 0001:00061b64       ___p__environ              10062b64 f   libucrt:environment_initialization.obj
 0001:00061b6a       ___p__wenviron             10062b6a f   libucrt:environment_initialization.obj
 0001:00061b70       __get_initial_narrow_environment 10062b70 f   libucrt:environment_initialization.obj
 0001:00061b84       __get_initial_wide_environment 10062b84 f   libucrt:environment_initialization.obj
 0001:00061b98       __initialize_narrow_environment 10062b98 f   libucrt:environment_initialization.obj
 0001:00061b9d       __initialize_wide_environment 10062b9d f   libucrt:environment_initialization.obj
 0001:00061ba2       ??$?B$$A6AXXZ@__crt_fast_encoded_nullptr_t@@QBEP6AXXZXZ 10062ba2 f i libucrt:onexit.obj
 0001:00061ba8       ??$?BP6AXXZ@__crt_fast_encoded_nullptr_t@@QBEPAP6AXXZXZ 10062ba8 f i libucrt:onexit.obj
 0001:00061bae       ??$?RP6AXXZ@__crt_internal_free_policy@@QBEXQBQ6AXXZ@Z 10062bae f i libucrt:onexit.obj
 0001:00061cc2       ??$__crt_fast_decode_pointer@P6AXXZ@@YAP6AXXZQ6AXXZ@Z 10062cc2 f i libucrt:onexit.obj
 0001:00061cd8       ??$__crt_fast_decode_pointer@PAP6AXXZ@@YAPAP6AXXZQAP6AXXZ@Z 10062cd8 f i libucrt:onexit.obj
 0001:00061cee       ??$__crt_fast_encode_pointer@P6AHXZ@@YAP6AHXZQ6AHXZ@Z 10062cee f i libucrt:onexit.obj
 0001:00061d0d       ??$__crt_fast_encode_pointer@P6AXXZ@@YAP6AXXZQ6AXXZ@Z 10062d0d f i libucrt:onexit.obj
 0001:00061d2c       ??$__crt_fast_encode_pointer@PAP6AXXZ@@YAPAP6AXXZQAP6AXXZ@Z 10062d2c f i libucrt:onexit.obj
 0001:00061db9       ??0?$__crt_unique_heap_ptr@P6AXXZU__crt_internal_free_policy@@@@QAE@QAP6AXXZ@Z 10062db9 f i libucrt:onexit.obj
 0001:00061dc9       ??1?$__crt_unique_heap_ptr@P6AXXZU__crt_internal_free_policy@@@@QAE@XZ 10062dc9 f i libucrt:onexit.obj
 0001:00061ddb       ??1scoped_global_state_reset@__crt_state_management@@QAE@XZ 10062ddb f i libucrt:onexit.obj
 0001:00062005       ?detach@?$__crt_unique_heap_ptr@P6AXXZU__crt_internal_free_policy@@@@QAEPAP6AXXZXZ 10063005 f i libucrt:onexit.obj
 0001:0006200b       ?release@?$__crt_unique_heap_ptr@P6AXXZU__crt_internal_free_policy@@@@QAEXXZ 1006300b f i libucrt:onexit.obj
 0001:0006201d       __crt_at_quick_exit        1006301d f   libucrt:onexit.obj
 0001:00062033       __crt_atexit               10063033 f   libucrt:onexit.obj
 0001:00062049       __execute_onexit_table     10063049 f   libucrt:onexit.obj
 0001:00062076       __initialize_onexit_table  10063076 f   libucrt:onexit.obj
 0001:0006209f       __register_onexit_function 1006309f f   libucrt:onexit.obj
 0001:000621ae       ??$?BX@__crt_fast_encoded_nullptr_t@@QBEPAXXZ 100631ae f i libucrt:initialization.obj
 0001:000621b4       ??$__crt_fast_encode_pointer@PAX@@YAPAXQAX@Z 100631b4 f i libucrt:initialization.obj
 0001:00062225       ?__acrt_stdio_is_initialized@@YA_NXZ 10063225 f i libucrt:initialization.obj
 0001:00062230       ?initialize@?$dual_state_global@PAU__crt_locale_data@@@__crt_state_management@@QAEXQAU__crt_locale_data@@@Z 10063230 f i libucrt:initialization.obj
 0001:00062256       ___acrt_initialize         10063256 f   libucrt:initialization.obj
 0001:00062268       ___acrt_thread_attach      10063268 f   libucrt:initialization.obj
 0001:00062273       ___acrt_thread_detach      10063273 f   libucrt:initialization.obj
 0001:0006227b       ___acrt_uninitialize       1006327b f   libucrt:initialization.obj
 0001:000622ab       ___acrt_uninitialize_critical 100632ab f   libucrt:initialization.obj
 0001:000622bd       __set_abort_behavior       100632bd f   libucrt:abort.obj
 0001:000622de       _abort                     100632de f   libucrt:abort.obj
 0001:00062322       _calloc                    10063322 f   libucrt:calloc.obj
 0001:0006232d       _wcsncmp                   1006332d f   libucrt:wcsncmp.obj
 0001:00062367       __malloc_base              10063367 f   libucrt:malloc_base.obj
 0001:000623b5       ??$?RU__acrt_ptd@@@__crt_internal_free_policy@@QBEXQBU__acrt_ptd@@@Z 100633b5 f i libucrt:per_thread_data.obj
 0001:000626a1       ??0?$__crt_unique_heap_ptr@U__acrt_ptd@@U__crt_internal_free_policy@@@@QAE@QAU__acrt_ptd@@@Z 100636a1 f i libucrt:per_thread_data.obj
 0001:000626b1       ??0__crt_scoped_get_last_error_reset@@QAE@XZ 100636b1 f i libucrt:per_thread_data.obj
 0001:000626c2       ??1?$__crt_unique_heap_ptr@U__acrt_ptd@@U__crt_internal_free_policy@@@@QAE@XZ 100636c2 f i libucrt:per_thread_data.obj
 0001:000626d4       ??1__crt_scoped_get_last_error_reset@@QAE@XZ 100636d4 f i libucrt:per_thread_data.obj
 0001:000626dd       ??B?$__crt_unique_heap_ptr@U__acrt_ptd@@U__crt_internal_free_policy@@@@QBE_NXZ 100636dd f i libucrt:per_thread_data.obj
 0001:0006282b       ?dangerous_get_state_array@?$dual_state_global@PAU__crt_locale_data@@@__crt_state_management@@QAEPAPAU__crt_locale_data@@XZ 1006382b f i libucrt:per_thread_data.obj
 0001:00062921       ?detach@?$__crt_unique_heap_ptr@U__acrt_ptd@@U__crt_internal_free_policy@@@@QAEPAU__acrt_ptd@@XZ 10063921 f i libucrt:per_thread_data.obj
 0001:00062927       ?get@?$__crt_unique_heap_ptr@U__acrt_ptd@@U__crt_internal_free_policy@@@@QBEPAU__acrt_ptd@@XZ 10063927 f i libucrt:per_thread_data.obj
 0001:0006292a       ?get_current_state_index@__crt_state_management@@YAIABV__crt_scoped_get_last_error_reset@@@Z 1006392a f i libucrt:per_thread_data.obj
 0001:00062a5f       ?is_valid@?$__crt_unique_heap_ptr@U__acrt_ptd@@U__crt_internal_free_policy@@@@QBE_NXZ 10063a5f f i libucrt:per_thread_data.obj
 0001:00062a66       ?release@?$__crt_unique_heap_ptr@U__acrt_ptd@@U__crt_internal_free_policy@@@@QAEXXZ 10063a66 f i libucrt:per_thread_data.obj
 0001:00062ada       ?value@?$dual_state_global@PAU__crt_locale_data@@@__crt_state_management@@QAEAAPAU__crt_locale_data@@XZ 10063ada f i libucrt:per_thread_data.obj
 0001:00062add       ___acrt_freeptd            10063add f   libucrt:per_thread_data.obj
 0001:00062b09       ___acrt_getptd             10063b09 f   libucrt:per_thread_data.obj
 0001:00062bc6       ___acrt_getptd_head        10063bc6 f   libucrt:per_thread_data.obj
 0001:00062c60       ___acrt_getptd_noexit      10063c60 f   libucrt:per_thread_data.obj
 0001:00062d15       ___acrt_initialize_ptd     10063d15 f   libucrt:per_thread_data.obj
 0001:00062d41       ___acrt_uninitialize_ptd   10063d41 f   libucrt:per_thread_data.obj
 0001:00062d5b       ___threadhandle            10063d5b f   libucrt:per_thread_data.obj
 0001:00062d61       ___threadid                10063d61 f   libucrt:per_thread_data.obj
 0001:00062d6d       __free_base                10063d6d f   libucrt:free_base.obj
 0001:00062db0       __twoToTOS                 10063db0 f   libucrt:common.obj
 0001:00062dc5       __load_CW                  10063dc5 f   libucrt:common.obj
 0001:00062ddc       __convertTOStoQNaN         10063ddc f   libucrt:common.obj
 0001:00062df5       __fload_withFB             10063df5 f   libucrt:common.obj
 0001:00062e38       __checkTOS_withFB          10063e38 f   libucrt:common.obj
 0001:00062e4e       __fast_exit                10063e4e f   libucrt:common.obj
 0001:00062e5b       __math_exit                10063e5b f   libucrt:common.obj
 0001:00062e85       __check_overflow_exit      10063e85 f   libucrt:common.obj
 0001:00062e99       __check_range_exit         10063e99 f   libucrt:common.obj
 0001:00062f40       __CIsqrt                   10063f40 f   libucrt:sqrt_impl.obj
 0001:00062f54       __sqrt_common              10063f54     libucrt:sqrt_impl.obj
 0001:00062ff1       __mbtowc_l                 10063ff1 f   libucrt:mbtowc.obj
 0001:00063133       _mbtowc                    10064133 f   libucrt:mbtowc.obj
 0001:0006314d       __wctomb_l                 1006414d f   libucrt:wctomb.obj
 0001:0006319e       __wctomb_s_l               1006419e f   libucrt:wctomb.obj
 0001:000632f9       _wctomb                    100642f9 f   libucrt:wctomb.obj
 0001:0006332b       _wctomb_s                  1006432b f   libucrt:wctomb.obj
 0001:00063348       ?value@?$dual_state_global@PAU__crt_multibyte_data@@@__crt_state_management@@QAEAAPAU__crt_multibyte_data@@XZ 10064348 f i libucrt:locale_update.obj
 0001:0006334b       ___acrt_should_sync_with_global_locale 1006434b f i libucrt:locale_update.obj
 0001:00063367       ___acrt_update_locale_info 10064367 f   libucrt:locale_update.obj
 0001:00063394       ___acrt_update_multibyte_info 10064394 f   libucrt:locale_update.obj
 0001:000633c1       ?__acrt_fp_classify@@YA?AW4__acrt_fp_class@@ABN@Z 100643c1 f i libucrt:cvt.obj
 0001:00063423       ?__acrt_fp_is_negative@@YA_NABN@Z 10064423 f i libucrt:cvt.obj
 0001:00063d8d       ___acrt_fp_format          10064d8d f   libucrt:cvt.obj
 0001:00063f19       __fputwc_nolock            10064f19 f   libucrt:fputwc.obj
 0001:00064042       __fputwchar                10065042 f   libucrt:fputwc.obj
 0001:0006405c       __putwc_nolock             1006505c f   libucrt:fputwc.obj
 0001:00064067       _fputwc                    10065067 f   libucrt:fputwc.obj
 0001:000640e5       _putwc                     100650e5 f   libucrt:fputwc.obj
 0001:000640f0       _putwchar                  100650f0 f   libucrt:fputwc.obj
 0001:000640fb       ?lowio_handle@__crt_stdio_stream@@QBEHXZ 100650fb f i libucrt:fileno.obj
 0001:00064102       __fileno                   10065102 f   libucrt:fileno.obj
 0001:00064129       ??$?RPAU__crt_stdio_stream_data@@@__crt_internal_free_policy@@QBEXQBQAU__crt_stdio_stream_data@@@Z 10065129 f i libucrt:_file.obj
 0001:0006413b       ??0?$__crt_unique_heap_ptr@PAU__crt_stdio_stream_data@@U__crt_internal_free_policy@@@@QAE@QAPAU__crt_stdio_stream_data@@@Z 1006513b f i libucrt:_file.obj
 0001:0006414b       ??1?$__crt_unique_heap_ptr@PAU__crt_stdio_stream_data@@U__crt_internal_free_policy@@@@QAE@XZ 1006514b f i libucrt:_file.obj
 0001:0006415d       ?detach@?$__crt_unique_heap_ptr@PAU__crt_stdio_stream_data@@U__crt_internal_free_policy@@@@QAEPAPAU__crt_stdio_stream_data@@XZ 1006515d f i libucrt:_file.obj
 0001:00064163       ?release@?$__crt_unique_heap_ptr@PAU__crt_stdio_stream_data@@U__crt_internal_free_policy@@@@QAEXXZ 10065163 f i libucrt:_file.obj
 0001:00064175       ___acrt_initialize_stdio   10065175 f   libucrt:_file.obj
 0001:0006423d       ___acrt_iob_func           1006523d f   libucrt:_file.obj
 0001:0006424d       ___acrt_uninitialize_stdio 1006524d f   libucrt:_file.obj
 0001:00064299       __get_stream_buffer_pointers 10065299 f   libucrt:_file.obj
 0001:000642df       __lock_file                100652df f   libucrt:_file.obj
 0001:000642f3       __unlock_file              100652f3 f   libucrt:_file.obj
 0001:00064307       __fputc_nolock             10065307 f   libucrt:fputc.obj
 0001:00064330       __fputchar                 10065330 f   libucrt:fputc.obj
 0001:0006434a       __putc_nolock              1006534a f   libucrt:fputc.obj
 0001:00064355       _fputc                     10065355 f   libucrt:fputc.obj
 0001:0006445f       _putc                      1006545f f   libucrt:fputc.obj
 0001:0006446a       _putchar                   1006546a f   libucrt:fputc.obj
 0001:00064475       __get_printf_count_output  10065475 f   libucrt:printf_count_output.obj
 0001:0006448a       __set_printf_count_output  1006548a f   libucrt:printf_count_output.obj
 0001:000644b4       ?has_any_buffer@__crt_stdio_stream@@QBE_NXZ 100654b4 f i libucrt:_sftbuf.obj
 0001:000644c3       ?has_any_of@__crt_stdio_stream@@QBE_NJ@Z 100654c3 f i libucrt:_sftbuf.obj
 0001:000644d8       ?has_temporary_buffer@__crt_stdio_stream@@QBE_NXZ 100654d8 f i libucrt:_sftbuf.obj
 0001:000644e4       ?set_flags@__crt_stdio_stream@@QBE_NJ@Z 100654e4 f i libucrt:_sftbuf.obj
 0001:00064508       ?unset_flags@__crt_stdio_stream@@QBE_NJ@Z 10065508 f i libucrt:_sftbuf.obj
 0001:00064531       ___acrt_should_use_temporary_buffer 10065531 f   libucrt:_sftbuf.obj
 0001:0006456c       ___acrt_stdio_begin_temporary_buffering_nolock 1006556c f   libucrt:_sftbuf.obj
 0001:00064618       ___acrt_stdio_end_temporary_buffering_nolock 10065618 f   libucrt:_sftbuf.obj
 0001:00064655       ??$?RU__crt_locale_data@@@__crt_internal_free_policy@@QBEXQBU__crt_locale_data@@@Z 10065655 f i libucrt:wsetlocale.obj
 0001:00064667       ??$?RU__crt_locale_pointers@@@__crt_internal_free_policy@@QBEXQBU__crt_locale_pointers@@@Z 10065667 f i libucrt:wsetlocale.obj
 0001:00064679       ??$?RU__crt_multibyte_data@@@__crt_internal_free_policy@@QBEXQBU__crt_multibyte_data@@@Z 10065679 f i libucrt:wsetlocale.obj
 0001:00064a22       ??0?$__crt_unique_heap_ptr@U__crt_locale_data@@U__crt_internal_free_policy@@@@QAE@QAU__crt_locale_data@@@Z 10065a22 f i libucrt:wsetlocale.obj
 0001:00064a32       ??0?$__crt_unique_heap_ptr@U__crt_locale_pointers@@U__crt_internal_free_policy@@@@QAE@QAU__crt_locale_pointers@@@Z 10065a32 f i libucrt:wsetlocale.obj
 0001:00064a42       ??0?$__crt_unique_heap_ptr@U__crt_multibyte_data@@U__crt_internal_free_policy@@@@QAE@QAU__crt_multibyte_data@@@Z 10065a42 f i libucrt:wsetlocale.obj
 0001:00064a52       ??0_expandlocale_locale_name_cache@@QAE@QA_WIQAU__crt_qualified_locale_data@@@Z 10065a52 f i libucrt:wsetlocale.obj
 0001:00064a9c       ??1?$__crt_unique_heap_ptr@U__crt_locale_data@@U__crt_internal_free_policy@@@@QAE@XZ 10065a9c f i libucrt:wsetlocale.obj
 0001:00064aae       ??1?$__crt_unique_heap_ptr@U__crt_locale_pointers@@U__crt_internal_free_policy@@@@QAE@XZ 10065aae f i libucrt:wsetlocale.obj
 0001:00064ac0       ??1?$__crt_unique_heap_ptr@U__crt_multibyte_data@@U__crt_internal_free_policy@@@@QAE@XZ 10065ac0 f i libucrt:wsetlocale.obj
 0001:00064ad2       ??1_expandlocale_locale_name_cache@@QAE@XZ 10065ad2 f i libucrt:wsetlocale.obj
 0001:00064b02       ??B?$__crt_unique_heap_ptr@U__crt_locale_data@@U__crt_internal_free_policy@@@@QBE_NXZ 10065b02 f i libucrt:wsetlocale.obj
 0001:00064b09       ??B?$__crt_unique_heap_ptr@U__crt_locale_pointers@@U__crt_internal_free_policy@@@@QBE_NXZ 10065b09 f i libucrt:wsetlocale.obj
 0001:00064b10       ??B?$__crt_unique_heap_ptr@U__crt_multibyte_data@@U__crt_internal_free_policy@@@@QBE_NXZ 10065b10 f i libucrt:wsetlocale.obj
 0001:00064d30       ?commit_locale_name@_expandlocale_locale_name_cache@@QAEXQB_WI@Z 10065d30 f i libucrt:wsetlocale.obj
 0001:00064d74       ?commit_locale_name_cache_already_updated@_expandlocale_locale_name_cache@@QAEXQB_WI@Z 10065d74 f i libucrt:wsetlocale.obj
 0001:00064da9       ?detach@?$__crt_unique_heap_ptr@U__crt_locale_data@@U__crt_internal_free_policy@@@@QAEPAU__crt_locale_data@@XZ 10065da9 f i libucrt:wsetlocale.obj
 0001:00064daf       ?detach@?$__crt_unique_heap_ptr@U__crt_locale_pointers@@U__crt_internal_free_policy@@@@QAEPAU__crt_locale_pointers@@XZ 10065daf f i libucrt:wsetlocale.obj
 0001:00064db5       ?detach@?$__crt_unique_heap_ptr@U__crt_multibyte_data@@U__crt_internal_free_policy@@@@QAEPAU__crt_multibyte_data@@XZ 10065db5 f i libucrt:wsetlocale.obj
 0001:00064dbb       ?get@?$__crt_unique_heap_ptr@U__crt_locale_data@@U__crt_internal_free_policy@@@@QBEPAU__crt_locale_data@@XZ 10065dbb f i libucrt:wsetlocale.obj
 0001:00064dbe       ?get@?$__crt_unique_heap_ptr@U__crt_locale_pointers@@U__crt_internal_free_policy@@@@QBEPAU__crt_locale_pointers@@XZ 10065dbe f i libucrt:wsetlocale.obj
 0001:00064dc1       ?get@?$__crt_unique_heap_ptr@U__crt_multibyte_data@@U__crt_internal_free_policy@@@@QBEPAU__crt_multibyte_data@@XZ 10065dc1 f i libucrt:wsetlocale.obj
 0001:00064dc4       ?is_valid@?$__crt_unique_heap_ptr@U__crt_locale_data@@U__crt_internal_free_policy@@@@QBE_NXZ 10065dc4 f i libucrt:wsetlocale.obj
 0001:00064dcb       ?is_valid@?$__crt_unique_heap_ptr@U__crt_locale_pointers@@U__crt_internal_free_policy@@@@QBE_NXZ 10065dcb f i libucrt:wsetlocale.obj
 0001:00064dd2       ?is_valid@?$__crt_unique_heap_ptr@U__crt_multibyte_data@@U__crt_internal_free_policy@@@@QBE_NXZ 10065dd2 f i libucrt:wsetlocale.obj
 0001:00064dd9       ?release@?$__crt_unique_heap_ptr@U__crt_locale_data@@U__crt_internal_free_policy@@@@QAEXXZ 10065dd9 f i libucrt:wsetlocale.obj
 0001:00064deb       ?release@?$__crt_unique_heap_ptr@U__crt_locale_pointers@@U__crt_internal_free_policy@@@@QAEXXZ 10065deb f i libucrt:wsetlocale.obj
 0001:00064dfd       ?release@?$__crt_unique_heap_ptr@U__crt_multibyte_data@@U__crt_internal_free_policy@@@@QAEXXZ 10065dfd f i libucrt:wsetlocale.obj
 0001:00064e0f       ___acrt_copy_locale_name   10065e0f f   libucrt:wsetlocale.obj
 0001:00064e6f       ___acrt_set_locale_changed 10065e6f f   libucrt:wsetlocale.obj
 0001:00064e7a       ___acrt_uninitialize_locale 10065e7a f   libucrt:wsetlocale.obj
 0001:00064ea1       ___ascii_towlower          10065ea1 f i libucrt:wsetlocale.obj
 0001:00064eb8       ___lc_lctowcs              10065eb8 f   libucrt:wsetlocale.obj
 0001:00064f28       ___lc_wcstolc              10065f28 f   libucrt:wsetlocale.obj
 0001:00065078       __configthreadlocale       10066078 f   libucrt:wsetlocale.obj
 0001:00065109       __create_locale            10066109 f   libucrt:wsetlocale.obj
 0001:00065533       __free_locale              10066533 f   libucrt:wsetlocale.obj
 0001:000655f5       __get_current_locale       100665f5 f   libucrt:wsetlocale.obj
 0001:00065690       __wcreate_locale           10066690 f   libucrt:wsetlocale.obj
 0001:00065797       __wcscats                  10066797 f   libucrt:wsetlocale.obj
 0001:000657d8       __wsetlocale               100667d8 f   libucrt:wsetlocale.obj
 0001:0006653d       ___p___mb_cur_max          1006753d f   libucrt:nlsdata.obj
 0001:000666ee       ___acrt_initialize_lowio   100676ee f   libucrt:ioinit.obj
 0001:0006674e       ___acrt_uninitialize_lowio 1006774e f   libucrt:ioinit.obj
 0001:0006677a       ??0?$__crt_scoped_stack_ptr@_W@@QAE@U?$__crt_scoped_stack_ptr_tag@_W@@@Z 1006777a f i libucrt:lcmapstringa.obj
 0001:0006678a       ??0?$__crt_scoped_stack_ptr_tag@_W@@QAE@QA_W@Z 1006778a f i libucrt:lcmapstringa.obj
 0001:0006679a       ??1?$__crt_scoped_stack_ptr@_W@@QAE@XZ 1006779a f i libucrt:lcmapstringa.obj
 0001:000667a3       ??B?$__crt_scoped_stack_ptr@_W@@QBE_NXZ 100677a3 f i libucrt:lcmapstringa.obj
 0001:00066994       ?get@?$__crt_scoped_stack_ptr@_W@@QBEPA_WXZ 10067994 f i libucrt:lcmapstringa.obj
 0001:00066997       ___acrt_LCMapStringA       10067997 f   libucrt:lcmapstringa.obj
 0001:000669e0       ?dangerous_get_state_array@?$dual_state_global@PAPAD@__crt_state_management@@QAEPAPAPADXZ 100679e0 f i libucrt:timeset.obj
 0001:000669e3       ?dangerous_get_state_array@?$dual_state_global@PAPA_W@__crt_state_management@@QAEPAPAPA_WXZ 100679e3 f i libucrt:timeset.obj
 0001:000669e6       ?initialize@?$dual_state_global@H@__crt_state_management@@QAEXH@Z 100679e6 f i libucrt:timeset.obj
 0001:00066a0c       ?initialize@?$dual_state_global@J@__crt_state_management@@QAEXJ@Z 10067a0c f i libucrt:timeset.obj
 0001:00066a32       ?value@?$dual_state_global@H@__crt_state_management@@QAEAAHXZ 10067a32 f i libucrt:timeset.obj
 0001:00066a35       ?value@?$dual_state_global@J@__crt_state_management@@QAEAAJXZ 10067a35 f i libucrt:timeset.obj
 0001:00066a38       ___acrt_initialize_timeset 10067a38 f   libucrt:timeset.obj
 0001:00066a6d       ___daylight                10067a6d f   libucrt:timeset.obj
 0001:00066a73       ___dstbias                 10067a73 f   libucrt:timeset.obj
 0001:00066a79       ___timezone                10067a79 f   libucrt:timeset.obj
 0001:00066a7f       ___tzname                  10067a7f f   libucrt:timeset.obj
 0001:00066a85       ___wide_tzname             10067a85 f   libucrt:timeset.obj
 0001:00066a8b       __get_daylight             10067a8b f   libucrt:timeset.obj
 0001:00066ab7       __get_dstbias              10067ab7 f   libucrt:timeset.obj
 0001:00066ae3       __get_timezone             10067ae3 f   libucrt:timeset.obj
 0001:00066b0f       __get_tzname               10067b0f f   libucrt:timeset.obj
 0001:00066bc0       ??$?RUtm@@@__crt_internal_free_policy@@QBEXQBUtm@@@Z 10067bc0 f i libucrt:gmtime.obj
 0001:00066bd2       ??$__crt_time_elapsed_leap_years@H@@YAHH@Z 10067bd2 f i libucrt:gmtime.obj
 0001:00066c0c       ??$__crt_time_is_leap_year@H@@YA_NH@Z 10067c0c f i libucrt:gmtime.obj
 0001:00066eee       ??0?$__crt_unique_heap_ptr@Utm@@U__crt_internal_free_policy@@@@QAE@QAUtm@@@Z 10067eee f i libucrt:gmtime.obj
 0001:00066efe       ??1?$__crt_unique_heap_ptr@Utm@@U__crt_internal_free_policy@@@@QAE@XZ 10067efe f i libucrt:gmtime.obj
 0001:0006702b       ?detach@?$__crt_unique_heap_ptr@Utm@@U__crt_internal_free_policy@@@@QAEPAUtm@@XZ 1006802b f i libucrt:gmtime.obj
 0001:00067031       ?release@?$__crt_unique_heap_ptr@Utm@@U__crt_internal_free_policy@@@@QAEXXZ 10068031 f i libucrt:gmtime.obj
 0001:00067043       ___getgmtimebuf            10068043 f   libucrt:gmtime.obj
 0001:00067081       __gmtime32                 10068081 f   libucrt:gmtime.obj
 0001:000670a8       __gmtime32_s               100680a8 f   libucrt:gmtime.obj
 0001:000670b3       __gmtime64                 100680b3 f   libucrt:gmtime.obj
 0001:000670da       __gmtime64_s               100680da f   libucrt:gmtime.obj
 0001:000670e5       ?__acrt_get_utf8_acp_compatibility_codepage@@YAIXZ 100680e5 f i libucrt:tzset.obj
 0001:0006733e       ?_set_daylight@@YAXH@Z     1006833e f i libucrt:tzset.obj
 0001:0006734f       ?_set_dstbias@@YAXJ@Z      1006834f f i libucrt:tzset.obj
 0001:00067360       ?_set_timezone@@YAXJ@Z     10068360 f i libucrt:tzset.obj
 0001:000674b1       ?dangerous_get_state_array@?$dual_state_global@J@__crt_state_management@@QAEPAJXZ 100684b1 f i libucrt:tzset.obj
 0001:00067a8e       ___tzset                   10068a8e f   libucrt:tzset.obj
 0001:00067aeb       __isindst                  10068aeb f   libucrt:tzset.obj
 0001:00067b3f       __tzset                    10068b3f f   libucrt:tzset.obj
 0001:00067be9       ___acrt_MultiByteToWideChar 10068be9 f   libucrt:multibytetowidechar.obj
 0001:00067cca       ___acrt_WideCharToMultiByte 10068cca f   libucrt:widechartomultibyte.obj
 0001:00067d81       ?__crt_get_2digit_year@@YAHH@Z 10068d81 f i libucrt:wcsftime.obj
 0001:00067d98       ?__crt_get_century@@YAHH@Z 10068d98 f i libucrt:wcsftime.obj
 0001:00068e10       __W_Getdays                10069e10 f   libucrt:wcsftime.obj
 0001:00068f6f       __W_Getmonths              10069f6f f   libucrt:wcsftime.obj
 0001:000690ce       __W_Gettnames              1006a0ce f   libucrt:wcsftime.obj
 0001:000697ca       __Wcsftime                 1006a7ca f   libucrt:wcsftime.obj
 0001:000697ea       __Wcsftime_l               1006a7ea f   libucrt:wcsftime.obj
 0001:0006995b       __wcsftime_l               1006a95b f   libucrt:wcsftime.obj
 0001:0006997b       _wcsftime                  1006a97b f   libucrt:wcsftime.obj
 0001:000699a7       ??$?B$$A6GHPA_WKJ@Z@__crt_fast_encoded_nullptr_t@@QBEP6GHPA_WKJ@ZXZ 1006a9a7 f i libucrt:winapi_thunks.obj
 0001:00069a4f       ??$__crt_fast_decode_pointer@P6GHPA_WKJ@Z@@YAP6GHPA_WKJ@ZQ6GH0KJ@Z@Z 1006aa4f f i libucrt:winapi_thunks.obj
 0001:00069a65       ??$__crt_fast_decode_pointer@PAX@@YAPAXQAX@Z 1006aa65 f i libucrt:winapi_thunks.obj
 0001:00069a7b       ??$__crt_fast_encode_pointer@P6GHPA_WKJ@Z@@YAP6GHPA_WKJ@ZQ6GH0KJ@Z@Z 1006aa7b f i libucrt:winapi_thunks.obj
 0001:0006a107       _GetCurrentThreadEffectiveToken 1006b107 f i libucrt:winapi_thunks.obj
 0001:0006a10b       ___acrt_AppPolicyGetProcessTerminationMethodInternal@4 1006b10b f   libucrt:winapi_thunks.obj
 0001:0006a14b       ___acrt_AppPolicyGetShowDeveloperDiagnosticInternal@4 1006b14b f   libucrt:winapi_thunks.obj
 0001:0006a18b       ___acrt_AppPolicyGetThreadInitializationTypeInternal@4 1006b18b f   libucrt:winapi_thunks.obj
 0001:0006a1cb       ___acrt_AppPolicyGetWindowingModelInternal@4 1006b1cb f   libucrt:winapi_thunks.obj
 0001:0006a20b       ___acrt_AreFileApisANSI@0  1006b20b f   libucrt:winapi_thunks.obj
 0001:0006a22a       ___acrt_CompareStringEx@36 1006b22a f   libucrt:winapi_thunks.obj
 0001:0006a287       ___acrt_EnumSystemLocalesEx@16 1006b287 f   libucrt:winapi_thunks.obj
 0001:0006a2db       ___acrt_FlsAlloc@4         1006b2db f   libucrt:winapi_thunks.obj
 0001:0006a31a       ___acrt_FlsFree@4          1006b31a f   libucrt:winapi_thunks.obj
 0001:0006a359       ___acrt_FlsGetValue@4      1006b359 f   libucrt:winapi_thunks.obj
 0001:0006a398       ___acrt_FlsSetValue@8      1006b398 f   libucrt:winapi_thunks.obj
 0001:0006a3da       ___acrt_GetDateFormatEx@28 1006b3da f   libucrt:winapi_thunks.obj
 0001:0006a431       ___acrt_GetEnabledXStateFeatures@0 1006b431 f   libucrt:winapi_thunks.obj
 0001:0006a465       ___acrt_GetLocaleInfoEx@16 1006b465 f   libucrt:winapi_thunks.obj
 0001:0006a4a4       ___acrt_GetSystemTimePreciseAsFileTime@4 1006b4a4 f   libucrt:winapi_thunks.obj
 0001:0006a4e3       ___acrt_GetTimeFormatEx@24 1006b4e3 f   libucrt:winapi_thunks.obj
 0001:0006a528       ___acrt_GetUserDefaultLocaleName@8 1006b528 f   libucrt:winapi_thunks.obj
 0001:0006a564       ___acrt_GetXStateFeaturesMask@8 1006b564 f   libucrt:winapi_thunks.obj
 0001:0006a5a4       ___acrt_InitializeCriticalSectionEx@12 1006b5a4 f   libucrt:winapi_thunks.obj
 0001:0006a5ef       ___acrt_IsValidLocaleName@4 1006b5ef f   libucrt:winapi_thunks.obj
 0001:0006a627       ___acrt_LCIDToLocaleName@16 1006b627 f   libucrt:winapi_thunks.obj
 0001:0006a666       ___acrt_LCMapStringEx@36   1006b666 f   libucrt:winapi_thunks.obj
 0001:0006a6c3       ___acrt_LocaleNameToLCID@8 1006b6c3 f   libucrt:winapi_thunks.obj
 0001:0006a6f4       ___acrt_LocateXStateFeature@12 1006b6f4 f   libucrt:winapi_thunks.obj
 0001:0006a723       ___acrt_MessageBoxA@16     1006b723 f   libucrt:winapi_thunks.obj
 0001:0006a755       ___acrt_MessageBoxW@16     1006b755 f   libucrt:winapi_thunks.obj
 0001:0006a787       ___acrt_RoInitialize@4     1006b787 f   libucrt:winapi_thunks.obj
 0001:0006a7c2       ___acrt_RoUninitialize@0   1006b7c2 f   libucrt:winapi_thunks.obj
 0001:0006a7f0       ___acrt_RtlGenRandom@8     1006b7f0 f   libucrt:winapi_thunks.obj
 0001:0006a830       ___acrt_SetThreadStackGuarantee@4 1006b830 f   libucrt:winapi_thunks.obj
 0001:0006a86b       ___acrt_can_show_message_box 1006b86b f   libucrt:winapi_thunks.obj
 0001:0006a892       ___acrt_can_use_vista_locale_apis 1006b892 f   libucrt:winapi_thunks.obj
 0001:0006a89d       ___acrt_can_use_xstate_apis 1006b89d f   libucrt:winapi_thunks.obj
