 tdraw

 Timestamp is 62e3e148 (Fri Jul 29 09:31:52 2022)

 Preferred load address is 10000000

 Start         Length     Name                   Class
 0001:00000000 000002e0H .text$di                CODE
 0001:000002e0 00081950H .text$mn                CODE
 0001:00081c30 00001c34H .text$x                 CODE
 0002:00000000 00000280H .idata$5                DATA
 0002:00000280 0000000cH .00cfg                  DATA
 0002:0000028c 00000004H .CRT$XCA                DATA
 0002:00000290 0000005cH .CRT$XCU                DATA
 0002:000002ec 00000004H .CRT$XCZ                DATA
 0002:000002f0 00000004H .CRT$XIA                DATA
 0002:000002f4 00000010H .CRT$XIC                DATA
 0002:00000304 00000004H .CRT$XIZ                DATA
 0002:00000308 00000004H .CRT$XPA                DATA
 0002:0000030c 00000008H .CRT$XPX                DATA
 0002:00000314 00000004H .CRT$XPXA               DATA
 0002:00000318 00000004H .CRT$XPZ                DATA
 0002:0000031c 00000004H .CRT$XTA                DATA
 0002:00000320 00000010H .CRT$XTZ                DATA
 0002:00000324 00000000H .gfids$y                DATA
 0002:00000330 0000af10H .rdata                  DATA
 0002:0000b240 00000040H .rdata$CastGuardVftablesA DATA
 0002:0000b280 00000040H .rdata$CastGuardVftablesC DATA
 0002:0000b2c0 00000a28H .rdata$r                DATA
 0002:0000bce8 000001e8H .rdata$sxdata           DATA
 0002:0000bed0 000006b8H .rdata$voltmd           DATA
 0002:0000c588 000003a0H .rdata$zzzdbg           DATA
 0002:0000c928 00000004H .rtc$IAA                DATA
 0002:0000c92c 00000004H .rtc$IZZ                DATA
 0002:0000c930 00000004H .rtc$TAA                DATA
 0002:0000c934 00000004H .rtc$TZZ                DATA
 0002:0000c938 000027c8H .xdata$x                DATA
 0002:0000f100 000002bcH .edata                  DATA
 0002:0000f3bc 00000064H .idata$2                DATA
 0002:0000f420 00000014H .idata$3                DATA
 0002:0000f434 00000280H .idata$4                DATA
 0002:0000f6b4 00000b68H .idata$6                DATA
 0003:00000000 00003550H .data                   DATA
 0003:00003550 000001acH .data$r                 DATA
 0003:000036fc 0000028cH .data$rs                DATA
 0003:00003988 00001a28H .bss                    DATA
 0004:00000000 00000360H .rsrc$01                DATA
 0004:00000360 0001da08H .rsrc$02                DATA

  Address         Publics by Value              Rva+Base       Lib:Object

 0000:00000000       ___AbsoluteZero            00000000     <absolute>
 0000:00000000       ___arm64x_extra_rfe_table  00000000     <absolute>
 0000:00000000       ___arm64x_extra_rfe_table_size 00000000     <absolute>
 0000:00000000       ___arm64x_native_entrypoint 00000000     <absolute>
 0000:00000000       ___arm64x_redirection_metadata 00000000     <absolute>
 0000:00000000       ___arm64x_redirection_metadata_count 00000000     <absolute>
 0000:00000000       ___dynamic_value_reloc_table 00000000     <absolute>
 0000:00000000       ___enclave_config          00000000     <absolute>
 0000:00000000       ___guard_check_icall_a64n_fptr 00000000     <absolute>
 0000:00000000       ___guard_eh_cont_count     00000000     <absolute>
 0000:00000000       ___guard_eh_cont_table     00000000     <absolute>
 0000:00000000       ___guard_fids_count        00000000     <absolute>
 0000:00000000       ___guard_fids_table        00000000     <absolute>
 0000:00000000       ___guard_iat_count         00000000     <absolute>
 0000:00000000       ___guard_iat_table         00000000     <absolute>
 0000:00000000       ___guard_longjmp_count     00000000     <absolute>
 0000:00000000       ___guard_longjmp_table     00000000     <absolute>
 0000:00000000       ___hybrid_auxiliary_iat    00000000     <absolute>
 0000:00000000       ___hybrid_auxiliary_iat_copy 00000000     <absolute>
 0000:00000000       ___hybrid_code_map         00000000     <absolute>
 0000:00000000       ___hybrid_code_map_count   00000000     <absolute>
 0000:00000000       ___x64_code_ranges_to_entry_points 00000000     <absolute>
 0000:00000000       ___x64_code_ranges_to_entry_points_count 00000000     <absolute>
 0000:00000000       __except_list              00000000     <absolute>
 0000:0000007a       ___safe_se_handler_count   0000007a     <absolute>
 0000:00000100       ___guard_flags             00000100     <absolute>
 0000:00000000       ___ImageBase               10000000     <linker-defined>
 0001:000002e0       ??0MappedMap@@QAE@HH@Z     100012e0 f   MappedMAP.obj
 0001:00000340       ??1MappedMap@@QAE@XZ       10001340 f   MappedMAP.obj
 0001:00000390       ?NowDrawMapped@MappedMap@@QAEHPAEPAUtagPOINT@@@Z 10001390 f   MappedMAP.obj
 0001:00000a70       ?PictureInfo@MappedMap@@QAEPAEPAPAEPAUtagPOINT@@@Z 10001a70 f   MappedMAP.obj
 0001:00000aa0       ??0MegaMapControl@@QAE@PAVFullScreenMinimap@@PAUtagRECT@@11HHHHHH@Z 10001aa0 f   MegamapControl.obj
 0001:00000c70       ??1MegaMapControl@@QAE@XZ  10001c70 f   MegamapControl.obj
 0001:00000d10       ??_GInlineSingleHook@@QAEPAXI@Z 10001d10 f i MegamapControl.obj
 0001:00000d40       ?CheckInControl@MegaMapControl@@AAEHHH@Z 10001d40 f   MegamapControl.obj
 0001:00000e70       ?CheckInMap@MegaMapControl@@AAEHHH@Z 10001e70 f   MegamapControl.obj
 0001:00000ec0       ?DoubleClick@MegaMapControl@@AAEHHH_N@Z 10001ec0 f   MegamapControl.obj
 0001:00001010       ?EnterMegaMap@MegaMapControl@@QAEXXZ 10002010 f   MegamapControl.obj
 0001:00001100       ?FindMouseUnitRounte@@YGHPAUtagInlineX86StackBuffer@@@Z 10002100 f   MegamapControl.obj
 0001:00001140       ?GetGridPosFeatureRounte@@YGHPAUtagInlineX86StackBuffer@@@Z 10002140 f   MegamapControl.obj
 0001:00001180       ?GetPosition_DwordRounte@@YGHPAUtagInlineX86StackBuffer@@@Z 10002180 f   MegamapControl.obj
 0001:000011b0       ?Init@MegaMapControl@@QAEXPAVFullScreenMinimap@@PAUtagRECT@@11HHHHHH@Z 100021b0 f   MegamapControl.obj
 0001:00001360       ?IsBliting@MegaMapControl@@QAEHXZ 10002360 f   MegamapControl.obj
 0001:00001380       ?IsDrawCursor@MegaMapControl@@QAEHHH@Z 10002380 f   MegamapControl.obj
 0001:00001500       ?IsDrawOrder@MegaMapControl@@QAEHXZ 10002500 f   MegamapControl.obj
 0001:00001530       ?IsDrawRect@MegaMapControl@@QAEHH@Z 10002530 f   MegamapControl.obj
 0001:00001600       ?IsInControl@MegaMapControl@@QAEHXZ 10002600 f   MegamapControl.obj
 0001:00001620       ?IsInMap@MegaMapControl@@QAEHXZ 10002620 f   MegamapControl.obj
 0001:00001640       ?LeftDown@MegaMapControl@@AAEHHH_N@Z 10002640 f   MegamapControl.obj
 0001:00001660       ?LeftUp@MegaMapControl@@AAEHHH_N@Z 10002660 f   MegamapControl.obj
 0001:00001960       ?MegamapMoveSceen@MegaMapControl@@AAEXHH@Z 10002960 f   MegamapControl.obj
 0001:00001a50       ?Message@MegaMapControl@@QAE_NPAUHWND__@@IIJ@Z 10002a50 f   MegamapControl.obj
 0001:00001e80       ?MouseMove@MegaMapControl@@AAEHHH@Z 10002e80 f   MegamapControl.obj
 0001:00002100       ?MoveScreen@MegaMapControl@@AAEXHHH@Z 10003100 f   MegamapControl.obj
 0001:00002210       ?QuitMegaMap@MegaMapControl@@QAEXXZ 10003210 f   MegamapControl.obj
 0001:00002280       ?ReadSelectRect@MegaMapControl@@QAEPAUtagRECT@@PAU2@@Z 10003280 f   MegamapControl.obj
 0001:000022b0       ?ReadSelectState@MegaMapControl@@QAE?AW4SELECTBUTTOM@selectbuttom@@XZ 100032b0 f   MegamapControl.obj
 0001:000022d0       ?RightDown@MegaMapControl@@AAEHHH_N@Z 100032d0 f   MegamapControl.obj
 0001:000022f0       ?RightUp@MegaMapControl@@AAEHHH_N@Z 100032f0 f   MegamapControl.obj
 0001:00002430       ?ScreenPos2TAPos@MegaMapControl@@AAEPAU_Position_Dword@@PAU2@HHH@Z 10003430 f   MegamapControl.obj
 0001:000024c0       ?SelectDown@MegaMapControl@@AAEHHH_N@Z 100034c0 f   MegamapControl.obj
 0001:00002500       ?SelectMove@MegaMapControl@@AAEHHH_N0@Z 10003500 f   MegamapControl.obj
 0001:000025c0       ?SelectUp@MegaMapControl@@AAEHHH_N0@Z 100035c0 f   MegamapControl.obj
 0001:000027e0       ?Set@MegaMapControl@@QAEXH@Z 100037e0 f   MegamapControl.obj
 0001:00002800       ?TAPos2ScreenPos@MegaMapControl@@AAEPAUtagPOINT@@PAU2@III@Z 10003800 f   MegamapControl.obj
 0001:00002870       ?WheelBack@MegaMapControl@@AAEHHH@Z 10003870 f   MegamapControl.obj
 0001:000028b0       ?WheelFont@MegaMapControl@@AAEHHH@Z 100038b0 f   MegamapControl.obj
 0001:00002910       ?abs@@YGJJ@Z               10003910 f i MegamapControl.obj
 0001:00002930       ??$?0$$V@?$_Compressed_pair@V?$allocator@U_Position_Dword@@@std@@V?$_Vector_val@U?$_Simple_types@U_Position_Dword@@@std@@@2@$00@std@@QAE@U_Zero_then_variadic_args_t@1@@Z 10003930 f i MegamapTAStuff.obj
 0001:00002950       ??$_Allocate@$07U_Default_allocate_traits@std@@$0A@@std@@YGPAXI@Z 10003950 f i MegamapTAStuff.obj
 0001:00002980       ??$_Allocate_manually_vector_aligned@U_Default_allocate_traits@std@@@std@@YGPAXI@Z 10003980 f i MegamapTAStuff.obj
 0001:000029f0       ??$_Construct_in_place@U_Position_Dword@@ABU1@@std@@YGXAAU_Position_Dword@@ABU1@@Z 100039f0 f i MegamapTAStuff.obj
 0001:00002a40       ??$_Copy_memmove@PAU_Position_Dword@@PAU1@@std@@YGPAU_Position_Dword@@PAU1@00@Z 10003a40 f i MegamapTAStuff.obj
 0001:00002ab0       ??$_Deallocate@$07$0A@@std@@YGXPAXI@Z 10003ab0 f i MegamapTAStuff.obj
 0001:00002b10       ??$_Destroy_range@V?$allocator@U_Position_Dword@@@std@@@std@@YGXPAU_Position_Dword@@QAU1@AAV?$allocator@U_Position_Dword@@@0@@Z 10003b10 f i MegamapTAStuff.obj
 0001:00002b20       ??$_Emplace_back@U_Position_Dword@@@?$_Uninitialized_backout_al@V?$allocator@U_Position_Dword@@@std@@@std@@QAEX$$QAU_Position_Dword@@@Z 10003b20 f i MegamapTAStuff.obj
 0001:00002b60       ??$_Emplace_back_with_unused_capacity@ABU_Position_Dword@@@?$vector@U_Position_Dword@@V?$allocator@U_Position_Dword@@@std@@@std@@AAEAAU_Position_Dword@@ABU2@@Z 10003b60 f i MegamapTAStuff.obj
 0001:00002bc0       ??$_Emplace_one_at_back@ABU_Position_Dword@@@?$vector@U_Position_Dword@@V?$allocator@U_Position_Dword@@@std@@@std@@AAEAAU_Position_Dword@@ABU2@@Z 10003bc0 f i MegamapTAStuff.obj
 0001:00002c20       ??$_Emplace_reallocate@ABU_Position_Dword@@@?$vector@U_Position_Dword@@V?$allocator@U_Position_Dword@@@std@@@std@@AAEPAU_Position_Dword@@QAU2@ABU2@@Z 10003c20 f i MegamapTAStuff.obj
 0001:00002e00       ??$_Get_size_of_n@$0M@@std@@YGII@Z 10003e00 f i MegamapTAStuff.obj
 0001:00002e30       ??$_Get_unwrapped@ABQAU_Position_Dword@@@std@@YG?A_TABQAU_Position_Dword@@@Z 10003e30 f i MegamapTAStuff.obj
 0001:00002e40       ??$_To_address@PAU_Position_Dword@@@std@@YG?A_PABQAU_Position_Dword@@@Z 10003e40 f i MegamapTAStuff.obj
 0001:00002e50       ??$_Unfancy@U_Position_Dword@@@std@@YGPAU_Position_Dword@@PAU1@@Z 10003e50 f i MegamapTAStuff.obj
 0001:00002e60       ??$_Uninitialized_move@PAU_Position_Dword@@V?$allocator@U_Position_Dword@@@std@@@std@@YGPAU_Position_Dword@@QAU1@0PAU1@AAV?$allocator@U_Position_Dword@@@0@@Z 10003e60 f i MegamapTAStuff.obj
 0001:00002f40       ??$_Voidify_iter@PAU_Position_Dword@@@std@@YGPAXPAU_Position_Dword@@@Z 10003f40 f i MegamapTAStuff.obj
 0001:00002f50       ??$addressof@U_Position_Dword@@@std@@YGPAU_Position_Dword@@AAU1@@Z 10003f50 f i MegamapTAStuff.obj
 0001:00002f60       ??$addressof@V?$_Vector_val@U?$_Simple_types@U_Position_Dword@@@std@@@std@@@std@@YGPAV?$_Vector_val@U?$_Simple_types@U_Position_Dword@@@std@@@0@AAV10@@Z 10003f60 f i MegamapTAStuff.obj
 0001:00002f70       ??$construct@U_Position_Dword@@ABU1@@?$_Default_allocator_traits@V?$allocator@U_Position_Dword@@@std@@@std@@SGXAAV?$allocator@U_Position_Dword@@@1@QAU_Position_Dword@@ABU3@@Z 10003f70 f i MegamapTAStuff.obj
 0001:00002fb0       ??$construct@U_Position_Dword@@U1@@?$_Default_allocator_traits@V?$allocator@U_Position_Dword@@@std@@@std@@SGXAAV?$allocator@U_Position_Dword@@@1@QAU_Position_Dword@@$$QAU3@@Z 10003fb0 f i MegamapTAStuff.obj
 0001:00002ff0       ??$emplace_back@ABU_Position_Dword@@@?$vector@U_Position_Dword@@V?$allocator@U_Position_Dword@@@std@@@std@@QAE?A_TABU_Position_Dword@@@Z 10003ff0 f i MegamapTAStuff.obj
 0001:00003020       ??$forward@ABU_Position_Dword@@@std@@YGABU_Position_Dword@@ABU1@@Z 10004020 f i MegamapTAStuff.obj
 0001:00003030       ??$forward@U_Position_Dword@@@std@@YG$$QAU_Position_Dword@@AAU1@@Z 10004030 f i MegamapTAStuff.obj
 0001:00003040       ??$min@I@std@@YGABIABI0@Z  10004040 f i MegamapTAStuff.obj
 0001:00003070       ??$move@AAU_Position_Dword@@@std@@YG$$QAU_Position_Dword@@AAU1@@Z 10004070 f i MegamapTAStuff.obj
 0001:00003080       ??$sprintf_s@$0BAA@@@YAHAAY0BAA@DPBDZZ 10004080 f i MegamapTAStuff.obj
 0001:000030b0       ??0?$_Uninitialized_backout_al@V?$allocator@U_Position_Dword@@@std@@@std@@QAE@PAU_Position_Dword@@AAV?$allocator@U_Position_Dword@@@1@@Z 100040b0 f i MegamapTAStuff.obj
 0001:000030e0       ??0?$_Vector_const_iterator@V?$_Vector_val@U?$_Simple_types@U_Position_Dword@@@std@@@std@@@std@@QAE@PAU_Position_Dword@@PBU_Container_base0@1@@Z 100040e0 f i MegamapTAStuff.obj
 0001:00003110       ??0?$_Vector_iterator@V?$_Vector_val@U?$_Simple_types@U_Position_Dword@@@std@@@std@@@std@@QAE@PAU_Position_Dword@@PBU_Container_base0@1@@Z 10004110 f i MegamapTAStuff.obj
 0001:00003130       ??0?$_Vector_val@U?$_Simple_types@U_Position_Dword@@@std@@@std@@QAE@XZ 10004130 f i MegamapTAStuff.obj
 0001:00003160       ??0?$allocator@U_Position_Dword@@@std@@QAE@XZ 10004160 f i MegamapTAStuff.obj
 0001:00003170       ??0?$vector@U_Position_Dword@@V?$allocator@U_Position_Dword@@@std@@@std@@QAE@XZ 10004170 f i MegamapTAStuff.obj
 0001:000031a0       ??0MegamapTAStuff@@QAE@PAVFullScreenMinimap@@PAUtagRECT@@11HHH@Z 100041a0 f   MegamapTAStuff.obj
 0001:00003220       ??0bad_alloc@std@@AAE@QBD@Z 10004220 f i MegamapTAStuff.obj
 0001:00003250       ??0bad_alloc@std@@QAE@ABV01@@Z 10004250 f i MegamapTAStuff.obj
 0001:00003280       ??0bad_array_new_length@std@@QAE@ABV01@@Z 10004280 f i MegamapTAStuff.obj
 0001:000032b0       ??0bad_array_new_length@std@@QAE@XZ 100042b0 f i MegamapTAStuff.obj
 0001:000032e0       ??0exception@std@@QAE@ABV01@@Z 100042e0 f i MegamapTAStuff.obj
 0001:00003320       ??0exception@std@@QAE@QBDH@Z 10004320 f i MegamapTAStuff.obj
 0001:00003350       ??1?$_Uninitialized_backout_al@V?$allocator@U_Position_Dword@@@std@@@std@@QAE@XZ 10004350 f i MegamapTAStuff.obj
 0001:00003380       ??1?$vector@U_Position_Dword@@V?$allocator@U_Position_Dword@@@std@@@std@@QAE@XZ 10004380 f i MegamapTAStuff.obj
 0001:000033a0       ??1MegamapTAStuff@@QAE@XZ  100043a0 f   MegamapTAStuff.obj
 0001:000033e0       ??1bad_alloc@std@@UAE@XZ   100043e0 f i MegamapTAStuff.obj
 0001:00003400       ??1bad_array_new_length@std@@UAE@XZ 10004400 f i MegamapTAStuff.obj
 0001:00003420       ??1exception@std@@UAE@XZ   10004420 f i MegamapTAStuff.obj
 0001:00003450       ??2@YAPAXIPAX@Z            10004450 f i MegamapTAStuff.obj
 0001:00003460       ??8?$_Vector_const_iterator@V?$_Vector_val@U?$_Simple_types@U_Position_Dword@@@std@@@std@@@std@@QBE_NABV01@@Z 10004460 f i MegamapTAStuff.obj
 0001:000034a0       ??9?$_Vector_const_iterator@V?$_Vector_val@U?$_Simple_types@U_Position_Dword@@@std@@@std@@@std@@QBE_NABV01@@Z 100044a0 f i MegamapTAStuff.obj
 0001:000034e0       ??C?$_Vector_iterator@V?$_Vector_val@U?$_Simple_types@U_Position_Dword@@@std@@@std@@@std@@QBEPAU_Position_Dword@@XZ 100044e0 f i MegamapTAStuff.obj
 0001:000034f0       ??E?$_Vector_const_iterator@V?$_Vector_val@U?$_Simple_types@U_Position_Dword@@@std@@@std@@@std@@QAEAAV01@XZ 100044f0 f i MegamapTAStuff.obj
 0001:00003510       ??E?$_Vector_iterator@V?$_Vector_val@U?$_Simple_types@U_Position_Dword@@@std@@@std@@@std@@QAEAAV01@XZ 10004510 f i MegamapTAStuff.obj
 0001:00003530       ??_Ebad_alloc@std@@UAEPAXI@Z 10004530 f i MegamapTAStuff.obj
 0001:00003530       ??_Gbad_alloc@std@@UAEPAXI@Z 10004530 f i MegamapTAStuff.obj
 0001:00003560       ??_Ebad_array_new_length@std@@UAEPAXI@Z 10004560 f i MegamapTAStuff.obj
 0001:00003560       ??_Gbad_array_new_length@std@@UAEPAXI@Z 10004560 f i MegamapTAStuff.obj
 0001:00003590       ??_Eexception@std@@UAEPAXI@Z 10004590 f i MegamapTAStuff.obj
 0001:00003590       ??_Gexception@std@@UAEPAXI@Z 10004590 f i MegamapTAStuff.obj
 0001:000035c0       ?BlitOrder@MegamapTAStuff@@QAEXPAXHHH@Z 100045c0 f   MegamapTAStuff.obj
 0001:00003d50       ?BlitSelect@MegamapTAStuff@@QAEXPAXHHH@Z 10004d50 f   MegamapTAStuff.obj
 0001:00003f40       ?DrawBuildRect@MegamapTAStuff@@QAEXPAU_OFFSCREEN@@EPAUUnitDefStruct@@HHH@Z 10004f40 f   MegamapTAStuff.obj
 0001:00004070       ?DrawCursor@MegamapTAStuff@@QAEXPAXHHHII@Z 10005070 f   MegamapTAStuff.obj
 0001:000040d0       ?DrawOrderPath@MegamapTAStuff@@QAEXPAU_OFFSCREEN@@PAUUnitOrdersStruct@@PAU_Position_Dword@@@Z 100050d0 f   MegamapTAStuff.obj
 0001:000043e0       ?DrawTargatOrder@MegamapTAStuff@@QAEXPAU_OFFSCREEN@@PAUUnitOrdersStruct@@PAUPlayerStruct@@@Z 100053e0 f   MegamapTAStuff.obj
 0001:00004550       ?GetTAStuffSurface@MegamapTAStuff@@QAEPAEXZ 10005550 f   MegamapTAStuff.obj
 0001:00004570       ?Init@MegamapTAStuff@@QAEXPAVFullScreenMinimap@@PAUtagRECT@@11HHH@Z 10005570 f   MegamapTAStuff.obj
 0001:00004790       ?InitSurface@MegamapTAStuff@@QAEXPAUIDirectDraw@@H@Z 10005790 f   MegamapTAStuff.obj
 0001:00004cb0       ?LockBlit@MegamapTAStuff@@QAEXPAXHHH@Z 10005cb0 f   MegamapTAStuff.obj
 0001:00004df0       ?LockBlit_MEGA@MegamapTAStuff@@QAEXPAXHHH@Z 10005df0 f   MegamapTAStuff.obj
 0001:00004e60       ?LockBlit_TA@MegamapTAStuff@@QAEXPAXHHHPAH@Z 10005e60 f   MegamapTAStuff.obj
 0001:00005210       ?ReleaseSurface@MegamapTAStuff@@QAEXXZ 10006210 f   MegamapTAStuff.obj
 0001:000052c0       ?ScreenPos2TAPos@MegamapTAStuff@@AAEPAU_Position_Dword@@PAU2@HHH@Z 100062c0 f   MegamapTAStuff.obj
 0001:00005350       ?TADrawRect@MegamapTAStuff@@QAEXPAU_OFFSCREEN@@HHHHHHH@Z 10006350 f   MegamapTAStuff.obj
 0001:00005470       ?TAPos2ScreenPos@MegamapTAStuff@@AAEPAUtagPOINT@@PAU2@III@Z 10006470 f   MegamapTAStuff.obj
 0001:000054d0       ?UpdateTAGameStuffMEGA@MegamapTAStuff@@QAEXPAXHHPAH@Z 100064d0 f   MegamapTAStuff.obj
 0001:00005570       ?UpdateTAGameStuffTA@MegamapTAStuff@@QAEXPAU_DDSURFACEDESC@@HHPAH@Z 10006570 f   MegamapTAStuff.obj
 0001:00005620       ?_Adjust_manually_vector_aligned@std@@YGXAAPAXAAI@Z 10006620 f i MegamapTAStuff.obj
 0001:00005690       ?_Adopt@_Iterator_base0@std@@QAEXPBX@Z 10006690 f i MegamapTAStuff.obj
 0001:000056a0       ?_Alloc_proxy@_Container_base0@std@@QAEXABU_Fake_allocator@2@@Z 100066a0 f i MegamapTAStuff.obj
 0001:000056b0       ?_Allocate@_Default_allocate_traits@std@@SGPAXI@Z 100066b0 f i MegamapTAStuff.obj
 0001:000056d0       ?_Calculate_growth@?$vector@U_Position_Dword@@V?$allocator@U_Position_Dword@@@std@@@std@@ABEII@Z 100066d0 f i MegamapTAStuff.obj
 0001:00005730       ?_Change_array@?$vector@U_Position_Dword@@V?$allocator@U_Position_Dword@@@std@@@std@@AAEXQAU_Position_Dword@@II@Z 10006730 f i MegamapTAStuff.obj
 0001:000057d0       ?_Compat@?$_Vector_const_iterator@V?$_Vector_val@U?$_Simple_types@U_Position_Dword@@@std@@@std@@@std@@QBEXABV12@@Z 100067d0 f i MegamapTAStuff.obj
 0001:000057e0       ?_Get_first@?$_Compressed_pair@V?$allocator@U_Position_Dword@@@std@@V?$_Vector_val@U?$_Simple_types@U_Position_Dword@@@std@@@2@$00@std@@QAEAAV?$allocator@U_Position_Dword@@@2@XZ 100067e0 f i MegamapTAStuff.obj
 0001:000057f0       ?_Get_first@?$_Compressed_pair@V?$allocator@U_Position_Dword@@@std@@V?$_Vector_val@U?$_Simple_types@U_Position_Dword@@@std@@@2@$00@std@@QBEABV?$allocator@U_Position_Dword@@@2@XZ 100067f0 f i MegamapTAStuff.obj
 0001:00005800       ?_Getal@?$vector@U_Position_Dword@@V?$allocator@U_Position_Dword@@@std@@@std@@AAEAAV?$allocator@U_Position_Dword@@@2@XZ 10006800 f i MegamapTAStuff.obj
 0001:00005820       ?_Getal@?$vector@U_Position_Dword@@V?$allocator@U_Position_Dword@@@std@@@std@@ABEABV?$allocator@U_Position_Dword@@@2@XZ 10006820 f i MegamapTAStuff.obj
 0001:00005840       ?_Orphan_all@_Container_base0@std@@QAEXXZ 10006840 f i MegamapTAStuff.obj
 0001:00005850       ?_Orphan_range@?$vector@U_Position_Dword@@V?$allocator@U_Position_Dword@@@std@@@std@@ABEXPAU_Position_Dword@@0@Z 10006850 f i MegamapTAStuff.obj
 0001:00005860       ?_Release@?$_Uninitialized_backout_al@V?$allocator@U_Position_Dword@@@std@@@std@@QAEPAU_Position_Dword@@XZ 10006860 f i MegamapTAStuff.obj
 0001:00005880       ?_Throw_bad_array_new_length@std@@YGXXZ 10006880 f i MegamapTAStuff.obj
 0001:000058a0       ?_Tidy@?$vector@U_Position_Dword@@V?$allocator@U_Position_Dword@@@std@@@std@@AAEXXZ 100068a0 f i MegamapTAStuff.obj
 0001:00005970       ?_Xlength@?$vector@U_Position_Dword@@V?$allocator@U_Position_Dword@@@std@@@std@@CGXXZ 10006970 f i MegamapTAStuff.obj
 0001:00005980       ?allocate@?$allocator@U_Position_Dword@@@std@@QAEPAU_Position_Dword@@I@Z 10006980 f i MegamapTAStuff.obj
 0001:000059a0       ?begin@?$vector@U_Position_Dword@@V?$allocator@U_Position_Dword@@@std@@@std@@QAE?AV?$_Vector_iterator@V?$_Vector_val@U?$_Simple_types@U_Position_Dword@@@std@@@std@@@2@XZ 100069a0 f i MegamapTAStuff.obj
 0001:000059d0       ?capacity@?$vector@U_Position_Dword@@V?$allocator@U_Position_Dword@@@std@@@std@@QBEIXZ 100069d0 f i MegamapTAStuff.obj
 0001:00005a00       ?deallocate@?$allocator@U_Position_Dword@@@std@@QAEXQAU_Position_Dword@@I@Z 10006a00 f i MegamapTAStuff.obj
 0001:00005a20       ?end@?$vector@U_Position_Dword@@V?$allocator@U_Position_Dword@@@std@@@std@@QAE?AV?$_Vector_iterator@V?$_Vector_val@U?$_Simple_types@U_Position_Dword@@@std@@@std@@@2@XZ 10006a20 f i MegamapTAStuff.obj
 0001:00005a60       ?max@?$numeric_limits@H@std@@SGHXZ 10006a60 f i MegamapTAStuff.obj
 0001:00005a70       ?max_size@?$_Default_allocator_traits@V?$allocator@U_Position_Dword@@@std@@@std@@SGIABV?$allocator@U_Position_Dword@@@2@@Z 10006a70 f i MegamapTAStuff.obj
 0001:00005a80       ?max_size@?$vector@U_Position_Dword@@V?$allocator@U_Position_Dword@@@std@@@std@@QBEIXZ 10006a80 f i MegamapTAStuff.obj
 0001:00005ac0       ?push_back@?$vector@U_Position_Dword@@V?$allocator@U_Position_Dword@@@std@@@std@@QAEXABU_Position_Dword@@@Z 10006ac0 f i MegamapTAStuff.obj
 0001:00005ae0       ?what@exception@std@@UBEPBDXZ 10006ae0 f i MegamapTAStuff.obj
 0001:00005b10       ___local_stdio_printf_options 10006b10 f i MegamapTAStuff.obj
 0001:00005b20       __vsprintf_s_l             10006b20 f i MegamapTAStuff.obj
 0001:00005b70       _vsprintf_s                10006b70 f i MegamapTAStuff.obj
 0001:00005b90       ??0ProjectileMap@@QAE@PAVFullScreenMinimap@@PAVUnitsMinimap@@@Z 10006b90 f   ProjectileMap.obj
 0001:00005bc0       ??1ProjectileMap@@QAE@XZ   10006bc0 f   ProjectileMap.obj
 0001:00005bd0       ?DrawNuke@ProjectileMap@@AAEXPAEPAUtagPOINT@@HHPAUProjectileStruct@@@Z 10006bd0 f   ProjectileMap.obj
 0001:00005dc0       ?DrawProjectile@ProjectileMap@@AAEXPAEPAUtagPOINT@@PAUProjectileStruct@@@Z 10006dc0 f   ProjectileMap.obj
 0001:00005ed0       ?DrawWeapon@ProjectileMap@@AAEXPAEPAUtagPOINT@@HH@Z 10006ed0 f   ProjectileMap.obj
 0001:00005fc0       ?IsPosInPlayerLos@ProjectileMap@@AAEHIIPAUProjectileStruct@@@Z 10006fc0 f   ProjectileMap.obj
 0001:00006110       ?NowDrawProjectile@ProjectileMap@@QAEXPAEPAUtagPOINT@@@Z 10007110 f   ProjectileMap.obj
 0001:00006190       ??$strcpy_s@$0BAA@@@YAHAAY0BAA@DPBD@Z 10007190 f i UnitIcon.obj
 0001:000061b0       ??0TABMP@@QAE@XZ           100071b0 f   UnitIcon.obj
 0001:00006230       ??0UnitIcon@@QAE@PAD@Z     10007230 f   UnitIcon.obj
 0001:000063a0       ??1TABMP@@QAE@XZ           100073a0 f   UnitIcon.obj
 0001:00006420       ??1UnitIcon@@QAE@XZ        10007420 f   UnitIcon.obj
 0001:000064b0       ??_GPCX@@QAEPAXI@Z         100074b0 f i UnitIcon.obj
 0001:000064f0       ??_GTABMP@@QAEPAXI@Z       100074f0 f i UnitIcon.obj
 0001:00006520       ?BufSize@PCX@@QAEJXZ       10007520 f i UnitIcon.obj
 0001:00006540       ?BufSize@TABMP@@QAEJXZ     10007540 f i UnitIcon.obj
 0001:00006560       ?BufSize@UnitIcon@@QAEJXZ  10007560 f   UnitIcon.obj
 0001:000065a0       ?Data@TABMP@@QAEPAEXZ      100075a0 f i UnitIcon.obj
 0001:000065c0       ?Data@UnitIcon@@QAEPAEXZ   100075c0 f   UnitIcon.obj
 0001:00006600       ?Height@TABMP@@QAEJXZ      10007600 f i UnitIcon.obj
 0001:00006620       ?Height@UnitIcon@@QAEJXZ   10007620 f   UnitIcon.obj
 0001:00006660       ?Load@TABMP@@QAEXPAD@Z     10007660 f   UnitIcon.obj
 0001:00006850       ?PCXData@PCX@@QAEPAEXZ     10007850 f i UnitIcon.obj
 0001:00006870       ?Transformer@TABMP@@QAEXPAEPAUtagLOGPALETTE@@PAUtagBITMAPINFO@@0@Z 10007870 f   UnitIcon.obj
 0001:00006930       ?Width@TABMP@@QAEJXZ       10007930 f i UnitIcon.obj
 0001:00006950       ?Width@UnitIcon@@QAEJXZ    10007950 f   UnitIcon.obj
 0001:00006990       ??_GLimitCrack@@QAEPAXI@Z  10007990 f i ddraw.obj
 0001:000069c0       ??_GTABugFixing@@QAEPAXI@Z 100079c0 f i ddraw.obj
 0001:00006a00       ??_GTADRConfig@@QAEPAXI@Z  10007a00 f i ddraw.obj
 0001:00006a40       ??_GUnicodeSupport@@QAEPAXI@Z 10007a40 f i ddraw.obj
 0001:00006a80       ??_G_TAHPI@@QAEPAXI@Z      10007a80 f i ddraw.obj
 0001:00006ab0       ?AddtionInit@@YGHPAUtagInlineX86StackBuffer@@@Z 10007ab0 f   ddraw.obj
 0001:00006b50       ?AddtionInitAfterDDraw@@YGHPAUtagInlineX86StackBuffer@@@Z 10007b50 f   ddraw.obj
 0001:00006d40       ?AddtionRelease@@YGXXZ     10007d40 f   ddraw.obj
 0001:00006da0       ?AddtionReleaseAfterDDraw@@YGXXZ 10007da0 f   ddraw.obj
 0001:00006e30       ?DirectDrawCreate@@YGJPAU_GUID@@PAPAUIDirectDraw@@PAUIUnknown@@@Z 10007e30 f   ddraw.obj
 0001:00006f10       ?EnableSound@@YGXXZ        10007f10 f   ddraw.obj
 0001:00006f40       ?GetAddress@@YGP6GHXZPBD@Z 10007f40 f   ddraw.obj
 0001:00006f70       ?GetSysDir@@YGXXZ          10007f70 f   ddraw.obj
 0001:00007000       ?SetupFileMap@@YG_NXZ      10008000 f   ddraw.obj
 0001:00007090       ?SetupLocalFileMap@@YG_NXZ 10008090 f   ddraw.obj
 0001:00007110       ?SetupTAHookFileMap@@YGXXZ 10008110 f   ddraw.obj
 0001:00007180       ?ShutDownTAHookFileMap@@YGXXZ 10008180 f   ddraw.obj
 0001:000071b0       ?ShutdownFileMap@@YGXXZ    100081b0 f   ddraw.obj
 0001:000071e0       ?ShutdownLocalFileMap@@YGXXZ 100081e0 f   ddraw.obj
 0001:00007210       _AheadLib_AcquireDDThreadLock 10008210 f   ddraw.obj
 0001:00007220       _AheadLib_CompleteCreateSysmemSurface 10008220 f   ddraw.obj
 0001:00007230       _AheadLib_D3DParseUnknownCommand 10008230 f   ddraw.obj
 0001:00007240       _AheadLib_DDGetAttachedSurfaceLcl 10008240 f   ddraw.obj
 0001:00007250       _AheadLib_DDInternalLock   10008250 f   ddraw.obj
 0001:00007260       _AheadLib_DDInternalUnlock 10008260 f   ddraw.obj
 0001:00007270       _AheadLib_DSoundHelp       10008270 f   ddraw.obj
 0001:00007280       _AheadLib_DirectDrawCreateClipper 10008280 f   ddraw.obj
 0001:00007290       _AheadLib_DirectDrawCreateEx 10008290 f   ddraw.obj
 0001:000072a0       _AheadLib_DirectDrawEnumerateA 100082a0 f   ddraw.obj
 0001:000072b0       _AheadLib_DirectDrawEnumerateExA 100082b0 f   ddraw.obj
 0001:000072c0       _AheadLib_DirectDrawEnumerateExW 100082c0 f   ddraw.obj
 0001:000072d0       _AheadLib_DirectDrawEnumerateW 100082d0 f   ddraw.obj
 0001:000072e0       _AheadLib_DllCanUnloadNow  100082e0 f   ddraw.obj
 0001:000072f0       _AheadLib_DllGetClassObject 100082f0 f   ddraw.obj
 0001:00007300       _AheadLib_GetDDSurfaceLocal 10008300 f   ddraw.obj
 0001:00007310       _AheadLib_GetOLEThunkData  10008310 f   ddraw.obj
 0001:00007320       _AheadLib_GetSurfaceFromDC 10008320 f   ddraw.obj
 0001:00007330       _AheadLib_RegisterSpecialCase 10008330 f   ddraw.obj
 0001:00007340       _AheadLib_ReleaseDDThreadLock 10008340 f   ddraw.obj
 0001:00007350       _AheadLib_SetAppCompatData 10008350 f   ddraw.obj
 0001:00007360       _DllMain@12                10008360 f   ddraw.obj
 0001:00007610       ??0ExternHotKey@@QAE@XZ    10008610 f   ExternhotKey.obj
 0001:00007940       ??1ExternHotKey@@QAE@XZ    10008940 f   ExternhotKey.obj
 0001:00007ac0       ?AddRoutine_InitAfterExternKey@@YGXXZ 10008ac0 f   ExternhotKey.obj
 0001:00007b00       ?AddtionRoutine_CircleSelect@@YGHPAUtagInlineX86StackBuffer@@@Z 10008b00 f   ExternhotKey.obj
 0001:00007bd0       ?AddtionRoutine_UnitINFOInit@@YGHPAUtagInlineX86StackBuffer@@@Z 10008bd0 f   ExternhotKey.obj
 0001:00007c00       ?DestroyExternTypeMask@ExternHotKey@@QAEXXZ 10008c00 f   ExternhotKey.obj
 0001:00007d30       ?FilterSelectedUnit@ExternHotKey@@QAEHXZ 10008d30 f   ExternhotKey.obj
 0001:00007da0       ?FilterSelectedUnitProc@ExternHotKey@@QAEHW4TAUnitType@@@Z 10008da0 f   ExternhotKey.obj
 0001:00007fa0       ?FindIdelFactory@ExternHotKey@@QAEXXZ 10008fa0 f   ExternhotKey.obj
 0001:00008160       ?FindIdleConst@ExternHotKey@@QAEXXZ 10009160 f   ExternhotKey.obj
 0001:000083a0       ?InitExternTypeMask@ExternHotKey@@QAEHXZ 100093a0 f   ExternhotKey.obj
 0001:00008c60       ?Message@ExternHotKey@@QAE_NPAUHWND__@@IIJ@Z 10009c60 f   ExternhotKey.obj
 0001:00009040       ?SelectOnlyInScreenSameTypeUnit@ExternHotKey@@QAEHH@Z 1000a040 f   ExternhotKey.obj
 0001:00009260       ?SelectOnlyInScreenWeaponUnit@ExternHotKey@@QAEHI@Z 1000a260 f   ExternhotKey.obj
 0001:000093d0       ?SelectUnitInRect@ExternHotKey@@QAEHW4TAUnitType@@PAUtagRECT@@_N@Z 1000a3d0 f   ExternhotKey.obj
 0001:000095a0       ??0FullScreenMinimap@@QAE@HH@Z 1000a5a0 f   fullscreenminimap.obj
 0001:00009960       ??1FullScreenMinimap@@QAE@XZ 1000a960 f   fullscreenminimap.obj
 0001:00009bf0       ??_GMappedMap@@QAEPAXI@Z   1000abf0 f i fullscreenminimap.obj
 0001:00009c30       ??_GMegaMapControl@@QAEPAXI@Z 1000ac30 f i fullscreenminimap.obj
 0001:00009c70       ??_GMegamapTAStuff@@QAEPAXI@Z 1000ac70 f i fullscreenminimap.obj
 0001:00009cb0       ??_GProjectileMap@@QAEPAXI@Z 1000acb0 f i fullscreenminimap.obj
 0001:00009ce0       ??_GSingleHook@@QAEPAXI@Z  1000ace0 f i fullscreenminimap.obj
 0001:00009d10       ??_GTAGameAreaReDrawer@@QAEPAXI@Z 1000ad10 f i fullscreenminimap.obj
 0001:00009d40       ??_GTNTtoMiniMap@@QAEPAXI@Z 1000ad40 f i fullscreenminimap.obj
 0001:00009d70       ??_GUnitsMinimap@@QAEPAXI@Z 1000ad70 f i fullscreenminimap.obj
 0001:00009db0       ?BlockGUIState@FullScreenMinimap@@QAEXXZ 1000adb0 f   fullscreenminimap.obj
 0001:00009dc0       ?BlockTADraw@@YGHPAUtagInlineX86StackBuffer@@@Z 1000adc0 f   fullscreenminimap.obj
 0001:00009e10       ?DischargeGUIState@FullScreenMinimap@@QAEXXZ 1000ae10 f   fullscreenminimap.obj
 0001:00009e20       ?DischargeTADraw@@YGHPAUtagInlineX86StackBuffer@@@Z 1000ae20 f   fullscreenminimap.obj
 0001:00009e50       ?EnterMegaMap@FullScreenMinimap@@QAEXXZ 1000ae50 f   fullscreenminimap.obj
 0001:00009e70       ?ForceTADrawBlit@@YGHPAUtagInlineX86StackBuffer@@@Z 1000ae70 f   fullscreenminimap.obj
 0001:00009eb0       ?IfRenderMegaThenBlock2@@YGXXZ 1000aeb0 f   fullscreenminimap.obj
 0001:00009ee0       ?IfRenderMegaThenBlock@@YGXXZ 1000aee0 f   fullscreenminimap.obj
 0001:00009f20       ?InitMinimap@FullScreenMinimap@@QAEXPAUtagTNTHeaderStruct@@PAUtagRECT@@@Z 1000af20 f   fullscreenminimap.obj
 0001:0000aac0       ?InitSurface@FullScreenMinimap@@QAEXPAUIDirectDraw@@@Z 1000bac0 f   fullscreenminimap.obj
 0001:0000aaf0       ?InitSurface@FullScreenMinimap@@QAEXPAUIDirectDraw@@H@Z 1000baf0 f   fullscreenminimap.obj
 0001:0000abc0       ?IsBliting@FullScreenMinimap@@QAEHXZ 1000bbc0 f   fullscreenminimap.obj
 0001:0000abe0       ?LoadMap_Routine@@YGHPAUtagInlineX86StackBuffer@@@Z 1000bbe0 f   fullscreenminimap.obj
 0001:0000ac20       ?LockBlit@FullScreenMinimap@@QAEXPAXHHH@Z 1000bc20 f   fullscreenminimap.obj
 0001:0000aca0       ?MegamapFrameThd@@YGKXZ    1000bca0 f   fullscreenminimap.obj
 0001:0000ae70       ?Message@FullScreenMinimap@@QAE_NPAUHWND__@@IIJ@Z 1000be70 f   fullscreenminimap.obj
 0001:0000aed0       ?QuitMegaMap@FullScreenMinimap@@QAEXXZ 1000bed0 f   fullscreenminimap.obj
 0001:0000aef0       ?ReleaseSurface@FullScreenMinimap@@QAEXXZ 1000bef0 f   fullscreenminimap.obj
 0001:0000af50       ?Set@FullScreenMinimap@@QAEXH@Z 1000bf50 f   fullscreenminimap.obj
 0001:0000af90       ?SetVid@FullScreenMinimap@@QAEXH@Z 1000bf90 f   fullscreenminimap.obj
 0001:0000afb0       ?UpdateFrame@FullScreenMinimap@@QAGXPAXPAU_DDSURFACEDESC@@@Z 1000bfb0 f   fullscreenminimap.obj
 0001:0000b2e0       ?gametimeupdate@@YGXXZ     1000c2e0 f   fullscreenminimap.obj
 0001:0000b300       ?writejmp@FullScreenMinimap@@QAEXII@Z 1000c300 f i fullscreenminimap.obj
 0001:0000b350       ?CopyGafSequenceToBits@@YGPAEPAEPAUtagPOINT@@PAU_GAFSequence@@H@Z 1000c350 f   gaf.obj
 0001:0000b3c0       ?CopyGafToBits@@YGXPAEPAUtagPOINT@@IIPAU_GAFFrame@@PAUtagRECT@@@Z 1000c3c0 f   gaf.obj
 0001:0000b460       ?CreateSurfByGafFrame@@YGPAUIDirectDrawSurface@@PAUIDirectDraw@@PAU_GAFFrame@@H@Z 1000c460 f   gaf.obj
 0001:0000b5c0       ?CreateSurfByGafSequence@@YGPAUIDirectDrawSurface@@PAUIDirectDraw@@PAU_GAFSequence@@_N@Z 1000c5c0 f   gaf.obj
 0001:0000b810       ?InstanceGAFFrame@@YGPAEPAU_GAFFrame@@PAPAEPAUtagPOINT@@@Z 1000c810 f   gaf.obj
 0001:0000b8c0       ??0GUIExpand@@QAE@XZ       1000c8c0 f   GuiExpand.obj
 0001:0000bad0       ??1GUIExpand@@QAE@XZ       1000cad0 f   GuiExpand.obj
 0001:0000bb70       ??_GFullScreenMinimap@@QAEPAXI@Z 1000cb70 f i GuiExpand.obj
 0001:0000bbb0       ??_GMenuResolution@@QAEPAXI@Z 1000cbb0 f i GuiExpand.obj
 0001:0000bbe0       ??_GShareDialogExpand@@QAEPAXI@Z 1000cbe0 f i GuiExpand.obj
 0001:0000bc10       ?ApplySelectUnitMenu_Wapper@@YGXXZ 1000cc10 f   HardCodeFunctions.obj
 0001:0000bc50       ?ChatText@@YGHPAD@Z        1000cc50 f   HardCodeFunctions.obj
 0001:0000bcc0       ?CleanIDMaskInTypeAry@@YG_NGQAK@Z 1000ccc0 f   HardCodeFunctions.obj
 0001:0000bd20       ?CountSelectedUnits@@YGHXZ 1000cd20 f   HardCodeFunctions.obj
 0001:0000bdf0       ?DeselectUnits@@YGXXZ      1000cdf0 f   HardCodeFunctions.obj
 0001:0000beb0       ?DrawDotteCircle@@YGHPAEPAUtagPOINT@@HHHHHH@Z 1000ceb0 f   HardCodeFunctions.obj
 0001:0000bf40       ?DrawRadarCircle@@YGHPAEPAUtagPOINT@@HHHH@Z 1000cf40 f   HardCodeFunctions.obj
 0001:0000bfd0       ?DrawTextInScreen_ez@@YG_NPAU_OFFSCREEN@@PADHH@Z 1000cfd0 f   HardCodeFunctions.obj
 0001:0000c000       ?GetMaxScrollX@@YGHXZ      1000d000 f   HardCodeFunctions.obj
 0001:0000c040       ?GetMaxScrollY@@YGHXZ      1000d040 f   HardCodeFunctions.obj
 0001:0000c080       ?GetUnitIDMaskAryByCategory@@YGPAKPAD@Z 1000d080 f   HardCodeFunctions.obj
 0001:0000c110       ?IsPlayerAllyUnit@@YGHHH@Z 1000d110 f   HardCodeFunctions.obj
 0001:0000c1c0       ?MatchInTypeAry@@YG_NGQAK@Z 1000d1c0 f   HardCodeFunctions.obj
 0001:0000c1f0       ?PauseCDMusic@@YGHXZ       1000d1f0 f   HardCodeFunctions.obj
 0001:0000c220       ?ScrollToCenter@@YGXHH@Z   1000d220 f   HardCodeFunctions.obj
 0001:0000c2e0       ?SendOrder@@YGXIIIH_N@Z    1000d2e0 f   HardCodeFunctions.obj
 0001:0000c370       ?SetIDMaskInTypeAry@@YG_NGQAK@Z 1000d370 f   HardCodeFunctions.obj
 0001:0000c3b0       ?UpdateSelectUnitEffect@@YGXXZ 1000d3b0 f   HardCodeFunctions.obj
 0001:0000c3f0       ?UpdateTAProcess@@YGHXZ    1000d3f0 f   HardCodeFunctions.obj
 0001:0000c4a0       ?ViewPlayerLos_Replay@@YGHHH@Z 1000d4a0 f   HardCodeFunctions.obj
 0001:0000c700       ?freeTAMem@@YGXPAX@Z       1000d700 f   HardCodeFunctions.obj
 0001:0000c780       ?resumeOffScreen@@YGXXZ    1000d780 f   HardCodeFunctions.obj
 0001:0000c790       ?resumeScreenPlatte@@YGXXZ 1000d790 f   HardCodeFunctions.obj
 0001:0000c7f0       _sprintf_s                 1000d7f0 f i HardCodeFunctions.obj
 0001:0000c830       ??0ModifyHook@@QAE@IHKPAEKK@Z 1000d830 f   ModifyHook.obj
 0001:0000c8f0       ??0ModifyHook@@QAE@PAEHK0KK@Z 1000d8f0 f   ModifyHook.obj
 0001:0000c9b0       ??0ModifyHook@@QAE@XZ      1000d9b0 f   ModifyHook.obj
 0001:0000ca00       ??1ModifyHook@@QAE@XZ      1000da00 f   ModifyHook.obj
 0001:0000cad0       ?Hook@ModifyHook@@UAEXXZ   1000dad0 f   ModifyHook.obj
 0001:0000cc10       ?InitHookClass@ModifyHook@@AAEXPAEHK0KK@Z 1000dc10 f   ModifyHook.obj
 0001:0000ce10       ??0_TAHPI@@QAE@H@Z         1000de10 f   HPIfunc.obj
 0001:0000cf00       ??1_TAHPI@@QAE@XZ          1000df00 f   HPIfunc.obj
 0001:0000cf50       ?TADontInit@@YGHPAUtagInlineX86StackBuffer@@@Z 1000df50 f   HPIfunc.obj
 0001:0000cf70       ?fclose@_TAHPI@@QAEHPAU_OPENTAFILE@@@Z 1000df70 f   HPIfunc.obj
 0001:0000cf90       ?filelen@_TAHPI@@QAEIPAU_OPENTAFILE@@@Z 1000df90 f   HPIfunc.obj
 0001:0000cfb0       ?filelength@_TAHPI@@QAEIPAD@Z 1000dfb0 f   HPIfunc.obj
 0001:0000cfd0       ?fopen@_TAHPI@@QAEPAU_OPENTAFILE@@PAD0@Z 1000dfd0 f   HPIfunc.obj
 0001:0000cff0       ?free_readfile@_TAHPI@@QAEXPAD@Z 1000dff0 f   HPIfunc.obj
 0001:0000d010       ?read@_TAHPI@@QAEHPAU_OPENTAFILE@@PAXH@Z 1000e010 f   HPIfunc.obj
 0001:0000d030       ?readfile@_TAHPI@@QAEPADPADPAI@Z 1000e030 f   HPIfunc.obj
 0001:0000d050       ??0IDDraw@@QAE@PAUIDirectDraw@@_N@Z 1000e050 f   iddraw.obj
 0001:0000d0f0       ??0IDirectDraw@@QAE@XZ     1000e0f0 f i iddraw.obj
 0001:0000d110       ??0IUnknown@@QAE@XZ        1000e110 f i iddraw.obj
 0001:0000d120       ?AddRef@IDDraw@@UAGKXZ     1000e120 f   iddraw.obj
 0001:0000d150       ?Compact@IDDraw@@UAGJXZ    1000e150 f   iddraw.obj
 0001:0000d180       ?CreateClipper@IDDraw@@UAGJKPAPAUIDirectDrawClipper@@PAUIUnknown@@@Z 1000e180 f   iddraw.obj
 0001:0000d1c0       ?CreatePalette@IDDraw@@UAGJKPAUtagPALETTEENTRY@@PAPAUIDirectDrawPalette@@PAUIUnknown@@@Z 1000e1c0 f   iddraw.obj
 0001:0000d200       ?CreateSurface@IDDraw@@UAGJPAU_DDSURFACEDESC@@PAPAUIDirectDrawSurface@@PAUIUnknown@@@Z 1000e200 f   iddraw.obj
 0001:0000d2c0       ?DuplicateSurface@IDDraw@@UAGJPAUIDirectDrawSurface@@PAPAU2@@Z 1000e2c0 f   iddraw.obj
 0001:0000d2f0       ?EnumDisplayModes@IDDraw@@UAGJKPAU_DDSURFACEDESC@@PAXP6GJ01@Z@Z 1000e2f0 f   iddraw.obj
 0001:0000d330       ?EnumSurfaces@IDDraw@@UAGJKPAU_DDSURFACEDESC@@PAXP6GJPAUIDirectDrawSurface@@01@Z@Z 1000e330 f   iddraw.obj
 0001:0000d370       ?FlipToGDISurface@IDDraw@@UAGJXZ 1000e370 f   iddraw.obj
 0001:0000d3a0       ?GetCaps@IDDraw@@UAGJPAU_DDCAPS_DX7@@0@Z 1000e3a0 f   iddraw.obj
 0001:0000d3d0       ?GetDisplayMode@IDDraw@@UAGJPAU_DDSURFACEDESC@@@Z 1000e3d0 f   iddraw.obj
 0001:0000d400       ?GetFourCCCodes@IDDraw@@UAGJPAK0@Z 1000e400 f   iddraw.obj
 0001:0000d430       ?GetGDISurface@IDDraw@@UAGJPAPAUIDirectDrawSurface@@@Z 1000e430 f   iddraw.obj
 0001:0000d460       ?GetMonitorFrequency@IDDraw@@UAGJPAK@Z 1000e460 f   iddraw.obj
 0001:0000d490       ?GetScanLine@IDDraw@@UAGJPAK@Z 1000e490 f   iddraw.obj
 0001:0000d4c0       ?GetVerticalBlankStatus@IDDraw@@UAGJPAH@Z 1000e4c0 f   iddraw.obj
 0001:0000d4f0       ?Initialize@IDDraw@@UAGJPAU_GUID@@@Z 1000e4f0 f   iddraw.obj
 0001:0000d520       ?QueryInterface@IDDraw@@UAGJABU_GUID@@PAPAX@Z 1000e520 f   iddraw.obj
 0001:0000d550       ?Release@IDDraw@@UAGKXZ    1000e550 f   iddraw.obj
 0001:0000d5a0       ?RestoreDisplayMode@IDDraw@@UAGJXZ 1000e5a0 f   iddraw.obj
 0001:0000d5d0       ?SetCooperativeLevel@IDDraw@@UAGJPAUHWND__@@K@Z 1000e5d0 f   iddraw.obj
 0001:0000d630       ?SetDisplayMode@IDDraw@@UAGJKKK@Z 1000e630 f   iddraw.obj
 0001:0000d6a0       ?WaitForVerticalBlank@IDDraw@@UAGJKPAX@Z 1000e6a0 f   iddraw.obj
 0001:0000d6d0       ?resume@IDDraw@@QAGXXZ     1000e6d0 f   iddraw.obj
 0001:0000d700       ??0IDDrawSurface@@QAE@PAUIDirectDraw@@PAU_DDSURFACEDESC@@PAPAUIDirectDrawSurface@@PAUIUnknown@@PAJ_NHH@Z 1000e700 f   iddrawsurface.obj
 0001:0000dc60       ??0IDirectDrawSurface@@QAE@XZ 1000ec60 f i iddrawsurface.obj
 0001:0000dc80       ??_GAlliesWhiteboard@@QAEPAXI@Z 1000ec80 f i iddrawsurface.obj
 0001:0000dcc0       ??_GCChangeQueue@@QAEPAXI@Z 1000ecc0 f i iddrawsurface.obj
 0001:0000dcf0       ??_GCDDDTA@@QAEPAXI@Z      1000ecf0 f i iddrawsurface.obj
 0001:0000dd20       ??_GCMapRect@@QAEPAXI@Z    1000ed20 f i iddrawsurface.obj
 0001:0000dd50       ??_GCTAHook@@QAEPAXI@Z     1000ed50 f i iddrawsurface.obj
 0001:0000dd90       ??_GCWarp@@QAEPAXI@Z       1000ed90 f i iddrawsurface.obj
 0001:0000ddc0       ?AddAttachedSurface@IDDrawSurface@@UAGJPAUIDirectDrawSurface@@@Z 1000edc0 f   iddrawsurface.obj
 0001:0000ddf0       ?AddOverlayDirtyRect@IDDrawSurface@@UAGJPAUtagRECT@@@Z 1000edf0 f   iddrawsurface.obj
 0001:0000de20       ?AddRef@IDDrawSurface@@UAGKXZ 1000ee20 f   iddrawsurface.obj
 0001:0000de50       ?Blt@IDDrawSurface@@UAGJPAUtagRECT@@PAUIDirectDrawSurface@@0KPAU_DDBLTFX@@@Z 1000ee50 f   iddrawsurface.obj
 0001:0000dea0       ?BltBatch@IDDrawSurface@@UAGJPAU_DDBLTBATCH@@KK@Z 1000eea0 f   iddrawsurface.obj
 0001:0000dee0       ?BltFast@IDDrawSurface@@UAGJKKPAUIDirectDrawSurface@@PAUtagRECT@@K@Z 1000eee0 f   iddrawsurface.obj
 0001:0000df20       ?CorrectName@IDDrawSurface@@QAEXPAD@Z 1000ef20 f   iddrawsurface.obj
 0001:0000df80       ?CreateClipplist@IDDrawSurface@@QAEXXZ 1000ef80 f   iddrawsurface.obj
 0001:0000e1f0       ?CreateDir@IDDrawSurface@@QAEXPAD@Z 1000f1f0 f   iddrawsurface.obj
 0001:0000e2f0       ?CreateFileName@IDDrawSurface@@AAEXPADH@Z 1000f2f0 f   iddrawsurface.obj
 0001:0000e580       ?DeInterlace@IDDrawSurface@@AAEXXZ 1000f580 f   iddrawsurface.obj
 0001:0000e640       ?DeleteAttachedSurface@IDDrawSurface@@UAGJKPAUIDirectDrawSurface@@@Z 1000f640 f   iddrawsurface.obj
 0001:0000e680       ?EnumAttachedSurfaces@IDDrawSurface@@UAGJPAXP6GJPAUIDirectDrawSurface@@PAU_DDSURFACEDESC@@0@Z@Z 1000f680 f   iddrawsurface.obj
 0001:0000e6c0       ?EnumOverlayZOrders@IDDrawSurface@@UAGJKPAXP6GJPAUIDirectDrawSurface@@PAU_DDSURFACEDESC@@0@Z@Z 1000f6c0 f   iddrawsurface.obj
 0001:0000e700       ?Flip@IDDrawSurface@@UAGJPAUIDirectDrawSurface@@K@Z 1000f700 f   iddrawsurface.obj
 0001:0000e740       ?FrontSurface@IDDrawSurface@@QAEXPAUIDirectDrawSurface@@@Z 1000f740 f   iddrawsurface.obj
 0001:0000e760       ?GetAttachedSurface@IDDrawSurface@@UAGJPAU_DDSCAPS@@PAPAUIDirectDrawSurface@@@Z 1000f760 f   iddrawsurface.obj
 0001:0000e7c0       ?GetBltStatus@IDDrawSurface@@UAGJK@Z 1000f7c0 f   iddrawsurface.obj
 0001:0000e7f0       ?GetCaps@IDDrawSurface@@UAGJPAU_DDSCAPS@@@Z 1000f7f0 f   iddrawsurface.obj
 0001:0000e820       ?GetClipper@IDDrawSurface@@UAGJPAPAUIDirectDrawClipper@@@Z 1000f820 f   iddrawsurface.obj
 0001:0000e850       ?GetColorKey@IDDrawSurface@@UAGJKPAU_DDCOLORKEY@@@Z 1000f850 f   iddrawsurface.obj
 0001:0000e890       ?GetDC@IDDrawSurface@@UAGJPAPAUHDC__@@@Z 1000f890 f   iddrawsurface.obj
 0001:0000e8c0       ?GetFlipStatus@IDDrawSurface@@UAGJK@Z 1000f8c0 f   iddrawsurface.obj
 0001:0000e8f0       ?GetOverlayPosition@IDDrawSurface@@UAGJPAJ0@Z 1000f8f0 f   iddrawsurface.obj
 0001:0000e930       ?GetPalette@IDDrawSurface@@UAGJPAPAUIDirectDrawPalette@@@Z 1000f930 f   iddrawsurface.obj
 0001:0000e960       ?GetPixelFormat@IDDrawSurface@@UAGJPAU_DDPIXELFORMAT@@@Z 1000f960 f   iddrawsurface.obj
 0001:0000e990       ?GetSurfaceDesc@IDDrawSurface@@UAGJPAU_DDSURFACEDESC@@@Z 1000f990 f   iddrawsurface.obj
 0001:0000e9c0       ?Initialize@IDDrawSurface@@UAGJPAUIDirectDraw@@PAU_DDSURFACEDESC@@@Z 1000f9c0 f   iddrawsurface.obj
 0001:0000ea00       ?IsLost@IDDrawSurface@@UAGJXZ 1000fa00 f   iddrawsurface.obj
 0001:0000ea60       ?Lock@IDDrawSurface@@UAGJPAUtagRECT@@PAU_DDSURFACEDESC@@KPAX@Z 1000fa60 f   iddrawsurface.obj
 0001:0000eb60       ?OutptInt@IDDrawSurface@@SGXH@Z 1000fb60 f   iddrawsurface.obj
 0001:0000eba0       ?OutptTxt@IDDrawSurface@@SGXPAD@Z 1000fba0 f   iddrawsurface.obj
 0001:0000ebb0       ?QueryInterface@IDDrawSurface@@UAGJABU_GUID@@PAPAX@Z 1000fbb0 f   iddrawsurface.obj
 0001:0000ebf0       ?Release@IDDrawSurface@@UAGKXZ 1000fbf0 f   iddrawsurface.obj
 0001:0000ee50       ?ReleaseDC@IDDrawSurface@@UAGJPAUHDC__@@@Z 1000fe50 f   iddrawsurface.obj
 0001:0000ee80       ?Restore@IDDrawSurface@@UAGJXZ 1000fe80 f   iddrawsurface.obj
 0001:0000eee0       ?ScreenShot@IDDrawSurface@@QAEXXZ 1000fee0 f   iddrawsurface.obj
 0001:0000f150       ?Set@IDDrawSurface@@QAEX_N@Z 10010150 f   iddrawsurface.obj
 0001:0000f170       ?SetClipper@IDDrawSurface@@UAGJPAUIDirectDrawClipper@@@Z 10010170 f   iddrawsurface.obj
 0001:0000f1a0       ?SetColorKey@IDDrawSurface@@UAGJKPAU_DDCOLORKEY@@@Z 100101a0 f   iddrawsurface.obj
 0001:0000f1e0       ?SetOverlayPosition@IDDrawSurface@@UAGJJJ@Z 100101e0 f   iddrawsurface.obj
 0001:0000f220       ?SetPalette@IDDrawSurface@@UAGJPAUIDirectDrawPalette@@@Z 10010220 f   iddrawsurface.obj
 0001:0000f260       ?Unlock@IDDrawSurface@@UAGJPAX@Z 10010260 f   iddrawsurface.obj
 0001:0000f590       ?UpdateOverlay@IDDrawSurface@@UAGJPAUtagRECT@@PAUIDirectDrawSurface@@0KPAU_DDOVERLAYFX@@@Z 10010590 f   iddrawsurface.obj
 0001:0000f5d0       ?UpdateOverlayDisplay@IDDrawSurface@@UAGJK@Z 100105d0 f   iddrawsurface.obj
 0001:0000f600       ?UpdateOverlayZOrder@IDDrawSurface@@UAGJKPAUIDirectDrawSurface@@@Z 10010600 f   iddrawsurface.obj
 0001:0000f630       ?WinProc@@YGJPAUHWND__@@IIJ@Z 10010630 f   iddrawsurface.obj
 0001:0000fa40       ?strstr@@YAPADQADQBD@Z     10010a40 f i iddrawsurface.obj
 0001:0000faa0       ??0TAGameAreaReDrawer@@QAE@XZ 10010aa0 f   GameRedrawer.obj
 0001:0000fad0       ??1TAGameAreaReDrawer@@QAE@XZ 10010ad0 f   GameRedrawer.obj
 0001:0000fb20       ?Cls@TAGameAreaReDrawer@@QAEXXZ 10010b20 f   GameRedrawer.obj
 0001:0000fb80       ?Flip@TAGameAreaReDrawer@@QAEPAEXZ 10010b80 f   GameRedrawer.obj
 0001:0000fbc0       ?GrayBlitOfBits@TAGameAreaReDrawer@@QAEHPAUtagRECT@@PAEPAUtagPOINT@@0H@Z 10010bc0 f   GameRedrawer.obj
 0001:0000ffc0       ?InitOwnSurface@TAGameAreaReDrawer@@QAEPAEPAUIDirectDraw@@H@Z 10010fc0 f   GameRedrawer.obj
 0001:00010100       ?MixBitsInBlit@TAGameAreaReDrawer@@QAEHPAUtagRECT@@PAEPAUtagPOINT@@0@Z 10011100 f   GameRedrawer.obj
 0001:00010470       ?MixDSufInBlit@TAGameAreaReDrawer@@QAEHPAEPAUtagRECT@@01@Z 10011470 f   GameRedrawer.obj
 0001:00010500       ?ReleaseSurface@TAGameAreaReDrawer@@QAEXXZ 10011500 f   GameRedrawer.obj
 0001:00010550       ?TAWGameAreaRect@TAGameAreaReDrawer@@QAEQAUtagRECT@@PAU2@@Z 10011550 f   GameRedrawer.obj
 0001:000105c0       ?backSurface_p@TAGameAreaReDrawer@@QAEQAEXZ 100115c0 f   GameRedrawer.obj
 0001:000105e0       ?frontSurface_p@TAGameAreaReDrawer@@QAEQAEXZ 100115e0 f   GameRedrawer.obj
 0001:00010600       ??0MiniMapPicture@@QAE@HH@Z 10011600 f   MapParse.obj
 0001:00010650       ??0TNTtoMiniMap@@QAE@KK@Z  10011650 f   MapParse.obj
 0001:00010760       ??0TNTtoMiniMap@@QAE@XZ    10011760 f   MapParse.obj
 0001:00010870       ??1MiniMapPicture@@QAE@XZ  10011870 f   MapParse.obj
 0001:000108a0       ??1TNTtoMiniMap@@QAE@XZ    100118a0 f   MapParse.obj
 0001:00010940       ??_GMiniMapPicture@@QAEPAXI@Z 10011940 f i MapParse.obj
 0001:00010970       ?DrawMiniMap@MiniMapPicture@@QAEHPAEPAUtagRECT@@HH1@Z 10011970 f   MapParse.obj
 0001:00010d30       ?DrawMiniMap@TNTtoMiniMap@@QAEHPAEHH@Z 10011d30 f   MapParse.obj
 0001:00010d90       ?DrawRectMapToBuf@TNTtoMiniMap@@AAEPAEPAPAEPAUtagTNTHeaderStruct@@PAUtagRECT@@@Z 10011d90 f   MapParse.obj
 0001:00010e30       ?MapFromTNTFileA@TNTtoMiniMap@@QAEXPAD@Z 10011e30 f   MapParse.obj
 0001:00010f30       ?MapFromTNTInMem@TNTtoMiniMap@@QAEXPAX@Z 10011f30 f   MapParse.obj
 0001:00010f60       ?MapFromValidTNTHeader@TNTtoMiniMap@@QAEXPAUtagTNTHeaderStruct@@@Z 10011f60 f   MapParse.obj
 0001:00010fd0       ?ParseMyTNTHeader@TNTtoMiniMap@@QAEPAUtagTNTHeaderStruct@@PAU2@@Z 10011fd0 f   MapParse.obj
 0001:00011070       ?PictureInfo@MiniMapPicture@@QAEPAEPAPAEPAUtagPOINT@@@Z 10012070 f   MapParse.obj
 0001:000110a0       ?PictureInfo@TNTtoMiniMap@@QAEPAEPAPAEPAUtagPOINT@@@Z 100120a0 f   MapParse.obj
 0001:000110c0       ?StretchTAMapToMiniMap@MiniMapPicture@@QAEPAEPAEPAUtagRECT@@@Z 100120c0 f   MapParse.obj
 0001:000112f0       ?StretchTATNTDataToMiniMap@MiniMapPicture@@QAEPAEPAUtagTNTHeaderStruct@@@Z 100122f0 f   MapParse.obj
 0001:00011720       ??0MenuResolution@@QAE@H@Z 10012720 f   MenuResolution.obj
 0001:00011790       ??0MenuResolution@@QAE@HH@Z 10012790 f   MenuResolution.obj
 0001:00011820       ??1MenuResolution@@QAE@XZ  10012820 f   MenuResolution.obj
 0001:00011870       ?InstallHook@MenuResolution@@AAEXXZ 10012870 f   MenuResolution.obj
 0001:00011ab0       ?UninstallHook@MenuResolution@@AAEXXZ 10012ab0 f   MenuResolution.obj
 0001:00011c10       ?sub_00491A75@@YGHPAUtagInlineX86StackBuffer@@@Z 10012c10 f   MenuResolution.obj
 0001:00011cd0       ?sub_00491B01@@YGHPAUtagInlineX86StackBuffer@@@Z 10012cd0 f   MenuResolution.obj
 0001:00011d80       ?sub_0049E91C@@YGHPAUtagInlineX86StackBuffer@@@Z 10012d80 f   MenuResolution.obj
 0001:00011df0       ?sub_0049E93B@@YGHPAUtagInlineX86StackBuffer@@@Z 10012df0 f   MenuResolution.obj
 0001:00011e70       ??0ModifyWeaponPacket@@QAE@H@Z 10012e70 f   MultiGameWeaponID.obj
 0001:00011eb0       ??0ModifyWeaponPacket@@QAE@XZ 10012eb0 f   MultiGameWeaponID.obj
 0001:00011ee0       ??1ModifyWeaponPacket@@QAE@XZ 10012ee0 f   MultiGameWeaponID.obj
 0001:00012070       ??_GModifyHook@@QAEPAXI@Z  10013070 f i MultiGameWeaponID.obj
 0001:000120a0       ?EnsureDplayx@ModifyWeaponPacket@@AAEXH@Z 100130a0 f   MultiGameWeaponID.obj
 0001:000126e0       ?FeaturePacket@ModifyWeaponPacket@@AAEXH@Z 100136e0 f   MultiGameWeaponID.obj
 0001:000128a0       ?ModifyRoutine@ModifyWeaponPacket@@AAEXH@Z 100138a0 f   MultiGameWeaponID.obj
 0001:000129b0       ??$?0$$V@?$_Compressed_pair@V?$allocator@UTAShareMemStruct@CDDDTA@@@std@@V?$_Deque_val@U?$_Deque_simple_types@UTAShareMemStruct@CDDDTA@@@std@@@2@$00@std@@QAE@U_Zero_then_variadic_args_t@1@@Z 100139b0 f i dddta.obj
 0001:000129d0       ??$?0UTAShareMemStruct@CDDDTA@@@?$allocator@PAUTAShareMemStruct@CDDDTA@@@std@@QAE@ABV?$allocator@UTAShareMemStruct@CDDDTA@@@1@@Z 100139d0 f i dddta.obj
 0001:000129e0       ??$?0UTAShareMemStruct@CDDDTA@@@?$allocator@U_Container_proxy@std@@@std@@QAE@ABV?$allocator@UTAShareMemStruct@CDDDTA@@@1@@Z 100139e0 f i dddta.obj
 0001:000129f0       ??$_Adl_verify_range@PAPAUTAShareMemStruct@CDDDTA@@PAPAU12@@std@@YGXABQAPAUTAShareMemStruct@CDDDTA@@0@Z 100139f0 f i dddta.obj
 0001:00012a00       ??$_Alloc_proxy@V?$allocator@U_Container_proxy@std@@@std@@@_Container_base12@std@@QAEX$$QAV?$allocator@U_Container_proxy@std@@@1@@Z 10013a00 f i dddta.obj
 0001:00012a50       ??$_Construct_in_place@PAUTAShareMemStruct@CDDDTA@@AAPAU12@@std@@YGXAAPAUTAShareMemStruct@CDDDTA@@0@Z 10013a50 f i dddta.obj
 0001:00012a90       ??$_Construct_in_place@U_Container_proxy@std@@PAU_Container_base12@2@@std@@YGXAAU_Container_proxy@0@$$QAPAU_Container_base12@0@@Z 10013a90 f i dddta.obj
 0001:00012ad0       ??$_Copy_memmove@PAPAUTAShareMemStruct@CDDDTA@@PAPAU12@@std@@YGPAPAUTAShareMemStruct@CDDDTA@@PAPAU12@00@Z 10013ad0 f i dddta.obj
 0001:00012b40       ??$_Deallocate_plain@V?$allocator@U_Container_proxy@std@@@std@@@std@@YGXAAV?$allocator@U_Container_proxy@std@@@0@QAU_Container_proxy@0@@Z 10013b40 f i dddta.obj
 0001:00012b90       ??$_Delete_plain_internal@V?$allocator@U_Container_proxy@std@@@std@@@std@@YGXAAV?$allocator@U_Container_proxy@std@@@0@QAU_Container_proxy@0@@Z 10013b90 f i dddta.obj
 0001:00012bb0       ??$_Destroy_in_place@PAUTAShareMemStruct@CDDDTA@@@std@@YGXAAPAUTAShareMemStruct@CDDDTA@@@Z 10013bb0 f i dddta.obj
 0001:00012bc0       ??$_Destroy_range@PAPAUTAShareMemStruct@CDDDTA@@PAPAU12@@std@@YGXPAPAUTAShareMemStruct@CDDDTA@@QAPAU12@@Z 10013bc0 f i dddta.obj
 0001:00012bd0       ??$_Emplace_back@AAPAUTAShareMemStruct@CDDDTA@@@?$_Uninitialized_backout@PAPAUTAShareMemStruct@CDDDTA@@@std@@QAEXAAPAUTAShareMemStruct@CDDDTA@@@Z 10013bd0 f i dddta.obj
 0001:00012c10       ??$_Get_size_of_n@$03@std@@YGII@Z 10013c10 f i dddta.obj
 0001:00012c40       ??$_Get_size_of_n@$07@std@@YGII@Z 10013c40 f i dddta.obj
 0001:00012c70       ??$_Get_size_of_n@$0BE@@std@@YGII@Z 10013c70 f i dddta.obj
 0001:00012ca0       ??$_Get_unwrapped@ABQAPAUTAShareMemStruct@CDDDTA@@@std@@YG?A_TABQAPAUTAShareMemStruct@CDDDTA@@@Z 10013ca0 f i dddta.obj
 0001:00012cb0       ??$_Get_unwrapped_n@AAPAPAUTAShareMemStruct@CDDDTA@@H@std@@YG?A_TAAPAPAUTAShareMemStruct@CDDDTA@@H@Z 10013cb0 f i dddta.obj
 0001:00012cc0       ??$_Idl_distance@PAPAUTAShareMemStruct@CDDDTA@@PAPAU12@@std@@YG?A_PABQAPAUTAShareMemStruct@CDDDTA@@0@Z 10013cc0 f i dddta.obj
 0001:00012ce0       ??$_Seek_wrapped@PAPAUTAShareMemStruct@CDDDTA@@PAPAU12@@std@@YGXAAPAPAUTAShareMemStruct@CDDDTA@@$$QAPAPAU12@@Z 10013ce0 f i dddta.obj
 0001:00012d00       ??$_To_address@PAPAUTAShareMemStruct@CDDDTA@@@std@@YG?A_PABQAPAUTAShareMemStruct@CDDDTA@@@Z 10013d00 f i dddta.obj
 0001:00012d10       ??$_Unfancy@UTAShareMemStruct@CDDDTA@@@std@@YGPAUTAShareMemStruct@CDDDTA@@PAU12@@Z 10013d10 f i dddta.obj
 0001:00012d20       ??$_Unfancy@U_Container_proxy@std@@@std@@YGPAU_Container_proxy@0@PAU10@@Z 10013d20 f i dddta.obj
 0001:00012d30       ??$_Uninitialized_copy_unchecked@PAPAUTAShareMemStruct@CDDDTA@@PAPAU12@@std@@YGPAPAUTAShareMemStruct@CDDDTA@@PAPAU12@QAPAU12@0@Z 10013d30 f i dddta.obj
 0001:00012dd0       ??$_Uninitialized_value_construct_n_unchecked1@PAPAUTAShareMemStruct@CDDDTA@@I@std@@YGPAPAUTAShareMemStruct@CDDDTA@@PAPAU12@I@Z 10013dd0 f i dddta.obj
 0001:00012df0       ??$_Voidify_iter@PAPAUTAShareMemStruct@CDDDTA@@@std@@YGPAXPAPAUTAShareMemStruct@CDDDTA@@@Z 10013df0 f i dddta.obj
 0001:00012e00       ??$_Voidify_iter@PAUTAShareMemStruct@CDDDTA@@@std@@YGPAXPAUTAShareMemStruct@CDDDTA@@@Z 10013e00 f i dddta.obj
 0001:00012e10       ??$_Voidify_iter@PAU_Container_proxy@std@@@std@@YGPAXPAU_Container_proxy@0@@Z 10013e10 f i dddta.obj
 0001:00012e20       ??$_Zero_range@PAPAUTAShareMemStruct@CDDDTA@@@std@@YGPAPAUTAShareMemStruct@CDDDTA@@QAPAU12@0@Z 10013e20 f i dddta.obj
 0001:00012e60       ??$addressof@PAUTAShareMemStruct@CDDDTA@@@std@@YGPAPAUTAShareMemStruct@CDDDTA@@AAPAU12@@Z 10013e60 f i dddta.obj
 0001:00012e70       ??$addressof@U_Container_proxy@std@@@std@@YGPAU_Container_proxy@0@AAU10@@Z 10013e70 f i dddta.obj
 0001:00012e80       ??$addressof@V?$_Deque_val@U?$_Deque_simple_types@UTAShareMemStruct@CDDDTA@@@std@@@std@@@std@@YGPAV?$_Deque_val@U?$_Deque_simple_types@UTAShareMemStruct@CDDDTA@@@std@@@0@AAV10@@Z 10013e80 f i dddta.obj
 0001:00012e90       ??$construct@UTAShareMemStruct@CDDDTA@@ABU12@@?$_Default_allocator_traits@V?$allocator@UTAShareMemStruct@CDDDTA@@@std@@@std@@SGXAAV?$allocator@UTAShareMemStruct@CDDDTA@@@1@QAUTAShareMemStruct@CDDDTA@@ABU34@@Z 10013e90 f i dddta.obj
 0001:00012ee0       ??$destroy@UTAShareMemStruct@CDDDTA@@@?$_Default_allocator_traits@V?$allocator@UTAShareMemStruct@CDDDTA@@@std@@@std@@SGXAAV?$allocator@UTAShareMemStruct@CDDDTA@@@1@QAUTAShareMemStruct@CDDDTA@@@Z 10013ee0 f i dddta.obj
 0001:00012ef0       ??$emplace_front@ABUTAShareMemStruct@CDDDTA@@@?$deque@UTAShareMemStruct@CDDDTA@@V?$allocator@UTAShareMemStruct@CDDDTA@@@std@@@std@@QAE?A_TABUTAShareMemStruct@CDDDTA@@@Z 10013ef0 f i dddta.obj
 0001:00013050       ??$exchange@PAU_Container_proxy@std@@$$T@std@@YGPAU_Container_proxy@0@AAPAU10@$$QA$$T@Z 10014050 f i dddta.obj
 0001:00013070       ??$forward@AAPAUTAShareMemStruct@CDDDTA@@@std@@YGAAPAUTAShareMemStruct@CDDDTA@@AAPAU12@@Z 10014070 f i dddta.obj
 0001:00013080       ??$forward@ABUTAShareMemStruct@CDDDTA@@@std@@YGABUTAShareMemStruct@CDDDTA@@ABU12@@Z 10014080 f i dddta.obj
 0001:00013090       ??$forward@PAPAUTAShareMemStruct@CDDDTA@@@std@@YG$$QAPAPAUTAShareMemStruct@CDDDTA@@AAPAPAU12@@Z 10014090 f i dddta.obj
 0001:000130a0       ??$forward@PAU_Container_base12@std@@@std@@YG$$QAPAU_Container_base12@0@AAPAU10@@Z 100140a0 f i dddta.obj
 0001:000130b0       ??$uninitialized_copy@PAPAUTAShareMemStruct@CDDDTA@@PAPAU12@@std@@YGPAPAUTAShareMemStruct@CDDDTA@@QAPAU12@0PAPAU12@@Z 100140b0 f i dddta.obj
 0001:00013120       ??0?$_Deque_unchecked_const_iterator@V?$_Deque_val@U?$_Deque_simple_types@UTAShareMemStruct@CDDDTA@@@std@@@std@@@std@@QAE@IPBU_Container_base12@1@@Z 10014120 f i dddta.obj
 0001:00013150       ??0?$_Deque_unchecked_iterator@V?$_Deque_val@U?$_Deque_simple_types@UTAShareMemStruct@CDDDTA@@@std@@@std@@@std@@QAE@IPBU_Container_base12@1@@Z 10014150 f i dddta.obj
 0001:00013170       ??0?$_Deque_val@U?$_Deque_simple_types@UTAShareMemStruct@CDDDTA@@@std@@@std@@QAE@XZ 10014170 f i dddta.obj
 0001:000131b0       ??0?$_Uninitialized_backout@PAPAUTAShareMemStruct@CDDDTA@@@std@@QAE@PAPAUTAShareMemStruct@CDDDTA@@@Z 100141b0 f i dddta.obj
 0001:000131e0       ??0?$allocator@UTAShareMemStruct@CDDDTA@@@std@@QAE@XZ 100141e0 f i dddta.obj
 0001:000131f0       ??0?$deque@UTAShareMemStruct@CDDDTA@@V?$allocator@UTAShareMemStruct@CDDDTA@@@std@@@std@@QAE@XZ 100141f0 f i dddta.obj
 0001:00013230       ??0CDDDTA@@QAE@XZ          10014230 f   dddta.obj
 0001:00013320       ??0_Container_base12@std@@QAE@XZ 10014320 f i dddta.obj
 0001:00013340       ??0_Container_proxy@std@@QAE@PAU_Container_base12@1@@Z 10014340 f i dddta.obj
 0001:00013370       ??1?$_Uninitialized_backout@PAPAUTAShareMemStruct@CDDDTA@@@std@@QAE@XZ 10014370 f i dddta.obj
 0001:00013390       ??1?$deque@UTAShareMemStruct@CDDDTA@@V?$allocator@UTAShareMemStruct@CDDDTA@@@std@@@std@@QAE@XZ 10014390 f i dddta.obj
 0001:000133e0       ??1CDDDTA@@QAE@XZ          100143e0 f   dddta.obj
 0001:00013440       ??A?$deque@UTAShareMemStruct@CDDDTA@@V?$allocator@UTAShareMemStruct@CDDDTA@@@std@@@std@@QAEAAUTAShareMemStruct@CDDDTA@@I@Z 10014440 f i dddta.obj
 0001:00013480       ??D?$_Deque_unchecked_const_iterator@V?$_Deque_val@U?$_Deque_simple_types@UTAShareMemStruct@CDDDTA@@@std@@@std@@@std@@QBEABUTAShareMemStruct@CDDDTA@@XZ 10014480 f i dddta.obj
 0001:000134d0       ??D?$_Deque_unchecked_iterator@V?$_Deque_val@U?$_Deque_simple_types@UTAShareMemStruct@CDDDTA@@@std@@@std@@@std@@QBEAAUTAShareMemStruct@CDDDTA@@XZ 100144d0 f i dddta.obj
 0001:000134f0       ??H?$_Deque_unchecked_iterator@V?$_Deque_val@U?$_Deque_simple_types@UTAShareMemStruct@CDDDTA@@@std@@@std@@@std@@QBE?AV01@H@Z 100144f0 f i dddta.obj
 0001:00013530       ??Y?$_Deque_unchecked_const_iterator@V?$_Deque_val@U?$_Deque_simple_types@UTAShareMemStruct@CDDDTA@@@std@@@std@@@std@@QAEAAV01@H@Z 10014530 f i dddta.obj
 0001:00013550       ??Y?$_Deque_unchecked_iterator@V?$_Deque_val@U?$_Deque_simple_types@UTAShareMemStruct@CDDDTA@@@std@@@std@@@std@@QAEAAV01@H@Z 10014550 f i dddta.obj
 0001:00013570       ?Blit@CDDDTA@@QAEXPAUIDirectDrawSurface@@@Z 10014570 f   dddta.obj
 0001:000136e0       ?ChatStrnCpy@@YAPADPADPBDI@Z 100146e0 f   dddta.obj
 0001:00013720       ?CheckMessages@CDDDTA@@AAEXXZ 10014720 f   dddta.obj
 0001:00013870       ?CreateSharedTAMem@CDDDTA@@AAEXHHPAD@Z 10014870 f   dddta.obj
 0001:000139a0       ?DeInitDDDTA@CDDDTA@@QAEXXZ 100149a0 f   dddta.obj
 0001:00013a40       ?DeleteMem@@YAXPAX@Z       10014a40 f   dddta.obj
 0001:00013a70       ?FrameUpdate@CDDDTA@@QAEXXZ 10014a70 f   dddta.obj
 0001:00013bc0       ?InitDDDTA@CDDDTA@@AAEXXZ  10014bc0 f   dddta.obj
 0001:00013f60       ?Message@CDDDTA@@QAE_NPAUHWND__@@IIJ@Z 10014f60 f   dddta.obj
 0001:00014040       ?Moo@CDDDTA@@QAEXXZ        10015040 f   dddta.obj
 0001:00014110       ?Print@CDDDTA@@AAEXPAUHDC__@@PAUPrimitiveStruct@@@Z 10015110 f   dddta.obj
 0001:00014280       ?RestoreAllSharedTAMem@CDDDTA@@AAEXXZ 10015280 f   dddta.obj
 0001:00014350       ?SendTextToSpring@CDDDTA@@QAEXPBD@Z 10015350 f   dddta.obj
 0001:00014400       ?SetActiveUnit@CDDDTA@@AAEXPAUBeginUnitsArray_p@@PAUUnitStruct@@@Z 10015400 f i dddta.obj
 0001:00014500       ?WriteExplosion@CDDDTA@@AAEXXZ 10015500 f   dddta.obj
 0001:00014830       ?WriteProjectiles@CDDDTA@@AAEXXZ 10015830 f   dddta.obj
 0001:00014a10       ?WriteSmoke@CDDDTA@@AAEXXZ 10015a10 f   dddta.obj
 0001:00014ca0       ?WriteSubPart@CDDDTA@@AAEXPAUSubPart@@PAUPrimitiveStruct@@@Z 10015ca0 f   dddta.obj
 0001:00014d90       ?WriteUnits@CDDDTA@@AAEXXZ 10015d90 f   dddta.obj
 0001:00014e90       ?_Get_data@?$deque@UTAShareMemStruct@CDDDTA@@V?$allocator@UTAShareMemStruct@CDDDTA@@@std@@@std@@AAEAAV?$_Deque_val@U?$_Deque_simple_types@UTAShareMemStruct@CDDDTA@@@std@@@2@XZ 10015e90 f i dddta.obj
 0001:00014ea0       ?_Get_data@?$deque@UTAShareMemStruct@CDDDTA@@V?$allocator@UTAShareMemStruct@CDDDTA@@@std@@@std@@ABEABV?$_Deque_val@U?$_Deque_simple_types@UTAShareMemStruct@CDDDTA@@@std@@@2@XZ 10015ea0 f i dddta.obj
 0001:00014eb0       ?_Get_first@?$_Compressed_pair@V?$allocator@UTAShareMemStruct@CDDDTA@@@std@@V?$_Deque_val@U?$_Deque_simple_types@UTAShareMemStruct@CDDDTA@@@std@@@2@$00@std@@QAEAAV?$allocator@UTAShareMemStruct@CDDDTA@@@2@XZ 10015eb0 f i dddta.obj
 0001:00014ec0       ?_Get_first@?$_Compressed_pair@V?$allocator@UTAShareMemStruct@CDDDTA@@@std@@V?$_Deque_val@U?$_Deque_simple_types@UTAShareMemStruct@CDDDTA@@@std@@@2@$00@std@@QBEABV?$allocator@UTAShareMemStruct@CDDDTA@@@2@XZ 10015ec0 f i dddta.obj
 0001:00014ed0       ?_Getal@?$deque@UTAShareMemStruct@CDDDTA@@V?$allocator@UTAShareMemStruct@CDDDTA@@@std@@@std@@AAEAAV?$allocator@UTAShareMemStruct@CDDDTA@@@2@XZ 10015ed0 f i dddta.obj
 0001:00014ef0       ?_Getal@?$deque@UTAShareMemStruct@CDDDTA@@V?$allocator@UTAShareMemStruct@CDDDTA@@@std@@@std@@ABEABV?$allocator@UTAShareMemStruct@CDDDTA@@@2@XZ 10015ef0 f i dddta.obj
 0001:00014f10       ?_Getblock@?$_Deque_val@U?$_Deque_simple_types@UTAShareMemStruct@CDDDTA@@@std@@@std@@QBEII@Z 10015f10 f i dddta.obj
 0001:00014f30       ?_Getblock@?$deque@UTAShareMemStruct@CDDDTA@@V?$allocator@UTAShareMemStruct@CDDDTA@@@std@@@std@@ABEII@Z 10015f30 f i dddta.obj
 0001:00014f50       ?_Growmap@?$deque@UTAShareMemStruct@CDDDTA@@V?$allocator@UTAShareMemStruct@CDDDTA@@@std@@@std@@AAEXI@Z 10015f50 f i dddta.obj
 0001:00015180       ?_Map@?$deque@UTAShareMemStruct@CDDDTA@@V?$allocator@UTAShareMemStruct@CDDDTA@@@std@@@std@@AAEAAPAPAUTAShareMemStruct@CDDDTA@@XZ 10016180 f i dddta.obj
 0001:000151a0       ?_Mapsize@?$deque@UTAShareMemStruct@CDDDTA@@V?$allocator@UTAShareMemStruct@CDDDTA@@@std@@@std@@AAEAAIXZ 100161a0 f i dddta.obj
 0001:000151c0       ?_Myoff@?$deque@UTAShareMemStruct@CDDDTA@@V?$allocator@UTAShareMemStruct@CDDDTA@@@std@@@std@@AAEAAIXZ 100161c0 f i dddta.obj
 0001:000151e0       ?_Mysize@?$deque@UTAShareMemStruct@CDDDTA@@V?$allocator@UTAShareMemStruct@CDDDTA@@@std@@@std@@AAEAAIXZ 100161e0 f i dddta.obj
 0001:00015200       ?_Mysize@?$deque@UTAShareMemStruct@CDDDTA@@V?$allocator@UTAShareMemStruct@CDDDTA@@@std@@@std@@ABEABIXZ 10016200 f i dddta.obj
 0001:00015220       ?_Orphan_all@?$deque@UTAShareMemStruct@CDDDTA@@V?$allocator@UTAShareMemStruct@CDDDTA@@@std@@@std@@AAEXXZ 10016220 f i dddta.obj
 0001:00015240       ?_Orphan_all@_Container_base12@std@@QAEXXZ 10016240 f i dddta.obj
 0001:00015250       ?_Release@?$_Uninitialized_backout@PAPAUTAShareMemStruct@CDDDTA@@@std@@QAEPAPAUTAShareMemStruct@CDDDTA@@XZ 10016250 f i dddta.obj
 0001:00015270       ?_Tidy@?$deque@UTAShareMemStruct@CDDDTA@@V?$allocator@UTAShareMemStruct@CDDDTA@@@std@@@std@@AAEXXZ 10016270 f i dddta.obj
 0001:00015390       ?_Unchecked_begin@?$deque@UTAShareMemStruct@CDDDTA@@V?$allocator@UTAShareMemStruct@CDDDTA@@@std@@@std@@QAE?AV?$_Deque_unchecked_iterator@V?$_Deque_val@U?$_Deque_simple_types@UTAShareMemStruct@CDDDTA@@@std@@@std@@@2@XZ 10016390 f i dddta.obj
 0001:000153d0       ?_Xlen@?$deque@UTAShareMemStruct@CDDDTA@@V?$allocator@UTAShareMemStruct@CDDDTA@@@std@@@std@@ABEXXZ 100163d0 f i dddta.obj
 0001:000153f0       ?allocate@?$allocator@PAUTAShareMemStruct@CDDDTA@@@std@@QAEPAPAUTAShareMemStruct@CDDDTA@@I@Z 100163f0 f i dddta.obj
 0001:00015410       ?allocate@?$allocator@UTAShareMemStruct@CDDDTA@@@std@@QAEPAUTAShareMemStruct@CDDDTA@@I@Z 10016410 f i dddta.obj
 0001:00015430       ?allocate@?$allocator@U_Container_proxy@std@@@std@@QAEPAU_Container_proxy@2@I@Z 10016430 f i dddta.obj
 0001:00015450       ?clear@?$deque@UTAShareMemStruct@CDDDTA@@V?$allocator@UTAShareMemStruct@CDDDTA@@@std@@@std@@QAEXXZ 10016450 f i dddta.obj
 0001:00015470       ?deallocate@?$_Default_allocator_traits@V?$allocator@U_Container_proxy@std@@@std@@@std@@SGXAAV?$allocator@U_Container_proxy@std@@@2@QAU_Container_proxy@2@I@Z 10016470 f i dddta.obj
 0001:00015490       ?deallocate@?$allocator@PAUTAShareMemStruct@CDDDTA@@@std@@QAEXQAPAUTAShareMemStruct@CDDDTA@@I@Z 10016490 f i dddta.obj
 0001:000154b0       ?deallocate@?$allocator@UTAShareMemStruct@CDDDTA@@@std@@QAEXQAUTAShareMemStruct@CDDDTA@@I@Z 100164b0 f i dddta.obj
 0001:000154d0       ?empty@?$deque@UTAShareMemStruct@CDDDTA@@V?$allocator@UTAShareMemStruct@CDDDTA@@@std@@@std@@QBE_NXZ 100164d0 f i dddta.obj
 0001:00015500       ?max_size@?$_Default_allocator_traits@V?$allocator@UTAShareMemStruct@CDDDTA@@@std@@@std@@SGIABV?$allocator@UTAShareMemStruct@CDDDTA@@@2@@Z 10016500 f i dddta.obj
 0001:00015510       ?max_size@?$deque@UTAShareMemStruct@CDDDTA@@V?$allocator@UTAShareMemStruct@CDDDTA@@@std@@@std@@QBEIXZ 10016510 f i dddta.obj
 0001:00015550       ?pop_back@?$deque@UTAShareMemStruct@CDDDTA@@V?$allocator@UTAShareMemStruct@CDDDTA@@@std@@@std@@QAEXXZ 10016550 f i dddta.obj
 0001:00015620       ?push_front@?$deque@UTAShareMemStruct@CDDDTA@@V?$allocator@UTAShareMemStruct@CDDDTA@@@std@@@std@@QAEXABUTAShareMemStruct@CDDDTA@@@Z 10016620 f i dddta.obj
 0001:00015640       ?size@?$deque@UTAShareMemStruct@CDDDTA@@V?$allocator@UTAShareMemStruct@CDDDTA@@@std@@@std@@QBEIXZ 10016640 f i dddta.obj
 0001:00015660       ??0CBookmarks@@QAE@XZ      10016660 f   bookmarks.obj
 0001:00015670       ??1CBookmarks@@QAE@XZ      10016670 f   bookmarks.obj
 0001:00015680       ?Blit@CBookmarks@@QAEXPAUIDirectDrawSurface@@@Z 10016680 f   bookmarks.obj
 0001:00015690       ?Message@CBookmarks@@QAE_NPAUHWND__@@IIJ@Z 10016690 f   bookmarks.obj
 0001:000156a0       ??0CChangeQueue@@QAE@XZ    100166a0 f   changequeue.obj
 0001:000156d0       ??1CChangeQueue@@QAE@XZ    100166d0 f   changequeue.obj
 0001:000156e0       ?Blit@CChangeQueue@@QAEXPAUIDirectDrawSurface@@@Z 100166e0 f   changequeue.obj
 0001:000156f0       ?Message@CChangeQueue@@QAE_NPAUHWND__@@IIJ@Z 100166f0 f   changequeue.obj
 0001:000157b0       ?Write@@YGXPAUHWND__@@@Z   100167b0 f   changequeue.obj
 0001:00015840       ??$sprintf_s@$0GE@@@YAHAAY0GE@DPBDZZ 10016840 f i cinomce.obj
 0001:00015870       ??0CIncome@@QAE@H@Z        10016870 f   cinomce.obj
 0001:00015a80       ??1CIncome@@QAE@XZ         10016a80 f   cinomce.obj
 0001:00015a90       ?BlitIncome@CIncome@@QAEXPAE@Z 10016a90 f   cinomce.obj
 0001:00015b70       ?CorrectPos@CIncome@@AAEXXZ 10016b70 f   cinomce.obj
 0001:00015c00       ?DrawPlayerRect@CIncome@@AAEXHHD@Z 10016c00 f   cinomce.obj
 0001:00015c60       ?DrawStorageText@CIncome@@AAEHMHH@Z 10016c60 f   cinomce.obj
 0001:00015d80       ?DrawTextA@CIncome@@AAEXPADHHD@Z 10016d80 f   cinomce.obj
 0001:00015ee0       ?FillRect@CIncome@@AAEXD@Z 10016ee0 f   cinomce.obj
 0001:00015f60       ?GetPlayerColor@CIncome@@AAEEH@Z 10016f60 f   cinomce.obj
 0001:00015f90       ?IsShow@CIncome@@QAE_NPAUtagRECT@@@Z 10016f90 f   cinomce.obj
 0001:00015ff0       ?Message@CIncome@@QAE_NPAUHWND__@@IIJ@Z 10016ff0 f   cinomce.obj
 0001:00016520       ?PaintStoragebar@CIncome@@AAEXHHHH@Z 10017520 f   cinomce.obj
 0001:00016700       ?ReadPos@CIncome@@AAEXXZ   10017700 f   cinomce.obj
 0001:000167b0       ?Set@CIncome@@QAEXH@Z      100177b0 f   cinomce.obj
 0001:000167d0       ?ShowAllIncome@CIncome@@AAEHXZ 100177d0 f   cinomce.obj
 0001:000168a0       ?ShowAllyIncome@CIncome@@AAEHXZ 100178a0 f   cinomce.obj
 0001:00016990       ?ShowMyViewIncome@CIncome@@AAEXHH@Z 10017990 f   cinomce.obj
 0001:00016a60       ?ShowPlayerIncome@CIncome@@AAEXHHH@Z 10017a60 f   cinomce.obj
 0001:00016d40       ?WritePos@CIncome@@AAEXXZ  10017d40 f   cinomce.obj
 0001:00016df0       ?inRect@CIncome@@AAE_NHH@Z 10017df0 f   cinomce.obj
 0001:00016f00       ??0CWarp@@QAE@H@Z          10017f00 f   commanderwarp.obj
 0001:00016f80       ??1CWarp@@QAE@XZ           10017f80 f   commanderwarp.obj
 0001:00016ff0       ?Blit@CWarp@@QAEXPAUIDirectDrawSurface@@@Z 10017ff0 f   commanderwarp.obj
 0001:00017060       ?BlitBtn@CWarp@@AAEXPAE@Z  10018060 f   commanderwarp.obj
 0001:000171f0       ?Message@CWarp@@QAE_NPAUHWND__@@IIJ@Z 100181f0 f   commanderwarp.obj
 0001:000173c0       ?SetPos@CWarp@@AAEXHH@Z    100183c0 f   commanderwarp.obj
 0001:00017410       ?WithinButton@CWarp@@AAE_NHH@Z 10018410 f   commanderwarp.obj
 0001:00017460       ??$?0$$V@?$_Compressed_pair@V?$allocator@D@std@@V?$_String_val@U?$_Simple_types@D@std@@@2@$00@std@@QAE@U_Zero_then_variadic_args_t@1@@Z 10018460 f i dialog.obj
 0001:00017480       ??$_Construct_in_place@PADABQAD@std@@YGXAAPADABQAD@Z 10018480 f i dialog.obj
 0001:000174c0       ??$_Convert_size@I@std@@YGII@Z 100184c0 f i dialog.obj
 0001:000174d0       ??$_Destroy_in_place@PAD@std@@YGXAAPAD@Z 100184d0 f i dialog.obj
 0001:000174e0       ??$_Get_size_of_n@$00@std@@YGII@Z 100184e0 f i dialog.obj
 0001:00017500       ??$_Reallocate_for@V<lambda_9366063389c5f42a00a5088cf24e69de>@@PBD@?$basic_string@DU?$char_traits@D@std@@V?$allocator@D@2@@std@@AAEAAV01@IV<lambda_9366063389c5f42a00a5088cf24e69de>@@PBD@Z 10018500 f i dialog.obj
 0001:000175c0       ??$_Unfancy@D@std@@YGPADPAD@Z 100185c0 f i dialog.obj
 0001:000175d0       ??$_Voidify_iter@PAPAD@std@@YGPAXPAPAD@Z 100185d0 f i dialog.obj
 0001:000175e0       ??$addressof@PAD@std@@YGPAPADAAPAD@Z 100185e0 f i dialog.obj
 0001:000175f0       ??$forward@ABQAD@std@@YGABQADABQAD@Z 100185f0 f i dialog.obj
 0001:00017600       ??$max@I@std@@YGABIABI0@Z  10018600 f i dialog.obj
 0001:00017630       ??0?$_String_val@U?$_Simple_types@D@std@@@std@@QAE@XZ 10018630 f i dialog.obj
 0001:00017660       ??0?$allocator@D@std@@QAE@XZ 10018660 f i dialog.obj
 0001:00017670       ??0?$basic_string@DU?$char_traits@D@std@@V?$allocator@D@2@@std@@QAE@QBD@Z 10018670 f i dialog.obj
 0001:00017700       ??0Dialog@@QAE@H@Z         10018700 f   dialog.obj
 0001:00017990       ??0_Bxty@?$_String_val@U?$_Simple_types@D@std@@@std@@QAE@XZ 10018990 f i dialog.obj
 0001:000179b0       ??0_Fake_proxy_ptr_impl@std@@QAE@ABU_Fake_allocator@1@ABU_Container_base0@1@@Z 100189b0 f i dialog.obj
 0001:000179c0       ??1?$_Compressed_pair@V?$allocator@D@std@@V?$_String_val@U?$_Simple_types@D@std@@@2@$00@std@@QAE@XZ 100189c0 f i dialog.obj
 0001:000179e0       ??1?$_String_val@U?$_Simple_types@D@std@@@std@@QAE@XZ 100189e0 f i dialog.obj
 0001:00017a00       ??1?$basic_string@DU?$char_traits@D@std@@V?$allocator@D@2@@std@@QAE@XZ 10018a00 f i dialog.obj
 0001:00017a20       ??1Dialog@@QAE@XZ          10018a20 f   dialog.obj
 0001:00017a30       ??1_Bxty@?$_String_val@U?$_Simple_types@D@std@@@std@@QAE@XZ 10018a30 f i dialog.obj
 0001:00017a40       ??A?$basic_string@DU?$char_traits@D@std@@V?$allocator@D@2@@std@@QAEAADI@Z 10018a40 f i dialog.obj
 0001:00017a60       ??R<lambda_9366063389c5f42a00a5088cf24e69de>@@QBE@QADIQBD@Z 10018a60 f i dialog.obj
 0001:00017aa0       ?BlitCursor@Dialog@@QAEXPAEHH@Z 10018aa0 f   dialog.obj
 0001:00017c80       ?BlitDialog@Dialog@@QAEXPAE@Z 10018c80 f   dialog.obj
 0001:00017f20       ?CorrectPos@Dialog@@AAEXXZ 10018f20 f   dialog.obj
 0001:00017fb0       ?DrawBackgroundButton@Dialog@@AAEXXZ 10018fb0 f   dialog.obj
 0001:00018340       ?DrawDelay@Dialog@@AAEXXZ  10019340 f   dialog.obj
 0001:00018440       ?DrawFullRings@Dialog@@AAEXXZ 10019440 f   dialog.obj
 0001:000186d0       ?DrawKeyCode@Dialog@@AAEXXZ 100196d0 f   dialog.obj
 0001:00018810       ?DrawMegaMapKey@Dialog@@AAEXXZ 10019810 f   dialog.obj
 0001:00018900       ?DrawOptimizeDT@Dialog@@AAEXXZ 10019900 f   dialog.obj
 0001:00018b90       ?DrawShareBox@Dialog@@AAEXXZ 10019b90 f   dialog.obj
 0001:00018f90       ?DrawSmallText@Dialog@@QAEXPAEHHPAD@Z 10019f90 f   dialog.obj
 0001:000195d0       ?DrawTextA@Dialog@@QAEXPAEHHPAD@Z 1001a5d0 f   dialog.obj
 0001:00019c10       ?DrawTinyText@Dialog@@AAEXPADHHD@Z 1001ac10 f   dialog.obj
 0001:00019d70       ?DrawVSync@Dialog@@AAEXXZ  1001ad70 f   dialog.obj
 0001:0001a0e0       ?DrawVisibleButton@Dialog@@AAEXXZ 1001b0e0 f   dialog.obj
 0001:0001a1a0       ?DrawWhiteboardKey@Dialog@@AAEXXZ 1001b1a0 f   dialog.obj
 0001:0001a290       ?EnterOption@@YGHPAUtagInlineX86StackBuffer@@@Z 1001b290 f   dialog.obj
 0001:0001a2b0       ?FillRect@Dialog@@AAEXHHHHD@Z 1001b2b0 f   dialog.obj
 0001:0001a370       ?HideDialog@Dialog@@QAEXXZ 1001b370 f   dialog.obj
 0001:0001a3b0       ?Inside@Dialog@@AAE_NHHH@Z 1001b3b0 f   dialog.obj
 0001:0001a620       ?IsShow@Dialog@@QAE_NPAUtagRECT@@@Z 1001b620 f   dialog.obj
 0001:0001a680       ?Message@Dialog@@QAE_NPAUHWND__@@IIJ@Z 1001b680 f   dialog.obj
 0001:0001b400       ?PressInOption@@YGHPAUtagInlineX86StackBuffer@@@Z 1001c400 f   dialog.obj
 0001:0001b430       ?ReadPos@Dialog@@AAEXXZ    1001c430 f   dialog.obj
 0001:0001b4c0       ?ReadSettings@Dialog@@QAEXXZ 1001c4c0 f   dialog.obj
 0001:0001b800       ?RenderDialog@Dialog@@QAEXPAE@Z 1001c800 f   dialog.obj
 0001:0001bae0       ?RestoreAll@Dialog@@QAEXXZ 1001cae0 f   dialog.obj
 0001:0001bc60       ?RestoreCursor@Dialog@@AAEXXZ 1001cc60 f   dialog.obj
 0001:0001be20       ?SetAll@Dialog@@QAEXXZ     1001ce20 f   dialog.obj
 0001:0001bf30       ?SetVisibleList@Dialog@@AAEXXZ 1001cf30 f   dialog.obj
 0001:0001bf40       ?ShowDialog@Dialog@@QAEXXZ 1001cf40 f   dialog.obj
 0001:0001bfb0       ?WritePos@Dialog@@AAEXXZ   1001cfb0 f   dialog.obj
 0001:0001c060       ?WriteSettings@Dialog@@AAEXXZ 1001d060 f   dialog.obj
 0001:0001c1c0       ?_Calculate_growth@?$basic_string@DU?$char_traits@D@std@@V?$allocator@D@2@@std@@ABEII@Z 1001d1c0 f i dialog.obj
 0001:0001c1f0       ?_Calculate_growth@?$basic_string@DU?$char_traits@D@std@@V?$allocator@D@2@@std@@CGIIII@Z 1001d1f0 f i dialog.obj
 0001:0001c240       ?_Get_first@?$_Compressed_pair@V?$allocator@D@std@@V?$_String_val@U?$_Simple_types@D@std@@@2@$00@std@@QAEAAV?$allocator@D@2@XZ 1001d240 f i dialog.obj
 0001:0001c250       ?_Get_first@?$_Compressed_pair@V?$allocator@D@std@@V?$_String_val@U?$_Simple_types@D@std@@@2@$00@std@@QBEABV?$allocator@D@2@XZ 1001d250 f i dialog.obj
 0001:0001c260       ?_Getal@?$basic_string@DU?$char_traits@D@std@@V?$allocator@D@2@@std@@AAEAAV?$allocator@D@2@XZ 1001d260 f i dialog.obj
 0001:0001c280       ?_Getal@?$basic_string@DU?$char_traits@D@std@@V?$allocator@D@2@@std@@ABEABV?$allocator@D@2@XZ 1001d280 f i dialog.obj
 0001:0001c2a0       ?_Large_string_engaged@?$_String_val@U?$_Simple_types@D@std@@@std@@QBE_NXZ 1001d2a0 f i dialog.obj
 0001:0001c2d0       ?_Myptr@?$_String_val@U?$_Simple_types@D@std@@@std@@QAEPADXZ 1001d2d0 f i dialog.obj
 0001:0001c310       ?_Release@_Fake_proxy_ptr_impl@std@@QAEXXZ 1001d310 f i dialog.obj
 0001:0001c320       ?_Tidy_deallocate@?$basic_string@DU?$char_traits@D@std@@V?$allocator@D@2@@std@@AAEXXZ 1001d320 f i dialog.obj
 0001:0001c3e0       ?_Tidy_init@?$basic_string@DU?$char_traits@D@std@@V?$allocator@D@2@@std@@AAEXXZ 1001d3e0 f i dialog.obj
 0001:0001c420       ?_Xlen_string@std@@YGXXZ   1001d420 f i dialog.obj
 0001:0001c430       ?allocate@?$allocator@D@std@@QAEPADI@Z 1001d430 f i dialog.obj
 0001:0001c450       ?assign@?$_Narrow_char_traits@DH@std@@SGXAADABD@Z 1001d450 f i dialog.obj
 0001:0001c470       ?assign@?$basic_string@DU?$char_traits@D@std@@V?$allocator@D@2@@std@@QAEAAV12@QBD@Z 1001d470 f i dialog.obj
 0001:0001c4a0       ?assign@?$basic_string@DU?$char_traits@D@std@@V?$allocator@D@2@@std@@QAEAAV12@QBDI@Z 1001d4a0 f i dialog.obj
 0001:0001c520       ?copy@?$_Char_traits@DH@std@@SGPADQADQBDI@Z 1001d520 f i dialog.obj
 0001:0001c540       ?deallocate@?$allocator@D@std@@QAEXQADI@Z 1001d540 f i dialog.obj
 0001:0001c560       ?length@?$_Narrow_char_traits@DH@std@@SGIQBD@Z 1001d560 f i dialog.obj
 0001:0001c580       ?max_size@?$_Default_allocator_traits@V?$allocator@D@std@@@std@@SGIABV?$allocator@D@2@@Z 1001d580 f i dialog.obj
 0001:0001c590       ?max_size@?$basic_string@DU?$char_traits@D@std@@V?$allocator@D@2@@std@@QBEIXZ 1001d590 f i dialog.obj
 0001:0001c5f0       ?move@?$_Char_traits@DH@std@@SGPADQADQBDI@Z 1001d5f0 f i dialog.obj
 0001:0001c610       ?size@?$basic_string@DU?$char_traits@D@std@@V?$allocator@D@2@@std@@QBEIXZ 1001d610 f i dialog.obj
 0001:0001c630       ??0CMapRect@@QAE@H@Z       1001d630 f   maprect.obj
 0001:0001caf0       ??1CMapRect@@QAE@XZ        1001daf0 f   maprect.obj
 0001:0001cb50       ?Blit@CMapRect@@QAEXPAUIDirectDrawSurface@@@Z 1001db50 f   maprect.obj
 0001:0001cd80       ?GetMapMaxX@CMapRect@@AAEHXZ 1001dd80 f   maprect.obj
 0001:0001cda0       ?GetMapMaxY@CMapRect@@AAEHXZ 1001dda0 f   maprect.obj
 0001:0001cdc0       ?LockBlit@CMapRect@@QAEXPADH@Z 1001ddc0 f   maprect.obj
 0001:0001d100       ?PaintRect@CMapRect@@AAEXXZ 1001e100 f   maprect.obj
 0001:0001d290       ?WorldToMiniX@CMapRect@@QAEHH@Z 1001e290 f   maprect.obj
 0001:0001d2d0       ?WorldToMiniY@CMapRect@@QAEHH@Z 1001e2d0 f   maprect.obj
 0001:0001d310       ??0CMinimapHandler@@QAE@XZ 1001e310 f   MinimapHandler.obj
 0001:0001d340       ??1CMinimapHandler@@UAE@XZ 1001e340 f   MinimapHandler.obj
 0001:0001d360       ??_ECMinimapHandler@@UAEPAXI@Z 1001e360 f i MinimapHandler.obj
 0001:0001d360       ??_GCMinimapHandler@@UAEPAXI@Z 1001e360 f i MinimapHandler.obj
 0001:0001d390       ?DeinitMinimap@CMinimapHandler@@QAEXXZ 1001e390 f   MinimapHandler.obj
 0001:0001d3e0       ?FrameUpdate@CMinimapHandler@@QAEXXZ 1001e3e0 f   MinimapHandler.obj
 0001:0001d460       ?InitMinimap@CMinimapHandler@@QAEXPAUSharedMem@@@Z 1001e460 f   MinimapHandler.obj
 0001:0001d540       ??0ShareDialogExpand@@QAE@H@Z 1001e540 f   sharedialog.obj
 0001:0001d650       ??1ShareDialogExpand@@QAE@XZ 1001e650 f   sharedialog.obj
 0001:0001d6c0       ?EnergyPosProc@@YGXPAU_GUIInfo@@H@Z 1001e6c0 f   sharedialog.obj
 0001:0001d7e0       ?GameSpeedPosProc@@YGXPAU_GUIInfo@@H@Z 1001e7e0 f   sharedialog.obj
 0001:0001d840       ?MetalPosProc@@YGXPAU_GUIInfo@@H@Z 1001e840 f   sharedialog.obj
 0001:0001d960       ?ShareDialogInit@@YGHPAUtagInlineX86StackBuffer@@@Z 1001e960 f   sharedialog.obj
 0001:0001de40       ?ShareDialogProc@@YGHPAUtagInlineX86StackBuffer@@@Z 1001ee40 f   sharedialog.obj
 0001:0001e100       ??0TABugFixing@@QAE@XZ     1001f100 f   TABugFix.obj
 0001:0001e650       ??1TABugFixing@@QAE@XZ     1001f650 f   TABugFix.obj
 0001:0001e8e0       ?AntiCheat@TABugFixing@@QAEHXZ 1001f8e0 f   TABugFix.obj
 0001:0001e940       ?BadModelHunter@@YGHPAUtagInlineX86StackBuffer@@@Z 1001f940 f   TABugFix.obj
 0001:0001ea90       ?CDMusic_MenuProc@@YGHPAUtagInlineX86StackBuffer@@@Z 1001fa90 f   TABugFix.obj
 0001:0001eab0       ?CDMusic_VictoryProc@@YGHPAUtagInlineX86StackBuffer@@@Z 1001fab0 f   TABugFix.obj
 0001:0001eac0       ?EnterProc@@YGHPAUtagInlineX86StackBuffer@@@Z 1001fac0 f   TABugFix.obj
 0001:0001eae0       ?LeaveProc@@YGHPAUtagInlineX86StackBuffer@@@Z 1001fae0 f   TABugFix.obj
 0001:0001eb00       ?LogToErrorlog@@YGXPAD@Z   1001fb00 f   TABugFix.obj
 0001:0001eb80       ?Message@TABugFixing@@QAE_NPAUHWND__@@IIJ@Z 1001fb80 f   TABugFix.obj
 0001:0001eb90       ?UnitDeath_BeforeUpdateUI_Proc@@YGHPAUtagInlineX86StackBuffer@@@Z 1001fb90 f   TABugFix.obj
 0001:0001ebc0       ?UnitIDOutRange_Proc@@YGHPAUtagInlineX86StackBuffer@@@Z 1001fbc0 f   TABugFix.obj
 0001:0001ec00       ?UnitVolumeYequZero_Proc@@YGHPAUtagInlineX86StackBuffer@@@Z 1001fc00 f   TABugFix.obj
 0001:0001ec30       ?VectoredHandler@@YGJPAU_EXCEPTION_POINTERS@@@Z 1001fc30 f   TABugFix.obj
 0001:0001ec40       ?resume_EHA@@YGKPAX@Z      1001fc40 f   TABugFix.obj
 0001:0001ec70       ??$?0$$V@?$_Compressed_pair@V?$allocator@PAVRegDword@@@std@@V?$_Vector_val@U?$_Simple_types@PAVRegDword@@@std@@@2@$00@std@@QAE@U_Zero_then_variadic_args_t@1@@Z 1001fc70 f i TAConfig.obj
 0001:0001ec90       ??$?0$$V@?$_Compressed_pair@V?$allocator@PAVRegString@@@std@@V?$_Vector_val@U?$_Simple_types@PAVRegString@@@std@@@2@$00@std@@QAE@U_Zero_then_variadic_args_t@1@@Z 1001fc90 f i TAConfig.obj
 0001:0001ecb0       ??$_Construct_in_place@PAVRegDword@@ABQAV1@@std@@YGXAAPAVRegDword@@ABQAV1@@Z 1001fcb0 f i TAConfig.obj
 0001:0001ecf0       ??$_Construct_in_place@PAVRegString@@ABQAV1@@std@@YGXAAPAVRegString@@ABQAV1@@Z 1001fcf0 f i TAConfig.obj
 0001:0001ed30       ??$_Copy_memmove@PAPAVRegDword@@PAPAV1@@std@@YGPAPAVRegDword@@PAPAV1@00@Z 1001fd30 f i TAConfig.obj
 0001:0001eda0       ??$_Copy_memmove@PAPAVRegString@@PAPAV1@@std@@YGPAPAVRegString@@PAPAV1@00@Z 1001fda0 f i TAConfig.obj
 0001:0001ee10       ??$_Destroy_range@V?$allocator@PAVRegDword@@@std@@@std@@YGXPAPAVRegDword@@QAPAV1@AAV?$allocator@PAVRegDword@@@0@@Z 1001fe10 f i TAConfig.obj
 0001:0001ee20       ??$_Destroy_range@V?$allocator@PAVRegString@@@std@@@std@@YGXPAPAVRegString@@QAPAV1@AAV?$allocator@PAVRegString@@@0@@Z 1001fe20 f i TAConfig.obj
 0001:0001ee30       ??$_Emplace_back@PAVRegDword@@@?$_Uninitialized_backout_al@V?$allocator@PAVRegDword@@@std@@@std@@QAEX$$QAPAVRegDword@@@Z 1001fe30 f i TAConfig.obj
 0001:0001ee70       ??$_Emplace_back@PAVRegString@@@?$_Uninitialized_backout_al@V?$allocator@PAVRegString@@@std@@@std@@QAEX$$QAPAVRegString@@@Z 1001fe70 f i TAConfig.obj
 0001:0001eeb0       ??$_Emplace_back_with_unused_capacity@ABQAVRegDword@@@?$vector@PAVRegDword@@V?$allocator@PAVRegDword@@@std@@@std@@AAEAAPAVRegDword@@ABQAV2@@Z 1001feb0 f i TAConfig.obj
 0001:0001ef10       ??$_Emplace_back_with_unused_capacity@ABQAVRegString@@@?$vector@PAVRegString@@V?$allocator@PAVRegString@@@std@@@std@@AAEAAPAVRegString@@ABQAV2@@Z 1001ff10 f i TAConfig.obj
 0001:0001ef70       ??$_Emplace_one_at_back@ABQAVRegDword@@@?$vector@PAVRegDword@@V?$allocator@PAVRegDword@@@std@@@std@@AAEAAPAVRegDword@@ABQAV2@@Z 1001ff70 f i TAConfig.obj
 0001:0001efd0       ??$_Emplace_one_at_back@ABQAVRegString@@@?$vector@PAVRegString@@V?$allocator@PAVRegString@@@std@@@std@@AAEAAPAVRegString@@ABQAV2@@Z 1001ffd0 f i TAConfig.obj
 0001:0001f030       ??$_Emplace_reallocate@ABQAVRegDword@@@?$vector@PAVRegDword@@V?$allocator@PAVRegDword@@@std@@@std@@AAEPAPAVRegDword@@QAPAV2@ABQAV2@@Z 10020030 f i TAConfig.obj
 0001:0001f200       ??$_Emplace_reallocate@ABQAVRegString@@@?$vector@PAVRegString@@V?$allocator@PAVRegString@@@std@@@std@@AAEPAPAVRegString@@QAPAV2@ABQAV2@@Z 10020200 f i TAConfig.obj
 0001:0001f3d0       ??$_Get_unwrapped@ABQAPAVRegDword@@@std@@YG?A_TABQAPAVRegDword@@@Z 100203d0 f i TAConfig.obj
 0001:0001f3e0       ??$_Get_unwrapped@ABQAPAVRegString@@@std@@YG?A_TABQAPAVRegString@@@Z 100203e0 f i TAConfig.obj
 0001:0001f3f0       ??$_To_address@PAPAVRegDword@@@std@@YG?A_PABQAPAVRegDword@@@Z 100203f0 f i TAConfig.obj
 0001:0001f400       ??$_To_address@PAPAVRegString@@@std@@YG?A_PABQAPAVRegString@@@Z 10020400 f i TAConfig.obj
 0001:0001f410       ??$_Unfancy@PAVRegDword@@@std@@YGPAPAVRegDword@@PAPAV1@@Z 10020410 f i TAConfig.obj
 0001:0001f420       ??$_Unfancy@PAVRegString@@@std@@YGPAPAVRegString@@PAPAV1@@Z 10020420 f i TAConfig.obj
 0001:0001f430       ??$_Uninitialized_move@PAPAVRegDword@@V?$allocator@PAVRegDword@@@std@@@std@@YGPAPAVRegDword@@QAPAV1@0PAPAV1@AAV?$allocator@PAVRegDword@@@0@@Z 10020430 f i TAConfig.obj
 0001:0001f510       ??$_Uninitialized_move@PAPAVRegString@@V?$allocator@PAVRegString@@@std@@@std@@YGPAPAVRegString@@QAPAV1@0PAPAV1@AAV?$allocator@PAVRegString@@@0@@Z 10020510 f i TAConfig.obj
 0001:0001f5f0       ??$_Voidify_iter@PAPAVRegDword@@@std@@YGPAXPAPAVRegDword@@@Z 100205f0 f i TAConfig.obj
 0001:0001f600       ??$_Voidify_iter@PAPAVRegString@@@std@@YGPAXPAPAVRegString@@@Z 10020600 f i TAConfig.obj
 0001:0001f610       ??$addressof@PAVRegDword@@@std@@YGPAPAVRegDword@@AAPAV1@@Z 10020610 f i TAConfig.obj
 0001:0001f620       ??$addressof@PAVRegString@@@std@@YGPAPAVRegString@@AAPAV1@@Z 10020620 f i TAConfig.obj
 0001:0001f630       ??$addressof@V?$_Vector_val@U?$_Simple_types@PAVRegDword@@@std@@@std@@@std@@YGPAV?$_Vector_val@U?$_Simple_types@PAVRegDword@@@std@@@0@AAV10@@Z 10020630 f i TAConfig.obj
 0001:0001f640       ??$addressof@V?$_Vector_val@U?$_Simple_types@PAVRegString@@@std@@@std@@@std@@YGPAV?$_Vector_val@U?$_Simple_types@PAVRegString@@@std@@@0@AAV10@@Z 10020640 f i TAConfig.obj
 0001:0001f650       ??$construct@PAVRegDword@@ABQAV1@@?$_Default_allocator_traits@V?$allocator@PAVRegDword@@@std@@@std@@SGXAAV?$allocator@PAVRegDword@@@1@QAPAVRegDword@@ABQAV3@@Z 10020650 f i TAConfig.obj
 0001:0001f690       ??$construct@PAVRegDword@@PAV1@@?$_Default_allocator_traits@V?$allocator@PAVRegDword@@@std@@@std@@SGXAAV?$allocator@PAVRegDword@@@1@QAPAVRegDword@@$$QAPAV3@@Z 10020690 f i TAConfig.obj
 0001:0001f6d0       ??$construct@PAVRegString@@ABQAV1@@?$_Default_allocator_traits@V?$allocator@PAVRegString@@@std@@@std@@SGXAAV?$allocator@PAVRegString@@@1@QAPAVRegString@@ABQAV3@@Z 100206d0 f i TAConfig.obj
 0001:0001f710       ??$construct@PAVRegString@@PAV1@@?$_Default_allocator_traits@V?$allocator@PAVRegString@@@std@@@std@@SGXAAV?$allocator@PAVRegString@@@1@QAPAVRegString@@$$QAPAV3@@Z 10020710 f i TAConfig.obj
 0001:0001f750       ??$destroy@PAVRegDword@@@?$_Default_allocator_traits@V?$allocator@PAVRegDword@@@std@@@std@@SGXAAV?$allocator@PAVRegDword@@@1@QAPAVRegDword@@@Z 10020750 f i TAConfig.obj
 0001:0001f760       ??$destroy@PAVRegString@@@?$_Default_allocator_traits@V?$allocator@PAVRegString@@@std@@@std@@SGXAAV?$allocator@PAVRegString@@@1@QAPAVRegString@@@Z 10020760 f i TAConfig.obj
 0001:0001f770       ??$emplace_back@ABQAVRegDword@@@?$vector@PAVRegDword@@V?$allocator@PAVRegDword@@@std@@@std@@QAE?A_TABQAVRegDword@@@Z 10020770 f i TAConfig.obj
 0001:0001f7a0       ??$emplace_back@ABQAVRegString@@@?$vector@PAVRegString@@V?$allocator@PAVRegString@@@std@@@std@@QAE?A_TABQAVRegString@@@Z 100207a0 f i TAConfig.obj
 0001:0001f7d0       ??$forward@ABQAVRegDword@@@std@@YGABQAVRegDword@@ABQAV1@@Z 100207d0 f i TAConfig.obj
 0001:0001f7e0       ??$forward@ABQAVRegString@@@std@@YGABQAVRegString@@ABQAV1@@Z 100207e0 f i TAConfig.obj
 0001:0001f7f0       ??$forward@PAVRegDword@@@std@@YG$$QAPAVRegDword@@AAPAV1@@Z 100207f0 f i TAConfig.obj
 0001:0001f800       ??$forward@PAVRegString@@@std@@YG$$QAPAVRegString@@AAPAV1@@Z 10020800 f i TAConfig.obj
 0001:0001f810       ??$move@AAPAVRegDword@@@std@@YG$$QAPAVRegDword@@AAPAV1@@Z 10020810 f i TAConfig.obj
 0001:0001f820       ??$move@AAPAVRegString@@@std@@YG$$QAPAVRegString@@AAPAV1@@Z 10020820 f i TAConfig.obj
 0001:0001f830       ??0?$CTraceCategoryEx@$00$0A@@ATL@@QAE@PBD@Z 10020830 f i TAConfig.obj
 0001:0001f840       ??0?$CTraceCategoryEx@$01$0A@@ATL@@QAE@PBD@Z 10020840 f i TAConfig.obj
 0001:0001f850       ??0?$CTraceCategoryEx@$03$0A@@ATL@@QAE@PBD@Z 10020850 f i TAConfig.obj
 0001:0001f860       ??0?$CTraceCategoryEx@$07$0A@@ATL@@QAE@PBD@Z 10020860 f i TAConfig.obj
 0001:0001f870       ??0?$CTraceCategoryEx@$0BA@$0A@@ATL@@QAE@PBD@Z 10020870 f i TAConfig.obj
 0001:0001f880       ??0?$CTraceCategoryEx@$0BAA@$0A@@ATL@@QAE@PBD@Z 10020880 f i TAConfig.obj
 0001:0001f890       ??0?$CTraceCategoryEx@$0BAAA@$0A@@ATL@@QAE@PBD@Z 10020890 f i TAConfig.obj
 0001:0001f8a0       ??0?$CTraceCategoryEx@$0BAAAA@$0A@@ATL@@QAE@PBD@Z 100208a0 f i TAConfig.obj
 0001:0001f8b0       ??0?$CTraceCategoryEx@$0BAAAAA@$0A@@ATL@@QAE@PBD@Z 100208b0 f i TAConfig.obj
 0001:0001f8c0       ??0?$CTraceCategoryEx@$0CA@$0A@@ATL@@QAE@PBD@Z 100208c0 f i TAConfig.obj
 0001:0001f8d0       ??0?$CTraceCategoryEx@$0CAA@$0A@@ATL@@QAE@PBD@Z 100208d0 f i TAConfig.obj
 0001:0001f8e0       ??0?$CTraceCategoryEx@$0CAAA@$0A@@ATL@@QAE@PBD@Z 100208e0 f i TAConfig.obj
 0001:0001f8f0       ??0?$CTraceCategoryEx@$0CAAAA@$0A@@ATL@@QAE@PBD@Z 100208f0 f i TAConfig.obj
 0001:0001f900       ??0?$CTraceCategoryEx@$0CAAAAA@$0A@@ATL@@QAE@PBD@Z 10020900 f i TAConfig.obj
 0001:0001f910       ??0?$CTraceCategoryEx@$0EA@$0A@@ATL@@QAE@PBD@Z 10020910 f i TAConfig.obj
 0001:0001f920       ??0?$CTraceCategoryEx@$0EAA@$0A@@ATL@@QAE@PBD@Z 10020920 f i TAConfig.obj
 0001:0001f930       ??0?$CTraceCategoryEx@$0EAAA@$0A@@ATL@@QAE@PBD@Z 10020930 f i TAConfig.obj
 0001:0001f940       ??0?$CTraceCategoryEx@$0EAAAA@$0A@@ATL@@QAE@PBD@Z 10020940 f i TAConfig.obj
 0001:0001f950       ??0?$CTraceCategoryEx@$0EAAAAA@$0A@@ATL@@QAE@PBD@Z 10020950 f i TAConfig.obj
 0001:0001f960       ??0?$CTraceCategoryEx@$0IA@$0A@@ATL@@QAE@PBD@Z 10020960 f i TAConfig.obj
 0001:0001f970       ??0?$CTraceCategoryEx@$0IAA@$0A@@ATL@@QAE@PBD@Z 10020970 f i TAConfig.obj
 0001:0001f980       ??0?$CTraceCategoryEx@$0IAAA@$0A@@ATL@@QAE@PBD@Z 10020980 f i TAConfig.obj
 0001:0001f990       ??0?$CTraceCategoryEx@$0IAAAA@$0A@@ATL@@QAE@PBD@Z 10020990 f i TAConfig.obj
 0001:0001f9a0       ??0?$_Uninitialized_backout_al@V?$allocator@PAVRegDword@@@std@@@std@@QAE@PAPAVRegDword@@AAV?$allocator@PAVRegDword@@@1@@Z 100209a0 f i TAConfig.obj
 0001:0001f9d0       ??0?$_Uninitialized_backout_al@V?$allocator@PAVRegString@@@std@@@std@@QAE@PAPAVRegString@@AAV?$allocator@PAVRegString@@@1@@Z 100209d0 f i TAConfig.obj
 0001:0001fa00       ??0?$_Vector_const_iterator@V?$_Vector_val@U?$_Simple_types@PAVRegDword@@@std@@@std@@@std@@QAE@PAPAVRegDword@@PBU_Container_base0@1@@Z 10020a00 f i TAConfig.obj
 0001:0001fa30       ??0?$_Vector_const_iterator@V?$_Vector_val@U?$_Simple_types@PAVRegString@@@std@@@std@@@std@@QAE@PAPAVRegString@@PBU_Container_base0@1@@Z 10020a30 f i TAConfig.obj
 0001:0001fa60       ??0?$_Vector_iterator@V?$_Vector_val@U?$_Simple_types@PAVRegDword@@@std@@@std@@@std@@QAE@PAPAVRegDword@@PBU_Container_base0@1@@Z 10020a60 f i TAConfig.obj
 0001:0001fa80       ??0?$_Vector_iterator@V?$_Vector_val@U?$_Simple_types@PAVRegString@@@std@@@std@@@std@@QAE@PAPAVRegString@@PBU_Container_base0@1@@Z 10020a80 f i TAConfig.obj
 0001:0001faa0       ??0?$_Vector_val@U?$_Simple_types@PAVRegDword@@@std@@@std@@QAE@XZ 10020aa0 f i TAConfig.obj
 0001:0001fad0       ??0?$_Vector_val@U?$_Simple_types@PAVRegString@@@std@@@std@@QAE@XZ 10020ad0 f i TAConfig.obj
 0001:0001fb00       ??0?$allocator@PAVRegDword@@@std@@QAE@XZ 10020b00 f i TAConfig.obj
 0001:0001fb10       ??0?$allocator@PAVRegString@@@std@@QAE@XZ 10020b10 f i TAConfig.obj
 0001:0001fb20       ??0?$vector@PAVRegDword@@V?$allocator@PAVRegDword@@@std@@@std@@QAE@XZ 10020b20 f i TAConfig.obj
 0001:0001fb50       ??0?$vector@PAVRegString@@V?$allocator@PAVRegString@@@std@@@std@@QAE@XZ 10020b50 f i TAConfig.obj
 0001:0001fb80       ??0CAtlException@ATL@@QAE@J@Z 10020b80 f i TAConfig.obj
 0001:0001fba0       ??0RegDword@@QAE@PADHK@Z   10020ba0 f   TAConfig.obj
 0001:0001fc10       ??0RegString@@QAE@PADH0H@Z 10020c10 f   TAConfig.obj
 0001:0001fcb0       ??0TADRConfig@@QAE@XZ      10020cb0 f   TAConfig.obj
 0001:000200a0       ??1?$_Uninitialized_backout_al@V?$allocator@PAVRegDword@@@std@@@std@@QAE@XZ 100210a0 f i TAConfig.obj
 0001:000200d0       ??1?$_Uninitialized_backout_al@V?$allocator@PAVRegString@@@std@@@std@@QAE@XZ 100210d0 f i TAConfig.obj
 0001:00020100       ??1?$vector@PAVRegDword@@V?$allocator@PAVRegDword@@@std@@@std@@QAE@XZ 10021100 f i TAConfig.obj
 0001:00020120       ??1?$vector@PAVRegString@@V?$allocator@PAVRegString@@@std@@@std@@QAE@XZ 10021120 f i TAConfig.obj
 0001:00020140       ??1RegDword@@QAE@XZ        10021140 f   TAConfig.obj
 0001:00020170       ??1RegString@@QAE@XZ       10021170 f   TAConfig.obj
 0001:000201c0       ??1TADRConfig@@QAE@XZ      100211c0 f   TAConfig.obj
 0001:000202a0       ??8?$_Vector_const_iterator@V?$_Vector_val@U?$_Simple_types@PAVRegDword@@@std@@@std@@@std@@QBE_NABV01@@Z 100212a0 f i TAConfig.obj
 0001:000202e0       ??8?$_Vector_const_iterator@V?$_Vector_val@U?$_Simple_types@PAVRegString@@@std@@@std@@@std@@QBE_NABV01@@Z 100212e0 f i TAConfig.obj
 0001:00020320       ??9?$_Vector_const_iterator@V?$_Vector_val@U?$_Simple_types@PAVRegString@@@std@@@std@@@std@@QBE_NABV01@@Z 10021320 f i TAConfig.obj
 0001:00020360       ??D?$_Vector_const_iterator@V?$_Vector_val@U?$_Simple_types@PAVRegDword@@@std@@@std@@@std@@QBEABQAVRegDword@@XZ 10021360 f i TAConfig.obj
 0001:00020370       ??D?$_Vector_const_iterator@V?$_Vector_val@U?$_Simple_types@PAVRegString@@@std@@@std@@@std@@QBEABQAVRegString@@XZ 10021370 f i TAConfig.obj
 0001:00020380       ??D?$_Vector_iterator@V?$_Vector_val@U?$_Simple_types@PAVRegDword@@@std@@@std@@@std@@QBEAAPAVRegDword@@XZ 10021380 f i TAConfig.obj
 0001:000203a0       ??D?$_Vector_iterator@V?$_Vector_val@U?$_Simple_types@PAVRegString@@@std@@@std@@@std@@QBEAAPAVRegString@@XZ 100213a0 f i TAConfig.obj
 0001:000203c0       ??E?$_Vector_const_iterator@V?$_Vector_val@U?$_Simple_types@PAVRegDword@@@std@@@std@@@std@@QAEAAV01@XZ 100213c0 f i TAConfig.obj
 0001:000203e0       ??E?$_Vector_const_iterator@V?$_Vector_val@U?$_Simple_types@PAVRegString@@@std@@@std@@@std@@QAEAAV01@XZ 100213e0 f i TAConfig.obj
 0001:00020400       ??E?$_Vector_iterator@V?$_Vector_val@U?$_Simple_types@PAVRegDword@@@std@@@std@@@std@@QAEAAV01@XZ 10021400 f i TAConfig.obj
 0001:00020420       ??E?$_Vector_iterator@V?$_Vector_val@U?$_Simple_types@PAVRegString@@@std@@@std@@@std@@QAEAAV01@XZ 10021420 f i TAConfig.obj
 0001:00020440       ??_GRegDword@@QAEPAXI@Z    10021440 f i TAConfig.obj
 0001:00020470       ??_GRegString@@QAEPAXI@Z   10021470 f i TAConfig.obj
 0001:000204a0       ?AtlCrtErrorCheck@ATL@@YGHH@Z 100214a0 f i TAConfig.obj
 0001:00020560       ?AtlThrowImpl@ATL@@YGXJ@Z  10021560 f i TAConfig.obj
 0001:00020590       ?EnumIniRegInfo_Begin@TADRConfig@@QAEHPAPAU_EnumRegInfo@@PAPBDPAPBX@Z 10021590 f   TAConfig.obj
 0001:00020620       ?EnumIniRegInfo_End@TADRConfig@@QAEHPAPAU_EnumRegInfo@@@Z 10021620 f   TAConfig.obj
 0001:00020680       ?EnumIniRegInfo_Next@TADRConfig@@QAEHPAPAU_EnumRegInfo@@PAPBDPAPBX@Z 10021680 f   TAConfig.obj
 0001:000207a0       ?FindRegDword@TADRConfig@@QAEKPADK@Z 100217a0 f   TAConfig.obj
 0001:00020830       ?FindRegStr@TADRConfig@@QAEPBDPADPBD@Z 10021830 f   TAConfig.obj
 0001:000208c0       ?GetIniBool@TADRConfig@@QAEHPBDH@Z 100218c0 f   TAConfig.obj
 0001:00020970       ?GetIniCrc@TADRConfig@@QAEIXZ 10021970 f   TAConfig.obj
 0001:00020a50       ?GetIniInt@TADRConfig@@QAEHPBDH@Z 10021a50 f   TAConfig.obj
 0001:00020a80       ?GetIniStr@TADRConfig@@QAEHPBDPADK1@Z 10021a80 f   TAConfig.obj
 0001:00020ae0       ?LoadIniRegSetting@TADRConfig@@AAEXPAE@Z 10021ae0 f   TAConfig.obj
 0001:00021270       ?Name@RegDword@@QAEPBDXZ   10022270 f   TAConfig.obj
 0001:00021280       ?Name@RegString@@QAEPBDXZ  10022280 f   TAConfig.obj
 0001:00021290       ?ReadTAReg_Dword@TADRConfig@@QAEJPADPAK@Z 10022290 f   TAConfig.obj
 0001:000212d0       ?ReadTAReg_Str@TADRConfig@@QAEJPADPBDK@Z 100222d0 f   TAConfig.obj
 0001:00021320       ?SetIniBool@TADRConfig@@QAEHPBDH@Z 10022320 f   TAConfig.obj
 0001:00021410       ?Str@RegString@@QAEPBDXZ   10022410 f   TAConfig.obj
 0001:00021430       ?TARegPath_HKEY@TADRConfig@@AAEPAUHKEY__@@XZ 10022430 f   TAConfig.obj
 0001:000214a0       ?Value@RegDword@@QAEKXZ    100224a0 f   TAConfig.obj
 0001:000214c0       ?WriteTAReg_Dword@TADRConfig@@QAEJPADK@Z 100224c0 f   TAConfig.obj
 0001:00021500       ?WriteTAReg_Str@TADRConfig@@QAEJPADPBDK@Z 10022500 f   TAConfig.obj
 0001:00021550       ?_Calculate_growth@?$vector@PAVRegDword@@V?$allocator@PAVRegDword@@@std@@@std@@ABEII@Z 10022550 f i TAConfig.obj
 0001:000215b0       ?_Calculate_growth@?$vector@PAVRegString@@V?$allocator@PAVRegString@@@std@@@std@@ABEII@Z 100225b0 f i TAConfig.obj
 0001:00021610       ?_Change_array@?$vector@PAVRegDword@@V?$allocator@PAVRegDword@@@std@@@std@@AAEXQAPAVRegDword@@II@Z 10022610 f i TAConfig.obj
 0001:000216b0       ?_Change_array@?$vector@PAVRegString@@V?$allocator@PAVRegString@@@std@@@std@@AAEXQAPAVRegString@@II@Z 100226b0 f i TAConfig.obj
 0001:00021750       ?_Compat@?$_Vector_const_iterator@V?$_Vector_val@U?$_Simple_types@PAVRegDword@@@std@@@std@@@std@@QBEXABV12@@Z 10022750 f i TAConfig.obj
 0001:00021760       ?_Compat@?$_Vector_const_iterator@V?$_Vector_val@U?$_Simple_types@PAVRegString@@@std@@@std@@@std@@QBEXABV12@@Z 10022760 f i TAConfig.obj
 0001:00021770       ?_Get_first@?$_Compressed_pair@V?$allocator@PAVRegDword@@@std@@V?$_Vector_val@U?$_Simple_types@PAVRegDword@@@std@@@2@$00@std@@QAEAAV?$allocator@PAVRegDword@@@2@XZ 10022770 f i TAConfig.obj
 0001:00021780       ?_Get_first@?$_Compressed_pair@V?$allocator@PAVRegDword@@@std@@V?$_Vector_val@U?$_Simple_types@PAVRegDword@@@std@@@2@$00@std@@QBEABV?$allocator@PAVRegDword@@@2@XZ 10022780 f i TAConfig.obj
 0001:00021790       ?_Get_first@?$_Compressed_pair@V?$allocator@PAVRegString@@@std@@V?$_Vector_val@U?$_Simple_types@PAVRegString@@@std@@@2@$00@std@@QAEAAV?$allocator@PAVRegString@@@2@XZ 10022790 f i TAConfig.obj
 0001:000217a0       ?_Get_first@?$_Compressed_pair@V?$allocator@PAVRegString@@@std@@V?$_Vector_val@U?$_Simple_types@PAVRegString@@@std@@@2@$00@std@@QBEABV?$allocator@PAVRegString@@@2@XZ 100227a0 f i TAConfig.obj
 0001:000217b0       ?_Getal@?$vector@PAVRegDword@@V?$allocator@PAVRegDword@@@std@@@std@@AAEAAV?$allocator@PAVRegDword@@@2@XZ 100227b0 f i TAConfig.obj
 0001:000217d0       ?_Getal@?$vector@PAVRegDword@@V?$allocator@PAVRegDword@@@std@@@std@@ABEABV?$allocator@PAVRegDword@@@2@XZ 100227d0 f i TAConfig.obj
 0001:000217f0       ?_Getal@?$vector@PAVRegString@@V?$allocator@PAVRegString@@@std@@@std@@AAEAAV?$allocator@PAVRegString@@@2@XZ 100227f0 f i TAConfig.obj
 0001:00021810       ?_Getal@?$vector@PAVRegString@@V?$allocator@PAVRegString@@@std@@@std@@ABEABV?$allocator@PAVRegString@@@2@XZ 10022810 f i TAConfig.obj
 0001:00021830       ?_Orphan_range@?$vector@PAVRegDword@@V?$allocator@PAVRegDword@@@std@@@std@@ABEXPAPAVRegDword@@0@Z 10022830 f i TAConfig.obj
 0001:00021840       ?_Orphan_range@?$vector@PAVRegString@@V?$allocator@PAVRegString@@@std@@@std@@ABEXPAPAVRegString@@0@Z 10022840 f i TAConfig.obj
 0001:00021850       ?_Release@?$_Uninitialized_backout_al@V?$allocator@PAVRegDword@@@std@@@std@@QAEPAPAVRegDword@@XZ 10022850 f i TAConfig.obj
 0001:00021870       ?_Release@?$_Uninitialized_backout_al@V?$allocator@PAVRegString@@@std@@@std@@QAEPAPAVRegString@@XZ 10022870 f i TAConfig.obj
 0001:00021890       ?_Tidy@?$vector@PAVRegDword@@V?$allocator@PAVRegDword@@@std@@@std@@AAEXXZ 10022890 f i TAConfig.obj
 0001:00021960       ?_Tidy@?$vector@PAVRegString@@V?$allocator@PAVRegString@@@std@@@std@@AAEXXZ 10022960 f i TAConfig.obj
 0001:00021a30       ?_Xlength@?$vector@PAVRegDword@@V?$allocator@PAVRegDword@@@std@@@std@@CGXXZ 10022a30 f i TAConfig.obj
 0001:00021a40       ?_Xlength@?$vector@PAVRegString@@V?$allocator@PAVRegString@@@std@@@std@@CGXXZ 10022a40 f i TAConfig.obj
 0001:00021a50       ?allocate@?$allocator@PAVRegDword@@@std@@QAEPAPAVRegDword@@I@Z 10022a50 f i TAConfig.obj
 0001:00021a70       ?allocate@?$allocator@PAVRegString@@@std@@QAEPAPAVRegString@@I@Z 10022a70 f i TAConfig.obj
 0001:00021a90       ?back@?$vector@PAVRegDword@@V?$allocator@PAVRegDword@@@std@@@std@@QAEAAPAVRegDword@@XZ 10022a90 f i TAConfig.obj
 0001:00021ac0       ?back@?$vector@PAVRegString@@V?$allocator@PAVRegString@@@std@@@std@@QAEAAPAVRegString@@XZ 10022ac0 f i TAConfig.obj
 0001:00021af0       ?begin@?$vector@PAVRegDword@@V?$allocator@PAVRegDword@@@std@@@std@@QAE?AV?$_Vector_iterator@V?$_Vector_val@U?$_Simple_types@PAVRegDword@@@std@@@std@@@2@XZ 10022af0 f i TAConfig.obj
 0001:00021b20       ?begin@?$vector@PAVRegString@@V?$allocator@PAVRegString@@@std@@@std@@QAE?AV?$_Vector_iterator@V?$_Vector_val@U?$_Simple_types@PAVRegString@@@std@@@std@@@2@XZ 10022b20 f i TAConfig.obj
 0001:00021b50       ?capacity@?$vector@PAVRegDword@@V?$allocator@PAVRegDword@@@std@@@std@@QBEIXZ 10022b50 f i TAConfig.obj
 0001:00021b80       ?capacity@?$vector@PAVRegString@@V?$allocator@PAVRegString@@@std@@@std@@QBEIXZ 10022b80 f i TAConfig.obj
 0001:00021bb0       ?deallocate@?$allocator@PAVRegDword@@@std@@QAEXQAPAVRegDword@@I@Z 10022bb0 f i TAConfig.obj
 0001:00021bd0       ?deallocate@?$allocator@PAVRegString@@@std@@QAEXQAPAVRegString@@I@Z 10022bd0 f i TAConfig.obj
 0001:00021bf0       ?empty@?$vector@PAVRegDword@@V?$allocator@PAVRegDword@@@std@@@std@@QBE_NXZ 10022bf0 f i TAConfig.obj
 0001:00021c30       ?empty@?$vector@PAVRegString@@V?$allocator@PAVRegString@@@std@@@std@@QBE_NXZ 10022c30 f i TAConfig.obj
 0001:00021c70       ?end@?$vector@PAVRegDword@@V?$allocator@PAVRegDword@@@std@@@std@@QAE?AV?$_Vector_iterator@V?$_Vector_val@U?$_Simple_types@PAVRegDword@@@std@@@std@@@2@XZ 10022c70 f i TAConfig.obj
 0001:00021cb0       ?end@?$vector@PAVRegString@@V?$allocator@PAVRegString@@@std@@@std@@QAE?AV?$_Vector_iterator@V?$_Vector_val@U?$_Simple_types@PAVRegString@@@std@@@std@@@2@XZ 10022cb0 f i TAConfig.obj
 0001:00021cf0       ?max_size@?$_Default_allocator_traits@V?$allocator@PAVRegDword@@@std@@@std@@SGIABV?$allocator@PAVRegDword@@@2@@Z 10022cf0 f i TAConfig.obj
 0001:00021d00       ?max_size@?$_Default_allocator_traits@V?$allocator@PAVRegString@@@std@@@std@@SGIABV?$allocator@PAVRegString@@@2@@Z 10022d00 f i TAConfig.obj
 0001:00021d10       ?max_size@?$vector@PAVRegDword@@V?$allocator@PAVRegDword@@@std@@@std@@QBEIXZ 10022d10 f i TAConfig.obj
 0001:00021d50       ?max_size@?$vector@PAVRegString@@V?$allocator@PAVRegString@@@std@@@std@@QBEIXZ 10022d50 f i TAConfig.obj
 0001:00021d90       ?pop_back@?$vector@PAVRegDword@@V?$allocator@PAVRegDword@@@std@@@std@@QAEXXZ 10022d90 f i TAConfig.obj
 0001:00021e20       ?pop_back@?$vector@PAVRegString@@V?$allocator@PAVRegString@@@std@@@std@@QAEXXZ 10022e20 f i TAConfig.obj
 0001:00021eb0       ?push_back@?$vector@PAVRegDword@@V?$allocator@PAVRegDword@@@std@@@std@@QAEXABQAVRegDword@@@Z 10022eb0 f i TAConfig.obj
 0001:00021ed0       ?push_back@?$vector@PAVRegString@@V?$allocator@PAVRegString@@@std@@@std@@QAEXABQAVRegString@@@Z 10022ed0 f i TAConfig.obj
 0001:00021ef0       ?size@?$vector@PAVRegDword@@V?$allocator@PAVRegDword@@@std@@@std@@QBEIXZ 10022ef0 f i TAConfig.obj
 0001:00021f20       ?size@?$vector@PAVRegString@@V?$allocator@PAVRegString@@@std@@@std@@QBEIXZ 10022f20 f i TAConfig.obj
 0001:00021f50       ?strchr@@YAPADQADH@Z       10022f50 f i TAConfig.obj
 0001:00021f70       ?strlwr_s@Checked@ATL@@YAXPADI@Z 10022f70 f i TAConfig.obj
 0001:00021f90       ?strupr_s@Checked@ATL@@YAXPADI@Z 10022f90 f i TAConfig.obj
 0001:00021fb0       ??$?0ABV?$allocator@D@std@@$$V@?$_Compressed_pair@V?$allocator@D@std@@V?$_String_val@U?$_Simple_types@D@std@@@2@$00@std@@QAE@U_One_then_variadic_args_t@1@ABV?$allocator@D@1@@Z 10022fb0 f i tahook.obj
 0001:00021fe0       ??$?0PAD$0A@@?$basic_string@DU?$char_traits@D@std@@V?$allocator@D@2@@std@@QAE@PAD0ABV?$allocator@D@1@@Z 10022fe0 f i tahook.obj
 0001:000220b0       ??$?0V?$allocator@D@std@@$$V@?$_Compressed_pair@V?$allocator@D@std@@V?$_String_val@U?$_Simple_types@D@std@@@2@$00@std@@QAE@U_One_then_variadic_args_t@1@$$QAV?$allocator@D@1@@Z 100230b0 f i tahook.obj
 0001:000220e0       ??$?HDU?$char_traits@D@std@@V?$allocator@D@1@@std@@YG?AV?$basic_string@DU?$char_traits@D@std@@V?$allocator@D@2@@0@QBD$$QAV10@@Z 100230e0 f i tahook.obj
 0001:00022120       ??$_Adl_verify_range@PADPAD@std@@YGXABQAD0@Z 10023120 f i tahook.obj
 0001:00022130       ??$_Construct_in_place@PADAAPAD@std@@YGXAAPAD0@Z 10023130 f i tahook.obj
 0001:00022170       ??$_Get_unwrapped@AAPAD@std@@YG?A_TAAPAD@Z 10023170 f i tahook.obj
 0001:00022180       ??$_Integral_to_string@DH@std@@YG?AV?$basic_string@DU?$char_traits@D@std@@V?$allocator@D@2@@0@H@Z 10023180 f i tahook.obj
 0001:00022220       ??$_Pocma@V?$allocator@D@std@@@std@@YGXAAV?$allocator@D@0@0@Z 10023220 f i tahook.obj
 0001:00022230       ??$_Reallocate_grow_by@V<lambda_15711c68e099a15a58f4d77303cb286d>@@D@?$basic_string@DU?$char_traits@D@std@@V?$allocator@D@2@@std@@AAEAAV01@IV<lambda_15711c68e099a15a58f4d77303cb286d>@@D@Z 10023230 f i tahook.obj
 0001:00022340       ??$_Reallocate_grow_by@V<lambda_4d79bb85f269e6e8002a4599002d832c>@@IPBDI@?$basic_string@DU?$char_traits@D@std@@V?$allocator@D@2@@std@@AAEAAV01@IV<lambda_4d79bb85f269e6e8002a4599002d832c>@@IPBDI@Z 10023340 f i tahook.obj
 0001:00022460       ??$_UIntegral_to_buff@DI@std@@YGPADPADI@Z 10023460 f i tahook.obj
 0001:000224b0       ??$addressof@$$CBV?$_String_val@U?$_Simple_types@D@std@@@std@@@std@@YGPBV?$_String_val@U?$_Simple_types@D@std@@@0@ABV10@@Z 100234b0 f i tahook.obj
 0001:000224c0       ??$addressof@V?$_String_val@U?$_Simple_types@D@std@@@std@@@std@@YGPAV?$_String_val@U?$_Simple_types@D@std@@@0@AAV10@@Z 100234c0 f i tahook.obj
 0001:000224d0       ??$addressof@V?$basic_string@DU?$char_traits@D@std@@V?$allocator@D@2@@std@@@std@@YGPAV?$basic_string@DU?$char_traits@D@std@@V?$allocator@D@2@@0@AAV10@@Z 100234d0 f i tahook.obj
 0001:000224e0       ??$end@D$0BF@@std@@YGPADAAY0BF@D@Z 100234e0 f i tahook.obj
 0001:000224f0       ??$forward@AAPAD@std@@YGAAPADAAPAD@Z 100234f0 f i tahook.obj
 0001:00022500       ??$forward@ABV?$allocator@D@std@@@std@@YGABV?$allocator@D@0@ABV10@@Z 10023500 f i tahook.obj
 0001:00022510       ??$forward@V?$allocator@D@std@@@std@@YG$$QAV?$allocator@D@0@AAV10@@Z 10023510 f i tahook.obj
 0001:00022520       ??$move@AAV?$allocator@D@std@@@std@@YG$$QAV?$allocator@D@0@AAV10@@Z 10023520 f i tahook.obj
 0001:00022530       ??$move@AAV?$basic_string@DU?$char_traits@D@std@@V?$allocator@D@2@@std@@@std@@YG$$QAV?$basic_string@DU?$char_traits@D@std@@V?$allocator@D@2@@0@AAV10@@Z 10023530 f i tahook.obj
 0001:00022540       ??0?$basic_string@DU?$char_traits@D@std@@V?$allocator@D@2@@std@@QAE@$$QAV01@@Z 10023540 f i tahook.obj
 0001:00022590       ??0?$basic_string@DU?$char_traits@D@std@@V?$allocator@D@2@@std@@QAE@XZ 10023590 f i tahook.obj
 0001:000225d0       ??0CTAHook@@QAE@H@Z        100235d0 f   tahook.obj
 0001:000228a0       ??1CTAHook@@QAE@XZ         100238a0 f   tahook.obj
 0001:00022910       ??4?$basic_string@DU?$char_traits@D@std@@V?$allocator@D@2@@std@@QAEAAV01@$$QAV01@@Z 10023910 f i tahook.obj
 0001:00022980       ??4?$basic_string@DU?$char_traits@D@std@@V?$allocator@D@2@@std@@QAEAAV01@QBD@Z 10023980 f i tahook.obj
 0001:000229a0       ??R<lambda_15711c68e099a15a58f4d77303cb286d>@@QBE@QADQBDID@Z 100239a0 f i tahook.obj
 0001:000229f0       ??R<lambda_4d79bb85f269e6e8002a4599002d832c>@@QBE@QADQBDII1I@Z 100239f0 f i tahook.obj
 0001:00022a50       ??Y?$basic_string@DU?$char_traits@D@std@@V?$allocator@D@2@@std@@QAEAAV01@D@Z 10023a50 f i tahook.obj
 0001:00022a70       ?Blit@CTAHook@@QAEXPAUIDirectDrawSurface@@@Z 10023a70 f   tahook.obj
 0001:00022a80       ?CalculateLine@CTAHook@@AAEXXZ 10023a80 f   tahook.obj
 0001:00022d20       ?CalculateRing@CTAHook@@AAEXHHHH@Z 10023d20 f   tahook.obj
 0001:00023070       ?CalculateRing@CTAHook@@AAEXXZ 10024070 f   tahook.obj
 0001:00023170       ?ClickBuilding@CTAHook@@AAEXHH@Z 10024170 f   tahook.obj
 0001:00023220       ?DisableTABuildRect@CTAHook@@AAEXXZ 10024220 f   tahook.obj
 0001:00023250       ?DrawBuildRect@CTAHook@@AAEXHHHHH@Z 10024250 f   tahook.obj
 0001:00023440       ?EnableTABuildRect@CTAHook@@AAEXXZ 10024440 f   tahook.obj
 0001:00023470       ?GetFootX@CTAHook@@AAEFXZ  10024470 f   tahook.obj
 0001:000234a0       ?GetFootY@CTAHook@@AAEFXZ  100244a0 f   tahook.obj
 0001:000234d0       ?IsLineBuilding@CTAHook@@QAEHXZ 100244d0 f   tahook.obj
 0001:00023510       ?Message@CTAHook@@QAE_NPAUHWND__@@IIJ@Z 10024510 f   tahook.obj
 0001:00023c70       ?OptimizeDTRows@CTAHook@@AAEXXZ 10024c70 f   tahook.obj
 0001:00023fe0       ?PaintMinimapRect@CTAHook@@AAEXXZ 10024fe0 f   tahook.obj
 0001:00024010       ?Set@CTAHook@@QAEXHPAD_N1H@Z 10025010 f   tahook.obj
 0001:00024060       ?TABlit@CTAHook@@QAEXXZ    10025060 f   tahook.obj
 0001:000240e0       ?UpdateSpacing@CTAHook@@AAEXXZ 100250e0 f   tahook.obj
 0001:00024120       ?VisualizeRow@CTAHook@@AAEXXZ 10025120 f   tahook.obj
 0001:00024290       ?VisualizeRow_ForME_megamap@CTAHook@@QAEXPAU_OFFSCREEN@@@Z 10025290 f   tahook.obj
 0001:00024400       ?WriteDTLine@CTAHook@@AAEXXZ 10025400 f   tahook.obj
 0001:000244a0       ?WriteScrollDTLine@CTAHook@@AAEXXZ 100254a0 f   tahook.obj
 0001:000244b0       ?WriteShareMacro@CTAHook@@QAEXXZ 100254b0 f   tahook.obj
 0001:00024900       ?_Check_offset@?$_String_val@U?$_Simple_types@D@std@@@std@@QBEXI@Z 10025900 f i tahook.obj
 0001:00024920       ?_Memcpy_val_from@?$basic_string@DU?$char_traits@D@std@@V?$allocator@D@2@@std@@AAEXABV12@@Z 10025920 f i tahook.obj
 0001:00024960       ?_Myptr@?$_String_val@U?$_Simple_types@D@std@@@std@@QBEPBDXZ 10025960 f i tahook.obj
 0001:000249a0       ?_Swap_proxy_and_iterators@?$basic_string@DU?$char_traits@D@std@@V?$allocator@D@2@@std@@AAEXAAV12@@Z 100259a0 f i tahook.obj
 0001:000249c0       ?_Swap_proxy_and_iterators@_Container_base0@std@@QAEXAAU12@@Z 100259c0 f i tahook.obj
 0001:000249d0       ?_Take_contents@?$basic_string@DU?$char_traits@D@std@@V?$allocator@D@2@@std@@AAEXAAV12@@Z 100259d0 f i tahook.obj
 0001:00024ab0       ?_Xran@?$_String_val@U?$_Simple_types@D@std@@@std@@SGXXZ 10025ab0 f i tahook.obj
 0001:00024ac0       ?c_str@?$basic_string@DU?$char_traits@D@std@@V?$allocator@D@2@@std@@QBEPBDXZ 10025ac0 f i tahook.obj
 0001:00024ae0       ?insert@?$basic_string@DU?$char_traits@D@std@@V?$allocator@D@2@@std@@QAEAAV12@IQBD@Z 10025ae0 f i tahook.obj
 0001:00024b10       ?insert@?$basic_string@DU?$char_traits@D@std@@V?$allocator@D@2@@std@@QAEAAV12@IQBDI@Z 10025b10 f i tahook.obj
 0001:00024c30       ?push_back@?$basic_string@DU?$char_traits@D@std@@V?$allocator@D@2@@std@@QAEXD@Z 10025c30 f i tahook.obj
 0001:00024cb0       ?to_string@std@@YG?AV?$basic_string@DU?$char_traits@D@std@@V?$allocator@D@2@@1@H@Z 10025cb0 f i tahook.obj
 0001:00024ce0       ??$?0$$V@?$_Compressed_pair@V?$allocator@PAD@std@@V?$_Vector_val@U?$_Simple_types@PAD@std@@@2@$00@std@@QAE@U_Zero_then_variadic_args_t@1@@Z 10025ce0 f i UnicodeSupport.obj
 0001:00024d00       ??$_Construct_in_place@PADPAD@std@@YGXAAPAD$$QAPAD@Z 10025d00 f i UnicodeSupport.obj
 0001:00024d40       ??$_Copy_memmove@PAPADPAPAD@std@@YGPAPADPAPAD00@Z 10025d40 f i UnicodeSupport.obj
 0001:00024db0       ??$_Destroy_range@V?$allocator@PAD@std@@@std@@YGXPAPADQAPADAAV?$allocator@PAD@0@@Z 10025db0 f i UnicodeSupport.obj
 0001:00024dc0       ??$_Emplace_back@PAD@?$_Uninitialized_backout_al@V?$allocator@PAD@std@@@std@@QAEX$$QAPAD@Z 10025dc0 f i UnicodeSupport.obj
 0001:00024e00       ??$_Emplace_back_with_unused_capacity@PAD@?$vector@PADV?$allocator@PAD@std@@@std@@AAEAAPAD$$QAPAD@Z 10025e00 f i UnicodeSupport.obj
 0001:00024e60       ??$_Emplace_one_at_back@PAD@?$vector@PADV?$allocator@PAD@std@@@std@@AAEAAPAD$$QAPAD@Z 10025e60 f i UnicodeSupport.obj
 0001:00024ec0       ??$_Emplace_reallocate@PAD@?$vector@PADV?$allocator@PAD@std@@@std@@AAEPAPADQAPAD$$QAPAD@Z 10025ec0 f i UnicodeSupport.obj
 0001:00025090       ??$_Get_unwrapped@ABQAPAD@std@@YG?A_TABQAPAD@Z 10026090 f i UnicodeSupport.obj
 0001:000250a0       ??$_To_address@PAPAD@std@@YG?A_PABQAPAD@Z 100260a0 f i UnicodeSupport.obj
 0001:000250b0       ??$_Unfancy@PAD@std@@YGPAPADPAPAD@Z 100260b0 f i UnicodeSupport.obj
 0001:000250c0       ??$_Uninitialized_move@PAPADV?$allocator@PAD@std@@@std@@YGPAPADQAPAD0PAPADAAV?$allocator@PAD@0@@Z 100260c0 f i UnicodeSupport.obj
 0001:000251a0       ??$addressof@V?$_Vector_val@U?$_Simple_types@PAD@std@@@std@@@std@@YGPAV?$_Vector_val@U?$_Simple_types@PAD@std@@@0@AAV10@@Z 100261a0 f i UnicodeSupport.obj
 0001:000251b0       ??$construct@PADPAD@?$_Default_allocator_traits@V?$allocator@PAD@std@@@std@@SGXAAV?$allocator@PAD@1@QAPAD$$QAPAD@Z 100261b0 f i UnicodeSupport.obj
 0001:000251f0       ??$destroy@PAD@?$_Default_allocator_traits@V?$allocator@PAD@std@@@std@@SGXAAV?$allocator@PAD@1@QAPAD@Z 100261f0 f i UnicodeSupport.obj
 0001:00025200       ??$emplace_back@PAD@?$vector@PADV?$allocator@PAD@std@@@std@@QAE?A_T$$QAPAD@Z 10026200 f i UnicodeSupport.obj
 0001:00025230       ??$forward@PAD@std@@YG$$QAPADAAPAD@Z 10026230 f i UnicodeSupport.obj
 0001:00025240       ??$move@AAPAD@std@@YG$$QAPADAAPAD@Z 10026240 f i UnicodeSupport.obj
 0001:00025250       ??0?$_Uninitialized_backout_al@V?$allocator@PAD@std@@@std@@QAE@PAPADAAV?$allocator@PAD@1@@Z 10026250 f i UnicodeSupport.obj
 0001:00025280       ??0?$_Vector_const_iterator@V?$_Vector_val@U?$_Simple_types@PAD@std@@@std@@@std@@QAE@PAPADPBU_Container_base0@1@@Z 10026280 f i UnicodeSupport.obj
 0001:000252b0       ??0?$_Vector_iterator@V?$_Vector_val@U?$_Simple_types@PAD@std@@@std@@@std@@QAE@PAPADPBU_Container_base0@1@@Z 100262b0 f i UnicodeSupport.obj
 0001:000252d0       ??0?$_Vector_val@U?$_Simple_types@PAD@std@@@std@@QAE@XZ 100262d0 f i UnicodeSupport.obj
 0001:00025300       ??0?$allocator@PAD@std@@QAE@XZ 10026300 f i UnicodeSupport.obj
 0001:00025310       ??0?$vector@PADV?$allocator@PAD@std@@@std@@QAE@XZ 10026310 f i UnicodeSupport.obj
 0001:00025340       ??0UnicodeSupport@@QAE@H@Z 10026340 f   UnicodeSupport.obj
 0001:00025530       ??0UnicodeSupport@@QAE@PBDKKH@Z 10026530 f   UnicodeSupport.obj
 0001:00025b50       ??1?$_Uninitialized_backout_al@V?$allocator@PAD@std@@@std@@QAE@XZ 10026b50 f i UnicodeSupport.obj
 0001:00025b80       ??1?$vector@PADV?$allocator@PAD@std@@@std@@QAE@XZ 10026b80 f i UnicodeSupport.obj
 0001:00025ba0       ??1UnicodeSupport@@QAE@XZ  10026ba0 f   UnicodeSupport.obj
 0001:00025df0       ??8?$_Vector_const_iterator@V?$_Vector_val@U?$_Simple_types@PAD@std@@@std@@@std@@QBE_NABV01@@Z 10026df0 f i UnicodeSupport.obj
 0001:00025e30       ??9?$_Vector_const_iterator@V?$_Vector_val@U?$_Simple_types@PAD@std@@@std@@@std@@QBE_NABV01@@Z 10026e30 f i UnicodeSupport.obj
 0001:00025e70       ??D?$_Vector_const_iterator@V?$_Vector_val@U?$_Simple_types@PAD@std@@@std@@@std@@QBEABQADXZ 10026e70 f i UnicodeSupport.obj
 0001:00025e80       ??D?$_Vector_iterator@V?$_Vector_val@U?$_Simple_types@PAD@std@@@std@@@std@@QBEAAPADXZ 10026e80 f i UnicodeSupport.obj
 0001:00025ea0       ??E?$_Vector_const_iterator@V?$_Vector_val@U?$_Simple_types@PAD@std@@@std@@@std@@QAEAAV01@XZ 10026ea0 f i UnicodeSupport.obj
 0001:00025ec0       ??E?$_Vector_iterator@V?$_Vector_val@U?$_Simple_types@PAD@std@@@std@@@std@@QAEAAV01@XZ 10026ec0 f i UnicodeSupport.obj
 0001:00025ee0       ?Blt@UnicodeSupport@@QAE_NPAUIDirectDrawSurface@@@Z 10026ee0 f   UnicodeSupport.obj
 0001:000260d0       ?Blt_BottomState0_Text@@YGHPAUtagInlineX86StackBuffer@@@Z 100270d0 f   UnicodeSupport.obj
 0001:00026200       ?Blt_BottomState1_Text@@YGHPAUtagInlineX86StackBuffer@@@Z 10027200 f   UnicodeSupport.obj
 0001:00026320       ?CopyToContextScreenMem@@YGXPAU_OFFSCREEN@@PAUtagSpecScreenSurface@@@Z 10027320 f   UnicodeSupport.obj
 0001:000263a0       ?CopyToSpecSurfaceMem@@YGXPAUtagSpecScreenSurface@@PAU_OFFSCREEN@@@Z 100273a0 f   UnicodeSupport.obj
 0001:00026420       ?CreateSurfaceFromContextScreen@UnicodeSupport@@QAEPAUIDirectDrawSurface@@PAU_OFFSCREEN@@PAUIDirectDraw@@PAPAU2@@Z 10027420 f   UnicodeSupport.obj
 0001:000264e0       ?DBSC2rdByte@@YGHPAUtagInlineX86StackBuffer@@@Z 100274e0 f   UnicodeSupport.obj
 0001:00026580       ?DrawALine_Ime@UnicodeSupport@@AAEXPAUHDC__@@PADPAH2@Z 10027580 f   UnicodeSupport.obj
 0001:00026620       ?DrawSeparator@UnicodeSupport@@AAEHPAUHDC__@@HPAH1PAUHBRUSH__@@@Z 10027620 f   UnicodeSupport.obj
 0001:00026690       ?FreeSpecScreenSurface@UnicodeSupport@@AAEXPAUtagSpecScreenSurface@@@Z 10027690 f   UnicodeSupport.obj
 0001:00026770       ?GetSpecScreenSurface@UnicodeSupport@@AAEPAUtagSpecScreenSurface@@PAU_OFFSCREEN@@@Z 10027770 f   UnicodeSupport.obj
 0001:00026840       ?GetStrExtent@@YGHPAUtagInlineX86StackBuffer@@@Z 10027840 f   UnicodeSupport.obj
 0001:000268a0       ?GetTextExtent_AssignCharLen@@YGHPAUtagInlineX86StackBuffer@@@Z 100278a0 f   UnicodeSupport.obj
 0001:00026900       ?IsIDDrawLost@UnicodeSupport@@AAEHXZ 10027900 f   UnicodeSupport.obj
 0001:00026930       ?Message@UnicodeSupport@@QAE_NPAUHWND__@@IIJ@Z 10027930 f   UnicodeSupport.obj
 0001:00026e50       ?NewSpecScreenSurface@UnicodeSupport@@AAEPAUtagSpecScreenSurface@@PAU_OFFSCREEN@@@Z 10027e50 f   UnicodeSupport.obj
 0001:00026f40       ?PopadState@@YGHPAUtagInlineX86StackBuffer@@@Z 10027f40 f   UnicodeSupport.obj
 0001:00026fe0       ?ReleaseCandidateList@UnicodeSupport@@AAEXXZ 10027fe0 f   UnicodeSupport.obj
 0001:00027060       ?RestoreLocalSurf@UnicodeSupport@@AAEXH@Z 10028060 f   UnicodeSupport.obj
 0001:00027160       ?SendStr@UnicodeSupport@@AAEXPAD@Z 10028160 f   UnicodeSupport.obj
 0001:000271b0       ?Set@UnicodeSupport@@QAEXH@Z 100281b0 f   UnicodeSupport.obj
 0001:000271d0       ?SetHDCFont@UnicodeSupport@@AAEXPAUHDC__@@PAUHFONT__@@@Z 100281d0 f   UnicodeSupport.obj
 0001:00027210       ?USDrawTextInScreen_HookRouter@@YGHPAUtagInlineX86StackBuffer@@@Z 10028210 f   UnicodeSupport.obj
 0001:00027340       ?UnicodeDrawTextA@UnicodeSupport@@QAEHPAU_OFFSCREEN@@PADPAUIDirectDraw@@HH@Z 10028340 f   UnicodeSupport.obj
 0001:00027630       ?UpdateImeFrame@UnicodeSupport@@AAE_NXZ 10028630 f   UnicodeSupport.obj
 0001:00027a40       ?UpdateImeInput@UnicodeSupport@@AAE_NXZ 10028a40 f   UnicodeSupport.obj
 0001:00027c70       ?_Calculate_growth@?$vector@PADV?$allocator@PAD@std@@@std@@ABEII@Z 10028c70 f i UnicodeSupport.obj
 0001:00027cd0       ?_Change_array@?$vector@PADV?$allocator@PAD@std@@@std@@AAEXQAPADII@Z 10028cd0 f i UnicodeSupport.obj
 0001:00027d70       ?_Compat@?$_Vector_const_iterator@V?$_Vector_val@U?$_Simple_types@PAD@std@@@std@@@std@@QBEXABV12@@Z 10028d70 f i UnicodeSupport.obj
 0001:00027d80       ?_Get_first@?$_Compressed_pair@V?$allocator@PAD@std@@V?$_Vector_val@U?$_Simple_types@PAD@std@@@2@$00@std@@QAEAAV?$allocator@PAD@2@XZ 10028d80 f i UnicodeSupport.obj
 0001:00027d90       ?_Get_first@?$_Compressed_pair@V?$allocator@PAD@std@@V?$_Vector_val@U?$_Simple_types@PAD@std@@@2@$00@std@@QBEABV?$allocator@PAD@2@XZ 10028d90 f i UnicodeSupport.obj
 0001:00027da0       ?_Getal@?$vector@PADV?$allocator@PAD@std@@@std@@AAEAAV?$allocator@PAD@2@XZ 10028da0 f i UnicodeSupport.obj
 0001:00027dc0       ?_Getal@?$vector@PADV?$allocator@PAD@std@@@std@@ABEABV?$allocator@PAD@2@XZ 10028dc0 f i UnicodeSupport.obj
 0001:00027de0       ?_Orphan_range@?$vector@PADV?$allocator@PAD@std@@@std@@ABEXPAPAD0@Z 10028de0 f i UnicodeSupport.obj
 0001:00027df0       ?_Release@?$_Uninitialized_backout_al@V?$allocator@PAD@std@@@std@@QAEPAPADXZ 10028df0 f i UnicodeSupport.obj
 0001:00027e10       ?_Tidy@?$vector@PADV?$allocator@PAD@std@@@std@@AAEXXZ 10028e10 f i UnicodeSupport.obj
 0001:00027ee0       ?_Xlength@?$vector@PADV?$allocator@PAD@std@@@std@@CGXXZ 10028ee0 f i UnicodeSupport.obj
 0001:00027ef0       ?allocate@?$allocator@PAD@std@@QAEPAPADI@Z 10028ef0 f i UnicodeSupport.obj
 0001:00027f10       ?back@?$vector@PADV?$allocator@PAD@std@@@std@@QAEAAPADXZ 10028f10 f i UnicodeSupport.obj
 0001:00027f40       ?begin@?$vector@PADV?$allocator@PAD@std@@@std@@QAE?AV?$_Vector_iterator@V?$_Vector_val@U?$_Simple_types@PAD@std@@@std@@@2@XZ 10028f40 f i UnicodeSupport.obj
 0001:00027f70       ?capacity@?$vector@PADV?$allocator@PAD@std@@@std@@QBEIXZ 10028f70 f i UnicodeSupport.obj
 0001:00027fa0       ?deallocate@?$allocator@PAD@std@@QAEXQAPADI@Z 10028fa0 f i UnicodeSupport.obj
 0001:00027fc0       ?empty@?$vector@PADV?$allocator@PAD@std@@@std@@QBE_NXZ 10028fc0 f i UnicodeSupport.obj
 0001:00028000       ?end@?$vector@PADV?$allocator@PAD@std@@@std@@QAE?AV?$_Vector_iterator@V?$_Vector_val@U?$_Simple_types@PAD@std@@@std@@@2@XZ 10029000 f i UnicodeSupport.obj
 0001:00028040       ?freelpImeSurface@UnicodeSupport@@AAEXXZ 10029040 f   UnicodeSupport.obj
 0001:000280d0       ?max_size@?$_Default_allocator_traits@V?$allocator@PAD@std@@@std@@SGIABV?$allocator@PAD@2@@Z 100290d0 f i UnicodeSupport.obj
 0001:000280e0       ?max_size@?$vector@PADV?$allocator@PAD@std@@@std@@QBEIXZ 100290e0 f i UnicodeSupport.obj
 0001:00028120       ?myDeleteChar@@YGHPAUtagInlineX86StackBuffer@@@Z 10029120 f   UnicodeSupport.obj
 0001:00028200       ?myValidChar@@YGHPAUtagInlineX86StackBuffer@@@Z 10029200 f   UnicodeSupport.obj
 0001:00028360       ?pop_back@?$vector@PADV?$allocator@PAD@std@@@std@@QAEXXZ 10029360 f i UnicodeSupport.obj
 0001:000283f0       ?push_back@?$vector@PADV?$allocator@PAD@std@@@std@@QAEX$$QAPAD@Z 100293f0 f i UnicodeSupport.obj
 0001:00028520       ??0IncreaseAISearchMapEntriesLimit@@QAE@K@Z 10029520 f   LimitCrack.obj
 0001:000285d0       ??0IncreaseAISearchMapEntriesLimit@@QAE@XZ 100295d0 f   LimitCrack.obj
 0001:00028670       ??0IncreaseCompositeBuf@@QAE@KK@Z 10029670 f   LimitCrack.obj
 0001:00028690       ??0IncreaseCompositeBuf@@QAE@XZ 10029690 f   LimitCrack.obj
 0001:000286b0       ??0IncreaseSfxLimit@@QAE@K@Z 100296b0 f   LimitCrack.obj
 0001:000286e0       ??0IncreaseSfxLimit@@QAE@XZ 100296e0 f   LimitCrack.obj
 0001:00028700       ??0IncreaseUnitTypeLimit@@QAE@H@Z 10029700 f   LimitCrack.obj
 0001:00028720       ??0IncreaseUnitTypeLimit@@QAE@XZ 10029720 f   LimitCrack.obj
 0001:00028740       ??0IncreaseWeaponTypeLimit@@QAE@K@Z 10029740 f   LimitCrack.obj
 0001:00028760       ??0IncreaseWeaponTypeLimit@@QAE@XZ 10029760 f   LimitCrack.obj
 0001:00028780       ??0LimitCrack@@QAE@XZ      10029780 f   LimitCrack.obj
 0001:00028a70       ??0UnitLimit@@QAE@K@Z      10029a70 f   LimitCrack.obj
 0001:00028ac0       ??0UnitLimit@@QAE@XZ       10029ac0 f   LimitCrack.obj
 0001:00028b00       ??1IncreaseAISearchMapEntriesLimit@@QAE@XZ 10029b00 f   LimitCrack.obj
 0001:00028b40       ??1IncreaseCompositeBuf@@QAE@XZ 10029b40 f   LimitCrack.obj
 0001:00028b80       ??1IncreaseSfxLimit@@QAE@XZ 10029b80 f   LimitCrack.obj
 0001:00028c10       ??1IncreaseUnitTypeLimit@@QAE@XZ 10029c10 f   LimitCrack.obj
 0001:00028e20       ??1IncreaseWeaponTypeLimit@@QAE@XZ 10029e20 f   LimitCrack.obj
 0001:00028fb0       ??1LimitCrack@@QAE@XZ      10029fb0 f   LimitCrack.obj
 0001:000290c0       ??1UnitLimit@@QAE@XZ       1002a0c0 f   LimitCrack.obj
 0001:000291b0       ??_GExternHotKey@@QAEPAXI@Z 1002a1b0 f i LimitCrack.obj
 0001:000291f0       ??_GIncreaseAISearchMapEntriesLimit@@QAEPAXI@Z 1002a1f0 f i LimitCrack.obj
 0001:00029220       ??_GIncreaseCompositeBuf@@QAEPAXI@Z 1002a220 f i LimitCrack.obj
 0001:00029250       ??_GIncreaseSfxLimit@@QAEPAXI@Z 1002a250 f i LimitCrack.obj
 0001:00029280       ??_GIncreaseUnitTypeLimit@@QAEPAXI@Z 1002a280 f i LimitCrack.obj
 0001:000292b0       ??_GIncreaseWeaponTypeLimit@@QAEPAXI@Z 1002a2b0 f i LimitCrack.obj
 0001:000292f0       ??_GModifyWeaponPacket@@QAEPAXI@Z 1002a2f0 f i LimitCrack.obj
 0001:00029320       ?NewLimit@IncreaseWeaponTypeLimit@@AAEXK@Z 1002a320 f   LimitCrack.obj
 0001:00029490       ?NewUnitLimit@UnitLimit@@AAEXK@Z 1002a490 f   LimitCrack.obj
 0001:00029620       ?SetNewLimit@IncreaseSfxLimit@@AAEXKK@Z 1002a620 f   LimitCrack.obj
 0001:00029770       ?Sfx_mallocBufSizeRouter@@YGHPAUtagInlineX86StackBuffer@@@Z 1002a770 f   LimitCrack.obj
 0001:00029790       ?WeaponType_IdLimit@IncreaseWeaponTypeLimit@@AAEXXZ 1002a790 f   LimitCrack.obj
 0001:000298c0       ?WriteNewLimit@IncreaseCompositeBuf@@AAEXKK@Z 1002a8c0 f   LimitCrack.obj
 0001:000299c0       ?WriteNewLimit@IncreaseUnitTypeLimit@@AAEXK@Z 1002a9c0 f   LimitCrack.obj
 0001:0002a150       ?WriteWeaponAryLen@IncreaseWeaponTypeLimit@@AAEKK@Z 1002b150 f   LimitCrack.obj
 0001:0002a220       ?WriteWeaponAryPtr@IncreaseWeaponTypeLimit@@AAEPAXPAPAX@Z 1002b220 f   LimitCrack.obj
 0001:0002a390       ??0UnitsMinimap@@QAE@PAVFullScreenMinimap@@HHHHHHHHHHHHHHHHPAH@Z 1002b390 f   UnitMinimap.obj
 0001:0002a400       ??0UnitsMinimap@@QAE@PAVFullScreenMinimap@@HHHHHHHHHHHHHHPAH@Z 1002b400 f   UnitMinimap.obj
 0001:0002a470       ??1UnitsMinimap@@QAE@XZ    1002b470 f   UnitMinimap.obj
 0001:0002a4c0       ??_GUnitIcon@@QAEPAXI@Z    1002b4c0 f i UnitMinimap.obj
 0001:0002a4f0       ?DrawUnit@UnitsMinimap@@AAEXPAEPAUtagPOINT@@PAUUnitStruct@@@Z 1002b4f0 f   UnitMinimap.obj
 0001:0002afe0       ?FreeUnitPicture@UnitsMinimap@@QAEXXZ 1002bfe0 f   UnitMinimap.obj
 0001:0002b2e0       ?GetSurface@UnitsMinimap@@QAEPAEXZ 1002c2e0 f   UnitMinimap.obj
 0001:0002b2f0       ?GetTransparentColor@UnitsMinimap@@QAEHXZ 1002c2f0 f   UnitMinimap.obj
 0001:0002b310       ?Init@UnitsMinimap@@QAEXHHHHHHHHHHHHHHPAH@Z 1002c310 f   UnitMinimap.obj
 0001:0002b700       ?InitHoverPicturePlayerColors@UnitsMinimap@@AAEXHHHHPAPAPAE@Z 1002c700 f   UnitMinimap.obj
 0001:0002b8b0       ?InitPicturePlayerColors@UnitsMinimap@@AAEXHHPAPAPAE@Z 1002c8b0 f   UnitMinimap.obj
 0001:0002ba50       ?InitSurface@UnitsMinimap@@QAEPAEPAUIDirectDraw@@H@Z 1002ca50 f   UnitMinimap.obj
 0001:0002bb40       ?InitUnSelectedPicturePlayerColors@UnitsMinimap@@AAEXHHHHPAPAPAE@Z 1002cb40 f   UnitMinimap.obj
 0001:0002bd00       ?LoadUnitPicture@UnitsMinimap@@QAEXXZ 1002cd00 f   UnitMinimap.obj
 0001:0002d1d0       ?LockOn@UnitsMinimap@@QAEPAEPAPAEPAUtagPOINT@@@Z 1002e1d0 f   UnitMinimap.obj
 0001:0002d210       ?NowDrawUnits@UnitsMinimap@@QAEXPAEPAUtagPOINT@@@Z 1002e210 f   UnitMinimap.obj
 0001:0002d370       ?NukePicture@UnitsMinimap@@QAEPAEHPAPAEPAUtagPOINT@@@Z 1002e370 f   UnitMinimap.obj
 0001:0002d460       ?ReSet@UnitsMinimap@@QAEXHH@Z 1002e460 f   UnitMinimap.obj
 0001:0002d4b0       ?ReleaseSurface@UnitsMinimap@@QAEXXZ 1002e4b0 f   UnitMinimap.obj
 0001:0002d4e0       ?UnitPicture@UnitsMinimap@@QAEPAEPAUUnitStruct@@HPAPAEPAUtagPOINT@@@Z 1002e4e0 f   UnitMinimap.obj
 0001:0002dd20       ?Unlock@UnitsMinimap@@QAEXPAE@Z 1002ed20 f   UnitMinimap.obj
 0001:0002dd30       ??0CUnitRotate@@QAE@XZ     1002ed30 f   unitrotate.obj
 0001:0002dd50       ??1CUnitRotate@@QAE@XZ     1002ed50 f   unitrotate.obj
 0001:0002dd60       ?Message@CUnitRotate@@QAE_NPAUHWND__@@IIJ@Z 1002ed60 f   unitrotate.obj
 0001:0002ddb0       ?Rotate@CUnitRotate@@AAEXXZ 1002edb0 f   unitrotate.obj
 0001:0002dfd0       ?SetMem@CUnitRotate@@AAEXXZ 1002efd0 f   unitrotate.obj
 0001:0002e030       ??$?0$$V@?$_Compressed_pair@V?$allocator@PAVGraphicElement@@@std@@V?$_Deque_val@U?$_Deque_simple_types@PAVGraphicElement@@@std@@@2@$00@std@@QAE@U_Zero_then_variadic_args_t@1@@Z 1002f030 f i whiteboard.obj
 0001:0002e050       ??$?0$$V@?$_Compressed_pair@V?$allocator@PAVGraphicElement@@@std@@V?$_Vector_val@U?$_Simple_types@PAVGraphicElement@@@std@@@2@$00@std@@QAE@U_Zero_then_variadic_args_t@1@@Z 1002f050 f i whiteboard.obj
 0001:0002e070       ??$?0$$V@?$_Compressed_pair@V?$allocator@UMMHS@AlliesWhiteboard@@@std@@V?$_Deque_val@U?$_Deque_simple_types@UMMHS@AlliesWhiteboard@@@std@@@2@$00@std@@QAE@U_Zero_then_variadic_args_t@1@@Z 1002f070 f i whiteboard.obj
 0001:0002e090       ??$?0PAVGraphicElement@@@?$allocator@PAPAVGraphicElement@@@std@@QAE@ABV?$allocator@PAVGraphicElement@@@1@@Z 1002f090 f i whiteboard.obj
 0001:0002e0a0       ??$?0PAVGraphicElement@@@?$allocator@U_Container_proxy@std@@@std@@QAE@ABV?$allocator@PAVGraphicElement@@@1@@Z 1002f0a0 f i whiteboard.obj
 0001:0002e0b0       ??$?0UMMHS@AlliesWhiteboard@@@?$allocator@PAUMMHS@AlliesWhiteboard@@@std@@QAE@ABV?$allocator@UMMHS@AlliesWhiteboard@@@1@@Z 1002f0b0 f i whiteboard.obj
 0001:0002e0c0       ??$?0UMMHS@AlliesWhiteboard@@@?$allocator@U_Container_proxy@std@@@std@@QAE@ABV?$allocator@UMMHS@AlliesWhiteboard@@@1@@Z 1002f0c0 f i whiteboard.obj
 0001:0002e0d0       ??$_Adl_verify_range@PAPAPAVGraphicElement@@PAPAPAV1@@std@@YGXABQAPAPAVGraphicElement@@0@Z 1002f0d0 f i whiteboard.obj
 0001:0002e0e0       ??$_Adl_verify_range@PAPAUMMHS@AlliesWhiteboard@@PAPAU12@@std@@YGXABQAPAUMMHS@AlliesWhiteboard@@0@Z 1002f0e0 f i whiteboard.obj
 0001:0002e0f0       ??$_Construct_in_place@PAPAVGraphicElement@@AAPAPAV1@@std@@YGXAAPAPAVGraphicElement@@0@Z 1002f0f0 f i whiteboard.obj
 0001:0002e130       ??$_Construct_in_place@PAUMMHS@AlliesWhiteboard@@AAPAU12@@std@@YGXAAPAUMMHS@AlliesWhiteboard@@0@Z 1002f130 f i whiteboard.obj
 0001:0002e170       ??$_Copy_memmove@PAPAPAVGraphicElement@@PAPAPAV1@@std@@YGPAPAPAVGraphicElement@@PAPAPAV1@00@Z 1002f170 f i whiteboard.obj
 0001:0002e1e0       ??$_Copy_memmove@PAPAUMMHS@AlliesWhiteboard@@PAPAU12@@std@@YGPAPAUMMHS@AlliesWhiteboard@@PAPAU12@00@Z 1002f1e0 f i whiteboard.obj
 0001:0002e250       ??$_Destroy_in_place@PAPAVGraphicElement@@@std@@YGXAAPAPAVGraphicElement@@@Z 1002f250 f i whiteboard.obj
 0001:0002e260       ??$_Destroy_in_place@PAUMMHS@AlliesWhiteboard@@@std@@YGXAAPAUMMHS@AlliesWhiteboard@@@Z 1002f260 f i whiteboard.obj
 0001:0002e270       ??$_Destroy_range@PAPAPAVGraphicElement@@PAPAPAV1@@std@@YGXPAPAPAVGraphicElement@@QAPAPAV1@@Z 1002f270 f i whiteboard.obj
 0001:0002e280       ??$_Destroy_range@PAPAUMMHS@AlliesWhiteboard@@PAPAU12@@std@@YGXPAPAUMMHS@AlliesWhiteboard@@QAPAU12@@Z 1002f280 f i whiteboard.obj
 0001:0002e290       ??$_Destroy_range@V?$allocator@PAVGraphicElement@@@std@@@std@@YGXPAPAVGraphicElement@@QAPAV1@AAV?$allocator@PAVGraphicElement@@@0@@Z 1002f290 f i whiteboard.obj
 0001:0002e2a0       ??$_Emplace_back@AAPAPAVGraphicElement@@@?$_Uninitialized_backout@PAPAPAVGraphicElement@@@std@@QAEXAAPAPAVGraphicElement@@@Z 1002f2a0 f i whiteboard.obj
 0001:0002e2e0       ??$_Emplace_back@AAPAUMMHS@AlliesWhiteboard@@@?$_Uninitialized_backout@PAPAUMMHS@AlliesWhiteboard@@@std@@QAEXAAPAUMMHS@AlliesWhiteboard@@@Z 1002f2e0 f i whiteboard.obj
 0001:0002e320       ??$_Emplace_back_internal@PAVGraphicElement@@@?$deque@PAVGraphicElement@@V?$allocator@PAVGraphicElement@@@std@@@std@@AAEX$$QAPAVGraphicElement@@@Z 1002f320 f i whiteboard.obj
 0001:0002e460       ??$_Get_unwrapped@ABQAPAPAVGraphicElement@@@std@@YG?A_TABQAPAPAVGraphicElement@@@Z 1002f460 f i whiteboard.obj
 0001:0002e470       ??$_Get_unwrapped@ABQAPAUMMHS@AlliesWhiteboard@@@std@@YG?A_TABQAPAUMMHS@AlliesWhiteboard@@@Z 1002f470 f i whiteboard.obj
 0001:0002e480       ??$_Get_unwrapped_n@AAPAPAPAVGraphicElement@@H@std@@YG?A_TAAPAPAPAVGraphicElement@@H@Z 1002f480 f i whiteboard.obj
 0001:0002e490       ??$_Get_unwrapped_n@AAPAPAUMMHS@AlliesWhiteboard@@H@std@@YG?A_TAAPAPAUMMHS@AlliesWhiteboard@@H@Z 1002f490 f i whiteboard.obj
 0001:0002e4a0       ??$_Idl_distance@PAPAPAVGraphicElement@@PAPAPAV1@@std@@YG?A_PABQAPAPAVGraphicElement@@0@Z 1002f4a0 f i whiteboard.obj
 0001:0002e4c0       ??$_Idl_distance@PAPAUMMHS@AlliesWhiteboard@@PAPAU12@@std@@YG?A_PABQAPAUMMHS@AlliesWhiteboard@@0@Z 1002f4c0 f i whiteboard.obj
 0001:0002e4e0       ??$_Pocma@V?$allocator@PAVGraphicElement@@@std@@@std@@YGXAAV?$allocator@PAVGraphicElement@@@0@0@Z 1002f4e0 f i whiteboard.obj
 0001:0002e4f0       ??$_Prev_iter@V?$_Deque_unchecked_iterator@V?$_Deque_val@U?$_Deque_simple_types@UMMHS@AlliesWhiteboard@@@std@@@std@@@std@@@std@@YG?AV?$_Deque_unchecked_iterator@V?$_Deque_val@U?$_Deque_simple_types@UMMHS@AlliesWhiteboard@@@std@@@std@@@0@V10@@Z 1002f4f0 f i whiteboard.obj
 0001:0002e510       ??$_Seek_wrapped@PAPAPAVGraphicElement@@PAPAPAV1@@std@@YGXAAPAPAPAVGraphicElement@@$$QAPAPAPAV1@@Z 1002f510 f i whiteboard.obj
 0001:0002e530       ??$_Seek_wrapped@PAPAUMMHS@AlliesWhiteboard@@PAPAU12@@std@@YGXAAPAPAUMMHS@AlliesWhiteboard@@$$QAPAPAU12@@Z 1002f530 f i whiteboard.obj
 0001:0002e550       ??$_To_address@PAPAPAVGraphicElement@@@std@@YG?A_PABQAPAPAVGraphicElement@@@Z 1002f550 f i whiteboard.obj
 0001:0002e560       ??$_To_address@PAPAUMMHS@AlliesWhiteboard@@@std@@YG?A_PABQAPAUMMHS@AlliesWhiteboard@@@Z 1002f560 f i whiteboard.obj
 0001:0002e570       ??$_Unfancy@PAVGraphicElement@@@std@@YGPAPAVGraphicElement@@PAPAV1@@Z 1002f570 f i whiteboard.obj
 0001:0002e580       ??$_Unfancy@UMMHS@AlliesWhiteboard@@@std@@YGPAUMMHS@AlliesWhiteboard@@PAU12@@Z 1002f580 f i whiteboard.obj
 0001:0002e590       ??$_Uninitialized_copy_unchecked@PAPAPAVGraphicElement@@PAPAPAV1@@std@@YGPAPAPAVGraphicElement@@PAPAPAV1@QAPAPAV1@0@Z 1002f590 f i whiteboard.obj
 0001:0002e630       ??$_Uninitialized_copy_unchecked@PAPAUMMHS@AlliesWhiteboard@@PAPAU12@@std@@YGPAPAUMMHS@AlliesWhiteboard@@PAPAU12@QAPAU12@0@Z 1002f630 f i whiteboard.obj
 0001:0002e6d0       ??$_Uninitialized_value_construct_n_unchecked1@PAPAPAVGraphicElement@@I@std@@YGPAPAPAVGraphicElement@@PAPAPAV1@I@Z 1002f6d0 f i whiteboard.obj
 0001:0002e6f0       ??$_Uninitialized_value_construct_n_unchecked1@PAPAUMMHS@AlliesWhiteboard@@I@std@@YGPAPAUMMHS@AlliesWhiteboard@@PAPAU12@I@Z 1002f6f0 f i whiteboard.obj
 0001:0002e710       ??$_Voidify_iter@PAPAPAVGraphicElement@@@std@@YGPAXPAPAPAVGraphicElement@@@Z 1002f710 f i whiteboard.obj
 0001:0002e720       ??$_Voidify_iter@PAPAUMMHS@AlliesWhiteboard@@@std@@YGPAXPAPAUMMHS@AlliesWhiteboard@@@Z 1002f720 f i whiteboard.obj
 0001:0002e730       ??$_Voidify_iter@PAPAVGraphicElement@@@std@@YGPAXPAPAVGraphicElement@@@Z 1002f730 f i whiteboard.obj
 0001:0002e740       ??$_Voidify_iter@PAUMMHS@AlliesWhiteboard@@@std@@YGPAXPAUMMHS@AlliesWhiteboard@@@Z 1002f740 f i whiteboard.obj
 0001:0002e750       ??$_Zero_range@PAPAPAVGraphicElement@@@std@@YGPAPAPAVGraphicElement@@QAPAPAV1@0@Z 1002f750 f i whiteboard.obj
 0001:0002e790       ??$_Zero_range@PAPAUMMHS@AlliesWhiteboard@@@std@@YGPAPAUMMHS@AlliesWhiteboard@@QAPAU12@0@Z 1002f790 f i whiteboard.obj
 0001:0002e7d0       ??$addressof@PAPAVGraphicElement@@@std@@YGPAPAPAVGraphicElement@@AAPAPAV1@@Z 1002f7d0 f i whiteboard.obj
 0001:0002e7e0       ??$addressof@PAUMMHS@AlliesWhiteboard@@@std@@YGPAPAUMMHS@AlliesWhiteboard@@AAPAU12@@Z 1002f7e0 f i whiteboard.obj
 0001:0002e7f0       ??$addressof@V?$_Deque_val@U?$_Deque_simple_types@PAVGraphicElement@@@std@@@std@@@std@@YGPAV?$_Deque_val@U?$_Deque_simple_types@PAVGraphicElement@@@std@@@0@AAV10@@Z 1002f7f0 f i whiteboard.obj
 0001:0002e800       ??$addressof@V?$_Deque_val@U?$_Deque_simple_types@UMMHS@AlliesWhiteboard@@@std@@@std@@@std@@YGPAV?$_Deque_val@U?$_Deque_simple_types@UMMHS@AlliesWhiteboard@@@std@@@0@AAV10@@Z 1002f800 f i whiteboard.obj
 0001:0002e810       ??$addressof@V?$vector@PAVGraphicElement@@V?$allocator@PAVGraphicElement@@@std@@@std@@@std@@YGPAV?$vector@PAVGraphicElement@@V?$allocator@PAVGraphicElement@@@std@@@0@AAV10@@Z 1002f810 f i whiteboard.obj
 0001:0002e820       ??$construct@PAVGraphicElement@@PAV1@@?$_Default_allocator_traits@V?$allocator@PAVGraphicElement@@@std@@@std@@SGXAAV?$allocator@PAVGraphicElement@@@1@QAPAVGraphicElement@@$$QAPAV3@@Z 1002f820 f i whiteboard.obj
 0001:0002e860       ??$construct@UMMHS@AlliesWhiteboard@@ABU12@@?$_Default_allocator_traits@V?$allocator@UMMHS@AlliesWhiteboard@@@std@@@std@@SGXAAV?$allocator@UMMHS@AlliesWhiteboard@@@1@QAUMMHS@AlliesWhiteboard@@ABU34@@Z 1002f860 f i whiteboard.obj
 0001:0002e8a0       ??$destroy@PAVGraphicElement@@@?$_Default_allocator_traits@V?$allocator@PAVGraphicElement@@@std@@@std@@SGXAAV?$allocator@PAVGraphicElement@@@1@QAPAVGraphicElement@@@Z 1002f8a0 f i whiteboard.obj
 0001:0002e8b0       ??$destroy@UMMHS@AlliesWhiteboard@@@?$_Default_allocator_traits@V?$allocator@UMMHS@AlliesWhiteboard@@@std@@@std@@SGXAAV?$allocator@UMMHS@AlliesWhiteboard@@@1@QAUMMHS@AlliesWhiteboard@@@Z 1002f8b0 f i whiteboard.obj
 0001:0002e8c0       ??$emplace_front@ABUMMHS@AlliesWhiteboard@@@?$deque@UMMHS@AlliesWhiteboard@@V?$allocator@UMMHS@AlliesWhiteboard@@@std@@@std@@QAE?A_TABUMMHS@AlliesWhiteboard@@@Z 1002f8c0 f i whiteboard.obj
 0001:0002ea20       ??$forward@AAPAPAVGraphicElement@@@std@@YGAAPAPAVGraphicElement@@AAPAPAV1@@Z 1002fa20 f i whiteboard.obj
 0001:0002ea30       ??$forward@AAPAUMMHS@AlliesWhiteboard@@@std@@YGAAPAUMMHS@AlliesWhiteboard@@AAPAU12@@Z 1002fa30 f i whiteboard.obj
 0001:0002ea40       ??$forward@ABUMMHS@AlliesWhiteboard@@@std@@YGABUMMHS@AlliesWhiteboard@@ABU12@@Z 1002fa40 f i whiteboard.obj
 0001:0002ea50       ??$forward@PAPAPAVGraphicElement@@@std@@YG$$QAPAPAPAVGraphicElement@@AAPAPAPAV1@@Z 1002fa50 f i whiteboard.obj
 0001:0002ea60       ??$forward@PAPAUMMHS@AlliesWhiteboard@@@std@@YG$$QAPAPAUMMHS@AlliesWhiteboard@@AAPAPAU12@@Z 1002fa60 f i whiteboard.obj
 0001:0002ea70       ??$forward@PAVGraphicElement@@@std@@YG$$QAPAVGraphicElement@@AAPAV1@@Z 1002fa70 f i whiteboard.obj
 0001:0002ea80       ??$move@AAPAVGraphicElement@@@std@@YG$$QAPAVGraphicElement@@AAPAV1@@Z 1002fa80 f i whiteboard.obj
 0001:0002ea90       ??$move@AAV?$allocator@PAVGraphicElement@@@std@@@std@@YG$$QAV?$allocator@PAVGraphicElement@@@0@AAV10@@Z 1002fa90 f i whiteboard.obj
 0001:0002eaa0       ??$uninitialized_copy@PAPAPAVGraphicElement@@PAPAPAV1@@std@@YGPAPAPAVGraphicElement@@QAPAPAV1@0PAPAPAV1@@Z 1002faa0 f i whiteboard.obj
 0001:0002eb10       ??$uninitialized_copy@PAPAUMMHS@AlliesWhiteboard@@PAPAU12@@std@@YGPAPAUMMHS@AlliesWhiteboard@@QAPAU12@0PAPAU12@@Z 1002fb10 f i whiteboard.obj
 0001:0002eb80       ??0?$_Deque_unchecked_const_iterator@V?$_Deque_val@U?$_Deque_simple_types@PAVGraphicElement@@@std@@@std@@@std@@QAE@IPBU_Container_base12@1@@Z 1002fb80 f i whiteboard.obj
 0001:0002ebb0       ??0?$_Deque_unchecked_const_iterator@V?$_Deque_val@U?$_Deque_simple_types@UMMHS@AlliesWhiteboard@@@std@@@std@@@std@@QAE@IPBU_Container_base12@1@@Z 1002fbb0 f i whiteboard.obj
 0001:0002ebe0       ??0?$_Deque_unchecked_iterator@V?$_Deque_val@U?$_Deque_simple_types@PAVGraphicElement@@@std@@@std@@@std@@QAE@IPBU_Container_base12@1@@Z 1002fbe0 f i whiteboard.obj
 0001:0002ec00       ??0?$_Deque_unchecked_iterator@V?$_Deque_val@U?$_Deque_simple_types@UMMHS@AlliesWhiteboard@@@std@@@std@@@std@@QAE@IPBU_Container_base12@1@@Z 1002fc00 f i whiteboard.obj
 0001:0002ec20       ??0?$_Deque_val@U?$_Deque_simple_types@PAVGraphicElement@@@std@@@std@@QAE@XZ 1002fc20 f i whiteboard.obj
 0001:0002ec60       ??0?$_Deque_val@U?$_Deque_simple_types@UMMHS@AlliesWhiteboard@@@std@@@std@@QAE@XZ 1002fc60 f i whiteboard.obj
 0001:0002eca0       ??0?$_Uninitialized_backout@PAPAPAVGraphicElement@@@std@@QAE@PAPAPAVGraphicElement@@@Z 1002fca0 f i whiteboard.obj
 0001:0002ecd0       ??0?$_Uninitialized_backout@PAPAUMMHS@AlliesWhiteboard@@@std@@QAE@PAPAUMMHS@AlliesWhiteboard@@@Z 1002fcd0 f i whiteboard.obj
 0001:0002ed00       ??0?$_Vector_val@U?$_Simple_types@PAVGraphicElement@@@std@@@std@@QAE@XZ 1002fd00 f i whiteboard.obj
 0001:0002ed30       ??0?$allocator@PAVGraphicElement@@@std@@QAE@XZ 1002fd30 f i whiteboard.obj
 0001:0002ed40       ??0?$allocator@UMMHS@AlliesWhiteboard@@@std@@QAE@XZ 1002fd40 f i whiteboard.obj
 0001:0002ed50       ??0?$deque@PAVGraphicElement@@V?$allocator@PAVGraphicElement@@@std@@@std@@QAE@XZ 1002fd50 f i whiteboard.obj
 0001:0002ed90       ??0?$deque@UMMHS@AlliesWhiteboard@@V?$allocator@UMMHS@AlliesWhiteboard@@@std@@@std@@QAE@XZ 1002fd90 f i whiteboard.obj
 0001:0002edd0       ??0?$vector@PAVGraphicElement@@V?$allocator@PAVGraphicElement@@@std@@@std@@QAE@XZ 1002fdd0 f i whiteboard.obj
 0001:0002ee00       ??0AlliesWhiteboard@@QAE@H@Z 1002fe00 f   whiteboard.obj
 0001:0002f390       ??0DeleteGraphic@@QAE@HHD@Z 10030390 f i whiteboard.obj
 0001:0002f3c0       ??0GraphicElement@@QAE@HHHD@Z 100303c0 f i whiteboard.obj
 0001:0002f400       ??0GraphicLine@@QAE@HHHHD@Z 10030400 f i whiteboard.obj
 0001:0002f450       ??0GraphicMoveText@@QAE@HHHHD@Z 10030450 f i whiteboard.obj
 0001:0002f4a0       ??0GraphicText@@QAE@HHPADD@Z 100304a0 f i whiteboard.obj
 0001:0002f550       ??0GraphicTextEdited@@QAE@HHPADD@Z 10030550 f i whiteboard.obj
 0001:0002f600       ??1?$_Uninitialized_backout@PAPAPAVGraphicElement@@@std@@QAE@XZ 10030600 f i whiteboard.obj
 0001:0002f620       ??1?$_Uninitialized_backout@PAPAUMMHS@AlliesWhiteboard@@@std@@QAE@XZ 10030620 f i whiteboard.obj
 0001:0002f640       ??1?$deque@PAVGraphicElement@@V?$allocator@PAVGraphicElement@@@std@@@std@@QAE@XZ 10030640 f i whiteboard.obj
 0001:0002f690       ??1?$deque@UMMHS@AlliesWhiteboard@@V?$allocator@UMMHS@AlliesWhiteboard@@@std@@@std@@QAE@XZ 10030690 f i whiteboard.obj
 0001:0002f6e0       ??1?$vector@PAVGraphicElement@@V?$allocator@PAVGraphicElement@@@std@@@std@@QAE@XZ 100306e0 f i whiteboard.obj
 0001:0002f700       ??1AlliesWhiteboard@@QAE@XZ 10030700 f   whiteboard.obj
 0001:0002f7d0       ??1DeleteGraphic@@UAE@XZ   100307d0 f i whiteboard.obj
 0001:0002f7f0       ??1GraphicElement@@UAE@XZ  100307f0 f i whiteboard.obj
 0001:0002f810       ??1GraphicLine@@UAE@XZ     10030810 f i whiteboard.obj
 0001:0002f830       ??1GraphicMoveText@@UAE@XZ 10030830 f i whiteboard.obj
 0001:0002f850       ??1GraphicText@@UAE@XZ     10030850 f i whiteboard.obj
 0001:0002f890       ??1GraphicTextEdited@@UAE@XZ 10030890 f i whiteboard.obj
 0001:0002f8d0       ??4?$vector@PAVGraphicElement@@V?$allocator@PAVGraphicElement@@@std@@@std@@QAEAAV01@$$QAV01@@Z 100308d0 f i whiteboard.obj
 0001:0002f940       ??A?$deque@UMMHS@AlliesWhiteboard@@V?$allocator@UMMHS@AlliesWhiteboard@@@std@@@std@@QAEAAUMMHS@AlliesWhiteboard@@I@Z 10030940 f i whiteboard.obj
 0001:0002f980       ??A?$vector@PAVGraphicElement@@V?$allocator@PAVGraphicElement@@@std@@@std@@QAEAAPAVGraphicElement@@I@Z 10030980 f i whiteboard.obj
 0001:0002f9a0       ??D?$_Deque_unchecked_const_iterator@V?$_Deque_val@U?$_Deque_simple_types@PAVGraphicElement@@@std@@@std@@@std@@QBEABQAVGraphicElement@@XZ 100309a0 f i whiteboard.obj
 0001:0002f9f0       ??D?$_Deque_unchecked_const_iterator@V?$_Deque_val@U?$_Deque_simple_types@UMMHS@AlliesWhiteboard@@@std@@@std@@@std@@QBEABUMMHS@AlliesWhiteboard@@XZ 100309f0 f i whiteboard.obj
 0001:0002fa40       ??D?$_Deque_unchecked_iterator@V?$_Deque_val@U?$_Deque_simple_types@PAVGraphicElement@@@std@@@std@@@std@@QBEAAPAVGraphicElement@@XZ 10030a40 f i whiteboard.obj
 0001:0002fa60       ??D?$_Deque_unchecked_iterator@V?$_Deque_val@U?$_Deque_simple_types@UMMHS@AlliesWhiteboard@@@std@@@std@@@std@@QBEAAUMMHS@AlliesWhiteboard@@XZ 10030a60 f i whiteboard.obj
 0001:0002fa80       ??F?$_Deque_unchecked_const_iterator@V?$_Deque_val@U?$_Deque_simple_types@UMMHS@AlliesWhiteboard@@@std@@@std@@@std@@QAEAAV01@XZ 10030a80 f i whiteboard.obj
 0001:0002faa0       ??F?$_Deque_unchecked_iterator@V?$_Deque_val@U?$_Deque_simple_types@UMMHS@AlliesWhiteboard@@@std@@@std@@@std@@QAEAAV01@XZ 10030aa0 f i whiteboard.obj
 0001:0002fac0       ??H?$_Deque_unchecked_iterator@V?$_Deque_val@U?$_Deque_simple_types@UMMHS@AlliesWhiteboard@@@std@@@std@@@std@@QBE?AV01@H@Z 10030ac0 f i whiteboard.obj
 0001:0002fb00       ??Y?$_Deque_unchecked_const_iterator@V?$_Deque_val@U?$_Deque_simple_types@UMMHS@AlliesWhiteboard@@@std@@@std@@@std@@QAEAAV01@H@Z 10030b00 f i whiteboard.obj
 0001:0002fb20       ??Y?$_Deque_unchecked_iterator@V?$_Deque_val@U?$_Deque_simple_types@UMMHS@AlliesWhiteboard@@@std@@@std@@@std@@QAEAAV01@H@Z 10030b20 f i whiteboard.obj
 0001:0002fb40       ??_EDeleteGraphic@@UAEPAXI@Z 10030b40 f i whiteboard.obj
 0001:0002fb40       ??_GDeleteGraphic@@UAEPAXI@Z 10030b40 f i whiteboard.obj
 0001:0002fb70       ??_EGraphicElement@@UAEPAXI@Z 10030b70 f i whiteboard.obj
 0001:0002fb70       ??_GGraphicElement@@UAEPAXI@Z 10030b70 f i whiteboard.obj
 0001:0002fba0       ??_EGraphicLine@@UAEPAXI@Z 10030ba0 f i whiteboard.obj
 0001:0002fba0       ??_GGraphicLine@@UAEPAXI@Z 10030ba0 f i whiteboard.obj
 0001:0002fbd0       ??_EGraphicMoveText@@UAEPAXI@Z 10030bd0 f i whiteboard.obj
 0001:0002fbd0       ??_GGraphicMoveText@@UAEPAXI@Z 10030bd0 f i whiteboard.obj
 0001:0002fc00       ??_EGraphicText@@UAEPAXI@Z 10030c00 f i whiteboard.obj
 0001:0002fc00       ??_GGraphicText@@UAEPAXI@Z 10030c00 f i whiteboard.obj
 0001:0002fc30       ??_EGraphicTextEdited@@UAEPAXI@Z 10030c30 f i whiteboard.obj
 0001:0002fc30       ??_GGraphicTextEdited@@UAEPAXI@Z 10030c30 f i whiteboard.obj
 0001:0002fc60       ?AddTextMarker@AlliesWhiteboard@@AAEXHHPADD@Z 10030c60 f   whiteboard.obj
 0001:0002fd20       ?AddTextMarker@AlliesWhiteboard@@AAEXXZ 10030d20 f   whiteboard.obj
 0001:0002fe70       ?Blit@AlliesWhiteboard@@QAEXPAE@Z 10030e70 f   whiteboard.obj
 0001:0002fee0       ?Clip_Line@AlliesWhiteboard@@QAEHAAH000@Z 10030ee0 f   whiteboard.obj
 0001:000309e0       ?DeleteMarker@AlliesWhiteboard@@AAEXHH@Z 100319e0 f   whiteboard.obj
 0001:00030a90       ?Draw@GraphicElement@@UAEXXZ 10031a90 f i whiteboard.obj
 0001:00030aa0       ?Draw@GraphicLine@@UAEXXZ  10031aa0 f i whiteboard.obj
 0001:00030ab0       ?Draw@GraphicText@@UAEXXZ  10031ab0 f i whiteboard.obj
 0001:00030ac0       ?DrawFreeLine@AlliesWhiteboard@@QAEXHHHHDPADH@Z 10031ac0 f   whiteboard.obj
 0001:00030b10       ?DrawLine@AlliesWhiteboard@@QAEXHHHHDPADH@Z 10031b10 f   whiteboard.obj
 0001:00030bc0       ?DrawMarkers@AlliesWhiteboard@@AAEXPAE@Z 10031bc0 f   whiteboard.obj
 0001:00030d20       ?DrawMinimapMarkers@AlliesWhiteboard@@QAEXPADH_N@Z 10031d20 f   whiteboard.obj
 0001:00030fa0       ?DrawRotateRect@AlliesWhiteboard@@AAEXHHHPADH@Z 10031fa0 f   whiteboard.obj
 0001:00031280       ?DrawTextInput@AlliesWhiteboard@@AAEXPAE@Z 10032280 f   whiteboard.obj
 0001:00031540       ?DrawTextMarker@AlliesWhiteboard@@AAEXPAEHHPADD@Z 10032540 f   whiteboard.obj
 0001:000318d0       ?Draw_Line@AlliesWhiteboard@@QAEHHHHHEPAEH@Z 100328d0 f   whiteboard.obj
 0001:00031a10       ?EchoMarker@AlliesWhiteboard@@AAEXPAD@Z 10032a10 f   whiteboard.obj
 0001:00031a70       ?EreaseArea@AlliesWhiteboard@@AAEXHH@Z 10032a70 f   whiteboard.obj
 0001:00031b60       ?GenerateLookupTables@AlliesWhiteboard@@AAEXXZ 10032b60 f   whiteboard.obj
 0001:00031bf0       ?GetMapX@AlliesWhiteboard@@QAEHXZ 10032bf0 f   whiteboard.obj
 0001:00031c10       ?GetMapY@AlliesWhiteboard@@QAEHXZ 10032c10 f   whiteboard.obj
 0001:00031c30       ?GetMarkers@AlliesWhiteboard@@QAEXPAUMarkerArray@@@Z 10032c30 f   whiteboard.obj
 0001:00031d20       ?GetTextElementAt@AlliesWhiteboard@@AAEPAVGraphicElement@@HHH@Z 10032d20 f   whiteboard.obj
 0001:00031e20       ?InstantScrollTo@AlliesWhiteboard@@QAEXHH@Z 10032e20 f   whiteboard.obj
 0001:00031e70       ?Line@AlliesWhiteboard@@QAEXHHHHEPADH@Z 10032e70 f   whiteboard.obj
 0001:00031f20       ?LockBlit@AlliesWhiteboard@@QAEXPADH@Z 10032f20 f   whiteboard.obj
 0001:00032120       ?Message@AlliesWhiteboard@@QAE_NPAUHWND__@@IIJ@Z 10033120 f   whiteboard.obj
 0001:00032a30       ?MouseMove@AlliesWhiteboard@@AAEXHHHH@Z 10033a30 f   whiteboard.obj
 0001:00032b90       ?ReceiveMarkers@AlliesWhiteboard@@AAEXXZ 10033b90 f   whiteboard.obj
 0001:00032f80       ?RestoreAll@AlliesWhiteboard@@AAEXXZ 10033f80 f   whiteboard.obj
 0001:00033030       ?ScrollToCenter@AlliesWhiteboard@@QAEXHH@Z 10034030 f   whiteboard.obj
 0001:000330d0       ?SendMarkers@AlliesWhiteboard@@AAEXXZ 100340d0 f   whiteboard.obj
 0001:000335f0       ?Set@AlliesWhiteboard@@QAEXH@Z 100345f0 f   whiteboard.obj
 0001:00033610       ?TextInputChar@AlliesWhiteboard@@AAEXD@Z 10034610 f   whiteboard.obj
 0001:00033690       ?TextInputKeyDown@AlliesWhiteboard@@AAEXH@Z 10034690 f   whiteboard.obj
 0001:00033860       ?_Get_data@?$deque@PAVGraphicElement@@V?$allocator@PAVGraphicElement@@@std@@@std@@AAEAAV?$_Deque_val@U?$_Deque_simple_types@PAVGraphicElement@@@std@@@2@XZ 10034860 f i whiteboard.obj
 0001:00033870       ?_Get_data@?$deque@PAVGraphicElement@@V?$allocator@PAVGraphicElement@@@std@@@std@@ABEABV?$_Deque_val@U?$_Deque_simple_types@PAVGraphicElement@@@std@@@2@XZ 10034870 f i whiteboard.obj
 0001:00033880       ?_Get_data@?$deque@UMMHS@AlliesWhiteboard@@V?$allocator@UMMHS@AlliesWhiteboard@@@std@@@std@@AAEAAV?$_Deque_val@U?$_Deque_simple_types@UMMHS@AlliesWhiteboard@@@std@@@2@XZ 10034880 f i whiteboard.obj
 0001:00033890       ?_Get_data@?$deque@UMMHS@AlliesWhiteboard@@V?$allocator@UMMHS@AlliesWhiteboard@@@std@@@std@@ABEABV?$_Deque_val@U?$_Deque_simple_types@UMMHS@AlliesWhiteboard@@@std@@@2@XZ 10034890 f i whiteboard.obj
 0001:000338a0       ?_Get_first@?$_Compressed_pair@V?$allocator@PAVGraphicElement@@@std@@V?$_Deque_val@U?$_Deque_simple_types@PAVGraphicElement@@@std@@@2@$00@std@@QAEAAV?$allocator@PAVGraphicElement@@@2@XZ 100348a0 f i whiteboard.obj
 0001:000338b0       ?_Get_first@?$_Compressed_pair@V?$allocator@PAVGraphicElement@@@std@@V?$_Deque_val@U?$_Deque_simple_types@PAVGraphicElement@@@std@@@2@$00@std@@QBEABV?$allocator@PAVGraphicElement@@@2@XZ 100348b0 f i whiteboard.obj
 0001:000338c0       ?_Get_first@?$_Compressed_pair@V?$allocator@PAVGraphicElement@@@std@@V?$_Vector_val@U?$_Simple_types@PAVGraphicElement@@@std@@@2@$00@std@@QAEAAV?$allocator@PAVGraphicElement@@@2@XZ 100348c0 f i whiteboard.obj
 0001:000338d0       ?_Get_first@?$_Compressed_pair@V?$allocator@UMMHS@AlliesWhiteboard@@@std@@V?$_Deque_val@U?$_Deque_simple_types@UMMHS@AlliesWhiteboard@@@std@@@2@$00@std@@QAEAAV?$allocator@UMMHS@AlliesWhiteboard@@@2@XZ 100348d0 f i whiteboard.obj
 0001:000338e0       ?_Get_first@?$_Compressed_pair@V?$allocator@UMMHS@AlliesWhiteboard@@@std@@V?$_Deque_val@U?$_Deque_simple_types@UMMHS@AlliesWhiteboard@@@std@@@2@$00@std@@QBEABV?$allocator@UMMHS@AlliesWhiteboard@@@2@XZ 100348e0 f i whiteboard.obj
 0001:000338f0       ?_Getal@?$deque@PAVGraphicElement@@V?$allocator@PAVGraphicElement@@@std@@@std@@AAEAAV?$allocator@PAVGraphicElement@@@2@XZ 100348f0 f i whiteboard.obj
 0001:00033910       ?_Getal@?$deque@PAVGraphicElement@@V?$allocator@PAVGraphicElement@@@std@@@std@@ABEABV?$allocator@PAVGraphicElement@@@2@XZ 10034910 f i whiteboard.obj
 0001:00033930       ?_Getal@?$deque@UMMHS@AlliesWhiteboard@@V?$allocator@UMMHS@AlliesWhiteboard@@@std@@@std@@AAEAAV?$allocator@UMMHS@AlliesWhiteboard@@@2@XZ 10034930 f i whiteboard.obj
 0001:00033950       ?_Getal@?$deque@UMMHS@AlliesWhiteboard@@V?$allocator@UMMHS@AlliesWhiteboard@@@std@@@std@@ABEABV?$allocator@UMMHS@AlliesWhiteboard@@@2@XZ 10034950 f i whiteboard.obj
 0001:00033970       ?_Getal@?$vector@PAVGraphicElement@@V?$allocator@PAVGraphicElement@@@std@@@std@@AAEAAV?$allocator@PAVGraphicElement@@@2@XZ 10034970 f i whiteboard.obj
 0001:00033990       ?_Getblock@?$_Deque_val@U?$_Deque_simple_types@PAVGraphicElement@@@std@@@std@@QBEII@Z 10034990 f i whiteboard.obj
 0001:000339b0       ?_Getblock@?$_Deque_val@U?$_Deque_simple_types@UMMHS@AlliesWhiteboard@@@std@@@std@@QBEII@Z 100349b0 f i whiteboard.obj
 0001:000339d0       ?_Getblock@?$deque@PAVGraphicElement@@V?$allocator@PAVGraphicElement@@@std@@@std@@ABEII@Z 100349d0 f i whiteboard.obj
 0001:000339f0       ?_Getblock@?$deque@UMMHS@AlliesWhiteboard@@V?$allocator@UMMHS@AlliesWhiteboard@@@std@@@std@@ABEII@Z 100349f0 f i whiteboard.obj
 0001:00033a10       ?_Growmap@?$deque@PAVGraphicElement@@V?$allocator@PAVGraphicElement@@@std@@@std@@AAEXI@Z 10034a10 f i whiteboard.obj
 0001:00033c50       ?_Growmap@?$deque@UMMHS@AlliesWhiteboard@@V?$allocator@UMMHS@AlliesWhiteboard@@@std@@@std@@AAEXI@Z 10034c50 f i whiteboard.obj
 0001:00033e80       ?_Map@?$deque@PAVGraphicElement@@V?$allocator@PAVGraphicElement@@@std@@@std@@AAEAAPAPAPAVGraphicElement@@XZ 10034e80 f i whiteboard.obj
 0001:00033ea0       ?_Map@?$deque@UMMHS@AlliesWhiteboard@@V?$allocator@UMMHS@AlliesWhiteboard@@@std@@@std@@AAEAAPAPAUMMHS@AlliesWhiteboard@@XZ 10034ea0 f i whiteboard.obj
 0001:00033ec0       ?_Mapsize@?$deque@PAVGraphicElement@@V?$allocator@PAVGraphicElement@@@std@@@std@@AAEAAIXZ 10034ec0 f i whiteboard.obj
 0001:00033ee0       ?_Mapsize@?$deque@UMMHS@AlliesWhiteboard@@V?$allocator@UMMHS@AlliesWhiteboard@@@std@@@std@@AAEAAIXZ 10034ee0 f i whiteboard.obj
 0001:00033f00       ?_Myoff@?$deque@PAVGraphicElement@@V?$allocator@PAVGraphicElement@@@std@@@std@@AAEAAIXZ 10034f00 f i whiteboard.obj
 0001:00033f20       ?_Myoff@?$deque@UMMHS@AlliesWhiteboard@@V?$allocator@UMMHS@AlliesWhiteboard@@@std@@@std@@AAEAAIXZ 10034f20 f i whiteboard.obj
 0001:00033f40       ?_Mysize@?$deque@PAVGraphicElement@@V?$allocator@PAVGraphicElement@@@std@@@std@@AAEAAIXZ 10034f40 f i whiteboard.obj
 0001:00033f60       ?_Mysize@?$deque@PAVGraphicElement@@V?$allocator@PAVGraphicElement@@@std@@@std@@ABEABIXZ 10034f60 f i whiteboard.obj
 0001:00033f80       ?_Mysize@?$deque@UMMHS@AlliesWhiteboard@@V?$allocator@UMMHS@AlliesWhiteboard@@@std@@@std@@AAEAAIXZ 10034f80 f i whiteboard.obj
 0001:00033fa0       ?_Mysize@?$deque@UMMHS@AlliesWhiteboard@@V?$allocator@UMMHS@AlliesWhiteboard@@@std@@@std@@ABEABIXZ 10034fa0 f i whiteboard.obj
 0001:00033fc0       ?_Orphan_all@?$deque@PAVGraphicElement@@V?$allocator@PAVGraphicElement@@@std@@@std@@AAEXXZ 10034fc0 f i whiteboard.obj
 0001:00033fe0       ?_Orphan_all@?$deque@UMMHS@AlliesWhiteboard@@V?$allocator@UMMHS@AlliesWhiteboard@@@std@@@std@@AAEXXZ 10034fe0 f i whiteboard.obj
 0001:00034000       ?_Release@?$_Uninitialized_backout@PAPAPAVGraphicElement@@@std@@QAEPAPAPAVGraphicElement@@XZ 10035000 f i whiteboard.obj
 0001:00034020       ?_Release@?$_Uninitialized_backout@PAPAUMMHS@AlliesWhiteboard@@@std@@QAEPAPAUMMHS@AlliesWhiteboard@@XZ 10035020 f i whiteboard.obj
 0001:00034040       ?_Take_contents@?$_Vector_val@U?$_Simple_types@PAVGraphicElement@@@std@@@std@@QAEXAAV12@@Z 10035040 f i whiteboard.obj
 0001:000340a0       ?_Tidy@?$deque@PAVGraphicElement@@V?$allocator@PAVGraphicElement@@@std@@@std@@AAEXXZ 100350a0 f i whiteboard.obj
 0001:000341c0       ?_Tidy@?$deque@UMMHS@AlliesWhiteboard@@V?$allocator@UMMHS@AlliesWhiteboard@@@std@@@std@@AAEXXZ 100351c0 f i whiteboard.obj
 0001:000342e0       ?_Tidy@?$vector@PAVGraphicElement@@V?$allocator@PAVGraphicElement@@@std@@@std@@AAEXXZ 100352e0 f i whiteboard.obj
 0001:000343b0       ?_Unchecked_begin@?$deque@PAVGraphicElement@@V?$allocator@PAVGraphicElement@@@std@@@std@@QAE?AV?$_Deque_unchecked_iterator@V?$_Deque_val@U?$_Deque_simple_types@PAVGraphicElement@@@std@@@std@@@2@XZ 100353b0 f i whiteboard.obj
 0001:000343f0       ?_Unchecked_begin@?$deque@UMMHS@AlliesWhiteboard@@V?$allocator@UMMHS@AlliesWhiteboard@@@std@@@std@@QAE?AV?$_Deque_unchecked_iterator@V?$_Deque_val@U?$_Deque_simple_types@UMMHS@AlliesWhiteboard@@@std@@@std@@@2@XZ 100353f0 f i whiteboard.obj
 0001:00034430       ?_Unchecked_end@?$deque@UMMHS@AlliesWhiteboard@@V?$allocator@UMMHS@AlliesWhiteboard@@@std@@@std@@QAE?AV?$_Deque_unchecked_iterator@V?$_Deque_val@U?$_Deque_simple_types@UMMHS@AlliesWhiteboard@@@std@@@std@@@2@XZ 10035430 f i whiteboard.obj
 0001:00034470       ?_Xlen@?$deque@PAVGraphicElement@@V?$allocator@PAVGraphicElement@@@std@@@std@@ABEXXZ 10035470 f i whiteboard.obj
 0001:00034490       ?_Xlen@?$deque@UMMHS@AlliesWhiteboard@@V?$allocator@UMMHS@AlliesWhiteboard@@@std@@@std@@ABEXXZ 10035490 f i whiteboard.obj
 0001:000344b0       ?allocate@?$allocator@PAPAVGraphicElement@@@std@@QAEPAPAPAVGraphicElement@@I@Z 100354b0 f i whiteboard.obj
 0001:000344d0       ?allocate@?$allocator@PAUMMHS@AlliesWhiteboard@@@std@@QAEPAPAUMMHS@AlliesWhiteboard@@I@Z 100354d0 f i whiteboard.obj
 0001:000344f0       ?allocate@?$allocator@PAVGraphicElement@@@std@@QAEPAPAVGraphicElement@@I@Z 100354f0 f i whiteboard.obj
 0001:00034510       ?allocate@?$allocator@UMMHS@AlliesWhiteboard@@@std@@QAEPAUMMHS@AlliesWhiteboard@@I@Z 10035510 f i whiteboard.obj
 0001:00034530       ?back@?$deque@UMMHS@AlliesWhiteboard@@V?$allocator@UMMHS@AlliesWhiteboard@@@std@@@std@@QAEAAUMMHS@AlliesWhiteboard@@XZ 10035530 f i whiteboard.obj
 0001:00034590       ?clear@?$deque@UMMHS@AlliesWhiteboard@@V?$allocator@UMMHS@AlliesWhiteboard@@@std@@@std@@QAEXXZ 10035590 f i whiteboard.obj
 0001:000345b0       ?deallocate@?$allocator@PAPAVGraphicElement@@@std@@QAEXQAPAPAVGraphicElement@@I@Z 100355b0 f i whiteboard.obj
 0001:000345d0       ?deallocate@?$allocator@PAUMMHS@AlliesWhiteboard@@@std@@QAEXQAPAUMMHS@AlliesWhiteboard@@I@Z 100355d0 f i whiteboard.obj
 0001:000345f0       ?deallocate@?$allocator@PAVGraphicElement@@@std@@QAEXQAPAVGraphicElement@@I@Z 100355f0 f i whiteboard.obj
 0001:00034610       ?deallocate@?$allocator@UMMHS@AlliesWhiteboard@@@std@@QAEXQAUMMHS@AlliesWhiteboard@@I@Z 10035610 f i whiteboard.obj
 0001:00034630       ?empty@?$deque@PAVGraphicElement@@V?$allocator@PAVGraphicElement@@@std@@@std@@QBE_NXZ 10035630 f i whiteboard.obj
 0001:00034660       ?empty@?$deque@UMMHS@AlliesWhiteboard@@V?$allocator@UMMHS@AlliesWhiteboard@@@std@@@std@@QBE_NXZ 10035660 f i whiteboard.obj
 0001:00034690       ?front@?$deque@PAVGraphicElement@@V?$allocator@PAVGraphicElement@@@std@@@std@@QAEAAPAVGraphicElement@@XZ 10035690 f i whiteboard.obj
 0001:000346b0       ?max_size@?$_Default_allocator_traits@V?$allocator@PAVGraphicElement@@@std@@@std@@SGIABV?$allocator@PAVGraphicElement@@@2@@Z 100356b0 f i whiteboard.obj
 0001:000346c0       ?max_size@?$_Default_allocator_traits@V?$allocator@UMMHS@AlliesWhiteboard@@@std@@@std@@SGIABV?$allocator@UMMHS@AlliesWhiteboard@@@2@@Z 100356c0 f i whiteboard.obj
 0001:000346d0       ?max_size@?$deque@PAVGraphicElement@@V?$allocator@PAVGraphicElement@@@std@@@std@@QBEIXZ 100356d0 f i whiteboard.obj
 0001:00034710       ?max_size@?$deque@UMMHS@AlliesWhiteboard@@V?$allocator@UMMHS@AlliesWhiteboard@@@std@@@std@@QBEIXZ 10035710 f i whiteboard.obj
 0001:00034750       ?pop_back@?$deque@PAVGraphicElement@@V?$allocator@PAVGraphicElement@@@std@@@std@@QAEXXZ 10035750 f i whiteboard.obj
 0001:00034820       ?pop_back@?$deque@UMMHS@AlliesWhiteboard@@V?$allocator@UMMHS@AlliesWhiteboard@@@std@@@std@@QAEXXZ 10035820 f i whiteboard.obj
 0001:000348f0       ?pop_front@?$deque@PAVGraphicElement@@V?$allocator@PAVGraphicElement@@@std@@@std@@QAEXXZ 100358f0 f i whiteboard.obj
 0001:000349d0       ?push_back@?$deque@PAVGraphicElement@@V?$allocator@PAVGraphicElement@@@std@@@std@@QAEX$$QAPAVGraphicElement@@@Z 100359d0 f i whiteboard.obj
 0001:00034a00       ?push_front@?$deque@UMMHS@AlliesWhiteboard@@V?$allocator@UMMHS@AlliesWhiteboard@@@std@@@std@@QAEXABUMMHS@AlliesWhiteboard@@@Z 10035a00 f i whiteboard.obj
 0001:00034a20       ?size@?$deque@PAVGraphicElement@@V?$allocator@PAVGraphicElement@@@std@@@std@@QBEIXZ 10035a20 f i whiteboard.obj
 0001:00034a40       ?size@?$deque@UMMHS@AlliesWhiteboard@@V?$allocator@UMMHS@AlliesWhiteboard@@@std@@@std@@QBEIXZ 10035a40 f i whiteboard.obj
 0001:00034a60       ?size@?$vector@PAVGraphicElement@@V?$allocator@PAVGraphicElement@@@std@@@std@@QBEIXZ 10035a60 f i whiteboard.obj
 0001:00034a90       ??0PCX@@QAE@XZ             10035a90 f   PCX.obj
 0001:00034ad0       ??1PCX@@QAE@XZ             10035ad0 f   PCX.obj
 0001:00034b40       ?CopyPalette@PCX@@QAEXPAUtagPALETTEENTRY@@@Z 10035b40 f   PCX.obj
 0001:00034ba0       ?Erase@PCX@@QAEXXZ         10035ba0 f   PCX.obj
 0001:00034be0       ?Height@PCX@@QAEJXZ        10035be0 f   PCX.obj
 0001:00034c00       ?Load24@PCX@@QAEHPBD@Z     10035c00 f   PCX.obj
 0001:00034df0       ?Load@PCX@@QAEHPBDH@Z      10035df0 f   PCX.obj
 0001:00035150       ?NewBuffer@PCX@@QAEPAEFF@Z 10036150 f   PCX.obj
 0001:000351b0       ?ReadLine24@PCX@@AAEPAEPAEKF@Z 100361b0 f   PCX.obj
 0001:000352a0       ?Save@PCX@@QAEHPBD@Z       100362a0 f   PCX.obj
 0001:000355c0       ?SetBuffer@PCX@@QAEPAEPAE@Z 100365c0 f   PCX.obj
 0001:000355f0       ?SetPalette@PCX@@QAEXPAUtagPALETTEENTRY@@@Z 100365f0 f   PCX.obj
 0001:00035630       ?Width@PCX@@QAEJXZ         10036630 f   PCX.obj
 0001:00035640       ?WriteLine@PCX@@AAEPAEPAEK@Z 10036640 f   PCX.obj
 0001:000357c0       ?CreateSurfPCXResource@@YGPAUIDirectDrawSurface@@GH@Z 100367c0 f   pcxread.obj
 0001:000359c0       ?PCX2BitMap@@YGXPAEPAUpcx_picture_typ@@J@Z 100369c0 f   pcxread.obj
 0001:00035bb0       ?RestoreFromPCX@@YGXGPAUIDirectDrawSurface@@@Z 10036bb0 f   pcxread.obj
 0001:00035d40       ?RestoreFromPCXFile@@YGXPADPAUIDirectDrawSurface@@@Z 10036d40 f   pcxread.obj
 0001:00035f20       ?strrchr@@YAPADQADH@Z      10036f20 f i etc.obj
 0001:00035f40       _CalcCRC@8                 10036f40 f   etc.obj
 0001:00035fe0       _GetMinValidLenWithMatchOpcode@8 10036fe0 f   etc.obj
 0001:00036020       _GetOpCodeSize@4           10037020 f   etc.obj
 0001:000362c0       _MemWriteWithBackup@16     100372c0 f   etc.obj
 0001:000363b0       _RegReadData@24            100373b0 f   etc.obj
 0001:00036440       _RegReadDword@16           10037440 f   etc.obj
 0001:00036460       _RegReadStr@20             10037460 f   etc.obj
 0001:00036490       _RegWriteData@24           10037490 f   etc.obj
 0001:00036520       _RegWriteDword@16          10037520 f   etc.obj
 0001:00036540       _RegWriteStr@20            10037540 f   etc.obj
 0001:00036570       _X86RedirectOpcodeToNewBase@16 10037570 f   etc.obj
 0001:00036950       _X86ShallToRedirect@20     10037950 f   etc.obj
 0001:00036c30       _clean_remark@8            10037c30 f   etc.obj
 0001:00036c80       _duplicate_str@4           10037c80 f   etc.obj
 0001:00036ce0       _getDBCSlen@4              10037ce0 f   etc.obj
 0001:00036d50       _memfind@24                10037d50 f   etc.obj
 0001:00036ec0       _trim_crlf_@4              10037ec0 f   etc.obj
 0001:00036fc0       _vkToStr@12                10037fc0 f   etc.obj
 0001:00038060       ??0SingleHook@@QAE@IKHPAE@Z 10039060 f   Hook.obj
 0001:000380a0       ??0SingleHook@@QAE@PAEKH0@Z 100390a0 f   Hook.obj
 0001:000380e0       ??0SingleHook@@QAE@XZ      100390e0 f   Hook.obj
 0001:00038110       ??1SingleHook@@QAE@XZ      10039110 f   Hook.obj
 0001:000381b0       ?AddrToHook@SingleHook@@UAEPAXPAX@Z 100391b0 f   Hook.obj
 0001:000381d0       ?AddrToHook@SingleHook@@UAEQAXXZ 100391d0 f   Hook.obj
 0001:000381f0       ?AddrToRtn@SingleHook@@QAEPAXXZ 100391f0 f   Hook.obj
 0001:00038210       ?Hook@SingleHook@@UAEXXZ   10039210 f   Hook.obj
 0001:00038250       ?InitHookClass@SingleHook@@UAEXPAEKH0@Z 10039250 f   Hook.obj
 0001:000383d0       ?LenToHook@SingleHook@@UAEKK@Z 100393d0 f   Hook.obj
 0001:000383f0       ?ThisHookMode@SingleHook@@UAE?BHXZ 100393f0 f   Hook.obj
 0001:00038410       ?ThisHookMode@SingleHook@@UAEHH@Z 10039410 f   Hook.obj
 0001:00038430       ?UnHook@SingleHook@@UAEXXZ 10039430 f   Hook.obj
 0001:00038470       ?X86CurrentThreadStackBufferFixRtnAddr@@YGPAUtagInlineX86StackBuffer@@PAPAU1@@Z 10039470 f   InlineHook.obj
 0001:00038520       ?X86CurrentThreadStackBuffer@@YGPAUtagInlineX86StackBuffer@@PAPAU1@@Z 10039520 f   InlineHook.obj
 0001:000385b0       ??0InlineSingleHook@@QAE@IKHP6GHPAUtagInlineX86StackBuffer@@@Z@Z 100395b0 f   InlineHook.obj
 0001:00038640       ??0InlineSingleHook@@QAE@IKHPAX@Z 10039640 f   InlineHook.obj
 0001:000386d0       ??0InlineSingleHook@@QAE@XZ 100396d0 f   InlineHook.obj
 0001:00038750       ??1InlineSingleHook@@QAE@XZ 10039750 f   InlineHook.obj
 0001:00038860       ?Hook@InlineSingleHook@@UAEXXZ 10039860 f   InlineHook.obj
 0001:00038940       ?InitHookClass@InlineSingleHook@@AAEXQAEKHPAX1@Z 10039940 f   InlineHook.obj
 0001:00038c60       ?NewBytesForInlineHook@InlineSingleHook@@QAEPAEPAE@Z 10039c60 f   InlineHook.obj
 0001:00038c90       ?RedirectedOpcodeInStub@InlineSingleHook@@QAEQAXXZ 10039c90 f   InlineHook.obj
 0001:00038cb0       ?RedirectedOrgOpcodes@InlineSingleHook@@QAEQAEXZ 10039cb0 f   InlineHook.obj
 0001:00038cd0       ?RtnAddrOfHook@InlineSingleHook@@QAEQAXXZ 10039cd0 f   InlineHook.obj
 0001:00038cf0       ?SetParamOfHook@InlineSingleHook@@QAEPAXPAX@Z 10039cf0 f   InlineHook.obj
 0001:00038d20       ?X86InlineHookRouter@@YGXXZ 10039d20 f   InlineHook.obj
 0001:00038df0       ??0CGraphic@@QAE@XZ        10039df0 f   cgraphic.obj
 0001:00038e10       ??1CGraphic@@QAE@XZ        10039e10 f   cgraphic.obj
 0001:00038e20       ?DrawRotateRect@CGraphic@@QAEXPAUIDirectDrawSurface@@HHH@Z 10039e20 f   cgraphic.obj
 0001:00039060       ?GenerateLookupTables@CGraphic@@AAEXXZ 1003a060 f   cgraphic.obj
 0001:000390f0       ??$?0V?$allocator@PAVGraphicElement@@@std@@PAPAVGraphicElement@@PAPAV2@PAPAV2@@?$_Compressed_pair@V?$allocator@PAVGraphicElement@@@std@@V?$_Vector_val@U?$_Simple_types@PAVGraphicElement@@@std@@@2@$00@std@@QAE@U_One_then_variadic_args_t@1@$$QAV?$allocator@PAVGraphicElement@@@1@$$QAPAPAVGraphicElement@@22@Z 1003a0f0 f i ElementHandler.obj
 0001:00039140       ??$_Construct_in_place@PAVGraphicElement@@ABQAV1@@std@@YGXAAPAVGraphicElement@@ABQAV1@@Z 1003a140 f i ElementHandler.obj
 0001:00039180       ??$_Copy_memmove@PAPAVGraphicElement@@PAPAV1@@std@@YGPAPAVGraphicElement@@PAPAV1@00@Z 1003a180 f i ElementHandler.obj
 0001:000391f0       ??$_Emplace_back@PAVGraphicElement@@@?$_Uninitialized_backout_al@V?$allocator@PAVGraphicElement@@@std@@@std@@QAEX$$QAPAVGraphicElement@@@Z 1003a1f0 f i ElementHandler.obj
 0001:00039230       ??$_Emplace_back_with_unused_capacity@ABQAVGraphicElement@@@?$vector@PAVGraphicElement@@V?$allocator@PAVGraphicElement@@@std@@@std@@AAEAAPAVGraphicElement@@ABQAV2@@Z 1003a230 f i ElementHandler.obj
 0001:00039290       ??$_Emplace_one_at_back@ABQAVGraphicElement@@@?$vector@PAVGraphicElement@@V?$allocator@PAVGraphicElement@@@std@@@std@@AAEAAPAVGraphicElement@@ABQAV2@@Z 1003a290 f i ElementHandler.obj
 0001:000392f0       ??$_Emplace_reallocate@ABQAVGraphicElement@@@?$vector@PAVGraphicElement@@V?$allocator@PAVGraphicElement@@@std@@@std@@AAEPAPAVGraphicElement@@QAPAV2@ABQAV2@@Z 1003a2f0 f i ElementHandler.obj
 0001:000394c0       ??$_Get_unwrapped@ABQAPAVGraphicElement@@@std@@YG?A_TABQAPAVGraphicElement@@@Z 1003a4c0 f i ElementHandler.obj
 0001:000394d0       ??$_Move_unchecked@PAPAVGraphicElement@@PAPAV1@@std@@YGPAPAVGraphicElement@@PAPAV1@00@Z 1003a4d0 f i ElementHandler.obj
 0001:00039520       ??$_To_address@PAPAVGraphicElement@@@std@@YG?A_PABQAPAVGraphicElement@@@Z 1003a520 f i ElementHandler.obj
 0001:00039530       ??$_Uninitialized_move@PAPAVGraphicElement@@V?$allocator@PAVGraphicElement@@@std@@@std@@YGPAPAVGraphicElement@@QAPAV1@0PAPAV1@AAV?$allocator@PAVGraphicElement@@@0@@Z 1003a530 f i ElementHandler.obj
 0001:00039610       ??$addressof@PAVGraphicElement@@@std@@YGPAPAVGraphicElement@@AAPAV1@@Z 1003a610 f i ElementHandler.obj
 0001:00039620       ??$addressof@V?$_Vector_val@U?$_Simple_types@PAVGraphicElement@@@std@@@std@@@std@@YGPAV?$_Vector_val@U?$_Simple_types@PAVGraphicElement@@@std@@@0@AAV10@@Z 1003a620 f i ElementHandler.obj
 0001:00039630       ??$construct@PAVGraphicElement@@ABQAV1@@?$_Default_allocator_traits@V?$allocator@PAVGraphicElement@@@std@@@std@@SGXAAV?$allocator@PAVGraphicElement@@@1@QAPAVGraphicElement@@ABQAV3@@Z 1003a630 f i ElementHandler.obj
 0001:00039670       ??$emplace_back@ABQAVGraphicElement@@@?$vector@PAVGraphicElement@@V?$allocator@PAVGraphicElement@@@std@@@std@@QAE?A_TABQAVGraphicElement@@@Z 1003a670 f i ElementHandler.obj
 0001:000396a0       ??$exchange@PAPAVGraphicElement@@$$T@std@@YGPAPAVGraphicElement@@AAPAPAV1@$$QA$$T@Z 1003a6a0 f i ElementHandler.obj
 0001:000396c0       ??$forward@ABQAVGraphicElement@@@std@@YGABQAVGraphicElement@@ABQAV1@@Z 1003a6c0 f i ElementHandler.obj
 0001:000396d0       ??$forward@PAPAVGraphicElement@@@std@@YG$$QAPAPAVGraphicElement@@AAPAPAV1@@Z 1003a6d0 f i ElementHandler.obj
 0001:000396e0       ??$forward@V?$allocator@PAVGraphicElement@@@std@@@std@@YG$$QAV?$allocator@PAVGraphicElement@@@0@AAV10@@Z 1003a6e0 f i ElementHandler.obj
 0001:000396f0       ??0?$_Uninitialized_backout_al@V?$allocator@PAVGraphicElement@@@std@@@std@@QAE@PAPAVGraphicElement@@AAV?$allocator@PAVGraphicElement@@@1@@Z 1003a6f0 f i ElementHandler.obj
 0001:00039720       ??0?$_Vector_const_iterator@V?$_Vector_val@U?$_Simple_types@PAVGraphicElement@@@std@@@std@@@std@@QAE@PAPAVGraphicElement@@PBU_Container_base0@1@@Z 1003a720 f i ElementHandler.obj
 0001:00039750       ??0?$_Vector_iterator@V?$_Vector_val@U?$_Simple_types@PAVGraphicElement@@@std@@@std@@@std@@QAE@PAPAVGraphicElement@@PBU_Container_base0@1@@Z 1003a750 f i ElementHandler.obj
 0001:00039770       ??0?$_Vector_val@U?$_Simple_types@PAVGraphicElement@@@std@@@std@@QAE@PAPAVGraphicElement@@00@Z 1003a770 f i ElementHandler.obj
 0001:000397a0       ??0?$vector@PAVGraphicElement@@V?$allocator@PAVGraphicElement@@@std@@@std@@QAE@$$QAV01@@Z 1003a7a0 f i ElementHandler.obj
 0001:00039840       ??0CElementHandler@@QAE@XZ 1003a840 f   ElementHandler.obj
 0001:00039880       ??1?$_Uninitialized_backout_al@V?$allocator@PAVGraphicElement@@@std@@@std@@QAE@XZ 1003a880 f i ElementHandler.obj
 0001:000398b0       ??1CElementHandler@@UAE@XZ 1003a8b0 f   ElementHandler.obj
 0001:00039a40       ??H?$_Vector_iterator@V?$_Vector_val@U?$_Simple_types@PAVGraphicElement@@@std@@@std@@@std@@QBE?AV01@H@Z 1003aa40 f i ElementHandler.obj
 0001:00039a70       ??Y?$_Vector_const_iterator@V?$_Vector_val@U?$_Simple_types@PAVGraphicElement@@@std@@@std@@@std@@QAEAAV01@H@Z 1003aa70 f i ElementHandler.obj
 0001:00039aa0       ??Y?$_Vector_iterator@V?$_Vector_val@U?$_Simple_types@PAVGraphicElement@@@std@@@std@@@std@@QAEAAV01@H@Z 1003aaa0 f i ElementHandler.obj
 0001:00039ac0       ??_ECElementHandler@@UAEPAXI@Z 1003aac0 f i ElementHandler.obj
 0001:00039ac0       ??_GCElementHandler@@UAEPAXI@Z 1003aac0 f i ElementHandler.obj
 0001:00039b00       ?AddElement@CElementHandler@@QAEXPAVGraphicElement@@@Z 1003ab00 f   ElementHandler.obj
 0001:00039b50       ?DeleteBetween@CElementHandler@@QAEXHHHH@Z 1003ab50 f   ElementHandler.obj
 0001:00039e30       ?DeleteOn@CElementHandler@@QAEXHH@Z 1003ae30 f   ElementHandler.obj
 0001:00039e70       ?GetArea@CElementHandler@@QAE?AV?$vector@PAVGraphicElement@@V?$allocator@PAVGraphicElement@@@std@@@std@@HHHH@Z 1003ae70 f   ElementHandler.obj
 0001:0003a0d0       ?GetClosestElement@CElementHandler@@QAEPAVGraphicElement@@HH@Z 1003b0d0 f   ElementHandler.obj
 0001:0003a0e0       ?MoveTextElement@CElementHandler@@QAEPAVGraphicElement@@PAV2@HH@Z 1003b0e0 f   ElementHandler.obj
 0001:0003a300       ?_Calculate_growth@?$vector@PAVGraphicElement@@V?$allocator@PAVGraphicElement@@@std@@@std@@ABEII@Z 1003b300 f i ElementHandler.obj
 0001:0003a360       ?_Change_array@?$vector@PAVGraphicElement@@V?$allocator@PAVGraphicElement@@@std@@@std@@AAEXQAPAVGraphicElement@@II@Z 1003b360 f i ElementHandler.obj
 0001:0003a400       ?_Get_first@?$_Compressed_pair@V?$allocator@PAVGraphicElement@@@std@@V?$_Vector_val@U?$_Simple_types@PAVGraphicElement@@@std@@@2@$00@std@@QBEABV?$allocator@PAVGraphicElement@@@2@XZ 1003b400 f i ElementHandler.obj
 0001:0003a410       ?_Getal@?$vector@PAVGraphicElement@@V?$allocator@PAVGraphicElement@@@std@@@std@@ABEABV?$allocator@PAVGraphicElement@@@2@XZ 1003b410 f i ElementHandler.obj
 0001:0003a430       ?_Orphan_range@?$vector@PAVGraphicElement@@V?$allocator@PAVGraphicElement@@@std@@@std@@ABEXPAPAVGraphicElement@@0@Z 1003b430 f i ElementHandler.obj
 0001:0003a440       ?_Release@?$_Uninitialized_backout_al@V?$allocator@PAVGraphicElement@@@std@@@std@@QAEPAPAVGraphicElement@@XZ 1003b440 f i ElementHandler.obj
 0001:0003a460       ?_Verify_offset@?$_Vector_const_iterator@V?$_Vector_val@U?$_Simple_types@PAVGraphicElement@@@std@@@std@@@std@@QBEXH@Z 1003b460 f i ElementHandler.obj
 0001:0003a470       ?_Xlength@?$vector@PAVGraphicElement@@V?$allocator@PAVGraphicElement@@@std@@@std@@CGXXZ 1003b470 f i ElementHandler.obj
 0001:0003a480       ?back@?$vector@PAVGraphicElement@@V?$allocator@PAVGraphicElement@@@std@@@std@@QAEAAPAVGraphicElement@@XZ 1003b480 f i ElementHandler.obj
 0001:0003a4b0       ?begin@?$vector@PAVGraphicElement@@V?$allocator@PAVGraphicElement@@@std@@@std@@QAE?AV?$_Vector_iterator@V?$_Vector_val@U?$_Simple_types@PAVGraphicElement@@@std@@@std@@@2@XZ 1003b4b0 f i ElementHandler.obj
 0001:0003a4e0       ?capacity@?$vector@PAVGraphicElement@@V?$allocator@PAVGraphicElement@@@std@@@std@@QBEIXZ 1003b4e0 f i ElementHandler.obj
 0001:0003a510       ?empty@?$vector@PAVGraphicElement@@V?$allocator@PAVGraphicElement@@@std@@@std@@QBE_NXZ 1003b510 f i ElementHandler.obj
 0001:0003a550       ?erase@?$vector@PAVGraphicElement@@V?$allocator@PAVGraphicElement@@@std@@@std@@QAE?AV?$_Vector_iterator@V?$_Vector_val@U?$_Simple_types@PAVGraphicElement@@@std@@@std@@@2@V?$_Vector_const_iterator@V?$_Vector_val@U?$_Simple_types@PAVGraphicElement@@@std@@@std@@@2@@Z 1003b550 f i ElementHandler.obj
 0001:0003a610       ?max_size@?$vector@PAVGraphicElement@@V?$allocator@PAVGraphicElement@@@std@@@std@@QBEIXZ 1003b610 f i ElementHandler.obj
 0001:0003a650       ?pop_back@?$vector@PAVGraphicElement@@V?$allocator@PAVGraphicElement@@@std@@@std@@QAEXXZ 1003b650 f i ElementHandler.obj
 0001:0003a6e0       ?push_back@?$vector@PAVGraphicElement@@V?$allocator@PAVGraphicElement@@@std@@@std@@QAEXABQAVGraphicElement@@@Z 1003b6e0 f i ElementHandler.obj
 0001:0003a6f9       _ImmIsIME@4                1003b6f9 f   imm32:IMM32.dll
 0001:0003a6ff       _ImmAssociateContext@8     1003b6ff f   imm32:IMM32.dll
 0001:0003a705       _ImmGetCompositionStringA@16 1003b705 f   imm32:IMM32.dll
 0001:0003a70b       _ImmGetCandidateListA@16   1003b70b f   imm32:IMM32.dll
 0001:0003a711       _ImmEscapeA@16             1003b711 f   imm32:IMM32.dll
 0001:0003a717       _ImmNotifyIME@16           1003b717 f   imm32:IMM32.dll
 0001:0003a71d       _GetAsyncKeyState@4        1003b71d f   user32:USER32.dll
 0001:0003a723       _GetCursorPos@4            1003b723 f   user32:USER32.dll
 0001:0003a729       _SetWindowLongA@12         1003b729 f   user32:USER32.dll
 0001:0003a72f       _GetKeyState@4             1003b72f f   user32:USER32.dll
 0001:0003a735       _wsprintfA                 1003b735 f   user32:USER32.dll
 0001:0003a73b       _GetForegroundWindow@0     1003b73b f   user32:USER32.dll
 0001:0003a741       _GetClassNameA@12          1003b741 f   user32:USER32.dll
 0001:0003a747       _GetKeyboardLayout@4       1003b747 f   user32:USER32.dll
 0001:0003a74d       _SendMessageA@16           1003b74d f   user32:USER32.dll
 0001:0003a753       _DrawTextExA@24            1003b753 f   user32:USER32.dll
 0001:0003a759       _FillRect@12               1003b759 f   user32:USER32.dll
 0001:0003a75f       _CloseHandle@4             1003b75f f   kernel32:KERNEL32.dll
 0001:0003a765       _ReleaseMutex@4            1003b765 f   kernel32:KERNEL32.dll
 0001:0003a76b       _WaitForSingleObject@8     1003b76b f   kernel32:KERNEL32.dll
 0001:0003a771       _CreateMutexA@12           1003b771 f   kernel32:KERNEL32.dll
 0001:0003a777       _GetTickCount@0            1003b777 f   kernel32:KERNEL32.dll
 0001:0003a77d       _CreateFileA@28            1003b77d f   kernel32:KERNEL32.dll
 0001:0003a783       _ReadFile@20               1003b783 f   kernel32:KERNEL32.dll
 0001:0003a789       _GetLastError@0            1003b789 f   kernel32:KERNEL32.dll
 0001:0003a78f       _GetCurrentProcess@0       1003b78f f   kernel32:KERNEL32.dll
 0001:0003a795       _GetSystemDirectoryA@8     1003b795 f   kernel32:KERNEL32.dll
 0001:0003a79b       _WriteProcessMemory@20     1003b79b f   kernel32:KERNEL32.dll
 0001:0003a7a1       _MapViewOfFile@20          1003b7a1 f   kernel32:KERNEL32.dll
 0001:0003a7a7       _UnmapViewOfFile@4         1003b7a7 f   kernel32:KERNEL32.dll
 0001:0003a7ad       _FreeLibrary@4             1003b7ad f   kernel32:KERNEL32.dll
 0001:0003a7b3       _GetProcAddress@8          1003b7b3 f   kernel32:KERNEL32.dll
 0001:0003a7b9       _LoadLibraryA@4            1003b7b9 f   kernel32:KERNEL32.dll
 0001:0003a7bf       _lstrcpyA@8                1003b7bf f   kernel32:KERNEL32.dll
 0001:0003a7c5       _lstrcatA@8                1003b7c5 f   kernel32:KERNEL32.dll
 0001:0003a7cb       _CreateFileMappingA@24     1003b7cb f   kernel32:KERNEL32.dll
 0001:0003a7d1       _ReleaseSemaphore@12       1003b7d1 f   kernel32:KERNEL32.dll
 0001:0003a7d7       _CreateSemaphoreA@16       1003b7d7 f   kernel32:KERNEL32.dll
 0001:0003a7dd       _Sleep@4                   1003b7dd f   kernel32:KERNEL32.dll
 0001:0003a7e3       _CreateThread@24           1003b7e3 f   kernel32:KERNEL32.dll
 0001:0003a7e9       _VirtualProtect@16         1003b7e9 f   kernel32:KERNEL32.dll
 0001:0003a7ef       _CreateDirectoryA@8        1003b7ef f   kernel32:KERNEL32.dll
 0001:0003a7f5       _FindClose@4               1003b7f5 f   kernel32:KERNEL32.dll
 0001:0003a7fb       _FindFirstFileA@8          1003b7fb f   kernel32:KERNEL32.dll
 0001:0003a801       _GetFileSize@8             1003b801 f   kernel32:KERNEL32.dll
 0001:0003a807       _GetModuleHandleA@4        1003b807 f   kernel32:KERNEL32.dll
 0001:0003a80d       _lstrcmpiA@8               1003b80d f   kernel32:KERNEL32.dll
 0001:0003a813       _GetModuleFileNameA@12     1003b813 f   kernel32:KERNEL32.dll
 0001:0003a819       _GetPrivateProfileIntA@16  1003b819 f   kernel32:KERNEL32.dll
 0001:0003a81f       _SetFilePointer@16         1003b81f f   kernel32:KERNEL32.dll
 0001:0003a825       _WriteFile@20              1003b825 f   kernel32:KERNEL32.dll
 0001:0003a82b       _AddVectoredExceptionHandler@8 1003b82b f   kernel32:KERNEL32.dll
 0001:0003a831       _RemoveVectoredExceptionHandler@4 1003b831 f   kernel32:KERNEL32.dll
 0001:0003a837       _EnterCriticalSection@4    1003b837 f   kernel32:KERNEL32.dll
 0001:0003a83d       _LeaveCriticalSection@4    1003b83d f   kernel32:KERNEL32.dll
 0001:0003a843       _GetTempPathA@8            1003b843 f   kernel32:KERNEL32.dll
 0001:0003a849       _GetTempFileNameA@16       1003b849 f   kernel32:KERNEL32.dll
 0001:0003a84f       _GetPrivateProfileStringA@24 1003b84f f   kernel32:KERNEL32.dll
 0001:0003a855       _WritePrivateProfileStringA@16 1003b855 f   kernel32:KERNEL32.dll
 0001:0003a85b       _IsDBCSLeadByte@4          1003b85b f   kernel32:KERNEL32.dll
 0001:0003a861       _GetCurrentDirectoryA@8    1003b861 f   kernel32:KERNEL32.dll
 0001:0003a867       _GetFileAttributesA@4      1003b867 f   kernel32:KERNEL32.dll
 0001:0003a86d       _GetPrivateProfileSectionA@16 1003b86d f   kernel32:KERNEL32.dll
 0001:0003a873       _LoadResource@8            1003b873 f   kernel32:KERNEL32.dll
 0001:0003a879       _LockResource@4            1003b879 f   kernel32:KERNEL32.dll
 0001:0003a87f       _FindResourceA@12          1003b87f f   kernel32:KERNEL32.dll
 0001:0003a885       _IsBadWritePtr@8           1003b885 f   kernel32:KERNEL32.dll
 0001:0003a88b       _GetCurrentThreadId@0      1003b88b f   kernel32:KERNEL32.dll
 0001:0003a891       _CreateDCA@16              1003b891 f   gdi32:GDI32.dll
 0001:0003a897       _CreateDIBitmap@24         1003b897 f   gdi32:GDI32.dll
 0001:0003a89d       _CreatePalette@4           1003b89d f   gdi32:GDI32.dll
 0001:0003a8a3       _DeleteDC@4                1003b8a3 f   gdi32:GDI32.dll
 0001:0003a8a9       _DeleteObject@4            1003b8a9 f   gdi32:GDI32.dll
 0001:0003a8af       _GetDIBits@28              1003b8af f   gdi32:GDI32.dll
 0001:0003a8b5       _SelectObject@8            1003b8b5 f   gdi32:GDI32.dll
 0001:0003a8bb       _SelectPalette@12          1003b8bb f   gdi32:GDI32.dll
 0001:0003a8c1       _TextOutA@20               1003b8c1 f   gdi32:GDI32.dll
 0001:0003a8c7       _CreateFontA@56            1003b8c7 f   gdi32:GDI32.dll
 0001:0003a8cd       _GetTextExtentPoint32A@16  1003b8cd f   gdi32:GDI32.dll
 0001:0003a8d3       _SetBkColor@8              1003b8d3 f   gdi32:GDI32.dll
 0001:0003a8d9       _SetTextColor@8            1003b8d9 f   gdi32:GDI32.dll
 0001:0003a8df       _RegCloseKey@4             1003b8df f   advapi32:ADVAPI32.dll
 0001:0003a8e5       _RegCreateKeyExA@36        1003b8e5 f   advapi32:ADVAPI32.dll
 0001:0003a8eb       _RegQueryValueExA@24       1003b8eb f   advapi32:ADVAPI32.dll
 0001:0003a8f1       _RegSetValueExA@24         1003b8f1 f   advapi32:ADVAPI32.dll
 0001:0003a8f7       ??2@YAPAXI@Z               1003b8f7 f   LIBCMT:new_scalar.obj
 0001:0003a927       ??3@YAXPAXI@Z              1003b927 f   LIBCMT:delete_scalar_size.obj
 0001:0003a935       @__security_check_cookie@4 1003b935 f   LIBCMT:secchk.obj
 0001:0003a943       ??_U@YAPAXI@Z              1003b943 f   LIBCMT:new_array.obj
 0001:0003a94c       ??1type_info@@UAE@XZ       1003b94c f   LIBCMT:std_type_info_static.obj
 0001:0003a953       ??_Etype_info@@UAEPAXI@Z   1003b953 f i LIBCMT:std_type_info_static.obj
 0001:0003a953       ??_Gtype_info@@UAEPAXI@Z   1003b953 f i LIBCMT:std_type_info_static.obj
 0001:0003a976       ??_V@YAXPAX@Z              1003b976 f   LIBCMT:delete_array.obj
 0001:0003a97b       ___raise_securityfailure   1003b97b f   LIBCMT:gs_report.obj
 0001:0003a9a3       ___report_gsfailure        1003b9a3 f   LIBCMT:gs_report.obj
 0001:0003aa9d       ___report_rangecheckfailure 1003ba9d f   LIBCMT:gs_report.obj
 0001:0003aaa9       ___report_securityfailure  1003baa9 f   LIBCMT:gs_report.obj
 0001:0003ab78       ___report_securityfailureEx 1003bb78 f   LIBCMT:gs_report.obj
 0001:0003ac90       __ftoui3                   1003bc90 f   LIBCMT:ftol3.obj
 0001:0003ace0       __ftoul3                   1003bce0 f   LIBCMT:ftol3.obj
 0001:0003ad50       __ftoul3_legacy            1003bd50 f   LIBCMT:ftol3.obj
 0001:0003ad80       __ftol3                    1003bd80 f   LIBCMT:ftol3.obj
 0001:0003adf0       __dtoui3                   1003bdf0 f   LIBCMT:ftol3.obj
 0001:0003ae70       __dtoul3                   1003be70 f   LIBCMT:ftol3.obj
 0001:0003af20       __dtoul3_legacy            1003bf20 f   LIBCMT:ftol3.obj
 0001:0003af50       __dtol3                    1003bf50 f   LIBCMT:ftol3.obj
 0001:0003b000       __ultod3                   1003c000 f   LIBCMT:ftol3.obj
 0001:0003b060       __ltod3                    1003c060 f   LIBCMT:ftol3.obj
 0001:0003b0a1       ??3@YAXPAX@Z               1003c0a1 f   LIBCMT:delete_scalar.obj
 0001:0003b0a6       ??_L@YGXPAXIHP6EX0@Z1@Z    1003c0a6 f   LIBCMT:ehvecctr.obj
 0001:0003b0ab       ??_L@YGXPAXIIP6EX0@Z1@Z    1003c0ab f   LIBCMT:ehvecctr.obj
 0001:0003b11f       ??_M@YGXPAXIHP6EX0@Z@Z     1003c11f f   LIBCMT:ehvecdtr.obj
 0001:0003b124       ??_M@YGXPAXIIP6EX0@Z@Z     1003c124 f   LIBCMT:ehvecdtr.obj
 0001:0003b1d8       ?__ArrayUnwind@@YGXPAXIIP6EX0@Z@Z 1003c1d8 f   LIBCMT:ehvecdtr.obj
 0001:0003b270       __ftol2_sse_excpt          1003c270 f   LIBCMT:ftol2.obj
 0001:0003b280       __ftol2_sse                1003c280 f   LIBCMT:ftol2.obj
 0001:0003b290       __ftoi2                    1003c290 f   LIBCMT:ftol2.obj
 0001:0003b310       __ftoui2                   1003c310 f   LIBCMT:ftol2.obj
 0001:0003b3c0       __ftol2                    1003c3c0 f   LIBCMT:ftol2.obj
 0001:0003b470       __ftoul2                   1003c470 f   LIBCMT:ftol2.obj
 0001:0003b530       __ftoul2_legacy            1003c530 f   LIBCMT:ftol2.obj
 0001:0003b891       __CRT_INIT@12              1003c891 f   LIBCMT:dll_dllmain.obj
 0001:0003b89a       __DllMainCRTStartup@12     1003c89a f   LIBCMT:dll_dllmain.obj
 0001:0003b8bd       ??0bad_alloc@std@@QAE@XZ   1003c8bd f i LIBCMT:throw_bad_alloc.obj
 0001:0003b8d5       ?__scrt_throw_std_bad_alloc@@YAXXZ 1003c8d5 f   LIBCMT:throw_bad_alloc.obj
 0001:0003b8f2       ?__scrt_throw_std_bad_array_new_length@@YAXXZ 1003c8f2 f   LIBCMT:throw_bad_alloc.obj
 0001:0003b90f       ___isa_available_init      1003c90f f   LIBCMT:cpu_disp.obj
 0001:0003baf0       __SEH_prolog4              1003caf0 f   LIBCMT:sehprolg4.obj
 0001:0003bb40       __SEH_epilog4              1003cb40 f   LIBCMT:sehprolg4.obj
 0001:0003bb54       @_guard_check_icall_nop@4  1003cb54 f i LIBCMT:guard_support.obj
 0001:0003bb57       _ReadNoFence               1003cb57 f i LIBCMT:guard_support.obj
 0001:0003bb61       _ReadPointerNoFence        1003cb61 f i LIBCMT:guard_support.obj
 0001:0003bb6b       ___castguard_check_failure_debugbreak 1003cb6b f i LIBCMT:guard_support.obj
 0001:0003bb86       ___castguard_check_failure_fastfail 1003cb86 f i LIBCMT:guard_support.obj
 0001:0003bba5       ___castguard_check_failure_nop 1003cba5 f i LIBCMT:guard_support.obj
 0001:0003bba8       ___castguard_check_failure_os_handled 1003cba8 f i LIBCMT:guard_support.obj
 0001:0003bc04       ___castguard_slow_path_check_debugbreak 1003cc04 f i LIBCMT:guard_support.obj
 0001:0003bc31       ___castguard_slow_path_check_fastfail 1003cc31 f i LIBCMT:guard_support.obj
 0001:0003bc62       ___castguard_slow_path_check_nop 1003cc62 f i LIBCMT:guard_support.obj
 0001:0003bc65       ___castguard_slow_path_check_os_handled 1003cc65 f i LIBCMT:guard_support.obj
 0001:0003bcc0       __guard_icall_checks_enforced 1003ccc0 f i LIBCMT:guard_support.obj
 0001:0003bd1f       ___security_init_cookie    1003cd1f f   LIBCMT:gs_support.obj
 0001:0003bd6a       ?__scrt_initialize_type_info@@YAXXZ 1003cd6a f   LIBCMT:tncleanup.obj
 0001:0003bd76       ?__scrt_uninitialize_type_info@@YAXXZ 1003cd76 f   LIBCMT:tncleanup.obj
 0001:0003bd82       ___local_stdio_scanf_options 1003cd82 f i LIBCMT:default_local_stdio_options.obj
 0001:0003bd88       ___scrt_initialize_default_local_stdio_options 1003cd88 f   LIBCMT:default_local_stdio_options.obj
 0001:0003bda5       ?configure_argv@__scrt_narrow_argv_policy@@SAHXZ 1003cda5 f i LIBCMT:utility.obj
 0001:0003bdf6       ?initialize_environment@__scrt_narrow_environment_policy@@SAHXZ 1003cdf6 f i LIBCMT:utility.obj
 0001:0003be2e       _NtCurrentTeb              1003ce2e f i LIBCMT:utility.obj
 0001:0003be35       ___scrt_acquire_startup_lock 1003ce35 f   LIBCMT:utility.obj
 0001:0003be67       ___scrt_dllmain_after_initialize_c 1003ce67 f   LIBCMT:utility.obj
 0001:0003be92       ___scrt_dllmain_before_initialize_c 1003ce92 f   LIBCMT:utility.obj
 0001:0003bea0       ___scrt_dllmain_crt_thread_attach 1003cea0 f   LIBCMT:utility.obj
 0001:0003bebf       ___scrt_dllmain_crt_thread_detach 1003cebf f   LIBCMT:utility.obj
 0001:0003becc       ___scrt_dllmain_exception_filter 1003cecc f   LIBCMT:utility.obj
 0001:0003bf00       ___scrt_dllmain_uninitialize_c 1003cf00 f   LIBCMT:utility.obj
 0001:0003bf23       ___scrt_dllmain_uninitialize_critical 1003cf23 f   LIBCMT:utility.obj
 0001:0003bf30       ___scrt_initialize_crt     1003cf30 f   LIBCMT:utility.obj
 0001:0003bf69       ___scrt_initialize_onexit_tables 1003cf69 f   LIBCMT:utility.obj
 0001:0003bff0       ___scrt_is_nonwritable_in_current_image 1003cff0 f   LIBCMT:utility.obj
 0001:0003c084       ___scrt_release_startup_lock 1003d084 f   LIBCMT:utility.obj
 0001:0003c0a1       ___scrt_uninitialize_crt   1003d0a1 f   LIBCMT:utility.obj
 0001:0003c0c9       __onexit                   1003d0c9 f   LIBCMT:utility.obj
 0001:0003c0f6       _at_quick_exit             1003d0f6 f   LIBCMT:utility.obj
 0001:0003c119       _atexit                    1003d119 f   LIBCMT:utility.obj
 0001:0003c12e       ___scrt_get_dyn_tls_init_callback 1003d12e f   LIBCMT:dyn_tls_init.obj
 0001:0003c134       ___scrt_fastfail           1003d134 f   LIBCMT:utility_desktop.obj
 0001:0003c24f       ___scrt_get_show_window_mode 1003d24f f   LIBCMT:utility_desktop.obj
 0001:0003c280       ___scrt_initialize_mta     1003d280 f   LIBCMT:utility_desktop.obj
 0001:0003c285       ___scrt_initialize_winrt   1003d285 f   LIBCMT:utility_desktop.obj
 0001:0003c288       ___scrt_is_managed_app     1003d288 f   LIBCMT:utility_desktop.obj
 0001:0003c2ca       ___scrt_set_unhandled_exception_filter 1003d2ca f   LIBCMT:utility_desktop.obj
 0001:0003c2d6       ___scrt_exe_initialize_mta 1003d2d6 f   LIBCMT:utility_desktop.obj
 0001:0003c2d6       ___scrt_stub_for_initialize_mta 1003d2d6 f   LIBCMT:utility_desktop.obj
 0001:0003c2d9       ___scrt_unhandled_exception_filter@4 1003d2d9 f   LIBCMT:utility_desktop.obj
 0001:0003c32f       __crt_debugger_hook        1003d32f f   LIBCMT:utility_desktop.obj
 0001:0003c337       __RTC_Initialize           1003d337 f   LIBCMT:initsect.obj
 0001:0003c363       __RTC_Terminate            1003d363 f   LIBCMT:initsect.obj
 0001:0003c38f       __get_startup_argv_mode    1003d38f f   LIBCMT:argv_mode.obj
 0001:0003c393       ___scrt_is_ucrt_dll_in_use 1003d393 f   LIBCMT:ucrt_detection.obj
 0001:0003c39f       ??0bad_function_call@std@@QAE@ABV01@@Z 1003d39f f i libcpmt:xthrow.obj
 0001:0003c3ba       ??0bad_function_call@std@@QAE@XZ 1003d3ba f i libcpmt:xthrow.obj
 0001:0003c3cb       ??0exception@std@@QAE@QBD@Z 1003d3cb f i libcpmt:xthrow.obj
 0001:0003c400       ??0exception@std@@QAE@XZ   1003d400 f i libcpmt:xthrow.obj
 0001:0003c411       ??0invalid_argument@std@@QAE@ABV01@@Z 1003d411 f i libcpmt:xthrow.obj
 0001:0003c42c       ??0invalid_argument@std@@QAE@PBD@Z 1003d42c f i libcpmt:xthrow.obj
 0001:0003c44b       ??0length_error@std@@QAE@ABV01@@Z 1003d44b f i libcpmt:xthrow.obj
 0001:0003c466       ??0length_error@std@@QAE@PBD@Z 1003d466 f i libcpmt:xthrow.obj
 0001:0003c485       ??0logic_error@std@@QAE@ABV01@@Z 1003d485 f i libcpmt:xthrow.obj
 0001:0003c4a0       ??0logic_error@std@@QAE@PBD@Z 1003d4a0 f i libcpmt:xthrow.obj
 0001:0003c4bf       ??0out_of_range@std@@QAE@ABV01@@Z 1003d4bf f i libcpmt:xthrow.obj
 0001:0003c4da       ??0out_of_range@std@@QAE@PBD@Z 1003d4da f i libcpmt:xthrow.obj
 0001:0003c4f9       ??0overflow_error@std@@QAE@ABV01@@Z 1003d4f9 f i libcpmt:xthrow.obj
 0001:0003c514       ??0overflow_error@std@@QAE@PBD@Z 1003d514 f i libcpmt:xthrow.obj
 0001:0003c533       ??0regex_error@std@@QAE@ABV01@@Z 1003d533 f i libcpmt:xthrow.obj
 0001:0003c557       ??0regex_error@std@@QAE@W4error_type@regex_constants@1@@Z 1003d557 f i libcpmt:xthrow.obj
 0001:0003c585       ??0runtime_error@std@@QAE@ABV01@@Z 1003d585 f i libcpmt:xthrow.obj
 0001:0003c5a0       ??0runtime_error@std@@QAE@PBD@Z 1003d5a0 f i libcpmt:xthrow.obj
 0001:0003c5bf       ??1bad_function_call@std@@UAE@XZ 1003d5bf f i libcpmt:xthrow.obj
 0001:0003c5d0       ??1invalid_argument@std@@UAE@XZ 1003d5d0 f i libcpmt:xthrow.obj
 0001:0003c5e1       ??1length_error@std@@UAE@XZ 1003d5e1 f i libcpmt:xthrow.obj
 0001:0003c5f2       ??1logic_error@std@@UAE@XZ 1003d5f2 f i libcpmt:xthrow.obj
 0001:0003c603       ??1out_of_range@std@@UAE@XZ 1003d603 f i libcpmt:xthrow.obj
 0001:0003c614       ??1overflow_error@std@@UAE@XZ 1003d614 f i libcpmt:xthrow.obj
 0001:0003c625       ??1regex_error@std@@UAE@XZ 1003d625 f i libcpmt:xthrow.obj
 0001:0003c636       ??1runtime_error@std@@UAE@XZ 1003d636 f i libcpmt:xthrow.obj
 0001:0003c647       ??_Ebad_function_call@std@@UAEPAXI@Z 1003d647 f i libcpmt:xthrow.obj
 0001:0003c647       ??_Gbad_function_call@std@@UAEPAXI@Z 1003d647 f i libcpmt:xthrow.obj
 0001:0003c674       ??_Einvalid_argument@std@@UAEPAXI@Z 1003d674 f i libcpmt:xthrow.obj
 0001:0003c674       ??_Ginvalid_argument@std@@UAEPAXI@Z 1003d674 f i libcpmt:xthrow.obj
 0001:0003c6a1       ??_Elength_error@std@@UAEPAXI@Z 1003d6a1 f i libcpmt:xthrow.obj
 0001:0003c6a1       ??_Glength_error@std@@UAEPAXI@Z 1003d6a1 f i libcpmt:xthrow.obj
 0001:0003c6ce       ??_Elogic_error@std@@UAEPAXI@Z 1003d6ce f i libcpmt:xthrow.obj
 0001:0003c6ce       ??_Glogic_error@std@@UAEPAXI@Z 1003d6ce f i libcpmt:xthrow.obj
 0001:0003c6fb       ??_Eout_of_range@std@@UAEPAXI@Z 1003d6fb f i libcpmt:xthrow.obj
 0001:0003c6fb       ??_Gout_of_range@std@@UAEPAXI@Z 1003d6fb f i libcpmt:xthrow.obj
 0001:0003c728       ??_Eoverflow_error@std@@UAEPAXI@Z 1003d728 f i libcpmt:xthrow.obj
 0001:0003c728       ??_Goverflow_error@std@@UAEPAXI@Z 1003d728 f i libcpmt:xthrow.obj
 0001:0003c755       ??_Eregex_error@std@@UAEPAXI@Z 1003d755 f i libcpmt:xthrow.obj
 0001:0003c755       ??_Gregex_error@std@@UAEPAXI@Z 1003d755 f i libcpmt:xthrow.obj
 0001:0003c782       ??_Eruntime_error@std@@UAEPAXI@Z 1003d782 f i libcpmt:xthrow.obj
 0001:0003c782       ??_Gruntime_error@std@@UAEPAXI@Z 1003d782 f i libcpmt:xthrow.obj
 0001:0003c7af       ?_Stringify@regex_error@std@@CAPBDW4error_type@regex_constants@2@@Z 1003d7af f i libcpmt:xthrow.obj
 0001:0003c86f       ?_Xbad_alloc@std@@YAXXZ    1003d86f f   libcpmt:xthrow.obj
 0001:0003c88c       ?_Xbad_function_call@std@@YAXXZ 1003d88c f   libcpmt:xthrow.obj
 0001:0003c8a9       ?_Xinvalid_argument@std@@YAXPBD@Z 1003d8a9 f   libcpmt:xthrow.obj
 0001:0003c8c9       ?_Xlength_error@std@@YAXPBD@Z 1003d8c9 f   libcpmt:xthrow.obj
 0001:0003c8e9       ?_Xout_of_range@std@@YAXPBD@Z 1003d8e9 f   libcpmt:xthrow.obj
 0001:0003c909       ?_Xoverflow_error@std@@YAXPBD@Z 1003d909 f   libcpmt:xthrow.obj
 0001:0003c929       ?_Xregex_error@std@@YAXW4error_type@regex_constants@1@@Z 1003d929 f   libcpmt:xthrow.obj
 0001:0003c949       ?_Xruntime_error@std@@YAXPBD@Z 1003d949 f   libcpmt:xthrow.obj
 0001:0003c969       ?what@bad_function_call@std@@UBEPBDXZ 1003d969 f i libcpmt:xthrow.obj
 0001:0003c970       _memcpy                    1003d970 f   libvcruntime:memcpy.obj
 0001:0003cef0       _memset                    1003def0 f   libvcruntime:memset.obj
 0001:0003d04a       ??$?0AAViterator@TryBlockMap@__FrameHandler3@@AAV012@$0A@@?$pair@Viterator@TryBlockMap@__FrameHandler3@@V123@@std@@QAE@AAViterator@TryBlockMap@__FrameHandler3@@0@Z 1003e04a f i libvcruntime:trnsctrl.obj
 0001:0003d06e       ??$forward@AAViterator@TryBlockMap@__FrameHandler3@@@std@@YAAAViterator@TryBlockMap@__FrameHandler3@@AAV123@@Z 1003e06e f i libvcruntime:trnsctrl.obj
 0001:0003d076       ??0iterator@TryBlockMap@__FrameHandler3@@QAE@AAV12@I@Z 1003e076 f i libvcruntime:trnsctrl.obj
 0001:0003d08a       ?GetRangeOfTrysToCheck@__FrameHandler3@@SA?AU?$pair@Viterator@TryBlockMap@__FrameHandler3@@V123@@std@@AAVTryBlockMap@1@HPAXPBU_s_FuncInfo@@H@Z 1003e08a f   libvcruntime:trnsctrl.obj
 0001:0003d0fa       ?_CallCatchBlock2@@YAPAXPAUEHRegistrationNode@@PBU_s_FuncInfo@@PAXHK@Z 1003e0fa f   libvcruntime:trnsctrl.obj
 0001:0003d157       ?_CallSETranslator@@YAHPAUEHExceptionRecord@@PAUEHRegistrationNode@@PAX2PBU_s_FuncInfo@@H1@Z 1003e157 f   libvcruntime:trnsctrl.obj
 0001:0003d24d       ?_JumpToContinuation@@YGXPAXPAUEHRegistrationNode@@@Z 1003e24d f   libvcruntime:trnsctrl.obj
 0001:0003d27d       ?_UnwindNestedFrames@@YGXPAUEHRegistrationNode@@PAUEHExceptionRecord@@@Z 1003e27d f   libvcruntime:trnsctrl.obj
 0001:0003d2d0       __CatchGuardHandler        1003e2d0 f   libvcruntime:trnsctrl.obj
 0001:0003d301       __CreateFrameInfo          1003e301 f   libvcruntime:trnsctrl.obj
 0001:0003d325       __FindAndUnlinkFrame       1003e325 f   libvcruntime:trnsctrl.obj
 0001:0003d36d       __TranslatorGuardHandler   1003e36d f   libvcruntime:trnsctrl.obj
 0001:0003d40a       ___CxxFrameHandler         1003e40a f   libvcruntime:trnsctrl.obj
 0001:0003d440       ___CxxFrameHandler2        1003e440 f   libvcruntime:trnsctrl.obj
 0001:0003d476       ___CxxFrameHandler3        1003e476 f   libvcruntime:trnsctrl.obj
 0001:0003d4ac       ___CxxLongjmpUnwind@4      1003e4ac f   libvcruntime:trnsctrl.obj
 0001:0003d4e0       _memmove                   1003e4e0 f   libvcruntime:memmove.obj
 0001:0003da54       ??$?RD@__crt_public_free_policy@@QBEXQBD@Z 1003ea54 f i libvcruntime:std_exception.obj
 0001:0003da64       ??0?$__crt_unique_heap_ptr@DU__crt_public_free_policy@@@@QAE@QAD@Z 1003ea64 f i libvcruntime:std_exception.obj
 0001:0003da72       ??1?$__crt_unique_heap_ptr@DU__crt_public_free_policy@@@@QAE@XZ 1003ea72 f i libvcruntime:std_exception.obj
 0001:0003da82       ??B?$__crt_unique_heap_ptr@DU__crt_public_free_policy@@@@QBE_NXZ 1003ea82 f i libvcruntime:std_exception.obj
 0001:0003da89       ?detach@?$__crt_unique_heap_ptr@DU__crt_public_free_policy@@@@QAEPADXZ 1003ea89 f i libvcruntime:std_exception.obj
 0001:0003da8f       ?get@?$__crt_unique_heap_ptr@DU__crt_public_free_policy@@@@QBEPADXZ 1003ea8f f i libvcruntime:std_exception.obj
 0001:0003da92       ?is_valid@?$__crt_unique_heap_ptr@DU__crt_public_free_policy@@@@QBE_NXZ 1003ea92 f i libvcruntime:std_exception.obj
 0001:0003da99       ?release@?$__crt_unique_heap_ptr@DU__crt_public_free_policy@@@@QAEXXZ 1003ea99 f i libvcruntime:std_exception.obj
 0001:0003daa9       ___std_exception_copy      1003eaa9 f   libvcruntime:std_exception.obj
 0001:0003db0c       ___std_exception_destroy   1003eb0c f   libvcruntime:std_exception.obj
 0001:0003db2b       __CxxThrowException@8      1003eb2b f   libvcruntime:throw.obj
 0001:0003dbe0       __except_handler4          1003ebe0 f   libvcruntime:chandler4.obj
 0001:0003dd40       _strchr                    1003ed40 f   libvcruntime:strchr.obj
 0001:0003ddae       ___from_strstr_to_strchr   1003edae     libvcruntime:strchr.obj
 0001:0003de70       _strstr                    1003ee70 f   libvcruntime:strstr.obj
 0001:0003e1f8       _memcmp                    1003f1f8 f   libvcruntime:memcmp.obj
 0001:00040e60       _strrchr                   10041e60 f   libvcruntime:strrchr.obj
 0001:00040f97       ___DestructExceptionObject 10041f97 f   libvcruntime:ehhelpers.obj
 0001:00041038       ?_CallMemberFunction0@@YGXQAX0@Z 10042038 f i libvcruntime:ehhelpers.obj
 0001:0004109d       ?raw_name@type_info@@QBEPBDXZ 1004209d f i libvcruntime:ehhelpers.obj
 0001:000410a1       __IsExceptionObjectToBeDestroyed 100420a1 f   libvcruntime:ehhelpers.obj
 0001:000410c7       __SetWinRTOutOfMemoryExceptionCallback 100420c7 f   libvcruntime:ehhelpers.obj
 0001:000410d4       ___AdjustPointer           100420d4 f   libvcruntime:ehhelpers.obj
 0001:000410f9       ___FrameUnwindFilter       100420f9 f   libvcruntime:ehhelpers.obj
 0001:0004114f       ___GetPlatformExceptionInfo 1004214f f   libvcruntime:ehhelpers.obj
 0001:0004119b       ___current_exception       1004219b f   libvcruntime:ehhelpers.obj
 0001:000411a4       ___current_exception_context 100421a4 f   libvcruntime:ehhelpers.obj
 0001:000411ad       ___processing_throw        100421ad f   libvcruntime:ehhelpers.obj
 0001:000411b6       ___std_terminate           100421b6 f   libvcruntime:ehhelpers.obj
 0001:000411bb       __is_exception_typeof      100421bb f   libvcruntime:ehhelpers.obj
 0001:0004126d       ??$?RD@__crt_internal_free_policy@@QBEXQBD@Z 1004226d f i libvcruntime:std_type_info.obj
 0001:0004127d       ??$?RX@__crt_internal_free_policy@@QBEXQBX@Z 1004227d f i libvcruntime:std_type_info.obj
 0001:0004128d       ??$__crt_interlocked_compare_exchange_pointer@$$CBDPAD$$T@@YAPBDPDSBDQAD$$T@Z 1004228d f i libvcruntime:std_type_info.obj
 0001:0004129f       ??$__crt_interlocked_read_pointer@$$CBD@@YAPBDPDSBD@Z 1004229f f i libvcruntime:std_type_info.obj
 0001:000412aa       ??0?$__crt_unique_heap_ptr@DU__crt_internal_free_policy@@@@QAE@QAD@Z 100422aa f i libvcruntime:std_type_info.obj
 0001:000412b8       ??0?$__crt_unique_heap_ptr@XU__crt_internal_free_policy@@@@QAE@QAX@Z 100422b8 f i libvcruntime:std_type_info.obj
 0001:000412c6       ??1?$__crt_unique_heap_ptr@DU__crt_internal_free_policy@@@@QAE@XZ 100422c6 f i libvcruntime:std_type_info.obj
 0001:000412d6       ??1?$__crt_unique_heap_ptr@XU__crt_internal_free_policy@@@@QAE@XZ 100422d6 f i libvcruntime:std_type_info.obj
 0001:000412e6       ??B?$__crt_unique_heap_ptr@DU__crt_internal_free_policy@@@@QBE_NXZ 100422e6 f i libvcruntime:std_type_info.obj
 0001:000412ed       ??B?$__crt_unique_heap_ptr@XU__crt_internal_free_policy@@@@QBE_NXZ 100422ed f i libvcruntime:std_type_info.obj
 0001:00041320       ?__crt_interlocked_read_32@@YAHPDH@Z 10042320 f i libvcruntime:std_type_info.obj
 0001:0004132b       ?detach@?$__crt_unique_heap_ptr@XU__crt_internal_free_policy@@@@QAEPAXXZ 1004232b f i libvcruntime:std_type_info.obj
 0001:00041331       ?get@?$__crt_unique_heap_ptr@DU__crt_internal_free_policy@@@@QBEPADXZ 10042331 f i libvcruntime:std_type_info.obj
 0001:00041334       ?get@?$__crt_unique_heap_ptr@XU__crt_internal_free_policy@@@@QBEPAXXZ 10042334 f i libvcruntime:std_type_info.obj
 0001:00041337       ?is_valid@?$__crt_unique_heap_ptr@DU__crt_internal_free_policy@@@@QBE_NXZ 10042337 f i libvcruntime:std_type_info.obj
 0001:0004133e       ?is_valid@?$__crt_unique_heap_ptr@XU__crt_internal_free_policy@@@@QBE_NXZ 1004233e f i libvcruntime:std_type_info.obj
 0001:00041345       ?release@?$__crt_unique_heap_ptr@DU__crt_internal_free_policy@@@@QAEXXZ 10042345 f i libvcruntime:std_type_info.obj
 0001:00041355       ?release@?$__crt_unique_heap_ptr@XU__crt_internal_free_policy@@@@QAEXXZ 10042355 f i libvcruntime:std_type_info.obj
 0001:00041365       ___std_type_info_compare   10042365 f   libvcruntime:std_type_info.obj
 0001:000413a1       ___std_type_info_destroy_list 100423a1 f   libvcruntime:std_type_info.obj
 0001:000413c4       ___std_type_info_hash      100423c4 f   libvcruntime:std_type_info.obj
 0001:000413ea       ___std_type_info_name      100423ea f   libvcruntime:std_type_info.obj
 0001:000414b0       ___vcrt_initialize         100424b0 f   libvcruntime:initialization.obj
 0001:000414cf       ___vcrt_thread_attach      100424cf f   libvcruntime:initialization.obj
 0001:000414da       ___vcrt_thread_detach      100424da f   libvcruntime:initialization.obj
 0001:000414e5       ___vcrt_uninitialize       100424e5 f   libvcruntime:initialization.obj
 0001:000414fc       ___vcrt_uninitialize_critical 100424fc f   libvcruntime:initialization.obj
 0001:00041507       ??$?RU__vcrt_ptd@@@__crt_internal_free_policy@@QBEXQBU__vcrt_ptd@@@Z 10042507 f i libvcruntime:per_thread_data.obj
 0001:00041517       ??0?$__crt_unique_heap_ptr@U__vcrt_ptd@@U__crt_internal_free_policy@@@@QAE@QAU__vcrt_ptd@@@Z 10042517 f i libvcruntime:per_thread_data.obj
 0001:00041534       ??1?$__crt_unique_heap_ptr@U__vcrt_ptd@@U__crt_internal_free_policy@@@@QAE@XZ 10042534 f i libvcruntime:per_thread_data.obj
 0001:0004154d       ??B?$__crt_unique_heap_ptr@U__vcrt_ptd@@U__crt_internal_free_policy@@@@QBE_NXZ 1004254d f i libvcruntime:per_thread_data.obj
 0001:00041554       ?detach@?$__crt_unique_heap_ptr@U__vcrt_ptd@@U__crt_internal_free_policy@@@@QAEPAU__vcrt_ptd@@XZ 10042554 f i libvcruntime:per_thread_data.obj
 0001:0004155a       ?get@?$__crt_unique_heap_ptr@U__vcrt_ptd@@U__crt_internal_free_policy@@@@QBEPAU__vcrt_ptd@@XZ 1004255a f i libvcruntime:per_thread_data.obj
 0001:0004155d       ?is_valid@?$__crt_unique_heap_ptr@U__vcrt_ptd@@U__crt_internal_free_policy@@@@QBE_NXZ 1004255d f i libvcruntime:per_thread_data.obj
 0001:00041564       ?release@?$__crt_unique_heap_ptr@U__vcrt_ptd@@U__crt_internal_free_policy@@@@QAEXXZ 10042564 f i libvcruntime:per_thread_data.obj
 0001:0004158e       ___vcrt_freefls@4          1004258e f   libvcruntime:per_thread_data.obj
 0001:000415aa       ___vcrt_freeptd            100425aa f   libvcruntime:per_thread_data.obj
 0001:000415e0       ___vcrt_getptd             100425e0 f   libvcruntime:per_thread_data.obj
 0001:000415ee       ___vcrt_getptd_noexit      100425ee f   libvcruntime:per_thread_data.obj
 0001:00041680       ___vcrt_getptd_noinit      10042680 f   libvcruntime:per_thread_data.obj
 0001:000416b7       ___vcrt_initialize_ptd     100426b7 f   libvcruntime:per_thread_data.obj
 0001:000416ea       ___vcrt_uninitialize_ptd   100426ea f   libvcruntime:per_thread_data.obj
 0001:00041e37       ??$TypeMatchHelper@V__FrameHandler3@@@@YAHPBU_s_HandlerType@@PBU_s_CatchableType@@PBU_s_ThrowInfo@@@Z 10042e37 f i libvcruntime:frame.obj
 0001:00041ec5       ??$__InternalCxxFrameHandler@V__FrameHandler3@@@@YA?AW4_EXCEPTION_DISPOSITION@@PAUEHExceptionRecord@@PAUEHRegistrationNode@@PAU_CONTEXT@@PAXPBU_s_FuncInfo@@H1E@Z 10042ec5 f i libvcruntime:frame.obj
 0001:00041fc7       ??0HandlerMap@__FrameHandler3@@QAE@PBU_s_TryBlockMapEntry@@II@Z 10042fc7 f i libvcruntime:frame.obj
 0001:00041fde       ??0TryBlockMap@__FrameHandler3@@QAE@PBU_s_FuncInfo@@I@Z 10042fde f i libvcruntime:frame.obj
 0001:00041ff2       ??0bad_exception@std@@QAE@ABV01@@Z 10042ff2 f i libvcruntime:frame.obj
 0001:0004200d       ??0bad_exception@std@@QAE@XZ 1004300d f i libvcruntime:frame.obj
 0001:00042025       ??0iterator@HandlerMap@__FrameHandler3@@QAE@AAV12@I@Z 10043025 f i libvcruntime:frame.obj
 0001:00042039       ??1bad_exception@std@@UAE@XZ 10043039 f i libvcruntime:frame.obj
 0001:0004204a       ??8iterator@HandlerMap@__FrameHandler3@@QBE_NABV012@@Z 1004304a f i libvcruntime:frame.obj
 0001:0004205d       ??8type_info@@QBE_NABV0@@Z 1004305d f i libvcruntime:frame.obj
 0001:0004207c       ??9iterator@HandlerMap@__FrameHandler3@@QBE_NABV012@@Z 1004307c f i libvcruntime:frame.obj
 0001:0004208f       ??Diterator@HandlerMap@__FrameHandler3@@QAE?BU_s_HandlerType@@XZ 1004308f f i libvcruntime:frame.obj
 0001:000420ae       ??Diterator@TryBlockMap@__FrameHandler3@@QAE?BU_s_TryBlockMapEntry@@XZ 100430ae f i libvcruntime:frame.obj
 0001:000420d0       ??Eiterator@HandlerMap@__FrameHandler3@@QAEAAV012@XZ 100430d0 f i libvcruntime:frame.obj
 0001:000420d6       ??Eiterator@TryBlockMap@__FrameHandler3@@QAEAAV012@XZ 100430d6 f i libvcruntime:frame.obj
 0001:000420dc       ??Miterator@TryBlockMap@__FrameHandler3@@QBE_NABV012@@Z 100430dc f i libvcruntime:frame.obj
 0001:000420ef       ??_Ebad_exception@std@@UAEPAXI@Z 100430ef f i libvcruntime:frame.obj
 0001:000420ef       ??_Gbad_exception@std@@UAEPAXI@Z 100430ef f i libvcruntime:frame.obj
 0001:0004211c       ?BuildCatchObject@__FrameHandler3@@SAXPAUEHExceptionRecord@@PAXPBU_s_HandlerType@@PBU_s_CatchableType@@@Z 1004311c f   libvcruntime:frame.obj
 0001:00042121       ?BuildCatchObjectHelper@__FrameHandler3@@SAHPAUEHExceptionRecord@@PAXPBU_s_HandlerType@@PBU_s_CatchableType@@@Z 10043121 f   libvcruntime:frame.obj
 0001:00042382       ?FrameUnwindToEmptyState@__FrameHandler3@@SAXPAUEHRegistrationNode@@PAXPBU_s_FuncInfo@@@Z 10043382 f   libvcruntime:frame.obj
 0001:0004239a       ?FrameUnwindToState@__FrameHandler3@@SAXPAUEHRegistrationNode@@PAXPBU_s_FuncInfo@@H@Z 1004339a f   libvcruntime:frame.obj
 0001:00042482       ?GetMaxState@__FrameHandler3@@SAHPAXPBU_s_FuncInfo@@@Z 10043482 f i libvcruntime:frame.obj
 0001:00042560       ?TypeMatch@__FrameHandler3@@SAHPBU_s_HandlerType@@PBU_s_CatchableType@@PBU_s_ThrowInfo@@@Z 10043560 f   libvcruntime:frame.obj
 0001:00042569       ?_CallMemberFunction1@@YGXQAX00@Z 10043569 f i libvcruntime:frame.obj
 0001:00042579       ?_CallMemberFunction2@@YGXQAX00H@Z 10043579 f i libvcruntime:frame.obj
 0001:0004258c       ?begin@HandlerMap@__FrameHandler3@@QAE?AViterator@12@XZ 1004358c f i libvcruntime:frame.obj
 0001:0004259c       ?end@HandlerMap@__FrameHandler3@@QAE?AViterator@12@XZ 1004359c f i libvcruntime:frame.obj
 0001:000425ad       ?getESTypes@__FrameHandler3@@SAPBU_s_ESTypeList@@PBU_s_FuncInfo@@@Z 100435ad f i libvcruntime:frame.obj
 0001:000425b8       ?getLastEntry@HandlerMap@__FrameHandler3@@QAEPBU_s_HandlerType@@XZ 100435b8 f i libvcruntime:frame.obj
 0001:000425c6       ?getMagicNum@__FrameHandler3@@SAIPBU_s_FuncInfo@@@Z 100435c6 f i libvcruntime:frame.obj
 0001:000425d5       ?getNumTryBlocks@TryBlockMap@__FrameHandler3@@QAEIXZ 100435d5 f i libvcruntime:frame.obj
 0001:000425db       ?isEHs@__FrameHandler3@@SA_NPBU_s_FuncInfo@@@Z 100435db f i libvcruntime:frame.obj
 0001:000425e8       ?isNoExcept@__FrameHandler3@@SA_NPBU_s_FuncInfo@@@Z 100435e8 f i libvcruntime:frame.obj
 0001:000425f8       ___BuildCatchObject        100435f8 f   libvcruntime:frame.obj
 0001:000425fd       ___BuildCatchObjectHelper  100435fd f   libvcruntime:frame.obj
 0001:00042606       ___TypeMatch               10043606 f   libvcruntime:frame.obj
 0001:0004260f       ___vcrt_EncodePointer      1004360f f i libvcruntime:frame.obj
 0001:00042620       __CallSettingFrame@12      10043620 f   libvcruntime:lowhelpr.obj
 0001:00042647       __NLG_Return               10043647     libvcruntime:lowhelpr.obj
 0001:00042677       ___except_validate_context_record 10043677 f   libvcruntime:jbcxrval.obj
 0001:000426a7       ___except_validate_jump_buffer 100436a7 f   libvcruntime:jbcxrval.obj
 0001:000426d4       ___except_validate_jump_buffer_common 100436d4 f i libvcruntime:jbcxrval.obj
 0001:00042710       __local_unwind4            10043710 f   libvcruntime:exsup4.obj
 0001:00042800       __seh_longjmp_unwind4@4    10043800 f   libvcruntime:exsup4.obj
 0001:00042830       @_EH4_CallFilterFunc@8     10043830 f   libvcruntime:exsup4.obj
 0001:00042850       @_EH4_TransferToHandler@8  10043850 f   libvcruntime:exsup4.obj
 0001:00042870       @_EH4_GlobalUnwind2@8      10043870 f   libvcruntime:exsup4.obj
 0001:00042890       @_EH4_LocalUnwind@16       10043890 f   libvcruntime:exsup4.obj
 0001:000428a7       ??$?0$00@DName@@QAE@PBDU?$StringLifeSelector@$00@@@Z 100438a7 f i libvcruntime:undname.obj
 0001:000428da       ??$?0$00@pcharNode@@QAE@PBDHU?$StringLifeSelector@$00@@@Z 100438da f i libvcruntime:undname.obj
 0001:000428f5       ??$?0$01@DName@@QAE@PBDU?$StringLifeSelector@$01@@@Z 100438f5 f i libvcruntime:undname.obj
 0001:00042928       ??$?0$01@pcharNode@@QAE@PBDHU?$StringLifeSelector@$01@@@Z 10043928 f i libvcruntime:undname.obj
 0001:00042968       ??$?0$0A@@DName@@QAE@PBDU?$StringLifeSelector@$0A@@@@Z 10043968 f i libvcruntime:undname.obj
 0001:0004299b       ??$?0$0A@@pcharNode@@QAE@PBDHU?$StringLifeSelector@$0A@@@@Z 1004399b f i libvcruntime:undname.obj
 0001:000429db       ??$?0_K$0A@@?$optional@_K@std@@QAE@$$QA_K@Z 100439db f i libvcruntime:undname.obj
 0001:000429f5       ??$?0_K@?$_Optional_construct_base@_K@std@@QAE@Uin_place_t@1@$$QA_K@Z 100439f5 f i libvcruntime:undname.obj
 0001:00042a0f       ??$?0_K@?$_Optional_destruct_base@_K$00@std@@QAE@Uin_place_t@1@$$QA_K@Z 10043a0f f i libvcruntime:undname.obj
 0001:00042a29       ??$append@VDNameNode@@@DName@@AAEXPBVDNameNode@@@Z 10043a29 f i libvcruntime:undname.obj
 0001:00042a6a       ??$append@VDNameStatusNode@@@DName@@AAEXPBVDNameStatusNode@@@Z 10043a6a f i libvcruntime:undname.obj
 0001:00042aab       ??$append@VcharNode@@@DName@@AAEXPBVcharNode@@@Z 10043aab f i libvcruntime:undname.obj
 0001:00042aec       ??$append@VpDNameNode@@@DName@@AAEXPBVpDNameNode@@@Z 10043aec f i libvcruntime:undname.obj
 0001:00042b2d       ??$append@VpcharNode@@@DName@@AAEXPBVpcharNode@@@Z 10043b2d f i libvcruntime:undname.obj
 0001:00042b6e       ??$doPchar@$00@DName@@AAEXPBDH@Z 10043b6e f i libvcruntime:undname.obj
 0001:00042bd9       ??$doPchar@$01@DName@@AAEXPBDH@Z 10043bd9 f i libvcruntime:undname.obj
 0001:00042c4a       ??$doPchar@$0A@@DName@@AAEXPBDH@Z 10043c4a f i libvcruntime:undname.obj
 0001:00042cbb       ??$forward@_K@std@@YA$$QA_KAA_K@Z 10043cbb f i libvcruntime:undname.obj
 0001:00042d7f       ??$size@D$04@std@@YAIAAY04$$CBD@Z 10043d7f f i libvcruntime:undname.obj
 0001:00042d83       ??0?$_Optional_construct_base@_K@std@@QAE@XZ 10043d83 f i libvcruntime:undname.obj
 0001:00042d8a       ??0?$_Optional_destruct_base@_K$00@std@@QAE@XZ 10043d8a f i libvcruntime:undname.obj
 0001:00042d91       ??0?$optional@_K@std@@QAE@XZ 10043d91 f i libvcruntime:undname.obj
 0001:00042d98       ??0Block@_HeapManager@@QAE@XZ 10043d98 f i libvcruntime:undname.obj
 0001:00042d9e       ??0DName@@QAE@AAPBDD@Z     10043d9e f   libvcruntime:undname.obj
 0001:00042e1e       ??0DName@@QAE@ABUStringLiteral@@@Z 10043e1e f   libvcruntime:undname.obj
 0001:00042e45       ??0DName@@QAE@ABV0@@Z      10043e45 f i libvcruntime:undname.obj
 0001:00042e5b       ??0DName@@QAE@D@Z          10043e5b f   libvcruntime:undname.obj
 0001:00042e77       ??0DName@@QAE@PAV0@@Z      10043e77 f   libvcruntime:undname.obj
 0001:00042ec0       ??0DName@@QAE@W4DNameStatus@@@Z 10043ec0 f   libvcruntime:undname.obj
 0001:00042f00       ??0DName@@QAE@XZ           10043f00 f i libvcruntime:undname.obj
 0001:00042f0a       ??0DName@@QAE@_J@Z         10043f0a f   libvcruntime:undname.obj
 0001:00042f9d       ??0DName@@QAE@_K@Z         10043f9d f   libvcruntime:undname.obj
 0001:0004300f       ??0DNameNode@@IAE@XZ       1004400f f i libvcruntime:undname.obj
 0001:00043018       ??0Replicator@@QAE@XZ      10044018 f i libvcruntime:undname.obj
 0001:00043027       ??0UnDecorator@@QAE@PBDP6APADJ@ZK@Z 10044027 f i libvcruntime:undname.obj
 0001:00043073       ??0_Nontrivial_dummy_type@std@@QAE@XZ 10044073 f i libvcruntime:undname.obj
 0001:00043076       ??0charNode@@QAE@D@Z       10044076 f i libvcruntime:undname.obj
 0001:0004308b       ??0pDNameNode@@QAE@PAVDName@@@Z 1004408b f   libvcruntime:undname.obj
 0001:000430b3       ??0pairNode@@QAE@PBVDNameNode@@0@Z 100440b3 f i libvcruntime:undname.obj
 0001:000430d9       ??2@YAPAXIAAV_HeapManager@@H@Z 100440d9 f   libvcruntime:undname.obj
 0001:000430f8       ??4DName@@QAEAAV0@ABUStringLiteral@@@Z 100440f8 f   libvcruntime:undname.obj
 0001:00043119       ??4DName@@QAEAAV0@ABV0@@Z  10044119 f   libvcruntime:undname.obj
 0001:0004312f       ??4DName@@QAEAAV0@D@Z      1004412f f i libvcruntime:undname.obj
 0001:0004314b       ??4DName@@QAEAAV0@PAV0@@Z  1004414b f   libvcruntime:undname.obj
 0001:0004318e       ??4DName@@QAEAAV0@W4DNameStatus@@@Z 1004418e f   libvcruntime:undname.obj
 0001:000431c0       ??AReplicator@@QBE?AVDName@@H@Z 100441c0 f   libvcruntime:undname.obj
 0001:000431fc       ??B?$optional@_K@std@@QBE_NXZ 100441fc f i libvcruntime:undname.obj
 0001:00043200       ??D?$_Optional_construct_base@_K@std@@QGAEAA_KXZ 10044200 f i libvcruntime:undname.obj
 0001:00043203       ??H@YA?AVDName@@ABUStringLiteral@@ABV0@@Z 10044203 f i libvcruntime:undname.obj
 0001:00043225       ??H@YA?AVDName@@DABV0@@Z   10044225 f i libvcruntime:undname.obj
 0001:00043250       ??H@YA?AVDName@@W4DNameStatus@@ABV0@@Z 10044250 f i libvcruntime:undname.obj
 0001:00043272       ??HDName@@QBE?AV0@ABUStringLiteral@@@Z 10044272 f   libvcruntime:undname.obj
 0001:00043294       ??HDName@@QBE?AV0@ABV0@@Z  10044294 f   libvcruntime:undname.obj
 0001:000432b6       ??HDName@@QBE?AV0@D@Z      100442b6 f   libvcruntime:undname.obj
 0001:000432d8       ??HDName@@QBE?AV0@PAV0@@Z  100442d8 f   libvcruntime:undname.obj
 0001:000432fa       ??HDName@@QBE?AV0@W4DNameStatus@@@Z 100442fa f   libvcruntime:undname.obj
 0001:0004331c       ??HStringLiteral@@QBE?AU0@H@Z 1004431c f i libvcruntime:undname.obj
 0001:00043336       ??YDName@@QAEAAV0@ABUStringLiteral@@@Z 10044336 f   libvcruntime:undname.obj
 0001:0004338e       ??YDName@@QAEAAV0@ABV0@@Z  1004438e f   libvcruntime:undname.obj
 0001:000433e5       ??YDName@@QAEAAV0@D@Z      100443e5 f   libvcruntime:undname.obj
 0001:0004343a       ??YDName@@QAEAAV0@PAV0@@Z  1004443a f   libvcruntime:undname.obj
 0001:0004349e       ??YDName@@QAEAAV0@W4DNameStatus@@@Z 1004449e f   libvcruntime:undname.obj
 0001:000434de       ??YReplicator@@QAEAAV0@ABVDName@@@Z 100444de f   libvcruntime:undname.obj
 0001:0004351e       ??_5DName@@QAEAAV0@ABV0@@Z 1004451e f   libvcruntime:undname.obj
 0001:0004353a       ??__K_l@@YA?AUStringLiteral@@PBDI@Z 1004453a f i libvcruntime:undname.obj
 0001:00043545       ?Constructor@_HeapManager@@QAEXP6APAXI@ZP6AXPAX@Z@Z 10044545 f i libvcruntime:undname.obj
 0001:00043562       ?Destructor@_HeapManager@@QAEXXZ 10044562 f i libvcruntime:undname.obj
 0001:000435a6       ?UScore@UnDecorator@@SA?AUStringLiteral@@W4Tokens@@@Z 100445a6 f   libvcruntime:undname.obj
 0001:000435cd       ?composeDeclaration@UnDecorator@@CA?AVDName@@ABV2@@Z 100445cd f i libvcruntime:undname.obj
 0001:000442c5       ?doAccessSpecifiers@UnDecorator@@SAHXZ 100452c5 f i libvcruntime:undname.obj
 0001:000442d3       ?doAllocationLanguage@UnDecorator@@SAHXZ 100452d3 f i libvcruntime:undname.obj
 0001:000442e1       ?doAllocationModel@UnDecorator@@SAHXZ 100452e1 f i libvcruntime:undname.obj
 0001:000442ef       ?doEcsu@UnDecorator@@SAHXZ 100452ef f i libvcruntime:undname.obj
 0001:000442fd       ?doEllipsis@UnDecorator@@SAHXZ 100452fd f i libvcruntime:undname.obj
 0001:0004430b       ?doFunctionReturns@UnDecorator@@SAHXZ 1004530b f i libvcruntime:undname.obj
 0001:00044319       ?doMSKeywords@UnDecorator@@SAHXZ 10045319 f i libvcruntime:undname.obj
 0001:00044326       ?doMemberTypes@UnDecorator@@SAHXZ 10045326 f i libvcruntime:undname.obj
 0001:00044334       ?doNameOnly@UnDecorator@@SAHXZ 10045334 f i libvcruntime:undname.obj
 0001:0004433f       ?doNoIdentCharCheck@UnDecorator@@SAHXZ 1004533f f i libvcruntime:undname.obj
 0001:0004434a       ?doPchar@DName@@AAEXD@Z    1004534a f   libvcruntime:undname.obj
 0001:00044382       ?doPtr64@UnDecorator@@SAHXZ 10045382 f i libvcruntime:undname.obj
 0001:00044390       ?doRestrictionSpec@UnDecorator@@SAHXZ 10045390 f i libvcruntime:undname.obj
 0001:0004439e       ?doThisTypes@UnDecorator@@SAHXZ 1004539e f i libvcruntime:undname.obj
 0001:000443b0       ?doThrowTypes@UnDecorator@@SAHXZ 100453b0 f i libvcruntime:undname.obj
 0001:000443be       ?doTypeOnly@UnDecorator@@SAHXZ 100453be f i libvcruntime:undname.obj
 0001:000443c9       ?doUnderScore@UnDecorator@@SAHXZ 100453c9 f i libvcruntime:undname.obj
 0001:000443d4       ?getAddressOf@UnDecorator@@CA?AVDName@@XZ 100453d4 f   libvcruntime:undname.obj
 0001:0004443c       ?getArgumentList@UnDecorator@@CA?AVDName@@XZ 1004543c f   libvcruntime:undname.obj
 0001:000445a6       ?getArgumentTypes@UnDecorator@@CA?AVDName@@XZ 100455a6 f   libvcruntime:undname.obj
 0001:000446ae       ?getArrayAccess@UnDecorator@@CA?AVDName@@XZ 100456ae f   libvcruntime:undname.obj
 0001:00044722       ?getArrayObject@UnDecorator@@CA?AVDName@@XZ 10045722 f   libvcruntime:undname.obj
 0001:000447ad       ?getArrayType@UnDecorator@@CA?AVDName@@ABV2@@Z 100457ad f i libvcruntime:undname.obj
 0001:0004494a       ?getBasedType@UnDecorator@@CA?AVDName@@XZ 1004594a f   libvcruntime:undname.obj
 0001:00044a00       ?getBasicDataType@UnDecorator@@CA?AVDName@@ABV2@@Z 10045a00 f   libvcruntime:undname.obj
 0001:00044f69       ?getCHPEName@UnDecorator@@QAEPADPADH@Z 10045f69 f i libvcruntime:undname.obj
 0001:00045046       ?getCallIndex@UnDecorator@@CA?AVDName@@XZ 10046046 f i libvcruntime:undname.obj
 0001:0004505a       ?getCallingConvention@UnDecorator@@CA?AVDName@@XZ 1004605a f   libvcruntime:undname.obj
 0001:0004512f       ?getDataIndirectType@UnDecorator@@CA?AVDName@@ABV2@W4IndirectionKind@@0H@Z 1004612f f   libvcruntime:undname.obj
 0001:000458cc       ?getDataIndirectType@UnDecorator@@CA?AVDName@@XZ 100468cc f i libvcruntime:undname.obj
 0001:000458fa       ?getDataType@UnDecorator@@CA?AVDName@@PAV2@@Z 100468fa f   libvcruntime:undname.obj
 0001:000459d1       ?getDecoratedName@UnDecorator@@CA?AVDName@@XZ 100469d1 f   libvcruntime:undname.obj
 0001:00045c25       ?getDimension@UnDecorator@@CA?AVDName@@_N@Z 10046c25 f   libvcruntime:undname.obj
 0001:00045d33       ?getDispatchTarget@UnDecorator@@CA?AVDName@@XZ 10046d33 f   libvcruntime:undname.obj
 0001:00045d86       ?getDisplacement@UnDecorator@@CA?AVDName@@XZ 10046d86 f i libvcruntime:undname.obj
 0001:00045d9a       ?getECSUDataType@UnDecorator@@CA?AVDName@@XZ 10046d9a f   libvcruntime:undname.obj
 0001:00045f2c       ?getECSUName@UnDecorator@@CA?AVDName@@XZ 10046f2c f i libvcruntime:undname.obj
 0001:00045f3d       ?getEnumType@UnDecorator@@CA?AVDName@@XZ 10046f3d f i libvcruntime:undname.obj
 0001:00046051       ?getExtendedDataIndirectType@UnDecorator@@CA?AVDName@@AAW4IndirectionKind@@AA_NH@Z 10047051 f   libvcruntime:undname.obj
 0001:000461fc       ?getExternalDataType@UnDecorator@@CA?AVDName@@ABV2@@Z 100471fc f i libvcruntime:undname.obj
 0001:00046261       ?getFloatingPoint@UnDecorator@@CA?AVDName@@H@Z 10047261 f   libvcruntime:undname.obj
 0001:0004631f       ?getFunctionIndirectType@UnDecorator@@CA?AVDName@@ABV2@@Z 1004731f f   libvcruntime:undname.obj
 0001:000466c9       ?getGuardNumber@UnDecorator@@CA?AVDName@@XZ 100476c9 f i libvcruntime:undname.obj
 0001:000466dd       ?getLastChar@DName@@QBEDXZ 100476dd f i libvcruntime:undname.obj
 0001:000466fd       ?getLastChar@DNameStatusNode@@UBEDXZ 100476fd f i libvcruntime:undname.obj
 0001:00046709       ?getLastChar@charNode@@UBEDXZ 10047709 f i libvcruntime:undname.obj
 0001:0004670d       ?getLastChar@pDNameNode@@UBEDXZ 1004770d f i libvcruntime:undname.obj
 0001:0004671b       ?getLastChar@pairNode@@UBEDXZ 1004771b f i libvcruntime:undname.obj
 0001:00046750       ?getLastChar@pcharNode@@UBEDXZ 10047750 f i libvcruntime:undname.obj
 0001:00046762       ?getLexicalFrame@UnDecorator@@CA?AVDName@@XZ 10047762 f i libvcruntime:undname.obj
 0001:00046793       ?getMemberAccess@UnDecorator@@CA?AVDName@@XZ 10047793 f   libvcruntime:undname.obj
 0001:00046803       ?getMemoryWithBuffer@_HeapManager@@QAEPAXI@Z 10047803 f   libvcruntime:undname.obj
 0001:0004686d       ?getMemoryWithoutBuffer@_HeapManager@@QAEPAXI@Z 1004786d f   libvcruntime:undname.obj
 0001:0004688d       ?getNoexcept@UnDecorator@@CA?AVDName@@XZ 1004788d f   libvcruntime:undname.obj
 0001:000468e1       ?getNumberOfDimensions@UnDecorator@@CAHXZ 100478e1 f   libvcruntime:undname.obj
 0001:00046943       ?getOperatorName@UnDecorator@@CA?AVDName@@_NPA_N@Z 10047943 f i libvcruntime:undname.obj
 0001:00047259       ?getPointerToMember@UnDecorator@@CA?AVDName@@XZ 10048259 f   libvcruntime:undname.obj
 0001:00047315       ?getPointerType@UnDecorator@@CA?AVDName@@ABV2@0@Z 10048315 f i libvcruntime:undname.obj
 0001:00047330       ?getPointerTypeArray@UnDecorator@@CA?AVDName@@ABV2@0@Z 10048330 f i libvcruntime:undname.obj
 0001:0004734b       ?getPrimaryDataType@UnDecorator@@CA?AVDName@@ABV2@@Z 1004834b f   libvcruntime:undname.obj
 0001:00047599       ?getPtrRefDataType@UnDecorator@@CA?AVDName@@ABV2@H@Z 10048599 f   libvcruntime:undname.obj
 0001:00047706       ?getPtrRefType@UnDecorator@@CA?AVDName@@ABV2@0W4IndirectionKind@@@Z 10048706 f   libvcruntime:undname.obj
 0001:00047817       ?getReferenceType@UnDecorator@@CA?AVDName@@ABV2@0W4IndirectionKind@@@Z 10048817 f i libvcruntime:undname.obj
 0001:00047833       ?getRestrictionSpec@UnDecorator@@CA?AVDName@@XZ 10048833 f   libvcruntime:undname.obj
 0001:00047958       ?getReturnType@UnDecorator@@CA?AVDName@@PAV2@@Z 10048958 f   libvcruntime:undname.obj
 0001:00047987       ?getScope@UnDecorator@@CA?AVDName@@XZ 10048987 f   libvcruntime:undname.obj
 0001:00047d45       ?getScopedName@UnDecorator@@CA?AVDName@@XZ 10048d45 f   libvcruntime:undname.obj
 0001:00047e38       ?getSignedDimension@UnDecorator@@CA?AVDName@@XZ 10048e38 f   libvcruntime:undname.obj
 0001:00047e89       ?getStorageConvention@UnDecorator@@CA?AVDName@@XZ 10048e89 f i libvcruntime:undname.obj
 0001:00047e9a       ?getString@DName@@QBEPADPAD0@Z 10048e9a f i libvcruntime:undname.obj
 0001:00047ec7       ?getString@DName@@QBEPADPADH@Z 10048ec7 f i libvcruntime:undname.obj
 0001:00047f1c       ?getString@DNameStatusNode@@UBEPADPAD0@Z 10048f1c f i libvcruntime:undname.obj
 0001:00047f63       ?getString@charNode@@UBEPADPAD0@Z 10048f63 f i libvcruntime:undname.obj
 0001:00047f78       ?getString@pDNameNode@@UBEPADPAD0@Z 10048f78 f i libvcruntime:undname.obj
 0001:00047f8f       ?getString@pairNode@@UBEPADPAD0@Z 10048f8f f i libvcruntime:undname.obj
 0001:00047fd5       ?getString@pcharNode@@UBEPADPAD0@Z 10048fd5 f i libvcruntime:undname.obj
 0001:00047ff1       ?getStringEncoding@UnDecorator@@CA?AVDName@@W4PrefixKind@@H@Z 10048ff1 f   libvcruntime:undname.obj
 0001:0004808e       ?getStringHelper@@YAPADPADPBD1H@Z 1004908e f i libvcruntime:undname.obj
 0001:000480b8       ?getStringObject@UnDecorator@@CA?AVDName@@XZ 100490b8 f   libvcruntime:undname.obj
 0001:00048103       ?getSymbolName@UnDecorator@@CA?AVDName@@XZ 10049103 f i libvcruntime:undname.obj
 0001:0004814b       ?getTemplateArgumentList@UnDecorator@@CA?AVDName@@XZ 1004914b f   libvcruntime:undname.obj
 0001:000482fb       ?getTemplateName@UnDecorator@@CA?AVDName@@_N@Z 100492fb f   libvcruntime:undname.obj
 0001:0004845b       ?getTemplateNonTypeArgument@UnDecorator@@CA?AVDName@@XZ 1004945b f   libvcruntime:undname.obj
 0001:00048833       ?getTemplateTypeArgument@UnDecorator@@CA?AVDName@@XZ 10049833 f   libvcruntime:undname.obj
 0001:00048944       ?getThisType@UnDecorator@@CA?AVDName@@XZ 10049944 f i libvcruntime:undname.obj
 0001:00048973       ?getThrowTypes@UnDecorator@@CA?AVDName@@XZ 10049973 f   libvcruntime:undname.obj
 0001:00048996       ?getTypeEncoding@UnDecorator@@CAHXZ 10049996 f i libvcruntime:undname.obj
 0001:00048cce       ?getUndecoratedName@UnDecorator@@QAEPADPADH@Z 10049cce f i libvcruntime:undname.obj
 0001:00048ded       ?getUnionObject@UnDecorator@@CA?AVDName@@XZ 10049ded f   libvcruntime:undname.obj
 0001:00048e94       ?getVCallThunkType@UnDecorator@@CA?AVDName@@XZ 10049e94 f i libvcruntime:undname.obj
 0001:00048ede       ?getValue@UnDecorator@@CA?AV?$optional@_K@std@@XZ 10049ede f   libvcruntime:undname.obj
 0001:00048f66       ?getValueObject@UnDecorator@@CA?AVDName@@XZ 10049f66 f   libvcruntime:undname.obj
 0001:00049060       ?getVbTableType@UnDecorator@@CA?AVDName@@ABV2@@Z 1004a060 f i libvcruntime:undname.obj
 0001:00049075       ?getVdispMapType@UnDecorator@@CA?AVDName@@ABV2@@Z 1004a075 f i libvcruntime:undname.obj
 0001:000490d6       ?getVfTableType@UnDecorator@@CA?AVDName@@ABV2@@Z 1004a0d6 f i libvcruntime:undname.obj
 0001:0004922a       ?getZName@UnDecorator@@CA?AVDName@@_N0@Z 1004a22a f   libvcruntime:undname.obj
 0001:00049448       ?haveTemplateParameters@UnDecorator@@SAHXZ 1004a448 f i libvcruntime:undname.obj
 0001:00049453       ?isArray@DName@@QBEHXZ     1004a453 f i libvcruntime:undname.obj
 0001:0004945d       ?isComArray@DName@@QBEHXZ  1004a45d f i libvcruntime:undname.obj
 0001:00049467       ?isEmpty@DName@@QBEHXZ     1004a467 f i libvcruntime:undname.obj
 0001:0004946f       ?isFull@Replicator@@QBEHXZ 1004a46f f i libvcruntime:undname.obj
 0001:00049478       ?isNoTE@DName@@QBEHXZ      1004a478 f i libvcruntime:undname.obj
 0001:00049482       ?isPinPtr@DName@@QBEHXZ    1004a482 f i libvcruntime:undname.obj
 0001:0004948c       ?isPtrRef@DName@@QBEHXZ    1004a48c f i libvcruntime:undname.obj
 0001:00049496       ?isUDC@DName@@QBEHXZ       1004a496 f i libvcruntime:undname.obj
 0001:000494a7       ?isUDTThunk@DName@@QBEHXZ  1004a4a7 f i libvcruntime:undname.obj
 0001:000494b8       ?isVCallThunk@DName@@QBEHXZ 1004a4b8 f i libvcruntime:undname.obj
 0001:000494c2       ?isValid@DName@@QBEHXZ     1004a4c2 f i libvcruntime:undname.obj
 0001:000494cc       ?length@DName@@QBEHXZ      1004a4cc f i libvcruntime:undname.obj
 0001:000494eb       ?length@DNameStatusNode@@UBEHXZ 1004a4eb f i libvcruntime:undname.obj
 0001:000494ef       ?length@charNode@@UBEHXZ   1004a4ef f i libvcruntime:undname.obj
 0001:000494f3       ?length@pDNameNode@@UBEHXZ 1004a4f3 f i libvcruntime:undname.obj
 0001:00049501       ?length@pairNode@@UBEHXZ   1004a501 f i libvcruntime:undname.obj
 0001:0004954a       ?length@pcharNode@@UBEHXZ  1004a54a f i libvcruntime:undname.obj
 0001:0004954e       ?make@DNameStatusNode@@SAPBV1@W4DNameStatus@@@Z 1004a54e f i libvcruntime:undname.obj
 0001:0004956a       ?parseDecoratedName@UnDecorator@@CA?AVDName@@XZ 1004a56a f   libvcruntime:undname.obj
 0001:00049664       ?raw_length@DNameStatusNode@@UBEHXZ 1004a664 f i libvcruntime:undname.obj
 0001:00049668       ?raw_length@charNode@@UBEHXZ 1004a668 f i libvcruntime:undname.obj
 0001:0004966c       ?raw_length@pDNameNode@@UBEHXZ 1004a66c f i libvcruntime:undname.obj
 0001:00049670       ?raw_length@pairNode@@UBEHXZ 1004a670 f i libvcruntime:undname.obj
 0001:00049674       ?raw_length@pcharNode@@UBEHXZ 1004a674 f i libvcruntime:undname.obj
 0001:00049678       ?setIsArray@DName@@QAEXXZ  1004a678 f i libvcruntime:undname.obj
 0001:00049680       ?setIsComArray@DName@@QAEXXZ 1004a680 f i libvcruntime:undname.obj
 0001:00049688       ?setIsNoTE@DName@@QAEXXZ   1004a688 f i libvcruntime:undname.obj
 0001:00049690       ?setIsPinPtr@DName@@QAEXXZ 1004a690 f i libvcruntime:undname.obj
 0001:00049698       ?setIsUDC@DName@@QAEXXZ    1004a698 f i libvcruntime:undname.obj
 0001:000496a5       ?setIsVCallThunk@DName@@QAEXXZ 1004a6a5 f i libvcruntime:undname.obj
 0001:000496ad       ?setPtrRef@DName@@QAEAAV1@XZ 1004a6ad f i libvcruntime:undname.obj
 0001:000496b7       ?status@DName@@QBE?AW4DNameStatus@@XZ 1004a6b7 f i libvcruntime:undname.obj
 0001:00049723       ___unDName                 1004a723 f   libvcruntime:undname.obj
 0001:00049746       ___unDNameEx               1004a746 f   libvcruntime:undname.obj
 0001:000497e5       _snprintf                  1004a7e5 f i libvcruntime:undname.obj
 0001:000497ff       _unDNameGenerateCHPE       1004a7ff f   libvcruntime:undname.obj
 0001:0004989c       _vsnprintf                 1004a89c f i libvcruntime:undname.obj
 0001:000498cc       ___vcrt_initialize_locks   1004a8cc f   libvcruntime:locks.obj
 0001:00049908       ___vcrt_lock               1004a908 f   libvcruntime:locks.obj
 0001:0004991d       ___vcrt_uninitialize_locks 1004a91d f   libvcruntime:locks.obj
 0001:0004994c       ___vcrt_unlock             1004a94c f   libvcruntime:locks.obj
 0001:00049961       ??$__crt_interlocked_exchange_pointer@UHINSTANCE__@@PAU1@@@YAPAUHINSTANCE__@@PDSAU0@QAU0@@Z 1004a961 f i libvcruntime:winapi_downlevel.obj
 0001:0004996e       ??$__crt_interlocked_exchange_pointer@UHINSTANCE__@@PAX@@YAPAUHINSTANCE__@@PDSAU0@QAX@Z 1004a96e f i libvcruntime:winapi_downlevel.obj
 0001:0004997b       ??$__crt_interlocked_exchange_pointer@XPAX@@YAPAXPDSAXQAX@Z 1004a97b f i libvcruntime:winapi_downlevel.obj
 0001:00049988       ??$__crt_interlocked_read_pointer@UHINSTANCE__@@@@YAPAUHINSTANCE__@@PDSAU0@@Z 1004a988 f i libvcruntime:winapi_downlevel.obj
 0001:00049993       ??$__crt_interlocked_read_pointer@X@@YAPAXPDSAX@Z 1004a993 f i libvcruntime:winapi_downlevel.obj
 0001:00049c1f       ___vcrt_FlsAlloc           1004ac1f f   libvcruntime:winapi_downlevel.obj
 0001:00049c5a       ___vcrt_FlsFree            1004ac5a f   libvcruntime:winapi_downlevel.obj
 0001:00049c95       ___vcrt_FlsGetValue        1004ac95 f   libvcruntime:winapi_downlevel.obj
 0001:00049cd0       ___vcrt_FlsSetValue        1004acd0 f   libvcruntime:winapi_downlevel.obj
 0001:00049d0e       ___vcrt_InitializeCriticalSectionEx 1004ad0e f   libvcruntime:winapi_downlevel.obj
 0001:00049d69       __get_unexpected           1004ad69 f   libvcruntime:unexpected.obj
 0001:00049d7b       _set_unexpected            1004ad7b f   libvcruntime:unexpected.obj
 0001:00049d99       _unexpected                1004ad99 f   libvcruntime:unexpected.obj
 0001:00049db6       ?GetCurrentState@__FrameHandler3@@SAHPAUEHRegistrationNode@@PAXPBU_s_FuncInfo@@@Z 1004adb6 f   libvcruntime:ehstate.obj
 0001:00049dd3       ?SetState@__FrameHandler3@@SAXPAUEHRegistrationNode@@PBU_s_FuncInfo@@H@Z 1004add3 f   libvcruntime:ehstate.obj
 0001:00049df0       __global_unwind2           1004adf0 f   libvcruntime:exsup.obj
 0001:00049e70       __local_unwind2            1004ae70 f   libvcruntime:exsup.obj
 0001:00049f10       __abnormal_termination     1004af10 f   libvcruntime:exsup.obj
 0001:00049f40       __NLG_Notify1              1004af40 f   libvcruntime:exsup.obj
 0001:00049f50       __NLG_Notify               1004af50 f   libvcruntime:exsup.obj
 0001:00049f67       __NLG_Dispatch             1004af67     libvcruntime:exsup.obj
 0001:00049f67       __NLG_Dispatch2            1004af67     libvcruntime:exsup.obj
 0001:00049f70       __NLG_Call                 1004af70 f   libvcruntime:exsup.obj
 0001:00049f72       __NLG_Return2              1004af72     libvcruntime:exsup.obj
 0001:00049f73       ??$__crt_interlocked_exchange_pointer@$$A6AXXZP6AXXZ@@YAP6AXXZPDS6AXXZQ6AXXZ@Z 1004af73 f i libvcruntime:purevirt.obj
 0001:00049f80       ??$__crt_interlocked_read_pointer@$$A6AXXZ@@YAP6AXXZPDS6AXXZ@Z 1004af80 f i libvcruntime:purevirt.obj
 0001:00049f8b       __get_purecall_handler     1004af8b f   libvcruntime:purevirt.obj
 0001:00049f92       __purecall                 1004af92 f   libvcruntime:purevirt.obj
 0001:00049fae       __set_purecall_handler     1004afae f   libvcruntime:purevirt.obj
 0001:00049fbd       _malloc                    1004afbd f   libucrt:malloc.obj
 0001:00049fc8       _labs                      1004afc8 f   libucrt:labs.obj
 0001:00049fd7       ??$__crt_fast_decode_pointer@P6AXPB_W00II@Z@@YAP6AXPB_W00II@ZQ6AX000II@Z@Z 1004afd7 f i libucrt:invalid_parameter.obj
 0001:00049fed       ??$__crt_fast_encode_pointer@P6AXPB_W00II@Z@@YAP6AXPB_W00II@ZQ6AX000II@Z@Z 1004afed f i libucrt:invalid_parameter.obj
 0001:0004a00c       ??$initialize_from_array@$$BY00Q6AXPB_W00II@Z@?$dual_state_global@P6AXPB_W00II@Z@__crt_state_management@@QAAXAAY00Q6AXPB_W00II@Z@Z 1004b00c f i libucrt:invalid_parameter.obj
 0001:0004a01d       ?__crt_rotate_pointer_value@@YAIIH@Z 1004b01d f i libucrt:invalid_parameter.obj
 0001:0004a02c       ?dangerous_get_state_array@?$dual_state_global@P6AXPB_W00II@Z@__crt_state_management@@QAEPAP6AXPB_W00II@ZXZ 1004b02c f i libucrt:invalid_parameter.obj
 0001:0004a02f       ?get_current_state_index@__crt_state_management@@YAIXZ 1004b02f f i libucrt:invalid_parameter.obj
 0001:0004a032       ?value@?$dual_state_global@P6AXPB_W00II@Z@__crt_state_management@@QAEAAP6AXPB_W00II@ZXZ 1004b032 f i libucrt:invalid_parameter.obj
 0001:0004a035       ___acrt_call_reportfault   1004b035 f   libucrt:invalid_parameter.obj
 0001:0004a16e       ___acrt_initialize_invalid_parameter_handler 1004b16e f   libucrt:invalid_parameter.obj
 0001:0004a17d       __get_invalid_parameter_handler 1004b17d f   libucrt:invalid_parameter.obj
 0001:0004a190       __get_thread_local_invalid_parameter_handler 1004b190 f   libucrt:invalid_parameter.obj
 0001:0004a1a1       __invalid_parameter        1004b1a1 f   libucrt:invalid_parameter.obj
 0001:0004a205       __invalid_parameter_noinfo 1004b205 f   libucrt:invalid_parameter.obj
 0001:0004a215       __invalid_parameter_noinfo_noreturn 1004b215 f   libucrt:invalid_parameter.obj
 0001:0004a232       __invoke_watson            1004b232 f   libucrt:invalid_parameter.obj
 0001:0004a266       __set_invalid_parameter_handler 1004b266 f   libucrt:invalid_parameter.obj
 0001:0004a296       __set_thread_local_invalid_parameter_handler 1004b296 f   libucrt:invalid_parameter.obj
 0001:0004a2b3       _free                      1004b2b3 f   libucrt:free.obj
 0001:0004a2d0       _sqrt                      1004b2d0 f   libucrt:sqrt.obj
 0001:0004a2de       ??$?0ABV?$stream_output_adapter@D@__crt_stdio_output@@AB_KABQBDABQAU__crt_locale_pointers@@ABQAD@?$format_validation_base@DV?$stream_output_adapter@D@__crt_stdio_output@@@__crt_stdio_output@@IAE@ABV?$stream_output_adapter@D@1@AB_KABQBDABQAU__crt_locale_pointers@@ABQAD@Z 1004b2de f i libucrt:output.obj
 0001:0004a301       ??$?0ABV?$stream_output_adapter@D@__crt_stdio_output@@AB_KABQBDABQAU__crt_locale_pointers@@ABQAD@?$positional_parameter_base@DV?$stream_output_adapter@D@__crt_stdio_output@@@__crt_stdio_output@@IAE@ABV?$stream_output_adapter@D@1@AB_KABQBDABQAU__crt_locale_pointers@@ABQAD@Z 1004b301 f i libucrt:output.obj
 0001:0004a349       ??$?0ABV?$stream_output_adapter@D@__crt_stdio_output@@AB_KABQBDABQAU__crt_locale_pointers@@ABQAD@?$standard_base@DV?$stream_output_adapter@D@__crt_stdio_output@@@__crt_stdio_output@@IAE@ABV?$stream_output_adapter@D@1@AB_KABQBDABQAU__crt_locale_pointers@@ABQAD@Z 1004b349 f i libucrt:output.obj
 0001:0004a37e       ??$?0ABV?$stream_output_adapter@_W@__crt_stdio_output@@AB_KABQB_WABQAU__crt_locale_pointers@@ABQAD@?$format_validation_base@_WV?$stream_output_adapter@_W@__crt_stdio_output@@@__crt_stdio_output@@IAE@ABV?$stream_output_adapter@_W@1@AB_KABQB_WABQAU__crt_locale_pointers@@ABQAD@Z 1004b37e f i libucrt:output.obj
 0001:0004a3a1       ??$?0ABV?$stream_output_adapter@_W@__crt_stdio_output@@AB_KABQB_WABQAU__crt_locale_pointers@@ABQAD@?$positional_parameter_base@_WV?$stream_output_adapter@_W@__crt_stdio_output@@@__crt_stdio_output@@IAE@ABV?$stream_output_adapter@_W@1@AB_KABQB_WABQAU__crt_locale_pointers@@ABQAD@Z 1004b3a1 f i libucrt:output.obj
 0001:0004a3e9       ??$?0ABV?$stream_output_adapter@_W@__crt_stdio_output@@AB_KABQB_WABQAU__crt_locale_pointers@@ABQAD@?$standard_base@_WV?$stream_output_adapter@_W@__crt_stdio_output@@@__crt_stdio_output@@IAE@ABV?$stream_output_adapter@_W@1@AB_KABQB_WABQAU__crt_locale_pointers@@ABQAD@Z 1004b3e9 f i libucrt:output.obj
 0001:0004a41e       ??$?0ABV?$string_output_adapter@D@__crt_stdio_output@@AB_KABQBDABQAU__crt_locale_pointers@@ABQAD@?$format_validation_base@DV?$string_output_adapter@D@__crt_stdio_output@@@__crt_stdio_output@@IAE@ABV?$string_output_adapter@D@1@AB_KABQBDABQAU__crt_locale_pointers@@ABQAD@Z 1004b41e f i libucrt:output.obj
 0001:0004a441       ??$?0ABV?$string_output_adapter@D@__crt_stdio_output@@AB_KABQBDABQAU__crt_locale_pointers@@ABQAD@?$positional_parameter_base@DV?$string_output_adapter@D@__crt_stdio_output@@@__crt_stdio_output@@IAE@ABV?$string_output_adapter@D@1@AB_KABQBDABQAU__crt_locale_pointers@@ABQAD@Z 1004b441 f i libucrt:output.obj
 0001:0004a489       ??$?0ABV?$string_output_adapter@D@__crt_stdio_output@@AB_KABQBDABQAU__crt_locale_pointers@@ABQAD@?$standard_base@DV?$string_output_adapter@D@__crt_stdio_output@@@__crt_stdio_output@@IAE@ABV?$string_output_adapter@D@1@AB_KABQBDABQAU__crt_locale_pointers@@ABQAD@Z 1004b489 f i libucrt:output.obj
 0001:0004a4be       ??$?0ABV?$string_output_adapter@_W@__crt_stdio_output@@AB_KABQB_WABQAU__crt_locale_pointers@@ABQAD@?$format_validation_base@_WV?$string_output_adapter@_W@__crt_stdio_output@@@__crt_stdio_output@@IAE@ABV?$string_output_adapter@_W@1@AB_KABQB_WABQAU__crt_locale_pointers@@ABQAD@Z 1004b4be f i libucrt:output.obj
 0001:0004a4e1       ??$?0ABV?$string_output_adapter@_W@__crt_stdio_output@@AB_KABQB_WABQAU__crt_locale_pointers@@ABQAD@?$positional_parameter_base@_WV?$string_output_adapter@_W@__crt_stdio_output@@@__crt_stdio_output@@IAE@ABV?$string_output_adapter@_W@1@AB_KABQB_WABQAU__crt_locale_pointers@@ABQAD@Z 1004b4e1 f i libucrt:output.obj
 0001:0004a529       ??$?0ABV?$string_output_adapter@_W@__crt_stdio_output@@AB_KABQB_WABQAU__crt_locale_pointers@@ABQAD@?$standard_base@_WV?$string_output_adapter@_W@__crt_stdio_output@@@__crt_stdio_output@@IAE@ABV?$string_output_adapter@_W@1@AB_KABQB_WABQAU__crt_locale_pointers@@ABQAD@Z 1004b529 f i libucrt:output.obj
 0001:0004a864       ??$__crt_interlocked_read@J@@YAJPDJ@Z 1004b864 f i libucrt:output.obj
 0001:0004b730       ??$count@D@formatting_buffer@__crt_stdio_output@@QBEIXZ 1004c730 f i libucrt:output.obj
 0001:0004b748       ??$count@_W@formatting_buffer@__crt_stdio_output@@QBEIXZ 1004c748 f i libucrt:output.obj
 0001:0004b761       ??$data@D@formatting_buffer@__crt_stdio_output@@QAEPADXZ 1004c761 f i libucrt:output.obj
 0001:0004b76e       ??$data@_W@formatting_buffer@__crt_stdio_output@@QAEPA_WXZ 1004c76e f i libucrt:output.obj
 0001:0004b77b       ??$ensure_buffer_is_big_enough@D@formatting_buffer@__crt_stdio_output@@QAE_NI@Z 1004c77b f i libucrt:output.obj
 0001:0004b7f8       ??$ensure_buffer_is_big_enough@_W@formatting_buffer@__crt_stdio_output@@QAE_NI@Z 1004c7f8 f i libucrt:output.obj
 0001:0004b876       ??$extract_argument_from_va_list@C_J@?$positional_parameter_base@DV?$stream_output_adapter@D@__crt_stdio_output@@@__crt_stdio_output@@IAE_NAA_J@Z 1004c876 f i libucrt:output.obj
 0001:0004b8ef       ??$extract_argument_from_va_list@C_J@?$positional_parameter_base@DV?$string_output_adapter@D@__crt_stdio_output@@@__crt_stdio_output@@IAE_NAA_J@Z 1004c8ef f i libucrt:output.obj
 0001:0004b968       ??$extract_argument_from_va_list@C_J@?$positional_parameter_base@_WV?$stream_output_adapter@_W@__crt_stdio_output@@@__crt_stdio_output@@IAE_NAA_J@Z 1004c968 f i libucrt:output.obj
 0001:0004b9e1       ??$extract_argument_from_va_list@C_J@?$positional_parameter_base@_WV?$string_output_adapter@_W@__crt_stdio_output@@@__crt_stdio_output@@IAE_NAA_J@Z 1004c9e1 f i libucrt:output.obj
 0001:0004ba5a       ??$extract_argument_from_va_list@C_J@?$standard_base@DV?$stream_output_adapter@D@__crt_stdio_output@@@__crt_stdio_output@@IAE_NAA_J@Z 1004ca5a f i libucrt:output.obj
 0001:0004ba79       ??$extract_argument_from_va_list@C_J@?$standard_base@DV?$string_output_adapter@D@__crt_stdio_output@@@__crt_stdio_output@@IAE_NAA_J@Z 1004ca79 f i libucrt:output.obj
 0001:0004ba98       ??$extract_argument_from_va_list@C_J@?$standard_base@_WV?$stream_output_adapter@_W@__crt_stdio_output@@@__crt_stdio_output@@IAE_NAA_J@Z 1004ca98 f i libucrt:output.obj
 0001:0004bab7       ??$extract_argument_from_va_list@C_J@?$standard_base@_WV?$string_output_adapter@_W@__crt_stdio_output@@@__crt_stdio_output@@IAE_NAA_J@Z 1004cab7 f i libucrt:output.obj
 0001:0004bad6       ??$extract_argument_from_va_list@E_J@?$positional_parameter_base@DV?$stream_output_adapter@D@__crt_stdio_output@@@__crt_stdio_output@@IAE_NAA_J@Z 1004cad6 f i libucrt:output.obj
 0001:0004bb4f       ??$extract_argument_from_va_list@E_J@?$positional_parameter_base@DV?$string_output_adapter@D@__crt_stdio_output@@@__crt_stdio_output@@IAE_NAA_J@Z 1004cb4f f i libucrt:output.obj
 0001:0004bbc8       ??$extract_argument_from_va_list@E_J@?$positional_parameter_base@_WV?$stream_output_adapter@_W@__crt_stdio_output@@@__crt_stdio_output@@IAE_NAA_J@Z 1004cbc8 f i libucrt:output.obj
 0001:0004bc41       ??$extract_argument_from_va_list@E_J@?$positional_parameter_base@_WV?$string_output_adapter@_W@__crt_stdio_output@@@__crt_stdio_output@@IAE_NAA_J@Z 1004cc41 f i libucrt:output.obj
 0001:0004bcba       ??$extract_argument_from_va_list@E_J@?$standard_base@DV?$stream_output_adapter@D@__crt_stdio_output@@@__crt_stdio_output@@IAE_NAA_J@Z 1004ccba f i libucrt:output.obj
 0001:0004bcd9       ??$extract_argument_from_va_list@E_J@?$standard_base@DV?$string_output_adapter@D@__crt_stdio_output@@@__crt_stdio_output@@IAE_NAA_J@Z 1004ccd9 f i libucrt:output.obj
 0001:0004bcf8       ??$extract_argument_from_va_list@E_J@?$standard_base@_WV?$stream_output_adapter@_W@__crt_stdio_output@@@__crt_stdio_output@@IAE_NAA_J@Z 1004ccf8 f i libucrt:output.obj
 0001:0004bd17       ??$extract_argument_from_va_list@E_J@?$standard_base@_WV?$string_output_adapter@_W@__crt_stdio_output@@@__crt_stdio_output@@IAE_NAA_J@Z 1004cd17 f i libucrt:output.obj
 0001:0004bd36       ??$extract_argument_from_va_list@F_J@?$positional_parameter_base@DV?$stream_output_adapter@D@__crt_stdio_output@@@__crt_stdio_output@@IAE_NAA_J@Z 1004cd36 f i libucrt:output.obj
 0001:0004bdaf       ??$extract_argument_from_va_list@F_J@?$positional_parameter_base@DV?$string_output_adapter@D@__crt_stdio_output@@@__crt_stdio_output@@IAE_NAA_J@Z 1004cdaf f i libucrt:output.obj
 0001:0004be28       ??$extract_argument_from_va_list@F_J@?$positional_parameter_base@_WV?$stream_output_adapter@_W@__crt_stdio_output@@@__crt_stdio_output@@IAE_NAA_J@Z 1004ce28 f i libucrt:output.obj
 0001:0004bea1       ??$extract_argument_from_va_list@F_J@?$positional_parameter_base@_WV?$string_output_adapter@_W@__crt_stdio_output@@@__crt_stdio_output@@IAE_NAA_J@Z 1004cea1 f i libucrt:output.obj
 0001:0004bf1a       ??$extract_argument_from_va_list@F_J@?$standard_base@DV?$stream_output_adapter@D@__crt_stdio_output@@@__crt_stdio_output@@IAE_NAA_J@Z 1004cf1a f i libucrt:output.obj
 0001:0004bf39       ??$extract_argument_from_va_list@F_J@?$standard_base@DV?$string_output_adapter@D@__crt_stdio_output@@@__crt_stdio_output@@IAE_NAA_J@Z 1004cf39 f i libucrt:output.obj
 0001:0004bf58       ??$extract_argument_from_va_list@F_J@?$standard_base@_WV?$stream_output_adapter@_W@__crt_stdio_output@@@__crt_stdio_output@@IAE_NAA_J@Z 1004cf58 f i libucrt:output.obj
 0001:0004bf77       ??$extract_argument_from_va_list@F_J@?$standard_base@_WV?$string_output_adapter@_W@__crt_stdio_output@@@__crt_stdio_output@@IAE_NAA_J@Z 1004cf77 f i libucrt:output.obj
 0001:0004bf96       ??$extract_argument_from_va_list@GD@?$positional_parameter_base@DV?$stream_output_adapter@D@__crt_stdio_output@@@__crt_stdio_output@@IAE_NAAD@Z 1004cf96 f i libucrt:output.obj
 0001:0004c00e       ??$extract_argument_from_va_list@GD@?$positional_parameter_base@DV?$string_output_adapter@D@__crt_stdio_output@@@__crt_stdio_output@@IAE_NAAD@Z 1004d00e f i libucrt:output.obj
 0001:0004c086       ??$extract_argument_from_va_list@GD@?$standard_base@DV?$stream_output_adapter@D@__crt_stdio_output@@@__crt_stdio_output@@IAE_NAAD@Z 1004d086 f i libucrt:output.obj
 0001:0004c0a0       ??$extract_argument_from_va_list@GD@?$standard_base@DV?$string_output_adapter@D@__crt_stdio_output@@@__crt_stdio_output@@IAE_NAAD@Z 1004d0a0 f i libucrt:output.obj
 0001:0004c0ba       ??$extract_argument_from_va_list@G_J@?$positional_parameter_base@DV?$stream_output_adapter@D@__crt_stdio_output@@@__crt_stdio_output@@IAE_NAA_J@Z 1004d0ba f i libucrt:output.obj
 0001:0004c133       ??$extract_argument_from_va_list@G_J@?$positional_parameter_base@DV?$string_output_adapter@D@__crt_stdio_output@@@__crt_stdio_output@@IAE_NAA_J@Z 1004d133 f i libucrt:output.obj
 0001:0004c1ac       ??$extract_argument_from_va_list@G_J@?$positional_parameter_base@_WV?$stream_output_adapter@_W@__crt_stdio_output@@@__crt_stdio_output@@IAE_NAA_J@Z 1004d1ac f i libucrt:output.obj
 0001:0004c225       ??$extract_argument_from_va_list@G_J@?$positional_parameter_base@_WV?$string_output_adapter@_W@__crt_stdio_output@@@__crt_stdio_output@@IAE_NAA_J@Z 1004d225 f i libucrt:output.obj
 0001:0004c29e       ??$extract_argument_from_va_list@G_J@?$standard_base@DV?$stream_output_adapter@D@__crt_stdio_output@@@__crt_stdio_output@@IAE_NAA_J@Z 1004d29e f i libucrt:output.obj
 0001:0004c2bd       ??$extract_argument_from_va_list@G_J@?$standard_base@DV?$string_output_adapter@D@__crt_stdio_output@@@__crt_stdio_output@@IAE_NAA_J@Z 1004d2bd f i libucrt:output.obj
 0001:0004c2dc       ??$extract_argument_from_va_list@G_J@?$standard_base@_WV?$stream_output_adapter@_W@__crt_stdio_output@@@__crt_stdio_output@@IAE_NAA_J@Z 1004d2dc f i libucrt:output.obj
 0001:0004c2fb       ??$extract_argument_from_va_list@G_J@?$standard_base@_WV?$string_output_adapter@_W@__crt_stdio_output@@@__crt_stdio_output@@IAE_NAA_J@Z 1004d2fb f i libucrt:output.obj
 0001:0004c31a       ??$extract_argument_from_va_list@H_J@?$positional_parameter_base@DV?$stream_output_adapter@D@__crt_stdio_output@@@__crt_stdio_output@@IAE_NAA_J@Z 1004d31a f i libucrt:output.obj
 0001:0004c391       ??$extract_argument_from_va_list@H_J@?$positional_parameter_base@DV?$string_output_adapter@D@__crt_stdio_output@@@__crt_stdio_output@@IAE_NAA_J@Z 1004d391 f i libucrt:output.obj
 0001:0004c408       ??$extract_argument_from_va_list@H_J@?$positional_parameter_base@_WV?$stream_output_adapter@_W@__crt_stdio_output@@@__crt_stdio_output@@IAE_NAA_J@Z 1004d408 f i libucrt:output.obj
 0001:0004c47f       ??$extract_argument_from_va_list@H_J@?$positional_parameter_base@_WV?$string_output_adapter@_W@__crt_stdio_output@@@__crt_stdio_output@@IAE_NAA_J@Z 1004d47f f i libucrt:output.obj
 0001:0004c4f6       ??$extract_argument_from_va_list@H_J@?$standard_base@DV?$stream_output_adapter@D@__crt_stdio_output@@@__crt_stdio_output@@IAE_NAA_J@Z 1004d4f6 f i libucrt:output.obj
 0001:0004c514       ??$extract_argument_from_va_list@H_J@?$standard_base@DV?$string_output_adapter@D@__crt_stdio_output@@@__crt_stdio_output@@IAE_NAA_J@Z 1004d514 f i libucrt:output.obj
 0001:0004c532       ??$extract_argument_from_va_list@H_J@?$standard_base@_WV?$stream_output_adapter@_W@__crt_stdio_output@@@__crt_stdio_output@@IAE_NAA_J@Z 1004d532 f i libucrt:output.obj
 0001:0004c550       ??$extract_argument_from_va_list@H_J@?$standard_base@_WV?$string_output_adapter@_W@__crt_stdio_output@@@__crt_stdio_output@@IAE_NAA_J@Z 1004d550 f i libucrt:output.obj
 0001:0004c56e       ??$extract_argument_from_va_list@I_J@?$positional_parameter_base@DV?$stream_output_adapter@D@__crt_stdio_output@@@__crt_stdio_output@@IAE_NAA_J@Z 1004d56e f i libucrt:output.obj
 0001:0004c5ee       ??$extract_argument_from_va_list@I_J@?$positional_parameter_base@DV?$string_output_adapter@D@__crt_stdio_output@@@__crt_stdio_output@@IAE_NAA_J@Z 1004d5ee f i libucrt:output.obj
 0001:0004c66e       ??$extract_argument_from_va_list@I_J@?$positional_parameter_base@_WV?$stream_output_adapter@_W@__crt_stdio_output@@@__crt_stdio_output@@IAE_NAA_J@Z 1004d66e f i libucrt:output.obj
 0001:0004c6ee       ??$extract_argument_from_va_list@I_J@?$positional_parameter_base@_WV?$string_output_adapter@_W@__crt_stdio_output@@@__crt_stdio_output@@IAE_NAA_J@Z 1004d6ee f i libucrt:output.obj
 0001:0004c76e       ??$extract_argument_from_va_list@I_J@?$standard_base@DV?$stream_output_adapter@D@__crt_stdio_output@@@__crt_stdio_output@@IAE_NAA_J@Z 1004d76e f i libucrt:output.obj
 0001:0004c78c       ??$extract_argument_from_va_list@I_J@?$standard_base@DV?$string_output_adapter@D@__crt_stdio_output@@@__crt_stdio_output@@IAE_NAA_J@Z 1004d78c f i libucrt:output.obj
 0001:0004c7aa       ??$extract_argument_from_va_list@I_J@?$standard_base@_WV?$stream_output_adapter@_W@__crt_stdio_output@@@__crt_stdio_output@@IAE_NAA_J@Z 1004d7aa f i libucrt:output.obj
 0001:0004c7c8       ??$extract_argument_from_va_list@I_J@?$standard_base@_WV?$string_output_adapter@_W@__crt_stdio_output@@@__crt_stdio_output@@IAE_NAA_J@Z 1004d7c8 f i libucrt:output.obj
 0001:0004c7e6       ??$extract_argument_from_va_list@PADPAD@?$positional_parameter_base@DV?$stream_output_adapter@D@__crt_stdio_output@@@__crt_stdio_output@@IAE_NAAPAD@Z 1004d7e6 f i libucrt:output.obj
 0001:0004c85e       ??$extract_argument_from_va_list@PADPAD@?$positional_parameter_base@DV?$string_output_adapter@D@__crt_stdio_output@@@__crt_stdio_output@@IAE_NAAPAD@Z 1004d85e f i libucrt:output.obj
 0001:0004c8d6       ??$extract_argument_from_va_list@PADPAD@?$positional_parameter_base@_WV?$stream_output_adapter@_W@__crt_stdio_output@@@__crt_stdio_output@@IAE_NAAPAD@Z 1004d8d6 f i libucrt:output.obj
 0001:0004c94e       ??$extract_argument_from_va_list@PADPAD@?$positional_parameter_base@_WV?$string_output_adapter@_W@__crt_stdio_output@@@__crt_stdio_output@@IAE_NAAPAD@Z 1004d94e f i libucrt:output.obj
 0001:0004c9c6       ??$extract_argument_from_va_list@PADPAD@?$standard_base@DV?$stream_output_adapter@D@__crt_stdio_output@@@__crt_stdio_output@@IAE_NAAPAD@Z 1004d9c6 f i libucrt:output.obj
 0001:0004c9e0       ??$extract_argument_from_va_list@PADPAD@?$standard_base@DV?$string_output_adapter@D@__crt_stdio_output@@@__crt_stdio_output@@IAE_NAAPAD@Z 1004d9e0 f i libucrt:output.obj
 0001:0004c9fa       ??$extract_argument_from_va_list@PADPAD@?$standard_base@_WV?$stream_output_adapter@_W@__crt_stdio_output@@@__crt_stdio_output@@IAE_NAAPAD@Z 1004d9fa f i libucrt:output.obj
 0001:0004ca14       ??$extract_argument_from_va_list@PADPAD@?$standard_base@_WV?$string_output_adapter@_W@__crt_stdio_output@@@__crt_stdio_output@@IAE_NAAPAD@Z 1004da14 f i libucrt:output.obj
 0001:0004ca2e       ??$extract_argument_from_va_list@PAUansi_string@?1??type_case_Z@?$output_processor@DV?$stream_output_adapter@D@__crt_stdio_output@@V?$format_validation_base@DV?$stream_output_adapter@D@__crt_stdio_output@@@2@@__crt_stdio_output@@AAE_NXZ@PAU1?1??234@AAE_NXZ@@?$standard_base@DV?$stream_output_adapter@D@__crt_stdio_output@@@__crt_stdio_output@@IAE_NAAPAUansi_string@?1??type_case_Z@?$output_processor@DV?$stream_output_adapter@D@__crt_stdio_output@@V?$format_validation_base@DV?$stream_output_adapter@D@__crt_stdio_output@@@2@@1@AAE_NXZ@@Z 1004da2e f i libucrt:output.obj
 0001:0004ca48       ??$extract_argument_from_va_list@PAUansi_string@?1??type_case_Z@?$output_processor@DV?$stream_output_adapter@D@__crt_stdio_output@@V?$positional_parameter_base@DV?$stream_output_adapter@D@__crt_stdio_output@@@2@@__crt_stdio_output@@AAE_NXZ@PAU1?1??234@AAE_NXZ@@?$positional_parameter_base@DV?$stream_output_adapter@D@__crt_stdio_output@@@__crt_stdio_output@@IAE_NAAPAUansi_string@?1??type_case_Z@?$output_processor@DV?$stream_output_adapter@D@__crt_stdio_output@@V?$positional_parameter_base@DV?$stream_output_adapter@D@__crt_stdio_output@@@2@@1@AAE_NXZ@@Z 1004da48 f i libucrt:output.obj
 0001:0004cac0       ??$extract_argument_from_va_list@PAUansi_string@?1??type_case_Z@?$output_processor@DV?$stream_output_adapter@D@__crt_stdio_output@@V?$positional_parameter_base@DV?$stream_output_adapter@D@__crt_stdio_output@@@2@@__crt_stdio_output@@AAE_NXZ@PAU1?1??234@AAE_NXZ@@?$standard_base@DV?$stream_output_adapter@D@__crt_stdio_output@@@__crt_stdio_output@@IAE_NAAPAUansi_string@?1??type_case_Z@?$output_processor@DV?$stream_output_adapter@D@__crt_stdio_output@@V?$positional_parameter_base@DV?$stream_output_adapter@D@__crt_stdio_output@@@2@@1@AAE_NXZ@@Z 1004dac0 f i libucrt:output.obj
 0001:0004cada       ??$extract_argument_from_va_list@PAUansi_string@?1??type_case_Z@?$output_processor@DV?$stream_output_adapter@D@__crt_stdio_output@@V?$standard_base@DV?$stream_output_adapter@D@__crt_stdio_output@@@2@@__crt_stdio_output@@AAE_NXZ@PAU1?1??234@AAE_NXZ@@?$standard_base@DV?$stream_output_adapter@D@__crt_stdio_output@@@__crt_stdio_output@@IAE_NAAPAUansi_string@?1??type_case_Z@?$output_processor@DV?$stream_output_adapter@D@__crt_stdio_output@@V?$standard_base@DV?$stream_output_adapter@D@__crt_stdio_output@@@2@@1@AAE_NXZ@@Z 1004dada f i libucrt:output.obj
 0001:0004caf4       ??$extract_argument_from_va_list@PAUansi_string@?1??type_case_Z@?$output_processor@DV?$string_output_adapter@D@__crt_stdio_output@@V?$format_validation_base@DV?$string_output_adapter@D@__crt_stdio_output@@@2@@__crt_stdio_output@@AAE_NXZ@PAU1?1??234@AAE_NXZ@@?$standard_base@DV?$string_output_adapter@D@__crt_stdio_output@@@__crt_stdio_output@@IAE_NAAPAUansi_string@?1??type_case_Z@?$output_processor@DV?$string_output_adapter@D@__crt_stdio_output@@V?$format_validation_base@DV?$string_output_adapter@D@__crt_stdio_output@@@2@@1@AAE_NXZ@@Z 1004daf4 f i libucrt:output.obj
 0001:0004cb0e       ??$extract_argument_from_va_list@PAUansi_string@?1??type_case_Z@?$output_processor@DV?$string_output_adapter@D@__crt_stdio_output@@V?$positional_parameter_base@DV?$string_output_adapter@D@__crt_stdio_output@@@2@@__crt_stdio_output@@AAE_NXZ@PAU1?1??234@AAE_NXZ@@?$positional_parameter_base@DV?$string_output_adapter@D@__crt_stdio_output@@@__crt_stdio_output@@IAE_NAAPAUansi_string@?1??type_case_Z@?$output_processor@DV?$string_output_adapter@D@__crt_stdio_output@@V?$positional_parameter_base@DV?$string_output_adapter@D@__crt_stdio_output@@@2@@1@AAE_NXZ@@Z 1004db0e f i libucrt:output.obj
 0001:0004cb86       ??$extract_argument_from_va_list@PAUansi_string@?1??type_case_Z@?$output_processor@DV?$string_output_adapter@D@__crt_stdio_output@@V?$positional_parameter_base@DV?$string_output_adapter@D@__crt_stdio_output@@@2@@__crt_stdio_output@@AAE_NXZ@PAU1?1??234@AAE_NXZ@@?$standard_base@DV?$string_output_adapter@D@__crt_stdio_output@@@__crt_stdio_output@@IAE_NAAPAUansi_string@?1??type_case_Z@?$output_processor@DV?$string_output_adapter@D@__crt_stdio_output@@V?$positional_parameter_base@DV?$string_output_adapter@D@__crt_stdio_output@@@2@@1@AAE_NXZ@@Z 1004db86 f i libucrt:output.obj
 0001:0004cba0       ??$extract_argument_from_va_list@PAUansi_string@?1??type_case_Z@?$output_processor@DV?$string_output_adapter@D@__crt_stdio_output@@V?$standard_base@DV?$string_output_adapter@D@__crt_stdio_output@@@2@@__crt_stdio_output@@AAE_NXZ@PAU1?1??234@AAE_NXZ@@?$standard_base@DV?$string_output_adapter@D@__crt_stdio_output@@@__crt_stdio_output@@IAE_NAAPAUansi_string@?1??type_case_Z@?$output_processor@DV?$string_output_adapter@D@__crt_stdio_output@@V?$standard_base@DV?$string_output_adapter@D@__crt_stdio_output@@@2@@1@AAE_NXZ@@Z 1004dba0 f i libucrt:output.obj
 0001:0004cbba       ??$extract_argument_from_va_list@PAUansi_string@?1??type_case_Z@?$output_processor@_WV?$stream_output_adapter@_W@__crt_stdio_output@@V?$format_validation_base@_WV?$stream_output_adapter@_W@__crt_stdio_output@@@2@@__crt_stdio_output@@AAE_NXZ@PAU1?1??234@AAE_NXZ@@?$standard_base@_WV?$stream_output_adapter@_W@__crt_stdio_output@@@__crt_stdio_output@@IAE_NAAPAUansi_string@?1??type_case_Z@?$output_processor@_WV?$stream_output_adapter@_W@__crt_stdio_output@@V?$format_validation_base@_WV?$stream_output_adapter@_W@__crt_stdio_output@@@2@@1@AAE_NXZ@@Z 1004dbba f i libucrt:output.obj
 0001:0004cbd4       ??$extract_argument_from_va_list@PAUansi_string@?1??type_case_Z@?$output_processor@_WV?$stream_output_adapter@_W@__crt_stdio_output@@V?$positional_parameter_base@_WV?$stream_output_adapter@_W@__crt_stdio_output@@@2@@__crt_stdio_output@@AAE_NXZ@PAU1?1??234@AAE_NXZ@@?$positional_parameter_base@_WV?$stream_output_adapter@_W@__crt_stdio_output@@@__crt_stdio_output@@IAE_NAAPAUansi_string@?1??type_case_Z@?$output_processor@_WV?$stream_output_adapter@_W@__crt_stdio_output@@V?$positional_parameter_base@_WV?$stream_output_adapter@_W@__crt_stdio_output@@@2@@1@AAE_NXZ@@Z 1004dbd4 f i libucrt:output.obj
 0001:0004cc4c       ??$extract_argument_from_va_list@PAUansi_string@?1??type_case_Z@?$output_processor@_WV?$stream_output_adapter@_W@__crt_stdio_output@@V?$positional_parameter_base@_WV?$stream_output_adapter@_W@__crt_stdio_output@@@2@@__crt_stdio_output@@AAE_NXZ@PAU1?1??234@AAE_NXZ@@?$standard_base@_WV?$stream_output_adapter@_W@__crt_stdio_output@@@__crt_stdio_output@@IAE_NAAPAUansi_string@?1??type_case_Z@?$output_processor@_WV?$stream_output_adapter@_W@__crt_stdio_output@@V?$positional_parameter_base@_WV?$stream_output_adapter@_W@__crt_stdio_output@@@2@@1@AAE_NXZ@@Z 1004dc4c f i libucrt:output.obj
 0001:0004cc66       ??$extract_argument_from_va_list@PAUansi_string@?1??type_case_Z@?$output_processor@_WV?$stream_output_adapter@_W@__crt_stdio_output@@V?$standard_base@_WV?$stream_output_adapter@_W@__crt_stdio_output@@@2@@__crt_stdio_output@@AAE_NXZ@PAU1?1??234@AAE_NXZ@@?$standard_base@_WV?$stream_output_adapter@_W@__crt_stdio_output@@@__crt_stdio_output@@IAE_NAAPAUansi_string@?1??type_case_Z@?$output_processor@_WV?$stream_output_adapter@_W@__crt_stdio_output@@V?$standard_base@_WV?$stream_output_adapter@_W@__crt_stdio_output@@@2@@1@AAE_NXZ@@Z 1004dc66 f i libucrt:output.obj
 0001:0004cc80       ??$extract_argument_from_va_list@PAUansi_string@?1??type_case_Z@?$output_processor@_WV?$string_output_adapter@_W@__crt_stdio_output@@V?$format_validation_base@_WV?$string_output_adapter@_W@__crt_stdio_output@@@2@@__crt_stdio_output@@AAE_NXZ@PAU1?1??234@AAE_NXZ@@?$standard_base@_WV?$string_output_adapter@_W@__crt_stdio_output@@@__crt_stdio_output@@IAE_NAAPAUansi_string@?1??type_case_Z@?$output_processor@_WV?$string_output_adapter@_W@__crt_stdio_output@@V?$format_validation_base@_WV?$string_output_adapter@_W@__crt_stdio_output@@@2@@1@AAE_NXZ@@Z 1004dc80 f i libucrt:output.obj
 0001:0004cc9a       ??$extract_argument_from_va_list@PAUansi_string@?1??type_case_Z@?$output_processor@_WV?$string_output_adapter@_W@__crt_stdio_output@@V?$positional_parameter_base@_WV?$string_output_adapter@_W@__crt_stdio_output@@@2@@__crt_stdio_output@@AAE_NXZ@PAU1?1??234@AAE_NXZ@@?$positional_parameter_base@_WV?$string_output_adapter@_W@__crt_stdio_output@@@__crt_stdio_output@@IAE_NAAPAUansi_string@?1??type_case_Z@?$output_processor@_WV?$string_output_adapter@_W@__crt_stdio_output@@V?$positional_parameter_base@_WV?$string_output_adapter@_W@__crt_stdio_output@@@2@@1@AAE_NXZ@@Z 1004dc9a f i libucrt:output.obj
 0001:0004cd12       ??$extract_argument_from_va_list@PAUansi_string@?1??type_case_Z@?$output_processor@_WV?$string_output_adapter@_W@__crt_stdio_output@@V?$positional_parameter_base@_WV?$string_output_adapter@_W@__crt_stdio_output@@@2@@__crt_stdio_output@@AAE_NXZ@PAU1?1??234@AAE_NXZ@@?$standard_base@_WV?$string_output_adapter@_W@__crt_stdio_output@@@__crt_stdio_output@@IAE_NAAPAUansi_string@?1??type_case_Z@?$output_processor@_WV?$string_output_adapter@_W@__crt_stdio_output@@V?$positional_parameter_base@_WV?$string_output_adapter@_W@__crt_stdio_output@@@2@@1@AAE_NXZ@@Z 1004dd12 f i libucrt:output.obj
 0001:0004cd2c       ??$extract_argument_from_va_list@PAUansi_string@?1??type_case_Z@?$output_processor@_WV?$string_output_adapter@_W@__crt_stdio_output@@V?$standard_base@_WV?$string_output_adapter@_W@__crt_stdio_output@@@2@@__crt_stdio_output@@AAE_NXZ@PAU1?1??234@AAE_NXZ@@?$standard_base@_WV?$string_output_adapter@_W@__crt_stdio_output@@@__crt_stdio_output@@IAE_NAAPAUansi_string@?1??type_case_Z@?$output_processor@_WV?$string_output_adapter@_W@__crt_stdio_output@@V?$standard_base@_WV?$string_output_adapter@_W@__crt_stdio_output@@@2@@1@AAE_NXZ@@Z 1004dd2c f i libucrt:output.obj
 0001:0004cd46       ??$extract_argument_from_va_list@PAXPAX@?$positional_parameter_base@DV?$stream_output_adapter@D@__crt_stdio_output@@@__crt_stdio_output@@IAE_NAAPAX@Z 1004dd46 f i libucrt:output.obj
 0001:0004cdbe       ??$extract_argument_from_va_list@PAXPAX@?$positional_parameter_base@DV?$string_output_adapter@D@__crt_stdio_output@@@__crt_stdio_output@@IAE_NAAPAX@Z 1004ddbe f i libucrt:output.obj
 0001:0004ce36       ??$extract_argument_from_va_list@PAXPAX@?$positional_parameter_base@_WV?$stream_output_adapter@_W@__crt_stdio_output@@@__crt_stdio_output@@IAE_NAAPAX@Z 1004de36 f i libucrt:output.obj
 0001:0004ceae       ??$extract_argument_from_va_list@PAXPAX@?$positional_parameter_base@_WV?$string_output_adapter@_W@__crt_stdio_output@@@__crt_stdio_output@@IAE_NAAPAX@Z 1004deae f i libucrt:output.obj
 0001:0004cf26       ??$extract_argument_from_va_list@PAXPAX@?$standard_base@DV?$stream_output_adapter@D@__crt_stdio_output@@@__crt_stdio_output@@IAE_NAAPAX@Z 1004df26 f i libucrt:output.obj
 0001:0004cf40       ??$extract_argument_from_va_list@PAXPAX@?$standard_base@DV?$string_output_adapter@D@__crt_stdio_output@@@__crt_stdio_output@@IAE_NAAPAX@Z 1004df40 f i libucrt:output.obj
 0001:0004cf5a       ??$extract_argument_from_va_list@PAXPAX@?$standard_base@_WV?$stream_output_adapter@_W@__crt_stdio_output@@@__crt_stdio_output@@IAE_NAAPAX@Z 1004df5a f i libucrt:output.obj
 0001:0004cf74       ??$extract_argument_from_va_list@PAXPAX@?$standard_base@_WV?$string_output_adapter@_W@__crt_stdio_output@@@__crt_stdio_output@@IAE_NAAPAX@Z 1004df74 f i libucrt:output.obj
 0001:0004cf8e       ??$extract_argument_from_va_list@U_CRT_DOUBLE@@U1@@?$positional_parameter_base@DV?$stream_output_adapter@D@__crt_stdio_output@@@__crt_stdio_output@@IAE_NAAU_CRT_DOUBLE@@@Z 1004df8e f i libucrt:output.obj
 0001:0004d014       ??$extract_argument_from_va_list@U_CRT_DOUBLE@@U1@@?$positional_parameter_base@DV?$string_output_adapter@D@__crt_stdio_output@@@__crt_stdio_output@@IAE_NAAU_CRT_DOUBLE@@@Z 1004e014 f i libucrt:output.obj
 0001:0004d09a       ??$extract_argument_from_va_list@U_CRT_DOUBLE@@U1@@?$positional_parameter_base@_WV?$stream_output_adapter@_W@__crt_stdio_output@@@__crt_stdio_output@@IAE_NAAU_CRT_DOUBLE@@@Z 1004e09a f i libucrt:output.obj
 0001:0004d120       ??$extract_argument_from_va_list@U_CRT_DOUBLE@@U1@@?$positional_parameter_base@_WV?$string_output_adapter@_W@__crt_stdio_output@@@__crt_stdio_output@@IAE_NAAU_CRT_DOUBLE@@@Z 1004e120 f i libucrt:output.obj
 0001:0004d1a6       ??$extract_argument_from_va_list@U_CRT_DOUBLE@@U1@@?$standard_base@DV?$stream_output_adapter@D@__crt_stdio_output@@@__crt_stdio_output@@IAE_NAAU_CRT_DOUBLE@@@Z 1004e1a6 f i libucrt:output.obj
 0001:0004d1c6       ??$extract_argument_from_va_list@U_CRT_DOUBLE@@U1@@?$standard_base@DV?$string_output_adapter@D@__crt_stdio_output@@@__crt_stdio_output@@IAE_NAAU_CRT_DOUBLE@@@Z 1004e1c6 f i libucrt:output.obj
 0001:0004d1e6       ??$extract_argument_from_va_list@U_CRT_DOUBLE@@U1@@?$standard_base@_WV?$stream_output_adapter@_W@__crt_stdio_output@@@__crt_stdio_output@@IAE_NAAU_CRT_DOUBLE@@@Z 1004e1e6 f i libucrt:output.obj
 0001:0004d206       ??$extract_argument_from_va_list@U_CRT_DOUBLE@@U1@@?$standard_base@_WV?$string_output_adapter@_W@__crt_stdio_output@@@__crt_stdio_output@@IAE_NAAU_CRT_DOUBLE@@@Z 1004e206 f i libucrt:output.obj
 0001:0004d226       ??$extract_argument_from_va_list@_J_J@?$positional_parameter_base@DV?$stream_output_adapter@D@__crt_stdio_output@@@__crt_stdio_output@@IAE_NAA_J@Z 1004e226 f i libucrt:output.obj
 0001:0004d2ac       ??$extract_argument_from_va_list@_J_J@?$positional_parameter_base@DV?$string_output_adapter@D@__crt_stdio_output@@@__crt_stdio_output@@IAE_NAA_J@Z 1004e2ac f i libucrt:output.obj
 0001:0004d332       ??$extract_argument_from_va_list@_J_J@?$positional_parameter_base@_WV?$stream_output_adapter@_W@__crt_stdio_output@@@__crt_stdio_output@@IAE_NAA_J@Z 1004e332 f i libucrt:output.obj
 0001:0004d3b8       ??$extract_argument_from_va_list@_J_J@?$positional_parameter_base@_WV?$string_output_adapter@_W@__crt_stdio_output@@@__crt_stdio_output@@IAE_NAA_J@Z 1004e3b8 f i libucrt:output.obj
 0001:0004d43e       ??$extract_argument_from_va_list@_J_J@?$standard_base@DV?$stream_output_adapter@D@__crt_stdio_output@@@__crt_stdio_output@@IAE_NAA_J@Z 1004e43e f i libucrt:output.obj
 0001:0004d45e       ??$extract_argument_from_va_list@_J_J@?$standard_base@DV?$string_output_adapter@D@__crt_stdio_output@@@__crt_stdio_output@@IAE_NAA_J@Z 1004e45e f i libucrt:output.obj
 0001:0004d47e       ??$extract_argument_from_va_list@_J_J@?$standard_base@_WV?$stream_output_adapter@_W@__crt_stdio_output@@@__crt_stdio_output@@IAE_NAA_J@Z 1004e47e f i libucrt:output.obj
 0001:0004d49e       ??$extract_argument_from_va_list@_J_J@?$standard_base@_WV?$string_output_adapter@_W@__crt_stdio_output@@@__crt_stdio_output@@IAE_NAA_J@Z 1004e49e f i libucrt:output.obj
 0001:0004d4be       ??$extract_argument_from_va_list@_K_J@?$positional_parameter_base@DV?$stream_output_adapter@D@__crt_stdio_output@@@__crt_stdio_output@@IAE_NAA_J@Z 1004e4be f i libucrt:output.obj
 0001:0004d544       ??$extract_argument_from_va_list@_K_J@?$positional_parameter_base@DV?$string_output_adapter@D@__crt_stdio_output@@@__crt_stdio_output@@IAE_NAA_J@Z 1004e544 f i libucrt:output.obj
 0001:0004d5ca       ??$extract_argument_from_va_list@_K_J@?$positional_parameter_base@_WV?$stream_output_adapter@_W@__crt_stdio_output@@@__crt_stdio_output@@IAE_NAA_J@Z 1004e5ca f i libucrt:output.obj
 0001:0004d650       ??$extract_argument_from_va_list@_K_J@?$positional_parameter_base@_WV?$string_output_adapter@_W@__crt_stdio_output@@@__crt_stdio_output@@IAE_NAA_J@Z 1004e650 f i libucrt:output.obj
 0001:0004d6d6       ??$extract_argument_from_va_list@_K_J@?$standard_base@DV?$stream_output_adapter@D@__crt_stdio_output@@@__crt_stdio_output@@IAE_NAA_J@Z 1004e6d6 f i libucrt:output.obj
 0001:0004d6f6       ??$extract_argument_from_va_list@_K_J@?$standard_base@DV?$string_output_adapter@D@__crt_stdio_output@@@__crt_stdio_output@@IAE_NAA_J@Z 1004e6f6 f i libucrt:output.obj
 0001:0004d716       ??$extract_argument_from_va_list@_K_J@?$standard_base@_WV?$stream_output_adapter@_W@__crt_stdio_output@@@__crt_stdio_output@@IAE_NAA_J@Z 1004e716 f i libucrt:output.obj
 0001:0004d736       ??$extract_argument_from_va_list@_K_J@?$standard_base@_WV?$string_output_adapter@_W@__crt_stdio_output@@@__crt_stdio_output@@IAE_NAA_J@Z 1004e736 f i libucrt:output.obj
 0001:0004d756       ??$extract_argument_from_va_list@_W_W@?$positional_parameter_base@DV?$stream_output_adapter@D@__crt_stdio_output@@@__crt_stdio_output@@IAE_NAA_W@Z 1004e756 f i libucrt:output.obj
 0001:0004d7d2       ??$extract_argument_from_va_list@_W_W@?$positional_parameter_base@DV?$string_output_adapter@D@__crt_stdio_output@@@__crt_stdio_output@@IAE_NAA_W@Z 1004e7d2 f i libucrt:output.obj
 0001:0004d84e       ??$extract_argument_from_va_list@_W_W@?$positional_parameter_base@_WV?$stream_output_adapter@_W@__crt_stdio_output@@@__crt_stdio_output@@IAE_NAA_W@Z 1004e84e f i libucrt:output.obj
 0001:0004d8ca       ??$extract_argument_from_va_list@_W_W@?$positional_parameter_base@_WV?$string_output_adapter@_W@__crt_stdio_output@@@__crt_stdio_output@@IAE_NAA_W@Z 1004e8ca f i libucrt:output.obj
 0001:0004d946       ??$extract_argument_from_va_list@_W_W@?$standard_base@DV?$stream_output_adapter@D@__crt_stdio_output@@@__crt_stdio_output@@IAE_NAA_W@Z 1004e946 f i libucrt:output.obj
 0001:0004d962       ??$extract_argument_from_va_list@_W_W@?$standard_base@DV?$string_output_adapter@D@__crt_stdio_output@@@__crt_stdio_output@@IAE_NAA_W@Z 1004e962 f i libucrt:output.obj
 0001:0004d97e       ??$extract_argument_from_va_list@_W_W@?$standard_base@_WV?$stream_output_adapter@_W@__crt_stdio_output@@@__crt_stdio_output@@IAE_NAA_W@Z 1004e97e f i libucrt:output.obj
 0001:0004d99a       ??$extract_argument_from_va_list@_W_W@?$standard_base@_WV?$string_output_adapter@_W@__crt_stdio_output@@@__crt_stdio_output@@IAE_NAA_W@Z 1004e99a f i libucrt:output.obj
 0001:0004d9b6       ??$get_parameter_type@D@?$positional_parameter_base@DV?$stream_output_adapter@D@__crt_stdio_output@@@__crt_stdio_output@@CA?AW4parameter_type@01@PAD@Z 1004e9b6 f i libucrt:output.obj
 0001:0004d9ba       ??$get_parameter_type@D@?$positional_parameter_base@DV?$string_output_adapter@D@__crt_stdio_output@@@__crt_stdio_output@@CA?AW4parameter_type@01@PAD@Z 1004e9ba f i libucrt:output.obj
 0001:0004d9be       ??$get_parameter_type@D@?$positional_parameter_base@_WV?$stream_output_adapter@_W@__crt_stdio_output@@@__crt_stdio_output@@CA?AW4parameter_type@01@PAD@Z 1004e9be f i libucrt:output.obj
 0001:0004d9c2       ??$get_parameter_type@D@?$positional_parameter_base@_WV?$string_output_adapter@_W@__crt_stdio_output@@@__crt_stdio_output@@CA?AW4parameter_type@01@PAD@Z 1004e9c2 f i libucrt:output.obj
 0001:0004d9c6       ??$get_parameter_type@Uansi_string@?1??type_case_Z@?$output_processor@DV?$stream_output_adapter@D@__crt_stdio_output@@V?$positional_parameter_base@DV?$stream_output_adapter@D@__crt_stdio_output@@@2@@__crt_stdio_output@@AAE_NXZ@@?$positional_parameter_base@DV?$stream_output_adapter@D@__crt_stdio_output@@@__crt_stdio_output@@CA?AW4parameter_type@01@PAUansi_string@?1??type_case_Z@?$output_processor@DV?$stream_output_adapter@D@__crt_stdio_output@@V?$positional_parameter_base@DV?$stream_output_adapter@D@__crt_stdio_output@@@2@@1@AAE_NXZ@@Z 1004e9c6 f i libucrt:output.obj
 0001:0004d9ca       ??$get_parameter_type@Uansi_string@?1??type_case_Z@?$output_processor@DV?$string_output_adapter@D@__crt_stdio_output@@V?$positional_parameter_base@DV?$string_output_adapter@D@__crt_stdio_output@@@2@@__crt_stdio_output@@AAE_NXZ@@?$positional_parameter_base@DV?$string_output_adapter@D@__crt_stdio_output@@@__crt_stdio_output@@CA?AW4parameter_type@01@PAUansi_string@?1??type_case_Z@?$output_processor@DV?$string_output_adapter@D@__crt_stdio_output@@V?$positional_parameter_base@DV?$string_output_adapter@D@__crt_stdio_output@@@2@@1@AAE_NXZ@@Z 1004e9ca f i libucrt:output.obj
 0001:0004d9ce       ??$get_parameter_type@Uansi_string@?1??type_case_Z@?$output_processor@_WV?$stream_output_adapter@_W@__crt_stdio_output@@V?$positional_parameter_base@_WV?$stream_output_adapter@_W@__crt_stdio_output@@@2@@__crt_stdio_output@@AAE_NXZ@@?$positional_parameter_base@_WV?$stream_output_adapter@_W@__crt_stdio_output@@@__crt_stdio_output@@CA?AW4parameter_type@01@PAUansi_string@?1??type_case_Z@?$output_processor@_WV?$stream_output_adapter@_W@__crt_stdio_output@@V?$positional_parameter_base@_WV?$stream_output_adapter@_W@__crt_stdio_output@@@2@@1@AAE_NXZ@@Z 1004e9ce f i libucrt:output.obj
 0001:0004d9d2       ??$get_parameter_type@Uansi_string@?1??type_case_Z@?$output_processor@_WV?$string_output_adapter@_W@__crt_stdio_output@@V?$positional_parameter_base@_WV?$string_output_adapter@_W@__crt_stdio_output@@@2@@__crt_stdio_output@@AAE_NXZ@@?$positional_parameter_base@_WV?$string_output_adapter@_W@__crt_stdio_output@@@__crt_stdio_output@@CA?AW4parameter_type@01@PAUansi_string@?1??type_case_Z@?$output_processor@_WV?$string_output_adapter@_W@__crt_stdio_output@@V?$positional_parameter_base@_WV?$string_output_adapter@_W@__crt_stdio_output@@@2@@1@AAE_NXZ@@Z 1004e9d2 f i libucrt:output.obj
 0001:0004d9d6       ??$get_parameter_type@X@?$positional_parameter_base@DV?$stream_output_adapter@D@__crt_stdio_output@@@__crt_stdio_output@@CA?AW4parameter_type@01@PAX@Z 1004e9d6 f i libucrt:output.obj
 0001:0004d9da       ??$get_parameter_type@X@?$positional_parameter_base@DV?$string_output_adapter@D@__crt_stdio_output@@@__crt_stdio_output@@CA?AW4parameter_type@01@PAX@Z 1004e9da f i libucrt:output.obj
 0001:0004d9de       ??$get_parameter_type@X@?$positional_parameter_base@_WV?$stream_output_adapter@_W@__crt_stdio_output@@@__crt_stdio_output@@CA?AW4parameter_type@01@PAX@Z 1004e9de f i libucrt:output.obj
 0001:0004d9e2       ??$get_parameter_type@X@?$positional_parameter_base@_WV?$string_output_adapter@_W@__crt_stdio_output@@@__crt_stdio_output@@CA?AW4parameter_type@01@PAX@Z 1004e9e2 f i libucrt:output.obj
 0001:0004d9e6       ??$is_character_specifier@D@?$positional_parameter_base@DV?$stream_output_adapter@D@__crt_stdio_output@@@__crt_stdio_output@@CA_ND@Z 1004e9e6 f i libucrt:output.obj
 0001:0004d9fe       ??$is_character_specifier@D@?$positional_parameter_base@DV?$string_output_adapter@D@__crt_stdio_output@@@__crt_stdio_output@@CA_ND@Z 1004e9fe f i libucrt:output.obj
 0001:0004da16       ??$is_character_specifier@_W@?$positional_parameter_base@_WV?$stream_output_adapter@_W@__crt_stdio_output@@@__crt_stdio_output@@CA_N_W@Z 1004ea16 f i libucrt:output.obj
 0001:0004da31       ??$is_character_specifier@_W@?$positional_parameter_base@_WV?$string_output_adapter@_W@__crt_stdio_output@@@__crt_stdio_output@@CA_N_W@Z 1004ea31 f i libucrt:output.obj
 0001:0004da4c       ??$is_integral_specifier@D@?$positional_parameter_base@DV?$stream_output_adapter@D@__crt_stdio_output@@@__crt_stdio_output@@CA_ND@Z 1004ea4c f i libucrt:output.obj
 0001:0004da78       ??$is_integral_specifier@D@?$positional_parameter_base@DV?$string_output_adapter@D@__crt_stdio_output@@@__crt_stdio_output@@CA_ND@Z 1004ea78 f i libucrt:output.obj
 0001:0004daa4       ??$is_integral_specifier@_W@?$positional_parameter_base@_WV?$stream_output_adapter@_W@__crt_stdio_output@@@__crt_stdio_output@@CA_N_W@Z 1004eaa4 f i libucrt:output.obj
 0001:0004dadf       ??$is_integral_specifier@_W@?$positional_parameter_base@_WV?$string_output_adapter@_W@__crt_stdio_output@@@__crt_stdio_output@@CA_N_W@Z 1004eadf f i libucrt:output.obj
 0001:0004db1a       ??$is_pointer_specifier@D@?$positional_parameter_base@DV?$stream_output_adapter@D@__crt_stdio_output@@@__crt_stdio_output@@CA_ND@Z 1004eb1a f i libucrt:output.obj
 0001:0004db28       ??$is_pointer_specifier@D@?$positional_parameter_base@DV?$string_output_adapter@D@__crt_stdio_output@@@__crt_stdio_output@@CA_ND@Z 1004eb28 f i libucrt:output.obj
 0001:0004db36       ??$is_pointer_specifier@_W@?$positional_parameter_base@_WV?$stream_output_adapter@_W@__crt_stdio_output@@@__crt_stdio_output@@CA_N_W@Z 1004eb36 f i libucrt:output.obj
 0001:0004db45       ??$is_pointer_specifier@_W@?$positional_parameter_base@_WV?$string_output_adapter@_W@__crt_stdio_output@@@__crt_stdio_output@@CA_N_W@Z 1004eb45 f i libucrt:output.obj
 0001:0004db54       ??$is_string_specifier@D@?$positional_parameter_base@DV?$stream_output_adapter@D@__crt_stdio_output@@@__crt_stdio_output@@CA_ND@Z 1004eb54 f i libucrt:output.obj
 0001:0004db6c       ??$is_string_specifier@D@?$positional_parameter_base@DV?$string_output_adapter@D@__crt_stdio_output@@@__crt_stdio_output@@CA_ND@Z 1004eb6c f i libucrt:output.obj
 0001:0004db84       ??$is_string_specifier@_W@?$positional_parameter_base@_WV?$stream_output_adapter@_W@__crt_stdio_output@@@__crt_stdio_output@@CA_N_W@Z 1004eb84 f i libucrt:output.obj
 0001:0004db9f       ??$is_string_specifier@_W@?$positional_parameter_base@_WV?$string_output_adapter@_W@__crt_stdio_output@@@__crt_stdio_output@@CA_N_W@Z 1004eb9f f i libucrt:output.obj
 0001:0004dbba       ??$is_wide_character_specifier@D@__crt_stdio_output@@YA_N_KDW4length_modifier@0@@Z 1004ebba f i libucrt:output.obj
 0001:0004dbeb       ??$is_wide_character_specifier@_W@__crt_stdio_output@@YA_N_K_WW4length_modifier@0@@Z 1004ebeb f i libucrt:output.obj
 0001:0004dc39       ??$peek_va_arg@C@__crt_stdio_output@@YACPAD@Z 1004ec39 f i libucrt:output.obj
 0001:0004dc45       ??$peek_va_arg@E@__crt_stdio_output@@YAEPAD@Z 1004ec45 f i libucrt:output.obj
 0001:0004dc51       ??$peek_va_arg@F@__crt_stdio_output@@YAFPAD@Z 1004ec51 f i libucrt:output.obj
 0001:0004dc5e       ??$peek_va_arg@G@__crt_stdio_output@@YAGPAD@Z 1004ec5e f i libucrt:output.obj
 0001:0004dc6b       ??$peek_va_arg@H@__crt_stdio_output@@YAHPAD@Z 1004ec6b f i libucrt:output.obj
 0001:0004dc77       ??$peek_va_arg@I@__crt_stdio_output@@YAIPAD@Z 1004ec77 f i libucrt:output.obj
 0001:0004dc83       ??$peek_va_arg@PAD@__crt_stdio_output@@YAPADPAD@Z 1004ec83 f i libucrt:output.obj
 0001:0004dc8f       ??$peek_va_arg@PAUansi_string@?1??type_case_Z@?$output_processor@DV?$stream_output_adapter@D@__crt_stdio_output@@V?$positional_parameter_base@DV?$stream_output_adapter@D@__crt_stdio_output@@@2@@__crt_stdio_output@@AAE_NXZ@@__crt_stdio_output@@YAPAUansi_string@?1??type_case_Z@?$output_processor@DV?$stream_output_adapter@D@__crt_stdio_output@@V?$positional_parameter_base@DV?$stream_output_adapter@D@__crt_stdio_output@@@2@@0@AAE_NXZ@PAD@Z 1004ec8f f i libucrt:output.obj
 0001:0004dc9b       ??$peek_va_arg@PAUansi_string@?1??type_case_Z@?$output_processor@DV?$string_output_adapter@D@__crt_stdio_output@@V?$positional_parameter_base@DV?$string_output_adapter@D@__crt_stdio_output@@@2@@__crt_stdio_output@@AAE_NXZ@@__crt_stdio_output@@YAPAUansi_string@?1??type_case_Z@?$output_processor@DV?$string_output_adapter@D@__crt_stdio_output@@V?$positional_parameter_base@DV?$string_output_adapter@D@__crt_stdio_output@@@2@@0@AAE_NXZ@PAD@Z 1004ec9b f i libucrt:output.obj
 0001:0004dca7       ??$peek_va_arg@PAUansi_string@?1??type_case_Z@?$output_processor@_WV?$stream_output_adapter@_W@__crt_stdio_output@@V?$positional_parameter_base@_WV?$stream_output_adapter@_W@__crt_stdio_output@@@2@@__crt_stdio_output@@AAE_NXZ@@__crt_stdio_output@@YAPAUansi_string@?1??type_case_Z@?$output_processor@_WV?$stream_output_adapter@_W@__crt_stdio_output@@V?$positional_parameter_base@_WV?$stream_output_adapter@_W@__crt_stdio_output@@@2@@0@AAE_NXZ@PAD@Z 1004eca7 f i libucrt:output.obj
 0001:0004dcb3       ??$peek_va_arg@PAUansi_string@?1??type_case_Z@?$output_processor@_WV?$string_output_adapter@_W@__crt_stdio_output@@V?$positional_parameter_base@_WV?$string_output_adapter@_W@__crt_stdio_output@@@2@@__crt_stdio_output@@AAE_NXZ@@__crt_stdio_output@@YAPAUansi_string@?1??type_case_Z@?$output_processor@_WV?$string_output_adapter@_W@__crt_stdio_output@@V?$positional_parameter_base@_WV?$string_output_adapter@_W@__crt_stdio_output@@@2@@0@AAE_NXZ@PAD@Z 1004ecb3 f i libucrt:output.obj
 0001:0004dcbf       ??$peek_va_arg@PAX@__crt_stdio_output@@YAPAXPAD@Z 1004ecbf f i libucrt:output.obj
 0001:0004dccb       ??$peek_va_arg@U_CRT_DOUBLE@@@__crt_stdio_output@@YA?AU_CRT_DOUBLE@@PAD@Z 1004eccb f i libucrt:output.obj
 0001:0004dcda       ??$peek_va_arg@_J@__crt_stdio_output@@YA_JPAD@Z 1004ecda f i libucrt:output.obj
 0001:0004dce9       ??$peek_va_arg@_K@__crt_stdio_output@@YA_KPAD@Z 1004ece9 f i libucrt:output.obj
 0001:0004dcf8       ??$peek_va_arg@_W@__crt_stdio_output@@YA_WPAD@Z 1004ecf8 f i libucrt:output.obj
 0001:0004dd05       ??$puttc_nolock@ABDPAU_iobuf@@@?$__crt_char_traits@D@@SAHABD$$QAPAU_iobuf@@@Z 1004ed05 f i libucrt:output.obj
 0001:0004dd1f       ??$puttc_nolock@AB_WPAU_iobuf@@@?$__crt_char_traits@_W@@SAGAB_W$$QAPAU_iobuf@@@Z 1004ed1f f i libucrt:output.obj
 0001:0004dd39       ??$read_va_arg@C@__crt_stdio_output@@YACAAPAD@Z 1004ed39 f i libucrt:output.obj
 0001:0004dd4b       ??$read_va_arg@E@__crt_stdio_output@@YAEAAPAD@Z 1004ed4b f i libucrt:output.obj
 0001:0004dd5d       ??$read_va_arg@F@__crt_stdio_output@@YAFAAPAD@Z 1004ed5d f i libucrt:output.obj
 0001:0004dd70       ??$read_va_arg@G@__crt_stdio_output@@YAGAAPAD@Z 1004ed70 f i libucrt:output.obj
 0001:0004dd83       ??$read_va_arg@H@__crt_stdio_output@@YAHAAPAD@Z 1004ed83 f i libucrt:output.obj
 0001:0004dd95       ??$read_va_arg@I@__crt_stdio_output@@YAIAAPAD@Z 1004ed95 f i libucrt:output.obj
 0001:0004dda7       ??$read_va_arg@PAD@__crt_stdio_output@@YAPADAAPAD@Z 1004eda7 f i libucrt:output.obj
 0001:0004ddb9       ??$read_va_arg@PAUansi_string@?1??type_case_Z@?$output_processor@DV?$stream_output_adapter@D@__crt_stdio_output@@V?$format_validation_base@DV?$stream_output_adapter@D@__crt_stdio_output@@@2@@__crt_stdio_output@@AAE_NXZ@@__crt_stdio_output@@YAPAUansi_string@?1??type_case_Z@?$output_processor@DV?$stream_output_adapter@D@__crt_stdio_output@@V?$format_validation_base@DV?$stream_output_adapter@D@__crt_stdio_output@@@2@@0@AAE_NXZ@AAPAD@Z 1004edb9 f i libucrt:output.obj
 0001:0004ddcb       ??$read_va_arg@PAUansi_string@?1??type_case_Z@?$output_processor@DV?$stream_output_adapter@D@__crt_stdio_output@@V?$positional_parameter_base@DV?$stream_output_adapter@D@__crt_stdio_output@@@2@@__crt_stdio_output@@AAE_NXZ@@__crt_stdio_output@@YAPAUansi_string@?1??type_case_Z@?$output_processor@DV?$stream_output_adapter@D@__crt_stdio_output@@V?$positional_parameter_base@DV?$stream_output_adapter@D@__crt_stdio_output@@@2@@0@AAE_NXZ@AAPAD@Z 1004edcb f i libucrt:output.obj
 0001:0004dddd       ??$read_va_arg@PAUansi_string@?1??type_case_Z@?$output_processor@DV?$stream_output_adapter@D@__crt_stdio_output@@V?$standard_base@DV?$stream_output_adapter@D@__crt_stdio_output@@@2@@__crt_stdio_output@@AAE_NXZ@@__crt_stdio_output@@YAPAUansi_string@?1??type_case_Z@?$output_processor@DV?$stream_output_adapter@D@__crt_stdio_output@@V?$standard_base@DV?$stream_output_adapter@D@__crt_stdio_output@@@2@@0@AAE_NXZ@AAPAD@Z 1004eddd f i libucrt:output.obj
 0001:0004ddef       ??$read_va_arg@PAUansi_string@?1??type_case_Z@?$output_processor@DV?$string_output_adapter@D@__crt_stdio_output@@V?$format_validation_base@DV?$string_output_adapter@D@__crt_stdio_output@@@2@@__crt_stdio_output@@AAE_NXZ@@__crt_stdio_output@@YAPAUansi_string@?1??type_case_Z@?$output_processor@DV?$string_output_adapter@D@__crt_stdio_output@@V?$format_validation_base@DV?$string_output_adapter@D@__crt_stdio_output@@@2@@0@AAE_NXZ@AAPAD@Z 1004edef f i libucrt:output.obj
 0001:0004de01       ??$read_va_arg@PAUansi_string@?1??type_case_Z@?$output_processor@DV?$string_output_adapter@D@__crt_stdio_output@@V?$positional_parameter_base@DV?$string_output_adapter@D@__crt_stdio_output@@@2@@__crt_stdio_output@@AAE_NXZ@@__crt_stdio_output@@YAPAUansi_string@?1??type_case_Z@?$output_processor@DV?$string_output_adapter@D@__crt_stdio_output@@V?$positional_parameter_base@DV?$string_output_adapter@D@__crt_stdio_output@@@2@@0@AAE_NXZ@AAPAD@Z 1004ee01 f i libucrt:output.obj
 0001:0004de13       ??$read_va_arg@PAUansi_string@?1??type_case_Z@?$output_processor@DV?$string_output_adapter@D@__crt_stdio_output@@V?$standard_base@DV?$string_output_adapter@D@__crt_stdio_output@@@2@@__crt_stdio_output@@AAE_NXZ@@__crt_stdio_output@@YAPAUansi_string@?1??type_case_Z@?$output_processor@DV?$string_output_adapter@D@__crt_stdio_output@@V?$standard_base@DV?$string_output_adapter@D@__crt_stdio_output@@@2@@0@AAE_NXZ@AAPAD@Z 1004ee13 f i libucrt:output.obj
 0001:0004de25       ??$read_va_arg@PAUansi_string@?1??type_case_Z@?$output_processor@_WV?$stream_output_adapter@_W@__crt_stdio_output@@V?$format_validation_base@_WV?$stream_output_adapter@_W@__crt_stdio_output@@@2@@__crt_stdio_output@@AAE_NXZ@@__crt_stdio_output@@YAPAUansi_string@?1??type_case_Z@?$output_processor@_WV?$stream_output_adapter@_W@__crt_stdio_output@@V?$format_validation_base@_WV?$stream_output_adapter@_W@__crt_stdio_output@@@2@@0@AAE_NXZ@AAPAD@Z 1004ee25 f i libucrt:output.obj
 0001:0004de37       ??$read_va_arg@PAUansi_string@?1??type_case_Z@?$output_processor@_WV?$stream_output_adapter@_W@__crt_stdio_output@@V?$positional_parameter_base@_WV?$stream_output_adapter@_W@__crt_stdio_output@@@2@@__crt_stdio_output@@AAE_NXZ@@__crt_stdio_output@@YAPAUansi_string@?1??type_case_Z@?$output_processor@_WV?$stream_output_adapter@_W@__crt_stdio_output@@V?$positional_parameter_base@_WV?$stream_output_adapter@_W@__crt_stdio_output@@@2@@0@AAE_NXZ@AAPAD@Z 1004ee37 f i libucrt:output.obj
 0001:0004de49       ??$read_va_arg@PAUansi_string@?1??type_case_Z@?$output_processor@_WV?$stream_output_adapter@_W@__crt_stdio_output@@V?$standard_base@_WV?$stream_output_adapter@_W@__crt_stdio_output@@@2@@__crt_stdio_output@@AAE_NXZ@@__crt_stdio_output@@YAPAUansi_string@?1??type_case_Z@?$output_processor@_WV?$stream_output_adapter@_W@__crt_stdio_output@@V?$standard_base@_WV?$stream_output_adapter@_W@__crt_stdio_output@@@2@@0@AAE_NXZ@AAPAD@Z 1004ee49 f i libucrt:output.obj
 0001:0004de5b       ??$read_va_arg@PAUansi_string@?1??type_case_Z@?$output_processor@_WV?$string_output_adapter@_W@__crt_stdio_output@@V?$format_validation_base@_WV?$string_output_adapter@_W@__crt_stdio_output@@@2@@__crt_stdio_output@@AAE_NXZ@@__crt_stdio_output@@YAPAUansi_string@?1??type_case_Z@?$output_processor@_WV?$string_output_adapter@_W@__crt_stdio_output@@V?$format_validation_base@_WV?$string_output_adapter@_W@__crt_stdio_output@@@2@@0@AAE_NXZ@AAPAD@Z 1004ee5b f i libucrt:output.obj
 0001:0004de6d       ??$read_va_arg@PAUansi_string@?1??type_case_Z@?$output_processor@_WV?$string_output_adapter@_W@__crt_stdio_output@@V?$positional_parameter_base@_WV?$string_output_adapter@_W@__crt_stdio_output@@@2@@__crt_stdio_output@@AAE_NXZ@@__crt_stdio_output@@YAPAUansi_string@?1??type_case_Z@?$output_processor@_WV?$string_output_adapter@_W@__crt_stdio_output@@V?$positional_parameter_base@_WV?$string_output_adapter@_W@__crt_stdio_output@@@2@@0@AAE_NXZ@AAPAD@Z 1004ee6d f i libucrt:output.obj
 0001:0004de7f       ??$read_va_arg@PAUansi_string@?1??type_case_Z@?$output_processor@_WV?$string_output_adapter@_W@__crt_stdio_output@@V?$standard_base@_WV?$string_output_adapter@_W@__crt_stdio_output@@@2@@__crt_stdio_output@@AAE_NXZ@@__crt_stdio_output@@YAPAUansi_string@?1??type_case_Z@?$output_processor@_WV?$string_output_adapter@_W@__crt_stdio_output@@V?$standard_base@_WV?$string_output_adapter@_W@__crt_stdio_output@@@2@@0@AAE_NXZ@AAPAD@Z 1004ee7f f i libucrt:output.obj
 0001:0004de91       ??$read_va_arg@PAX@__crt_stdio_output@@YAPAXAAPAD@Z 1004ee91 f i libucrt:output.obj
 0001:0004dea3       ??$read_va_arg@U_CRT_DOUBLE@@@__crt_stdio_output@@YA?AU_CRT_DOUBLE@@AAPAD@Z 1004eea3 f i libucrt:output.obj
 0001:0004deb9       ??$read_va_arg@_J@__crt_stdio_output@@YA_JAAPAD@Z 1004eeb9 f i libucrt:output.obj
 0001:0004dece       ??$read_va_arg@_K@__crt_stdio_output@@YA_KAAPAD@Z 1004eece f i libucrt:output.obj
 0001:0004dee3       ??$read_va_arg@_W@__crt_stdio_output@@YA_WAAPAD@Z 1004eee3 f i libucrt:output.obj
 0001:0004def6       ??$scratch_count@D@formatting_buffer@__crt_stdio_output@@QBEIXZ 1004eef6 f i libucrt:output.obj
 0001:0004defb       ??$scratch_data@D@formatting_buffer@__crt_stdio_output@@QAEPADXZ 1004eefb f i libucrt:output.obj
 0001:0004df19       ??$tcstol@AAPBDPAPADH@?$__crt_char_traits@D@@SAJAAPBD$$QAPAPAD$$QAH@Z 1004ef19 f i libucrt:output.obj
 0001:0004df37       ??$tcstol@AAPB_WPAPA_WH@?$__crt_char_traits@_W@@SAJAAPB_W$$QAPAPA_W$$QAH@Z 1004ef37 f i libucrt:output.obj
 0001:0004df55       ??$tcstol@PBDPAPADH@?$__crt_char_traits@D@@SAJ$$QAPBD$$QAPAPAD$$QAH@Z 1004ef55 f i libucrt:output.obj
 0001:0004df73       ??$tcstol@PB_WPAPA_WH@?$__crt_char_traits@_W@@SAJ$$QAPB_W$$QAPAPA_W$$QAH@Z 1004ef73 f i libucrt:output.obj
 0001:0004df91       ??$type_case_integer_parse_into_buffer@I@?$output_processor@DV?$stream_output_adapter@D@__crt_stdio_output@@V?$format_validation_base@DV?$stream_output_adapter@D@__crt_stdio_output@@@2@@__crt_stdio_output@@AAEXII_N@Z 1004ef91 f i libucrt:output.obj
 0001:0004e004       ??$type_case_integer_parse_into_buffer@I@?$output_processor@DV?$stream_output_adapter@D@__crt_stdio_output@@V?$positional_parameter_base@DV?$stream_output_adapter@D@__crt_stdio_output@@@2@@__crt_stdio_output@@AAEXII_N@Z 1004f004 f i libucrt:output.obj
 0001:0004e077       ??$type_case_integer_parse_into_buffer@I@?$output_processor@DV?$stream_output_adapter@D@__crt_stdio_output@@V?$standard_base@DV?$stream_output_adapter@D@__crt_stdio_output@@@2@@__crt_stdio_output@@AAEXII_N@Z 1004f077 f i libucrt:output.obj
 0001:0004e0ea       ??$type_case_integer_parse_into_buffer@I@?$output_processor@DV?$string_output_adapter@D@__crt_stdio_output@@V?$format_validation_base@DV?$string_output_adapter@D@__crt_stdio_output@@@2@@__crt_stdio_output@@AAEXII_N@Z 1004f0ea f i libucrt:output.obj
 0001:0004e15d       ??$type_case_integer_parse_into_buffer@I@?$output_processor@DV?$string_output_adapter@D@__crt_stdio_output@@V?$positional_parameter_base@DV?$string_output_adapter@D@__crt_stdio_output@@@2@@__crt_stdio_output@@AAEXII_N@Z 1004f15d f i libucrt:output.obj
 0001:0004e1d0       ??$type_case_integer_parse_into_buffer@I@?$output_processor@DV?$string_output_adapter@D@__crt_stdio_output@@V?$standard_base@DV?$string_output_adapter@D@__crt_stdio_output@@@2@@__crt_stdio_output@@AAEXII_N@Z 1004f1d0 f i libucrt:output.obj
 0001:0004e243       ??$type_case_integer_parse_into_buffer@I@?$output_processor@_WV?$stream_output_adapter@_W@__crt_stdio_output@@V?$format_validation_base@_WV?$stream_output_adapter@_W@__crt_stdio_output@@@2@@__crt_stdio_output@@AAEXII_N@Z 1004f243 f i libucrt:output.obj
 0001:0004e2ca       ??$type_case_integer_parse_into_buffer@I@?$output_processor@_WV?$stream_output_adapter@_W@__crt_stdio_output@@V?$positional_parameter_base@_WV?$stream_output_adapter@_W@__crt_stdio_output@@@2@@__crt_stdio_output@@AAEXII_N@Z 1004f2ca f i libucrt:output.obj
 0001:0004e351       ??$type_case_integer_parse_into_buffer@I@?$output_processor@_WV?$stream_output_adapter@_W@__crt_stdio_output@@V?$standard_base@_WV?$stream_output_adapter@_W@__crt_stdio_output@@@2@@__crt_stdio_output@@AAEXII_N@Z 1004f351 f i libucrt:output.obj
 0001:0004e3d8       ??$type_case_integer_parse_into_buffer@I@?$output_processor@_WV?$string_output_adapter@_W@__crt_stdio_output@@V?$format_validation_base@_WV?$string_output_adapter@_W@__crt_stdio_output@@@2@@__crt_stdio_output@@AAEXII_N@Z 1004f3d8 f i libucrt:output.obj
 0001:0004e45f       ??$type_case_integer_parse_into_buffer@I@?$output_processor@_WV?$string_output_adapter@_W@__crt_stdio_output@@V?$positional_parameter_base@_WV?$string_output_adapter@_W@__crt_stdio_output@@@2@@__crt_stdio_output@@AAEXII_N@Z 1004f45f f i libucrt:output.obj
 0001:0004e4e6       ??$type_case_integer_parse_into_buffer@I@?$output_processor@_WV?$string_output_adapter@_W@__crt_stdio_output@@V?$standard_base@_WV?$string_output_adapter@_W@__crt_stdio_output@@@2@@__crt_stdio_output@@AAEXII_N@Z 1004f4e6 f i libucrt:output.obj
 0001:0004e56d       ??$type_case_integer_parse_into_buffer@_K@?$output_processor@DV?$stream_output_adapter@D@__crt_stdio_output@@V?$format_validation_base@DV?$stream_output_adapter@D@__crt_stdio_output@@@2@@__crt_stdio_output@@AAEX_KI_N@Z 1004f56d f i libucrt:output.obj
 0001:0004e5fb       ??$type_case_integer_parse_into_buffer@_K@?$output_processor@DV?$stream_output_adapter@D@__crt_stdio_output@@V?$positional_parameter_base@DV?$stream_output_adapter@D@__crt_stdio_output@@@2@@__crt_stdio_output@@AAEX_KI_N@Z 1004f5fb f i libucrt:output.obj
 0001:0004e689       ??$type_case_integer_parse_into_buffer@_K@?$output_processor@DV?$stream_output_adapter@D@__crt_stdio_output@@V?$standard_base@DV?$stream_output_adapter@D@__crt_stdio_output@@@2@@__crt_stdio_output@@AAEX_KI_N@Z 1004f689 f i libucrt:output.obj
 0001:0004e717       ??$type_case_integer_parse_into_buffer@_K@?$output_processor@DV?$string_output_adapter@D@__crt_stdio_output@@V?$format_validation_base@DV?$string_output_adapter@D@__crt_stdio_output@@@2@@__crt_stdio_output@@AAEX_KI_N@Z 1004f717 f i libucrt:output.obj
 0001:0004e7a5       ??$type_case_integer_parse_into_buffer@_K@?$output_processor@DV?$string_output_adapter@D@__crt_stdio_output@@V?$positional_parameter_base@DV?$string_output_adapter@D@__crt_stdio_output@@@2@@__crt_stdio_output@@AAEX_KI_N@Z 1004f7a5 f i libucrt:output.obj
 0001:0004e833       ??$type_case_integer_parse_into_buffer@_K@?$output_processor@DV?$string_output_adapter@D@__crt_stdio_output@@V?$standard_base@DV?$string_output_adapter@D@__crt_stdio_output@@@2@@__crt_stdio_output@@AAEX_KI_N@Z 1004f833 f i libucrt:output.obj
 0001:0004e8c1       ??$type_case_integer_parse_into_buffer@_K@?$output_processor@_WV?$stream_output_adapter@_W@__crt_stdio_output@@V?$format_validation_base@_WV?$stream_output_adapter@_W@__crt_stdio_output@@@2@@__crt_stdio_output@@AAEX_KI_N@Z 1004f8c1 f i libucrt:output.obj
 0001:0004e963       ??$type_case_integer_parse_into_buffer@_K@?$output_processor@_WV?$stream_output_adapter@_W@__crt_stdio_output@@V?$positional_parameter_base@_WV?$stream_output_adapter@_W@__crt_stdio_output@@@2@@__crt_stdio_output@@AAEX_KI_N@Z 1004f963 f i libucrt:output.obj
 0001:0004ea05       ??$type_case_integer_parse_into_buffer@_K@?$output_processor@_WV?$stream_output_adapter@_W@__crt_stdio_output@@V?$standard_base@_WV?$stream_output_adapter@_W@__crt_stdio_output@@@2@@__crt_stdio_output@@AAEX_KI_N@Z 1004fa05 f i libucrt:output.obj
 0001:0004eaa7       ??$type_case_integer_parse_into_buffer@_K@?$output_processor@_WV?$string_output_adapter@_W@__crt_stdio_output@@V?$format_validation_base@_WV?$string_output_adapter@_W@__crt_stdio_output@@@2@@__crt_stdio_output@@AAEX_KI_N@Z 1004faa7 f i libucrt:output.obj
 0001:0004eb49       ??$type_case_integer_parse_into_buffer@_K@?$output_processor@_WV?$string_output_adapter@_W@__crt_stdio_output@@V?$positional_parameter_base@_WV?$string_output_adapter@_W@__crt_stdio_output@@@2@@__crt_stdio_output@@AAEX_KI_N@Z 1004fb49 f i libucrt:output.obj
 0001:0004ebeb       ??$type_case_integer_parse_into_buffer@_K@?$output_processor@_WV?$string_output_adapter@_W@__crt_stdio_output@@V?$standard_base@_WV?$string_output_adapter@_W@__crt_stdio_output@@@2@@__crt_stdio_output@@AAEX_KI_N@Z 1004fbeb f i libucrt:output.obj
 0001:0004ec8d       ??$write_multiple_characters@V?$stream_output_adapter@D@__crt_stdio_output@@D@__crt_stdio_output@@YAXABV?$stream_output_adapter@D@0@DHQAH@Z 1004fc8d f i libucrt:output.obj
 0001:0004ecc8       ??$write_multiple_characters@V?$stream_output_adapter@_W@__crt_stdio_output@@D@__crt_stdio_output@@YAXABV?$stream_output_adapter@_W@0@DHQAH@Z 1004fcc8 f i libucrt:output.obj
 0001:0004ed08       ??$write_multiple_characters@V?$string_output_adapter@D@__crt_stdio_output@@D@__crt_stdio_output@@YAXABV?$string_output_adapter@D@0@DHQAH@Z 1004fd08 f i libucrt:output.obj
 0001:0004ed34       ??$write_multiple_characters@V?$string_output_adapter@_W@__crt_stdio_output@@D@__crt_stdio_output@@YAXABV?$string_output_adapter@_W@0@DHQAH@Z 1004fd34 f i libucrt:output.obj
 0001:0004ef2d       ??0?$common_data@D@__crt_stdio_output@@IAE@XZ 1004ff2d f i libucrt:output.obj
 0001:0004ef72       ??0?$common_data@_W@__crt_stdio_output@@IAE@XZ 1004ff72 f i libucrt:output.obj
 0001:0004efbc       ??0?$output_adapter_data@DV?$stream_output_adapter@D@__crt_stdio_output@@@__crt_stdio_output@@IAE@ABV?$stream_output_adapter@D@1@_KQBDQAU__crt_locale_pointers@@QAD@Z 1004ffbc f i libucrt:output.obj
 0001:0004eff8       ??0?$output_adapter_data@DV?$string_output_adapter@D@__crt_stdio_output@@@__crt_stdio_output@@IAE@ABV?$string_output_adapter@D@1@_KQBDQAU__crt_locale_pointers@@QAD@Z 1004fff8 f i libucrt:output.obj
 0001:0004f034       ??0?$output_adapter_data@_WV?$stream_output_adapter@_W@__crt_stdio_output@@@__crt_stdio_output@@IAE@ABV?$stream_output_adapter@_W@1@_KQB_WQAU__crt_locale_pointers@@QAD@Z 10050034 f i libucrt:output.obj
 0001:0004f070       ??0?$output_adapter_data@_WV?$string_output_adapter@_W@__crt_stdio_output@@@__crt_stdio_output@@IAE@ABV?$string_output_adapter@_W@1@_KQB_WQAU__crt_locale_pointers@@QAD@Z 10050070 f i libucrt:output.obj
 0001:0004f0ac       ??0?$output_processor@DV?$stream_output_adapter@D@__crt_stdio_output@@V?$format_validation_base@DV?$stream_output_adapter@D@__crt_stdio_output@@@2@@__crt_stdio_output@@QAE@ABV?$stream_output_adapter@D@1@_KQBDQAU__crt_locale_pointers@@QAD@Z 100500ac f i libucrt:output.obj
 0001:0004f0d9       ??0?$output_processor@DV?$stream_output_adapter@D@__crt_stdio_output@@V?$positional_parameter_base@DV?$stream_output_adapter@D@__crt_stdio_output@@@2@@__crt_stdio_output@@QAE@ABV?$stream_output_adapter@D@1@_KQBDQAU__crt_locale_pointers@@QAD@Z 100500d9 f i libucrt:output.obj
 0001:0004f100       ??0?$output_processor@DV?$stream_output_adapter@D@__crt_stdio_output@@V?$standard_base@DV?$stream_output_adapter@D@__crt_stdio_output@@@2@@__crt_stdio_output@@QAE@ABV?$stream_output_adapter@D@1@_KQBDQAU__crt_locale_pointers@@QAD@Z 10050100 f i libucrt:output.obj
 0001:0004f12d       ??0?$output_processor@DV?$string_output_adapter@D@__crt_stdio_output@@V?$format_validation_base@DV?$string_output_adapter@D@__crt_stdio_output@@@2@@__crt_stdio_output@@QAE@ABV?$string_output_adapter@D@1@_KQBDQAU__crt_locale_pointers@@QAD@Z 1005012d f i libucrt:output.obj
 0001:0004f15a       ??0?$output_processor@DV?$string_output_adapter@D@__crt_stdio_output@@V?$positional_parameter_base@DV?$string_output_adapter@D@__crt_stdio_output@@@2@@__crt_stdio_output@@QAE@ABV?$string_output_adapter@D@1@_KQBDQAU__crt_locale_pointers@@QAD@Z 1005015a f i libucrt:output.obj
 0001:0004f181       ??0?$output_processor@DV?$string_output_adapter@D@__crt_stdio_output@@V?$standard_base@DV?$string_output_adapter@D@__crt_stdio_output@@@2@@__crt_stdio_output@@QAE@ABV?$string_output_adapter@D@1@_KQBDQAU__crt_locale_pointers@@QAD@Z 10050181 f i libucrt:output.obj
 0001:0004f1ae       ??0?$output_processor@_WV?$stream_output_adapter@_W@__crt_stdio_output@@V?$format_validation_base@_WV?$stream_output_adapter@_W@__crt_stdio_output@@@2@@__crt_stdio_output@@QAE@ABV?$stream_output_adapter@_W@1@_KQB_WQAU__crt_locale_pointers@@QAD@Z 100501ae f i libucrt:output.obj
 0001:0004f1db       ??0?$output_processor@_WV?$stream_output_adapter@_W@__crt_stdio_output@@V?$positional_parameter_base@_WV?$stream_output_adapter@_W@__crt_stdio_output@@@2@@__crt_stdio_output@@QAE@ABV?$stream_output_adapter@_W@1@_KQB_WQAU__crt_locale_pointers@@QAD@Z 100501db f i libucrt:output.obj
 0001:0004f202       ??0?$output_processor@_WV?$stream_output_adapter@_W@__crt_stdio_output@@V?$standard_base@_WV?$stream_output_adapter@_W@__crt_stdio_output@@@2@@__crt_stdio_output@@QAE@ABV?$stream_output_adapter@_W@1@_KQB_WQAU__crt_locale_pointers@@QAD@Z 10050202 f i libucrt:output.obj
 0001:0004f22f       ??0?$output_processor@_WV?$string_output_adapter@_W@__crt_stdio_output@@V?$format_validation_base@_WV?$string_output_adapter@_W@__crt_stdio_output@@@2@@__crt_stdio_output@@QAE@ABV?$string_output_adapter@_W@1@_KQB_WQAU__crt_locale_pointers@@QAD@Z 1005022f f i libucrt:output.obj
 0001:0004f25c       ??0?$output_processor@_WV?$string_output_adapter@_W@__crt_stdio_output@@V?$positional_parameter_base@_WV?$string_output_adapter@_W@__crt_stdio_output@@@2@@__crt_stdio_output@@QAE@ABV?$string_output_adapter@_W@1@_KQB_WQAU__crt_locale_pointers@@QAD@Z 1005025c f i libucrt:output.obj
 0001:0004f283       ??0?$output_processor@_WV?$string_output_adapter@_W@__crt_stdio_output@@V?$standard_base@_WV?$string_output_adapter@_W@__crt_stdio_output@@@2@@__crt_stdio_output@@QAE@ABV?$string_output_adapter@_W@1@_KQB_WQAU__crt_locale_pointers@@QAD@Z 10050283 f i libucrt:output.obj
 0001:0004f2b0       ??0?$stream_output_adapter@D@__crt_stdio_output@@QAE@QAU_iobuf@@@Z 100502b0 f i libucrt:output.obj
 0001:0004f2c0       ??0?$stream_output_adapter@_W@__crt_stdio_output@@QAE@QAU_iobuf@@@Z 100502c0 f i libucrt:output.obj
 0001:0004f2d0       ??0?$string_output_adapter@D@__crt_stdio_output@@QAE@QAU?$string_output_adapter_context@D@1@@Z 100502d0 f i libucrt:output.obj
 0001:0004f2e0       ??0?$string_output_adapter@_W@__crt_stdio_output@@QAE@QAU?$string_output_adapter_context@_W@1@@Z 100502e0 f i libucrt:output.obj
 0001:0004f2f0       ??0_LocaleUpdate@@QAE@QAU__crt_locale_pointers@@@Z 100502f0 f i libucrt:output.obj
 0001:0004f373       ??0__acrt_stdio_temporary_buffering_guard@@QAE@QAU_iobuf@@@Z 10050373 f i libucrt:output.obj
 0001:0004f391       ??0__crt_deferred_errno_cache@@QAE@XZ 10050391 f i libucrt:output.obj
 0001:0004f397       ??0__crt_errno_guard@@QAE@QAH@Z 10050397 f i libucrt:output.obj
 0001:0004f3af       ??0__crt_stdio_stream@@QAE@QAU_iobuf@@@Z 100503af f i libucrt:output.obj
 0001:0004f3c0       ??0formatting_buffer@__crt_stdio_output@@QAE@XZ 100503c0 f i libucrt:output.obj
 0001:0004f3d7       ??1?$common_data@D@__crt_stdio_output@@QAE@XZ 100503d7 f i libucrt:output.obj
 0001:0004f3df       ??1?$common_data@_W@__crt_stdio_output@@QAE@XZ 100503df f i libucrt:output.obj
 0001:0004f3e7       ??1?$format_validation_base@DV?$stream_output_adapter@D@__crt_stdio_output@@@__crt_stdio_output@@QAE@XZ 100503e7 f i libucrt:output.obj
 0001:0004f3ef       ??1?$format_validation_base@DV?$string_output_adapter@D@__crt_stdio_output@@@__crt_stdio_output@@QAE@XZ 100503ef f i libucrt:output.obj
 0001:0004f3f7       ??1?$format_validation_base@_WV?$stream_output_adapter@_W@__crt_stdio_output@@@__crt_stdio_output@@QAE@XZ 100503f7 f i libucrt:output.obj
 0001:0004f3ff       ??1?$format_validation_base@_WV?$string_output_adapter@_W@__crt_stdio_output@@@__crt_stdio_output@@QAE@XZ 100503ff f i libucrt:output.obj
 0001:0004f407       ??1?$output_adapter_data@DV?$stream_output_adapter@D@__crt_stdio_output@@@__crt_stdio_output@@QAE@XZ 10050407 f i libucrt:output.obj
 0001:0004f40f       ??1?$output_adapter_data@DV?$string_output_adapter@D@__crt_stdio_output@@@__crt_stdio_output@@QAE@XZ 1005040f f i libucrt:output.obj
 0001:0004f417       ??1?$output_adapter_data@_WV?$stream_output_adapter@_W@__crt_stdio_output@@@__crt_stdio_output@@QAE@XZ 10050417 f i libucrt:output.obj
 0001:0004f41f       ??1?$output_adapter_data@_WV?$string_output_adapter@_W@__crt_stdio_output@@@__crt_stdio_output@@QAE@XZ 1005041f f i libucrt:output.obj
 0001:0004f427       ??1?$output_processor@DV?$stream_output_adapter@D@__crt_stdio_output@@V?$format_validation_base@DV?$stream_output_adapter@D@__crt_stdio_output@@@2@@__crt_stdio_output@@QAE@XZ 10050427 f i libucrt:output.obj
 0001:0004f42f       ??1?$output_processor@DV?$stream_output_adapter@D@__crt_stdio_output@@V?$positional_parameter_base@DV?$stream_output_adapter@D@__crt_stdio_output@@@2@@__crt_stdio_output@@QAE@XZ 1005042f f i libucrt:output.obj
 0001:0004f437       ??1?$output_processor@DV?$stream_output_adapter@D@__crt_stdio_output@@V?$standard_base@DV?$stream_output_adapter@D@__crt_stdio_output@@@2@@__crt_stdio_output@@QAE@XZ 10050437 f i libucrt:output.obj
 0001:0004f43f       ??1?$output_processor@DV?$string_output_adapter@D@__crt_stdio_output@@V?$format_validation_base@DV?$string_output_adapter@D@__crt_stdio_output@@@2@@__crt_stdio_output@@QAE@XZ 1005043f f i libucrt:output.obj
 0001:0004f447       ??1?$output_processor@DV?$string_output_adapter@D@__crt_stdio_output@@V?$positional_parameter_base@DV?$string_output_adapter@D@__crt_stdio_output@@@2@@__crt_stdio_output@@QAE@XZ 10050447 f i libucrt:output.obj
 0001:0004f44f       ??1?$output_processor@DV?$string_output_adapter@D@__crt_stdio_output@@V?$standard_base@DV?$string_output_adapter@D@__crt_stdio_output@@@2@@__crt_stdio_output@@QAE@XZ 1005044f f i libucrt:output.obj
 0001:0004f457       ??1?$output_processor@_WV?$stream_output_adapter@_W@__crt_stdio_output@@V?$format_validation_base@_WV?$stream_output_adapter@_W@__crt_stdio_output@@@2@@__crt_stdio_output@@QAE@XZ 10050457 f i libucrt:output.obj
 0001:0004f45f       ??1?$output_processor@_WV?$stream_output_adapter@_W@__crt_stdio_output@@V?$positional_parameter_base@_WV?$stream_output_adapter@_W@__crt_stdio_output@@@2@@__crt_stdio_output@@QAE@XZ 1005045f f i libucrt:output.obj
 0001:0004f467       ??1?$output_processor@_WV?$stream_output_adapter@_W@__crt_stdio_output@@V?$standard_base@_WV?$stream_output_adapter@_W@__crt_stdio_output@@@2@@__crt_stdio_output@@QAE@XZ 10050467 f i libucrt:output.obj
 0001:0004f46f       ??1?$output_processor@_WV?$string_output_adapter@_W@__crt_stdio_output@@V?$format_validation_base@_WV?$string_output_adapter@_W@__crt_stdio_output@@@2@@__crt_stdio_output@@QAE@XZ 1005046f f i libucrt:output.obj
 0001:0004f477       ??1?$output_processor@_WV?$string_output_adapter@_W@__crt_stdio_output@@V?$positional_parameter_base@_WV?$string_output_adapter@_W@__crt_stdio_output@@@2@@__crt_stdio_output@@QAE@XZ 10050477 f i libucrt:output.obj
 0001:0004f47f       ??1?$output_processor@_WV?$string_output_adapter@_W@__crt_stdio_output@@V?$standard_base@_WV?$string_output_adapter@_W@__crt_stdio_output@@@2@@__crt_stdio_output@@QAE@XZ 1005047f f i libucrt:output.obj
 0001:0004f487       ??1?$positional_parameter_base@DV?$stream_output_adapter@D@__crt_stdio_output@@@__crt_stdio_output@@QAE@XZ 10050487 f i libucrt:output.obj
 0001:0004f48f       ??1?$positional_parameter_base@DV?$string_output_adapter@D@__crt_stdio_output@@@__crt_stdio_output@@QAE@XZ 1005048f f i libucrt:output.obj
 0001:0004f497       ??1?$positional_parameter_base@_WV?$stream_output_adapter@_W@__crt_stdio_output@@@__crt_stdio_output@@QAE@XZ 10050497 f i libucrt:output.obj
 0001:0004f49f       ??1?$positional_parameter_base@_WV?$string_output_adapter@_W@__crt_stdio_output@@@__crt_stdio_output@@QAE@XZ 1005049f f i libucrt:output.obj
 0001:0004f4a7       ??1?$standard_base@DV?$stream_output_adapter@D@__crt_stdio_output@@@__crt_stdio_output@@QAE@XZ 100504a7 f i libucrt:output.obj
 0001:0004f4af       ??1?$standard_base@DV?$string_output_adapter@D@__crt_stdio_output@@@__crt_stdio_output@@QAE@XZ 100504af f i libucrt:output.obj
 0001:0004f4b7       ??1?$standard_base@_WV?$stream_output_adapter@_W@__crt_stdio_output@@@__crt_stdio_output@@QAE@XZ 100504b7 f i libucrt:output.obj
 0001:0004f4bf       ??1?$standard_base@_WV?$string_output_adapter@_W@__crt_stdio_output@@@__crt_stdio_output@@QAE@XZ 100504bf f i libucrt:output.obj
 0001:0004f4c7       ??1_LocaleUpdate@@QAE@XZ   100504c7 f i libucrt:output.obj
 0001:0004f4d7       ??1__acrt_stdio_temporary_buffering_guard@@QAE@XZ 100504d7 f i libucrt:output.obj
 0001:0004f4e6       ??1__crt_errno_guard@@QAE@XZ 100504e6 f i libucrt:output.obj
 0001:0004f4f7       ??1formatting_buffer@__crt_stdio_output@@QAE@XZ 100504f7 f i libucrt:output.obj
 0001:0004f511       ??4?$__crt_unique_heap_ptr@DU__crt_internal_free_policy@@@@QAEAAV0@$$QAV0@@Z 10050511 f i libucrt:output.obj
 0001:0004f535       ??A?$spectre_mitigated_lookup_table@Ustate_transition_pair@__crt_stdio_output@@$0IA@@__crt_stdio_output@@QBEABUstate_transition_pair@1@I@Z 10050535 f i libucrt:output.obj
 0001:0004f547       ??C__crt_stdio_stream@@QBEPAU__crt_stdio_stream_data@@XZ 10050547 f i libucrt:output.obj
 0001:0004fa9a       ?GetLocaleT@_LocaleUpdate@@QAEPAU__crt_locale_pointers@@XZ 10050a9a f i libucrt:output.obj
 0001:0004fa9e       ?adjust_hexit@?$output_processor@DV?$stream_output_adapter@D@__crt_stdio_output@@V?$format_validation_base@DV?$stream_output_adapter@D@__crt_stdio_output@@@2@@__crt_stdio_output@@CADH_N@Z 10050a9e f i libucrt:output.obj
 0001:0004fab2       ?adjust_hexit@?$output_processor@DV?$stream_output_adapter@D@__crt_stdio_output@@V?$positional_parameter_base@DV?$stream_output_adapter@D@__crt_stdio_output@@@2@@__crt_stdio_output@@CADH_N@Z 10050ab2 f i libucrt:output.obj
 0001:0004fac6       ?adjust_hexit@?$output_processor@DV?$stream_output_adapter@D@__crt_stdio_output@@V?$standard_base@DV?$stream_output_adapter@D@__crt_stdio_output@@@2@@__crt_stdio_output@@CADH_N@Z 10050ac6 f i libucrt:output.obj
 0001:0004fada       ?adjust_hexit@?$output_processor@DV?$string_output_adapter@D@__crt_stdio_output@@V?$format_validation_base@DV?$string_output_adapter@D@__crt_stdio_output@@@2@@__crt_stdio_output@@CADH_N@Z 10050ada f i libucrt:output.obj
 0001:0004faee       ?adjust_hexit@?$output_processor@DV?$string_output_adapter@D@__crt_stdio_output@@V?$positional_parameter_base@DV?$string_output_adapter@D@__crt_stdio_output@@@2@@__crt_stdio_output@@CADH_N@Z 10050aee f i libucrt:output.obj
 0001:0004fb02       ?adjust_hexit@?$output_processor@DV?$string_output_adapter@D@__crt_stdio_output@@V?$standard_base@DV?$string_output_adapter@D@__crt_stdio_output@@@2@@__crt_stdio_output@@CADH_N@Z 10050b02 f i libucrt:output.obj
 0001:0004fb16       ?adjust_hexit@?$output_processor@_WV?$stream_output_adapter@_W@__crt_stdio_output@@V?$format_validation_base@_WV?$stream_output_adapter@_W@__crt_stdio_output@@@2@@__crt_stdio_output@@CADH_N@Z 10050b16 f i libucrt:output.obj
 0001:0004fb2a       ?adjust_hexit@?$output_processor@_WV?$stream_output_adapter@_W@__crt_stdio_output@@V?$positional_parameter_base@_WV?$stream_output_adapter@_W@__crt_stdio_output@@@2@@__crt_stdio_output@@CADH_N@Z 10050b2a f i libucrt:output.obj
 0001:0004fb3e       ?adjust_hexit@?$output_processor@_WV?$stream_output_adapter@_W@__crt_stdio_output@@V?$standard_base@_WV?$stream_output_adapter@_W@__crt_stdio_output@@@2@@__crt_stdio_output@@CADH_N@Z 10050b3e f i libucrt:output.obj
 0001:0004fb52       ?adjust_hexit@?$output_processor@_WV?$string_output_adapter@_W@__crt_stdio_output@@V?$format_validation_base@_WV?$string_output_adapter@_W@__crt_stdio_output@@@2@@__crt_stdio_output@@CADH_N@Z 10050b52 f i libucrt:output.obj
 0001:0004fb66       ?adjust_hexit@?$output_processor@_WV?$string_output_adapter@_W@__crt_stdio_output@@V?$positional_parameter_base@_WV?$string_output_adapter@_W@__crt_stdio_output@@@2@@__crt_stdio_output@@CADH_N@Z 10050b66 f i libucrt:output.obj
 0001:0004fb7a       ?adjust_hexit@?$output_processor@_WV?$string_output_adapter@_W@__crt_stdio_output@@V?$standard_base@_WV?$string_output_adapter@_W@__crt_stdio_output@@@2@@__crt_stdio_output@@CADH_N@Z 10050b7a f i libucrt:output.obj
 0001:0004fb8e       ?advance_to_next_pass@?$positional_parameter_base@DV?$stream_output_adapter@D@__crt_stdio_output@@@__crt_stdio_output@@IAE_NXZ 10050b8e f i libucrt:output.obj
 0001:0004fbda       ?advance_to_next_pass@?$positional_parameter_base@DV?$string_output_adapter@D@__crt_stdio_output@@@__crt_stdio_output@@IAE_NXZ 10050bda f i libucrt:output.obj
 0001:0004fc26       ?advance_to_next_pass@?$positional_parameter_base@_WV?$stream_output_adapter@_W@__crt_stdio_output@@@__crt_stdio_output@@IAE_NXZ 10050c26 f i libucrt:output.obj
 0001:0004fc72       ?advance_to_next_pass@?$positional_parameter_base@_WV?$string_output_adapter@_W@__crt_stdio_output@@@__crt_stdio_output@@IAE_NXZ 10050c72 f i libucrt:output.obj
 0001:0004fcbe       ?advance_to_next_pass@?$standard_base@DV?$stream_output_adapter@D@__crt_stdio_output@@@__crt_stdio_output@@IAE_NXZ 10050cbe f i libucrt:output.obj
 0001:0004fccf       ?advance_to_next_pass@?$standard_base@DV?$string_output_adapter@D@__crt_stdio_output@@@__crt_stdio_output@@IAE_NXZ 10050ccf f i libucrt:output.obj
 0001:0004fce0       ?advance_to_next_pass@?$standard_base@_WV?$stream_output_adapter@_W@__crt_stdio_output@@@__crt_stdio_output@@IAE_NXZ 10050ce0 f i libucrt:output.obj
 0001:0004fcf1       ?advance_to_next_pass@?$standard_base@_WV?$string_output_adapter@_W@__crt_stdio_output@@@__crt_stdio_output@@IAE_NXZ 10050cf1 f i libucrt:output.obj
 0001:0004fd10       ?crop_zeroes@__crt_stdio_output@@YAXPADQAU__crt_locale_pointers@@@Z 10050d10 f i libucrt:output.obj
 0001:0004fd91       ?find_next_state@?$output_processor@DV?$stream_output_adapter@D@__crt_stdio_output@@V?$format_validation_base@DV?$stream_output_adapter@D@__crt_stdio_output@@@2@@__crt_stdio_output@@ABE?AW4state@2@DW432@@Z 10050d91 f i libucrt:output.obj
 0001:0004fdc8       ?find_next_state@?$output_processor@DV?$stream_output_adapter@D@__crt_stdio_output@@V?$positional_parameter_base@DV?$stream_output_adapter@D@__crt_stdio_output@@@2@@__crt_stdio_output@@ABE?AW4state@2@DW432@@Z 10050dc8 f i libucrt:output.obj
 0001:0004fdff       ?find_next_state@?$output_processor@DV?$stream_output_adapter@D@__crt_stdio_output@@V?$standard_base@DV?$stream_output_adapter@D@__crt_stdio_output@@@2@@__crt_stdio_output@@ABE?AW4state@2@DW432@@Z 10050dff f i libucrt:output.obj
 0001:0004fe36       ?find_next_state@?$output_processor@DV?$string_output_adapter@D@__crt_stdio_output@@V?$format_validation_base@DV?$string_output_adapter@D@__crt_stdio_output@@@2@@__crt_stdio_output@@ABE?AW4state@2@DW432@@Z 10050e36 f i libucrt:output.obj
 0001:0004fe6d       ?find_next_state@?$output_processor@DV?$string_output_adapter@D@__crt_stdio_output@@V?$positional_parameter_base@DV?$string_output_adapter@D@__crt_stdio_output@@@2@@__crt_stdio_output@@ABE?AW4state@2@DW432@@Z 10050e6d f i libucrt:output.obj
 0001:0004fea4       ?find_next_state@?$output_processor@DV?$string_output_adapter@D@__crt_stdio_output@@V?$standard_base@DV?$string_output_adapter@D@__crt_stdio_output@@@2@@__crt_stdio_output@@ABE?AW4state@2@DW432@@Z 10050ea4 f i libucrt:output.obj
 0001:0004fedb       ?find_next_state@?$output_processor@_WV?$stream_output_adapter@_W@__crt_stdio_output@@V?$format_validation_base@_WV?$stream_output_adapter@_W@__crt_stdio_output@@@2@@__crt_stdio_output@@ABE?AW4state@2@_WW432@@Z 10050edb f i libucrt:output.obj
 0001:0004ff11       ?find_next_state@?$output_processor@_WV?$stream_output_adapter@_W@__crt_stdio_output@@V?$positional_parameter_base@_WV?$stream_output_adapter@_W@__crt_stdio_output@@@2@@__crt_stdio_output@@ABE?AW4state@2@_WW432@@Z 10050f11 f i libucrt:output.obj
 0001:0004ff47       ?find_next_state@?$output_processor@_WV?$stream_output_adapter@_W@__crt_stdio_output@@V?$standard_base@_WV?$stream_output_adapter@_W@__crt_stdio_output@@@2@@__crt_stdio_output@@ABE?AW4state@2@_WW432@@Z 10050f47 f i libucrt:output.obj
 0001:0004ff7d       ?find_next_state@?$output_processor@_WV?$string_output_adapter@_W@__crt_stdio_output@@V?$format_validation_base@_WV?$string_output_adapter@_W@__crt_stdio_output@@@2@@__crt_stdio_output@@ABE?AW4state@2@_WW432@@Z 10050f7d f i libucrt:output.obj
 0001:0004ffb3       ?find_next_state@?$output_processor@_WV?$string_output_adapter@_W@__crt_stdio_output@@V?$positional_parameter_base@_WV?$string_output_adapter@_W@__crt_stdio_output@@@2@@__crt_stdio_output@@ABE?AW4state@2@_WW432@@Z 10050fb3 f i libucrt:output.obj
 0001:0004ffe9       ?find_next_state@?$output_processor@_WV?$string_output_adapter@_W@__crt_stdio_output@@V?$standard_base@_WV?$string_output_adapter@_W@__crt_stdio_output@@@2@@__crt_stdio_output@@ABE?AW4state@2@_WW432@@Z 10050fe9 f i libucrt:output.obj
 0001:00050020       ?force_decimal_point@__crt_stdio_output@@YAXPADQAU__crt_locale_pointers@@@Z 10051020 f i libucrt:output.obj
 0001:00050085       ?get@__crt_deferred_errno_cache@@QAEAAHXZ 10051085 f i libucrt:output.obj
 0001:00050099       ?get_flags@__crt_stdio_stream@@QBEJXZ 10051099 f i libucrt:output.obj
 0001:000500a0       ?get_parameter_type@?$positional_parameter_base@DV?$stream_output_adapter@D@__crt_stdio_output@@@__crt_stdio_output@@CA?AW4parameter_type@12@F@Z 100510a0 f i libucrt:output.obj
 0001:000500a4       ?get_parameter_type@?$positional_parameter_base@DV?$stream_output_adapter@D@__crt_stdio_output@@@__crt_stdio_output@@CA?AW4parameter_type@12@G@Z 100510a4 f i libucrt:output.obj
 0001:000500a8       ?get_parameter_type@?$positional_parameter_base@DV?$stream_output_adapter@D@__crt_stdio_output@@@__crt_stdio_output@@CA?AW4parameter_type@12@H@Z 100510a8 f i libucrt:output.obj
 0001:000500ac       ?get_parameter_type@?$positional_parameter_base@DV?$stream_output_adapter@D@__crt_stdio_output@@@__crt_stdio_output@@CA?AW4parameter_type@12@I@Z 100510ac f i libucrt:output.obj
 0001:000500b0       ?get_parameter_type@?$positional_parameter_base@DV?$stream_output_adapter@D@__crt_stdio_output@@@__crt_stdio_output@@CA?AW4parameter_type@12@U_CRT_DOUBLE@@@Z 100510b0 f i libucrt:output.obj
 0001:000500b4       ?get_parameter_type@?$positional_parameter_base@DV?$stream_output_adapter@D@__crt_stdio_output@@@__crt_stdio_output@@CA?AW4parameter_type@12@_J@Z 100510b4 f i libucrt:output.obj
 0001:000500b8       ?get_parameter_type@?$positional_parameter_base@DV?$stream_output_adapter@D@__crt_stdio_output@@@__crt_stdio_output@@CA?AW4parameter_type@12@_K@Z 100510b8 f i libucrt:output.obj
 0001:000500bc       ?get_parameter_type@?$positional_parameter_base@DV?$stream_output_adapter@D@__crt_stdio_output@@@__crt_stdio_output@@CA?AW4parameter_type@12@_W@Z 100510bc f i libucrt:output.obj
 0001:000500c0       ?get_parameter_type@?$positional_parameter_base@DV?$string_output_adapter@D@__crt_stdio_output@@@__crt_stdio_output@@CA?AW4parameter_type@12@F@Z 100510c0 f i libucrt:output.obj
 0001:000500c4       ?get_parameter_type@?$positional_parameter_base@DV?$string_output_adapter@D@__crt_stdio_output@@@__crt_stdio_output@@CA?AW4parameter_type@12@G@Z 100510c4 f i libucrt:output.obj
 0001:000500c8       ?get_parameter_type@?$positional_parameter_base@DV?$string_output_adapter@D@__crt_stdio_output@@@__crt_stdio_output@@CA?AW4parameter_type@12@H@Z 100510c8 f i libucrt:output.obj
 0001:000500cc       ?get_parameter_type@?$positional_parameter_base@DV?$string_output_adapter@D@__crt_stdio_output@@@__crt_stdio_output@@CA?AW4parameter_type@12@I@Z 100510cc f i libucrt:output.obj
 0001:000500d0       ?get_parameter_type@?$positional_parameter_base@DV?$string_output_adapter@D@__crt_stdio_output@@@__crt_stdio_output@@CA?AW4parameter_type@12@U_CRT_DOUBLE@@@Z 100510d0 f i libucrt:output.obj
 0001:000500d4       ?get_parameter_type@?$positional_parameter_base@DV?$string_output_adapter@D@__crt_stdio_output@@@__crt_stdio_output@@CA?AW4parameter_type@12@_J@Z 100510d4 f i libucrt:output.obj
 0001:000500d8       ?get_parameter_type@?$positional_parameter_base@DV?$string_output_adapter@D@__crt_stdio_output@@@__crt_stdio_output@@CA?AW4parameter_type@12@_K@Z 100510d8 f i libucrt:output.obj
 0001:000500dc       ?get_parameter_type@?$positional_parameter_base@DV?$string_output_adapter@D@__crt_stdio_output@@@__crt_stdio_output@@CA?AW4parameter_type@12@_W@Z 100510dc f i libucrt:output.obj
 0001:000500e0       ?get_parameter_type@?$positional_parameter_base@_WV?$stream_output_adapter@_W@__crt_stdio_output@@@__crt_stdio_output@@CA?AW4parameter_type@12@F@Z 100510e0 f i libucrt:output.obj
 0001:000500e4       ?get_parameter_type@?$positional_parameter_base@_WV?$stream_output_adapter@_W@__crt_stdio_output@@@__crt_stdio_output@@CA?AW4parameter_type@12@G@Z 100510e4 f i libucrt:output.obj
 0001:000500e8       ?get_parameter_type@?$positional_parameter_base@_WV?$stream_output_adapter@_W@__crt_stdio_output@@@__crt_stdio_output@@CA?AW4parameter_type@12@H@Z 100510e8 f i libucrt:output.obj
 0001:000500ec       ?get_parameter_type@?$positional_parameter_base@_WV?$stream_output_adapter@_W@__crt_stdio_output@@@__crt_stdio_output@@CA?AW4parameter_type@12@I@Z 100510ec f i libucrt:output.obj
 0001:000500f0       ?get_parameter_type@?$positional_parameter_base@_WV?$stream_output_adapter@_W@__crt_stdio_output@@@__crt_stdio_output@@CA?AW4parameter_type@12@U_CRT_DOUBLE@@@Z 100510f0 f i libucrt:output.obj
 0001:000500f4       ?get_parameter_type@?$positional_parameter_base@_WV?$stream_output_adapter@_W@__crt_stdio_output@@@__crt_stdio_output@@CA?AW4parameter_type@12@_J@Z 100510f4 f i libucrt:output.obj
 0001:000500f8       ?get_parameter_type@?$positional_parameter_base@_WV?$stream_output_adapter@_W@__crt_stdio_output@@@__crt_stdio_output@@CA?AW4parameter_type@12@_K@Z 100510f8 f i libucrt:output.obj
 0001:000500fc       ?get_parameter_type@?$positional_parameter_base@_WV?$stream_output_adapter@_W@__crt_stdio_output@@@__crt_stdio_output@@CA?AW4parameter_type@12@_W@Z 100510fc f i libucrt:output.obj
 0001:00050100       ?get_parameter_type@?$positional_parameter_base@_WV?$string_output_adapter@_W@__crt_stdio_output@@@__crt_stdio_output@@CA?AW4parameter_type@12@F@Z 10051100 f i libucrt:output.obj
 0001:00050104       ?get_parameter_type@?$positional_parameter_base@_WV?$string_output_adapter@_W@__crt_stdio_output@@@__crt_stdio_output@@CA?AW4parameter_type@12@G@Z 10051104 f i libucrt:output.obj
 0001:00050108       ?get_parameter_type@?$positional_parameter_base@_WV?$string_output_adapter@_W@__crt_stdio_output@@@__crt_stdio_output@@CA?AW4parameter_type@12@H@Z 10051108 f i libucrt:output.obj
 0001:0005010c       ?get_parameter_type@?$positional_parameter_base@_WV?$string_output_adapter@_W@__crt_stdio_output@@@__crt_stdio_output@@CA?AW4parameter_type@12@I@Z 1005110c f i libucrt:output.obj
 0001:00050110       ?get_parameter_type@?$positional_parameter_base@_WV?$string_output_adapter@_W@__crt_stdio_output@@@__crt_stdio_output@@CA?AW4parameter_type@12@U_CRT_DOUBLE@@@Z 10051110 f i libucrt:output.obj
 0001:00050114       ?get_parameter_type@?$positional_parameter_base@_WV?$string_output_adapter@_W@__crt_stdio_output@@@__crt_stdio_output@@CA?AW4parameter_type@12@_J@Z 10051114 f i libucrt:output.obj
 0001:00050118       ?get_parameter_type@?$positional_parameter_base@_WV?$string_output_adapter@_W@__crt_stdio_output@@@__crt_stdio_output@@CA?AW4parameter_type@12@_K@Z 10051118 f i libucrt:output.obj
 0001:0005011c       ?get_parameter_type@?$positional_parameter_base@_WV?$string_output_adapter@_W@__crt_stdio_output@@@__crt_stdio_output@@CA?AW4parameter_type@12@_W@Z 1005111c f i libucrt:output.obj
 0001:00050120       ?has_flag@?$output_processor@DV?$stream_output_adapter@D@__crt_stdio_output@@V?$format_validation_base@DV?$stream_output_adapter@D@__crt_stdio_output@@@2@@__crt_stdio_output@@ABE_NI@Z 10051120 f i libucrt:output.obj
 0001:00050132       ?has_flag@?$output_processor@DV?$stream_output_adapter@D@__crt_stdio_output@@V?$positional_parameter_base@DV?$stream_output_adapter@D@__crt_stdio_output@@@2@@__crt_stdio_output@@ABE_NI@Z 10051132 f i libucrt:output.obj
 0001:00050144       ?has_flag@?$output_processor@DV?$stream_output_adapter@D@__crt_stdio_output@@V?$standard_base@DV?$stream_output_adapter@D@__crt_stdio_output@@@2@@__crt_stdio_output@@ABE_NI@Z 10051144 f i libucrt:output.obj
 0001:00050156       ?has_flag@?$output_processor@DV?$string_output_adapter@D@__crt_stdio_output@@V?$format_validation_base@DV?$string_output_adapter@D@__crt_stdio_output@@@2@@__crt_stdio_output@@ABE_NI@Z 10051156 f i libucrt:output.obj
 0001:00050168       ?has_flag@?$output_processor@DV?$string_output_adapter@D@__crt_stdio_output@@V?$positional_parameter_base@DV?$string_output_adapter@D@__crt_stdio_output@@@2@@__crt_stdio_output@@ABE_NI@Z 10051168 f i libucrt:output.obj
 0001:0005017a       ?has_flag@?$output_processor@DV?$string_output_adapter@D@__crt_stdio_output@@V?$standard_base@DV?$string_output_adapter@D@__crt_stdio_output@@@2@@__crt_stdio_output@@ABE_NI@Z 1005117a f i libucrt:output.obj
 0001:0005018c       ?has_flag@?$output_processor@_WV?$stream_output_adapter@_W@__crt_stdio_output@@V?$format_validation_base@_WV?$stream_output_adapter@_W@__crt_stdio_output@@@2@@__crt_stdio_output@@ABE_NI@Z 1005118c f i libucrt:output.obj
 0001:0005019e       ?has_flag@?$output_processor@_WV?$stream_output_adapter@_W@__crt_stdio_output@@V?$positional_parameter_base@_WV?$stream_output_adapter@_W@__crt_stdio_output@@@2@@__crt_stdio_output@@ABE_NI@Z 1005119e f i libucrt:output.obj
 0001:000501b0       ?has_flag@?$output_processor@_WV?$stream_output_adapter@_W@__crt_stdio_output@@V?$standard_base@_WV?$stream_output_adapter@_W@__crt_stdio_output@@@2@@__crt_stdio_output@@ABE_NI@Z 100511b0 f i libucrt:output.obj
 0001:000501c2       ?has_flag@?$output_processor@_WV?$string_output_adapter@_W@__crt_stdio_output@@V?$format_validation_base@_WV?$string_output_adapter@_W@__crt_stdio_output@@@2@@__crt_stdio_output@@ABE_NI@Z 100511c2 f i libucrt:output.obj
 0001:000501d4       ?has_flag@?$output_processor@_WV?$string_output_adapter@_W@__crt_stdio_output@@V?$positional_parameter_base@_WV?$string_output_adapter@_W@__crt_stdio_output@@@2@@__crt_stdio_output@@ABE_NI@Z 100511d4 f i libucrt:output.obj
 0001:000501e6       ?has_flag@?$output_processor@_WV?$string_output_adapter@_W@__crt_stdio_output@@V?$standard_base@_WV?$string_output_adapter@_W@__crt_stdio_output@@@2@@__crt_stdio_output@@ABE_NI@Z 100511e6 f i libucrt:output.obj
 0001:000501f8       ?is_positional_parameter_reappearance_consistent@?$positional_parameter_base@DV?$stream_output_adapter@D@__crt_stdio_output@@@__crt_stdio_output@@AAE_NABUparameter_data@12@W4parameter_type@12@DW4length_modifier@2@@Z 100511f8 f i libucrt:output.obj
 0001:00050312       ?is_positional_parameter_reappearance_consistent@?$positional_parameter_base@DV?$string_output_adapter@D@__crt_stdio_output@@@__crt_stdio_output@@AAE_NABUparameter_data@12@W4parameter_type@12@DW4length_modifier@2@@Z 10051312 f i libucrt:output.obj
 0001:0005042c       ?is_positional_parameter_reappearance_consistent@?$positional_parameter_base@_WV?$stream_output_adapter@_W@__crt_stdio_output@@@__crt_stdio_output@@AAE_NABUparameter_data@12@W4parameter_type@12@_WW4length_modifier@2@@Z 1005142c f i libucrt:output.obj
 0001:00050547       ?is_positional_parameter_reappearance_consistent@?$positional_parameter_base@_WV?$string_output_adapter@_W@__crt_stdio_output@@@__crt_stdio_output@@AAE_NABUparameter_data@12@W4parameter_type@12@_WW4length_modifier@2@@Z 10051547 f i libucrt:output.obj
 0001:00050662       ?is_string_backed@__crt_stdio_stream@@QBE_NXZ 10051662 f i libucrt:output.obj
 0001:0005066e       ?narrow_null_string@?$output_processor@DV?$stream_output_adapter@D@__crt_stdio_output@@V?$format_validation_base@DV?$stream_output_adapter@D@__crt_stdio_output@@@2@@__crt_stdio_output@@CAPADXZ 1005166e f i libucrt:output.obj
 0001:00050674       ?narrow_null_string@?$output_processor@DV?$stream_output_adapter@D@__crt_stdio_output@@V?$positional_parameter_base@DV?$stream_output_adapter@D@__crt_stdio_output@@@2@@__crt_stdio_output@@CAPADXZ 10051674 f i libucrt:output.obj
 0001:0005067a       ?narrow_null_string@?$output_processor@DV?$stream_output_adapter@D@__crt_stdio_output@@V?$standard_base@DV?$stream_output_adapter@D@__crt_stdio_output@@@2@@__crt_stdio_output@@CAPADXZ 1005167a f i libucrt:output.obj
 0001:00050680       ?narrow_null_string@?$output_processor@DV?$string_output_adapter@D@__crt_stdio_output@@V?$format_validation_base@DV?$string_output_adapter@D@__crt_stdio_output@@@2@@__crt_stdio_output@@CAPADXZ 10051680 f i libucrt:output.obj
 0001:00050686       ?narrow_null_string@?$output_processor@DV?$string_output_adapter@D@__crt_stdio_output@@V?$positional_parameter_base@DV?$string_output_adapter@D@__crt_stdio_output@@@2@@__crt_stdio_output@@CAPADXZ 10051686 f i libucrt:output.obj
 0001:0005068c       ?narrow_null_string@?$output_processor@DV?$string_output_adapter@D@__crt_stdio_output@@V?$standard_base@DV?$string_output_adapter@D@__crt_stdio_output@@@2@@__crt_stdio_output@@CAPADXZ 1005168c f i libucrt:output.obj
 0001:00050692       ?narrow_null_string@?$output_processor@_WV?$stream_output_adapter@_W@__crt_stdio_output@@V?$format_validation_base@_WV?$stream_output_adapter@_W@__crt_stdio_output@@@2@@__crt_stdio_output@@CAPADXZ 10051692 f i libucrt:output.obj
 0001:00050698       ?narrow_null_string@?$output_processor@_WV?$stream_output_adapter@_W@__crt_stdio_output@@V?$positional_parameter_base@_WV?$stream_output_adapter@_W@__crt_stdio_output@@@2@@__crt_stdio_output@@CAPADXZ 10051698 f i libucrt:output.obj
 0001:0005069e       ?narrow_null_string@?$output_processor@_WV?$stream_output_adapter@_W@__crt_stdio_output@@V?$standard_base@_WV?$stream_output_adapter@_W@__crt_stdio_output@@@2@@__crt_stdio_output@@CAPADXZ 1005169e f i libucrt:output.obj
 0001:000506a4       ?narrow_null_string@?$output_processor@_WV?$string_output_adapter@_W@__crt_stdio_output@@V?$format_validation_base@_WV?$string_output_adapter@_W@__crt_stdio_output@@@2@@__crt_stdio_output@@CAPADXZ 100516a4 f i libucrt:output.obj
 0001:000506aa       ?narrow_null_string@?$output_processor@_WV?$string_output_adapter@_W@__crt_stdio_output@@V?$positional_parameter_base@_WV?$string_output_adapter@_W@__crt_stdio_output@@@2@@__crt_stdio_output@@CAPADXZ 100516aa f i libucrt:output.obj
 0001:000506b0       ?narrow_null_string@?$output_processor@_WV?$string_output_adapter@_W@__crt_stdio_output@@V?$standard_base@_WV?$string_output_adapter@_W@__crt_stdio_output@@@2@@__crt_stdio_output@@CAPADXZ 100516b0 f i libucrt:output.obj
 0001:000506b6       ?parse_int_from_format_string@?$output_processor@DV?$stream_output_adapter@D@__crt_stdio_output@@V?$format_validation_base@DV?$stream_output_adapter@D@__crt_stdio_output@@@2@@__crt_stdio_output@@AAE_NQAH@Z 100516b6 f i libucrt:output.obj
 0001:0005072a       ?parse_int_from_format_string@?$output_processor@DV?$stream_output_adapter@D@__crt_stdio_output@@V?$positional_parameter_base@DV?$stream_output_adapter@D@__crt_stdio_output@@@2@@__crt_stdio_output@@AAE_NQAH@Z 1005172a f i libucrt:output.obj
 0001:0005079e       ?parse_int_from_format_string@?$output_processor@DV?$stream_output_adapter@D@__crt_stdio_output@@V?$standard_base@DV?$stream_output_adapter@D@__crt_stdio_output@@@2@@__crt_stdio_output@@AAE_NQAH@Z 1005179e f i libucrt:output.obj
 0001:00050812       ?parse_int_from_format_string@?$output_processor@DV?$string_output_adapter@D@__crt_stdio_output@@V?$format_validation_base@DV?$string_output_adapter@D@__crt_stdio_output@@@2@@__crt_stdio_output@@AAE_NQAH@Z 10051812 f i libucrt:output.obj
 0001:00050886       ?parse_int_from_format_string@?$output_processor@DV?$string_output_adapter@D@__crt_stdio_output@@V?$positional_parameter_base@DV?$string_output_adapter@D@__crt_stdio_output@@@2@@__crt_stdio_output@@AAE_NQAH@Z 10051886 f i libucrt:output.obj
 0001:000508fa       ?parse_int_from_format_string@?$output_processor@DV?$string_output_adapter@D@__crt_stdio_output@@V?$standard_base@DV?$string_output_adapter@D@__crt_stdio_output@@@2@@__crt_stdio_output@@AAE_NQAH@Z 100518fa f i libucrt:output.obj
 0001:0005096e       ?parse_int_from_format_string@?$output_processor@_WV?$stream_output_adapter@_W@__crt_stdio_output@@V?$format_validation_base@_WV?$stream_output_adapter@_W@__crt_stdio_output@@@2@@__crt_stdio_output@@AAE_NQAH@Z 1005196e f i libucrt:output.obj
 0001:000509e4       ?parse_int_from_format_string@?$output_processor@_WV?$stream_output_adapter@_W@__crt_stdio_output@@V?$positional_parameter_base@_WV?$stream_output_adapter@_W@__crt_stdio_output@@@2@@__crt_stdio_output@@AAE_NQAH@Z 100519e4 f i libucrt:output.obj
 0001:00050a5a       ?parse_int_from_format_string@?$output_processor@_WV?$stream_output_adapter@_W@__crt_stdio_output@@V?$standard_base@_WV?$stream_output_adapter@_W@__crt_stdio_output@@@2@@__crt_stdio_output@@AAE_NQAH@Z 10051a5a f i libucrt:output.obj
 0001:00050ad0       ?parse_int_from_format_string@?$output_processor@_WV?$string_output_adapter@_W@__crt_stdio_output@@V?$format_validation_base@_WV?$string_output_adapter@_W@__crt_stdio_output@@@2@@__crt_stdio_output@@AAE_NQAH@Z 10051ad0 f i libucrt:output.obj
 0001:00050b46       ?parse_int_from_format_string@?$output_processor@_WV?$string_output_adapter@_W@__crt_stdio_output@@V?$positional_parameter_base@_WV?$string_output_adapter@_W@__crt_stdio_output@@@2@@__crt_stdio_output@@AAE_NQAH@Z 10051b46 f i libucrt:output.obj
 0001:00050bbc       ?parse_int_from_format_string@?$output_processor@_WV?$string_output_adapter@_W@__crt_stdio_output@@V?$standard_base@_WV?$string_output_adapter@_W@__crt_stdio_output@@@2@@__crt_stdio_output@@AAE_NQAH@Z 10051bbc f i libucrt:output.obj
 0001:00050c32       ?process@?$output_processor@DV?$stream_output_adapter@D@__crt_stdio_output@@V?$format_validation_base@DV?$stream_output_adapter@D@__crt_stdio_output@@@2@@__crt_stdio_output@@QAEHXZ 10051c32 f i libucrt:output.obj
 0001:00050d56       ?process@?$output_processor@DV?$stream_output_adapter@D@__crt_stdio_output@@V?$positional_parameter_base@DV?$stream_output_adapter@D@__crt_stdio_output@@@2@@__crt_stdio_output@@QAEHXZ 10051d56 f i libucrt:output.obj
 0001:00050e86       ?process@?$output_processor@DV?$stream_output_adapter@D@__crt_stdio_output@@V?$standard_base@DV?$stream_output_adapter@D@__crt_stdio_output@@@2@@__crt_stdio_output@@QAEHXZ 10051e86 f i libucrt:output.obj
 0001:00050f9a       ?process@?$output_processor@DV?$string_output_adapter@D@__crt_stdio_output@@V?$format_validation_base@DV?$string_output_adapter@D@__crt_stdio_output@@@2@@__crt_stdio_output@@QAEHXZ 10051f9a f i libucrt:output.obj
 0001:000510be       ?process@?$output_processor@DV?$string_output_adapter@D@__crt_stdio_output@@V?$positional_parameter_base@DV?$string_output_adapter@D@__crt_stdio_output@@@2@@__crt_stdio_output@@QAEHXZ 100520be f i libucrt:output.obj
 0001:000511ee       ?process@?$output_processor@DV?$string_output_adapter@D@__crt_stdio_output@@V?$standard_base@DV?$string_output_adapter@D@__crt_stdio_output@@@2@@__crt_stdio_output@@QAEHXZ 100521ee f i libucrt:output.obj
 0001:00051302       ?process@?$output_processor@_WV?$stream_output_adapter@_W@__crt_stdio_output@@V?$format_validation_base@_WV?$stream_output_adapter@_W@__crt_stdio_output@@@2@@__crt_stdio_output@@QAEHXZ 10052302 f i libucrt:output.obj
 0001:0005142a       ?process@?$output_processor@_WV?$stream_output_adapter@_W@__crt_stdio_output@@V?$positional_parameter_base@_WV?$stream_output_adapter@_W@__crt_stdio_output@@@2@@__crt_stdio_output@@QAEHXZ 1005242a f i libucrt:output.obj
 0001:0005155e       ?process@?$output_processor@_WV?$stream_output_adapter@_W@__crt_stdio_output@@V?$standard_base@_WV?$stream_output_adapter@_W@__crt_stdio_output@@@2@@__crt_stdio_output@@QAEHXZ 1005255e f i libucrt:output.obj
 0001:0005167a       ?process@?$output_processor@_WV?$string_output_adapter@_W@__crt_stdio_output@@V?$format_validation_base@_WV?$string_output_adapter@_W@__crt_stdio_output@@@2@@__crt_stdio_output@@QAEHXZ 1005267a f i libucrt:output.obj
 0001:000517a2       ?process@?$output_processor@_WV?$string_output_adapter@_W@__crt_stdio_output@@V?$positional_parameter_base@_WV?$string_output_adapter@_W@__crt_stdio_output@@@2@@__crt_stdio_output@@QAEHXZ 100527a2 f i libucrt:output.obj
 0001:000518d6       ?process@?$output_processor@_WV?$string_output_adapter@_W@__crt_stdio_output@@V?$standard_base@_WV?$string_output_adapter@_W@__crt_stdio_output@@@2@@__crt_stdio_output@@QAEHXZ 100528d6 f i libucrt:output.obj
 0001:000519f2       ?public_stream@__crt_stdio_stream@@QBEPAU_iobuf@@XZ 100529f2 f i libucrt:output.obj
 0001:000519f5       ?set_flag@?$output_processor@DV?$stream_output_adapter@D@__crt_stdio_output@@V?$format_validation_base@DV?$stream_output_adapter@D@__crt_stdio_output@@@2@@__crt_stdio_output@@AAEXI@Z 100529f5 f i libucrt:output.obj
 0001:00051a04       ?set_flag@?$output_processor@DV?$stream_output_adapter@D@__crt_stdio_output@@V?$positional_parameter_base@DV?$stream_output_adapter@D@__crt_stdio_output@@@2@@__crt_stdio_output@@AAEXI@Z 10052a04 f i libucrt:output.obj
 0001:00051a13       ?set_flag@?$output_processor@DV?$stream_output_adapter@D@__crt_stdio_output@@V?$standard_base@DV?$stream_output_adapter@D@__crt_stdio_output@@@2@@__crt_stdio_output@@AAEXI@Z 10052a13 f i libucrt:output.obj
 0001:00051a22       ?set_flag@?$output_processor@DV?$string_output_adapter@D@__crt_stdio_output@@V?$format_validation_base@DV?$string_output_adapter@D@__crt_stdio_output@@@2@@__crt_stdio_output@@AAEXI@Z 10052a22 f i libucrt:output.obj
 0001:00051a31       ?set_flag@?$output_processor@DV?$string_output_adapter@D@__crt_stdio_output@@V?$positional_parameter_base@DV?$string_output_adapter@D@__crt_stdio_output@@@2@@__crt_stdio_output@@AAEXI@Z 10052a31 f i libucrt:output.obj
 0001:00051a40       ?set_flag@?$output_processor@DV?$string_output_adapter@D@__crt_stdio_output@@V?$standard_base@DV?$string_output_adapter@D@__crt_stdio_output@@@2@@__crt_stdio_output@@AAEXI@Z 10052a40 f i libucrt:output.obj
 0001:00051a4f       ?set_flag@?$output_processor@_WV?$stream_output_adapter@_W@__crt_stdio_output@@V?$format_validation_base@_WV?$stream_output_adapter@_W@__crt_stdio_output@@@2@@__crt_stdio_output@@AAEXI@Z 10052a4f f i libucrt:output.obj
 0001:00051a5e       ?set_flag@?$output_processor@_WV?$stream_output_adapter@_W@__crt_stdio_output@@V?$positional_parameter_base@_WV?$stream_output_adapter@_W@__crt_stdio_output@@@2@@__crt_stdio_output@@AAEXI@Z 10052a5e f i libucrt:output.obj
 0001:00051a6d       ?set_flag@?$output_processor@_WV?$stream_output_adapter@_W@__crt_stdio_output@@V?$standard_base@_WV?$stream_output_adapter@_W@__crt_stdio_output@@@2@@__crt_stdio_output@@AAEXI@Z 10052a6d f i libucrt:output.obj
 0001:00051a7c       ?set_flag@?$output_processor@_WV?$string_output_adapter@_W@__crt_stdio_output@@V?$format_validation_base@_WV?$string_output_adapter@_W@__crt_stdio_output@@@2@@__crt_stdio_output@@AAEXI@Z 10052a7c f i libucrt:output.obj
 0001:00051a8b       ?set_flag@?$output_processor@_WV?$string_output_adapter@_W@__crt_stdio_output@@V?$positional_parameter_base@_WV?$string_output_adapter@_W@__crt_stdio_output@@@2@@__crt_stdio_output@@AAEXI@Z 10052a8b f i libucrt:output.obj
 0001:00051a9a       ?set_flag@?$output_processor@_WV?$string_output_adapter@_W@__crt_stdio_output@@V?$standard_base@_WV?$string_output_adapter@_W@__crt_stdio_output@@@2@@__crt_stdio_output@@AAEXI@Z 10052a9a f i libucrt:output.obj
 0001:00051aa9       ?should_format@?$positional_parameter_base@DV?$stream_output_adapter@D@__crt_stdio_output@@@__crt_stdio_output@@IAE_NXZ 10052aa9 f i libucrt:output.obj
 0001:00051abf       ?should_format@?$positional_parameter_base@DV?$string_output_adapter@D@__crt_stdio_output@@@__crt_stdio_output@@IAE_NXZ 10052abf f i libucrt:output.obj
 0001:00051ad5       ?should_format@?$positional_parameter_base@_WV?$stream_output_adapter@_W@__crt_stdio_output@@@__crt_stdio_output@@IAE_NXZ 10052ad5 f i libucrt:output.obj
 0001:00051aeb       ?should_format@?$positional_parameter_base@_WV?$string_output_adapter@_W@__crt_stdio_output@@@__crt_stdio_output@@IAE_NXZ 10052aeb f i libucrt:output.obj
 0001:00051b01       ?should_format@?$standard_base@DV?$stream_output_adapter@D@__crt_stdio_output@@@__crt_stdio_output@@IAE_NXZ 10052b01 f i libucrt:output.obj
 0001:00051b04       ?should_format@?$standard_base@DV?$string_output_adapter@D@__crt_stdio_output@@@__crt_stdio_output@@IAE_NXZ 10052b04 f i libucrt:output.obj
 0001:00051b07       ?should_format@?$standard_base@_WV?$stream_output_adapter@_W@__crt_stdio_output@@@__crt_stdio_output@@IAE_NXZ 10052b07 f i libucrt:output.obj
 0001:00051b0a       ?should_format@?$standard_base@_WV?$string_output_adapter@_W@__crt_stdio_output@@@__crt_stdio_output@@IAE_NXZ 10052b0a f i libucrt:output.obj
 0001:00051b0d       ?should_skip_normal_state_processing@?$positional_parameter_base@DV?$stream_output_adapter@D@__crt_stdio_output@@@__crt_stdio_output@@IAE_NXZ 10052b0d f i libucrt:output.obj
 0001:00051b35       ?should_skip_normal_state_processing@?$positional_parameter_base@DV?$string_output_adapter@D@__crt_stdio_output@@@__crt_stdio_output@@IAE_NXZ 10052b35 f i libucrt:output.obj
 0001:00051b5d       ?should_skip_normal_state_processing@?$positional_parameter_base@_WV?$stream_output_adapter@_W@__crt_stdio_output@@@__crt_stdio_output@@IAE_NXZ 10052b5d f i libucrt:output.obj
 0001:00051b85       ?should_skip_normal_state_processing@?$positional_parameter_base@_WV?$string_output_adapter@_W@__crt_stdio_output@@@__crt_stdio_output@@IAE_NXZ 10052b85 f i libucrt:output.obj
 0001:00051bad       ?should_skip_normal_state_processing@?$standard_base@DV?$stream_output_adapter@D@__crt_stdio_output@@@__crt_stdio_output@@IAE_NXZ 10052bad f i libucrt:output.obj
 0001:00051bb0       ?should_skip_normal_state_processing@?$standard_base@DV?$string_output_adapter@D@__crt_stdio_output@@@__crt_stdio_output@@IAE_NXZ 10052bb0 f i libucrt:output.obj
 0001:00051bb3       ?should_skip_normal_state_processing@?$standard_base@_WV?$stream_output_adapter@_W@__crt_stdio_output@@@__crt_stdio_output@@IAE_NXZ 10052bb3 f i libucrt:output.obj
 0001:00051bb6       ?should_skip_normal_state_processing@?$standard_base@_WV?$string_output_adapter@_W@__crt_stdio_output@@@__crt_stdio_output@@IAE_NXZ 10052bb6 f i libucrt:output.obj
 0001:00051bb9       ?should_skip_type_state_output@?$positional_parameter_base@DV?$stream_output_adapter@D@__crt_stdio_output@@@__crt_stdio_output@@IBE_NXZ 10052bb9 f i libucrt:output.obj
 0001:00051bd0       ?should_skip_type_state_output@?$positional_parameter_base@DV?$string_output_adapter@D@__crt_stdio_output@@@__crt_stdio_output@@IBE_NXZ 10052bd0 f i libucrt:output.obj
 0001:00051be7       ?should_skip_type_state_output@?$positional_parameter_base@_WV?$stream_output_adapter@_W@__crt_stdio_output@@@__crt_stdio_output@@IBE_NXZ 10052be7 f i libucrt:output.obj
 0001:00051bfe       ?should_skip_type_state_output@?$positional_parameter_base@_WV?$string_output_adapter@_W@__crt_stdio_output@@@__crt_stdio_output@@IBE_NXZ 10052bfe f i libucrt:output.obj
 0001:00051c15       ?should_skip_type_state_output@?$standard_base@DV?$stream_output_adapter@D@__crt_stdio_output@@@__crt_stdio_output@@IBE_NXZ 10052c15 f i libucrt:output.obj
 0001:00051c18       ?should_skip_type_state_output@?$standard_base@DV?$string_output_adapter@D@__crt_stdio_output@@@__crt_stdio_output@@IBE_NXZ 10052c18 f i libucrt:output.obj
 0001:00051c1b       ?should_skip_type_state_output@?$standard_base@_WV?$stream_output_adapter@_W@__crt_stdio_output@@@__crt_stdio_output@@IBE_NXZ 10052c1b f i libucrt:output.obj
 0001:00051c1e       ?should_skip_type_state_output@?$standard_base@_WV?$string_output_adapter@_W@__crt_stdio_output@@@__crt_stdio_output@@IBE_NXZ 10052c1e f i libucrt:output.obj
 0001:00051c21       ?state_case_dot@?$output_processor@DV?$stream_output_adapter@D@__crt_stdio_output@@V?$format_validation_base@DV?$stream_output_adapter@D@__crt_stdio_output@@@2@@__crt_stdio_output@@AAE_NXZ 10052c21 f i libucrt:output.obj
 0001:00051c28       ?state_case_dot@?$output_processor@DV?$stream_output_adapter@D@__crt_stdio_output@@V?$positional_parameter_base@DV?$stream_output_adapter@D@__crt_stdio_output@@@2@@__crt_stdio_output@@AAE_NXZ 10052c28 f i libucrt:output.obj
 0001:00051c2f       ?state_case_dot@?$output_processor@DV?$stream_output_adapter@D@__crt_stdio_output@@V?$standard_base@DV?$stream_output_adapter@D@__crt_stdio_output@@@2@@__crt_stdio_output@@AAE_NXZ 10052c2f f i libucrt:output.obj
 0001:00051c36       ?state_case_dot@?$output_processor@DV?$string_output_adapter@D@__crt_stdio_output@@V?$format_validation_base@DV?$string_output_adapter@D@__crt_stdio_output@@@2@@__crt_stdio_output@@AAE_NXZ 10052c36 f i libucrt:output.obj
 0001:00051c3d       ?state_case_dot@?$output_processor@DV?$string_output_adapter@D@__crt_stdio_output@@V?$positional_parameter_base@DV?$string_output_adapter@D@__crt_stdio_output@@@2@@__crt_stdio_output@@AAE_NXZ 10052c3d f i libucrt:output.obj
 0001:00051c44       ?state_case_dot@?$output_processor@DV?$string_output_adapter@D@__crt_stdio_output@@V?$standard_base@DV?$string_output_adapter@D@__crt_stdio_output@@@2@@__crt_stdio_output@@AAE_NXZ 10052c44 f i libucrt:output.obj
 0001:00051c4b       ?state_case_dot@?$output_processor@_WV?$stream_output_adapter@_W@__crt_stdio_output@@V?$format_validation_base@_WV?$stream_output_adapter@_W@__crt_stdio_output@@@2@@__crt_stdio_output@@AAE_NXZ 10052c4b f i libucrt:output.obj
 0001:00051c52       ?state_case_dot@?$output_processor@_WV?$stream_output_adapter@_W@__crt_stdio_output@@V?$positional_parameter_base@_WV?$stream_output_adapter@_W@__crt_stdio_output@@@2@@__crt_stdio_output@@AAE_NXZ 10052c52 f i libucrt:output.obj
 0001:00051c59       ?state_case_dot@?$output_processor@_WV?$stream_output_adapter@_W@__crt_stdio_output@@V?$standard_base@_WV?$stream_output_adapter@_W@__crt_stdio_output@@@2@@__crt_stdio_output@@AAE_NXZ 10052c59 f i libucrt:output.obj
 0001:00051c60       ?state_case_dot@?$output_processor@_WV?$string_output_adapter@_W@__crt_stdio_output@@V?$format_validation_base@_WV?$string_output_adapter@_W@__crt_stdio_output@@@2@@__crt_stdio_output@@AAE_NXZ 10052c60 f i libucrt:output.obj
 0001:00051c67       ?state_case_dot@?$output_processor@_WV?$string_output_adapter@_W@__crt_stdio_output@@V?$positional_parameter_base@_WV?$string_output_adapter@_W@__crt_stdio_output@@@2@@__crt_stdio_output@@AAE_NXZ 10052c67 f i libucrt:output.obj
 0001:00051c6e       ?state_case_dot@?$output_processor@_WV?$string_output_adapter@_W@__crt_stdio_output@@V?$standard_base@_WV?$string_output_adapter@_W@__crt_stdio_output@@@2@@__crt_stdio_output@@AAE_NXZ 10052c6e f i libucrt:output.obj
 0001:00051c75       ?state_case_flag@?$output_processor@DV?$stream_output_adapter@D@__crt_stdio_output@@V?$format_validation_base@DV?$stream_output_adapter@D@__crt_stdio_output@@@2@@__crt_stdio_output@@AAE_NXZ 10052c75 f i libucrt:output.obj
 0001:00051cb2       ?state_case_flag@?$output_processor@DV?$stream_output_adapter@D@__crt_stdio_output@@V?$positional_parameter_base@DV?$stream_output_adapter@D@__crt_stdio_output@@@2@@__crt_stdio_output@@AAE_NXZ 10052cb2 f i libucrt:output.obj
 0001:00051cef       ?state_case_flag@?$output_processor@DV?$stream_output_adapter@D@__crt_stdio_output@@V?$standard_base@DV?$stream_output_adapter@D@__crt_stdio_output@@@2@@__crt_stdio_output@@AAE_NXZ 10052cef f i libucrt:output.obj
 0001:00051d2c       ?state_case_flag@?$output_processor@DV?$string_output_adapter@D@__crt_stdio_output@@V?$format_validation_base@DV?$string_output_adapter@D@__crt_stdio_output@@@2@@__crt_stdio_output@@AAE_NXZ 10052d2c f i libucrt:output.obj
 0001:00051d69       ?state_case_flag@?$output_processor@DV?$string_output_adapter@D@__crt_stdio_output@@V?$positional_parameter_base@DV?$string_output_adapter@D@__crt_stdio_output@@@2@@__crt_stdio_output@@AAE_NXZ 10052d69 f i libucrt:output.obj
 0001:00051da6       ?state_case_flag@?$output_processor@DV?$string_output_adapter@D@__crt_stdio_output@@V?$standard_base@DV?$string_output_adapter@D@__crt_stdio_output@@@2@@__crt_stdio_output@@AAE_NXZ 10052da6 f i libucrt:output.obj
 0001:00051de3       ?state_case_flag@?$output_processor@_WV?$stream_output_adapter@_W@__crt_stdio_output@@V?$format_validation_base@_WV?$stream_output_adapter@_W@__crt_stdio_output@@@2@@__crt_stdio_output@@AAE_NXZ 10052de3 f i libucrt:output.obj
 0001:00051e20       ?state_case_flag@?$output_processor@_WV?$stream_output_adapter@_W@__crt_stdio_output@@V?$positional_parameter_base@_WV?$stream_output_adapter@_W@__crt_stdio_output@@@2@@__crt_stdio_output@@AAE_NXZ 10052e20 f i libucrt:output.obj
 0001:00051e5d       ?state_case_flag@?$output_processor@_WV?$stream_output_adapter@_W@__crt_stdio_output@@V?$standard_base@_WV?$stream_output_adapter@_W@__crt_stdio_output@@@2@@__crt_stdio_output@@AAE_NXZ 10052e5d f i libucrt:output.obj
 0001:00051e9a       ?state_case_flag@?$output_processor@_WV?$string_output_adapter@_W@__crt_stdio_output@@V?$format_validation_base@_WV?$string_output_adapter@_W@__crt_stdio_output@@@2@@__crt_stdio_output@@AAE_NXZ 10052e9a f i libucrt:output.obj
 0001:00051ed7       ?state_case_flag@?$output_processor@_WV?$string_output_adapter@_W@__crt_stdio_output@@V?$positional_parameter_base@_WV?$string_output_adapter@_W@__crt_stdio_output@@@2@@__crt_stdio_output@@AAE_NXZ 10052ed7 f i libucrt:output.obj
 0001:00051f14       ?state_case_flag@?$output_processor@_WV?$string_output_adapter@_W@__crt_stdio_output@@V?$standard_base@_WV?$string_output_adapter@_W@__crt_stdio_output@@@2@@__crt_stdio_output@@AAE_NXZ 10052f14 f i libucrt:output.obj
 0001:00051f51       ?state_case_normal@?$output_processor@DV?$stream_output_adapter@D@__crt_stdio_output@@V?$format_validation_base@DV?$stream_output_adapter@D@__crt_stdio_output@@@2@@__crt_stdio_output@@AAE_NXZ 10052f51 f i libucrt:output.obj
 0001:00051f70       ?state_case_normal@?$output_processor@DV?$stream_output_adapter@D@__crt_stdio_output@@V?$positional_parameter_base@DV?$stream_output_adapter@D@__crt_stdio_output@@@2@@__crt_stdio_output@@AAE_NXZ 10052f70 f i libucrt:output.obj
 0001:00051fa1       ?state_case_normal@?$output_processor@DV?$stream_output_adapter@D@__crt_stdio_output@@V?$standard_base@DV?$stream_output_adapter@D@__crt_stdio_output@@@2@@__crt_stdio_output@@AAE_NXZ 10052fa1 f i libucrt:output.obj
 0001:00051fc0       ?state_case_normal@?$output_processor@DV?$string_output_adapter@D@__crt_stdio_output@@V?$format_validation_base@DV?$string_output_adapter@D@__crt_stdio_output@@@2@@__crt_stdio_output@@AAE_NXZ 10052fc0 f i libucrt:output.obj
 0001:00051fdf       ?state_case_normal@?$output_processor@DV?$string_output_adapter@D@__crt_stdio_output@@V?$positional_parameter_base@DV?$string_output_adapter@D@__crt_stdio_output@@@2@@__crt_stdio_output@@AAE_NXZ 10052fdf f i libucrt:output.obj
 0001:00052010       ?state_case_normal@?$output_processor@DV?$string_output_adapter@D@__crt_stdio_output@@V?$standard_base@DV?$string_output_adapter@D@__crt_stdio_output@@@2@@__crt_stdio_output@@AAE_NXZ 10053010 f i libucrt:output.obj
 0001:0005202f       ?state_case_normal@?$output_processor@_WV?$stream_output_adapter@_W@__crt_stdio_output@@V?$format_validation_base@_WV?$stream_output_adapter@_W@__crt_stdio_output@@@2@@__crt_stdio_output@@AAE_NXZ 1005302f f i libucrt:output.obj
 0001:0005204e       ?state_case_normal@?$output_processor@_WV?$stream_output_adapter@_W@__crt_stdio_output@@V?$positional_parameter_base@_WV?$stream_output_adapter@_W@__crt_stdio_output@@@2@@__crt_stdio_output@@AAE_NXZ 1005304e f i libucrt:output.obj
 0001:0005207f       ?state_case_normal@?$output_processor@_WV?$stream_output_adapter@_W@__crt_stdio_output@@V?$standard_base@_WV?$stream_output_adapter@_W@__crt_stdio_output@@@2@@__crt_stdio_output@@AAE_NXZ 1005307f f i libucrt:output.obj
 0001:0005209e       ?state_case_normal@?$output_processor@_WV?$string_output_adapter@_W@__crt_stdio_output@@V?$format_validation_base@_WV?$string_output_adapter@_W@__crt_stdio_output@@@2@@__crt_stdio_output@@AAE_NXZ 1005309e f i libucrt:output.obj
 0001:000520bd       ?state_case_normal@?$output_processor@_WV?$string_output_adapter@_W@__crt_stdio_output@@V?$positional_parameter_base@_WV?$string_output_adapter@_W@__crt_stdio_output@@@2@@__crt_stdio_output@@AAE_NXZ 100530bd f i libucrt:output.obj
 0001:000520ee       ?state_case_normal@?$output_processor@_WV?$string_output_adapter@_W@__crt_stdio_output@@V?$standard_base@_WV?$string_output_adapter@_W@__crt_stdio_output@@@2@@__crt_stdio_output@@AAE_NXZ 100530ee f i libucrt:output.obj
 0001:0005210d       ?state_case_normal_common@?$output_processor@DV?$stream_output_adapter@D@__crt_stdio_output@@V?$format_validation_base@DV?$stream_output_adapter@D@__crt_stdio_output@@@2@@__crt_stdio_output@@AAE_NXZ 1005310d f i libucrt:output.obj
 0001:00052147       ?state_case_normal_common@?$output_processor@DV?$stream_output_adapter@D@__crt_stdio_output@@V?$positional_parameter_base@DV?$stream_output_adapter@D@__crt_stdio_output@@@2@@__crt_stdio_output@@AAE_NXZ 10053147 f i libucrt:output.obj
 0001:00052181       ?state_case_normal_common@?$output_processor@DV?$stream_output_adapter@D@__crt_stdio_output@@V?$standard_base@DV?$stream_output_adapter@D@__crt_stdio_output@@@2@@__crt_stdio_output@@AAE_NXZ 10053181 f i libucrt:output.obj
 0001:000521bb       ?state_case_normal_common@?$output_processor@DV?$string_output_adapter@D@__crt_stdio_output@@V?$format_validation_base@DV?$string_output_adapter@D@__crt_stdio_output@@@2@@__crt_stdio_output@@AAE_NXZ 100531bb f i libucrt:output.obj
 0001:000521e5       ?state_case_normal_common@?$output_processor@DV?$string_output_adapter@D@__crt_stdio_output@@V?$positional_parameter_base@DV?$string_output_adapter@D@__crt_stdio_output@@@2@@__crt_stdio_output@@AAE_NXZ 100531e5 f i libucrt:output.obj
 0001:0005220f       ?state_case_normal_common@?$output_processor@DV?$string_output_adapter@D@__crt_stdio_output@@V?$standard_base@DV?$string_output_adapter@D@__crt_stdio_output@@@2@@__crt_stdio_output@@AAE_NXZ 1005320f f i libucrt:output.obj
 0001:00052239       ?state_case_normal_common@?$output_processor@_WV?$stream_output_adapter@_W@__crt_stdio_output@@V?$format_validation_base@_WV?$stream_output_adapter@_W@__crt_stdio_output@@@2@@__crt_stdio_output@@AAE_NXZ 10053239 f i libucrt:output.obj
 0001:00052263       ?state_case_normal_common@?$output_processor@_WV?$stream_output_adapter@_W@__crt_stdio_output@@V?$positional_parameter_base@_WV?$stream_output_adapter@_W@__crt_stdio_output@@@2@@__crt_stdio_output@@AAE_NXZ 10053263 f i libucrt:output.obj
 0001:0005228d       ?state_case_normal_common@?$output_processor@_WV?$stream_output_adapter@_W@__crt_stdio_output@@V?$standard_base@_WV?$stream_output_adapter@_W@__crt_stdio_output@@@2@@__crt_stdio_output@@AAE_NXZ 1005328d f i libucrt:output.obj
 0001:000522b7       ?state_case_normal_common@?$output_processor@_WV?$string_output_adapter@_W@__crt_stdio_output@@V?$format_validation_base@_WV?$string_output_adapter@_W@__crt_stdio_output@@@2@@__crt_stdio_output@@AAE_NXZ 100532b7 f i libucrt:output.obj
 0001:000522d2       ?state_case_normal_common@?$output_processor@_WV?$string_output_adapter@_W@__crt_stdio_output@@V?$positional_parameter_base@_WV?$string_output_adapter@_W@__crt_stdio_output@@@2@@__crt_stdio_output@@AAE_NXZ 100532d2 f i libucrt:output.obj
 0001:000522ed       ?state_case_normal_common@?$output_processor@_WV?$string_output_adapter@_W@__crt_stdio_output@@V?$standard_base@_WV?$string_output_adapter@_W@__crt_stdio_output@@@2@@__crt_stdio_output@@AAE_NXZ 100532ed f i libucrt:output.obj
 0001:00052308       ?state_case_normal_tchar@?$output_processor@DV?$stream_output_adapter@D@__crt_stdio_output@@V?$format_validation_base@DV?$stream_output_adapter@D@__crt_stdio_output@@@2@@__crt_stdio_output@@AAE_ND@Z 10053308 f i libucrt:output.obj
 0001:00052375       ?state_case_normal_tchar@?$output_processor@DV?$stream_output_adapter@D@__crt_stdio_output@@V?$positional_parameter_base@DV?$stream_output_adapter@D@__crt_stdio_output@@@2@@__crt_stdio_output@@AAE_ND@Z 10053375 f i libucrt:output.obj
 0001:000523e2       ?state_case_normal_tchar@?$output_processor@DV?$stream_output_adapter@D@__crt_stdio_output@@V?$standard_base@DV?$stream_output_adapter@D@__crt_stdio_output@@@2@@__crt_stdio_output@@AAE_ND@Z 100533e2 f i libucrt:output.obj
 0001:0005244f       ?state_case_normal_tchar@?$output_processor@DV?$string_output_adapter@D@__crt_stdio_output@@V?$format_validation_base@DV?$string_output_adapter@D@__crt_stdio_output@@@2@@__crt_stdio_output@@AAE_ND@Z 1005344f f i libucrt:output.obj
 0001:000524b3       ?state_case_normal_tchar@?$output_processor@DV?$string_output_adapter@D@__crt_stdio_output@@V?$positional_parameter_base@DV?$string_output_adapter@D@__crt_stdio_output@@@2@@__crt_stdio_output@@AAE_ND@Z 100534b3 f i libucrt:output.obj
 0001:00052517       ?state_case_normal_tchar@?$output_processor@DV?$string_output_adapter@D@__crt_stdio_output@@V?$standard_base@DV?$string_output_adapter@D@__crt_stdio_output@@@2@@__crt_stdio_output@@AAE_ND@Z 10053517 f i libucrt:output.obj
 0001:0005257b       ?state_case_normal_tchar@?$output_processor@_WV?$stream_output_adapter@_W@__crt_stdio_output@@V?$format_validation_base@_WV?$stream_output_adapter@_W@__crt_stdio_output@@@2@@__crt_stdio_output@@AAE_N_W@Z 1005357b f i libucrt:output.obj
 0001:00052584       ?state_case_normal_tchar@?$output_processor@_WV?$stream_output_adapter@_W@__crt_stdio_output@@V?$positional_parameter_base@_WV?$stream_output_adapter@_W@__crt_stdio_output@@@2@@__crt_stdio_output@@AAE_N_W@Z 10053584 f i libucrt:output.obj
 0001:0005258d       ?state_case_normal_tchar@?$output_processor@_WV?$stream_output_adapter@_W@__crt_stdio_output@@V?$standard_base@_WV?$stream_output_adapter@_W@__crt_stdio_output@@@2@@__crt_stdio_output@@AAE_N_W@Z 1005358d f i libucrt:output.obj
 0001:00052596       ?state_case_normal_tchar@?$output_processor@_WV?$string_output_adapter@_W@__crt_stdio_output@@V?$format_validation_base@_WV?$string_output_adapter@_W@__crt_stdio_output@@@2@@__crt_stdio_output@@AAE_N_W@Z 10053596 f i libucrt:output.obj
 0001:0005259f       ?state_case_normal_tchar@?$output_processor@_WV?$string_output_adapter@_W@__crt_stdio_output@@V?$positional_parameter_base@_WV?$string_output_adapter@_W@__crt_stdio_output@@@2@@__crt_stdio_output@@AAE_N_W@Z 1005359f f i libucrt:output.obj
 0001:000525a8       ?state_case_normal_tchar@?$output_processor@_WV?$string_output_adapter@_W@__crt_stdio_output@@V?$standard_base@_WV?$string_output_adapter@_W@__crt_stdio_output@@@2@@__crt_stdio_output@@AAE_N_W@Z 100535a8 f i libucrt:output.obj
 0001:000525b1       ?state_case_percent@?$output_processor@DV?$stream_output_adapter@D@__crt_stdio_output@@V?$format_validation_base@DV?$stream_output_adapter@D@__crt_stdio_output@@@2@@__crt_stdio_output@@AAE_NXZ 100535b1 f i libucrt:output.obj
 0001:000525c9       ?state_case_percent@?$output_processor@DV?$stream_output_adapter@D@__crt_stdio_output@@V?$positional_parameter_base@DV?$stream_output_adapter@D@__crt_stdio_output@@@2@@__crt_stdio_output@@AAE_NXZ 100535c9 f i libucrt:output.obj
 0001:000525e1       ?state_case_percent@?$output_processor@DV?$stream_output_adapter@D@__crt_stdio_output@@V?$standard_base@DV?$stream_output_adapter@D@__crt_stdio_output@@@2@@__crt_stdio_output@@AAE_NXZ 100535e1 f i libucrt:output.obj
 0001:000525f9       ?state_case_percent@?$output_processor@DV?$string_output_adapter@D@__crt_stdio_output@@V?$format_validation_base@DV?$string_output_adapter@D@__crt_stdio_output@@@2@@__crt_stdio_output@@AAE_NXZ 100535f9 f i libucrt:output.obj
 0001:00052611       ?state_case_percent@?$output_processor@DV?$string_output_adapter@D@__crt_stdio_output@@V?$positional_parameter_base@DV?$string_output_adapter@D@__crt_stdio_output@@@2@@__crt_stdio_output@@AAE_NXZ 10053611 f i libucrt:output.obj
 0001:00052629       ?state_case_percent@?$output_processor@DV?$string_output_adapter@D@__crt_stdio_output@@V?$standard_base@DV?$string_output_adapter@D@__crt_stdio_output@@@2@@__crt_stdio_output@@AAE_NXZ 10053629 f i libucrt:output.obj
 0001:00052641       ?state_case_percent@?$output_processor@_WV?$stream_output_adapter@_W@__crt_stdio_output@@V?$format_validation_base@_WV?$stream_output_adapter@_W@__crt_stdio_output@@@2@@__crt_stdio_output@@AAE_NXZ 10053641 f i libucrt:output.obj
 0001:00052659       ?state_case_percent@?$output_processor@_WV?$stream_output_adapter@_W@__crt_stdio_output@@V?$positional_parameter_base@_WV?$stream_output_adapter@_W@__crt_stdio_output@@@2@@__crt_stdio_output@@AAE_NXZ 10053659 f i libucrt:output.obj
 0001:00052671       ?state_case_percent@?$output_processor@_WV?$stream_output_adapter@_W@__crt_stdio_output@@V?$standard_base@_WV?$stream_output_adapter@_W@__crt_stdio_output@@@2@@__crt_stdio_output@@AAE_NXZ 10053671 f i libucrt:output.obj
 0001:00052689       ?state_case_percent@?$output_processor@_WV?$string_output_adapter@_W@__crt_stdio_output@@V?$format_validation_base@_WV?$string_output_adapter@_W@__crt_stdio_output@@@2@@__crt_stdio_output@@AAE_NXZ 10053689 f i libucrt:output.obj
 0001:000526a1       ?state_case_percent@?$output_processor@_WV?$string_output_adapter@_W@__crt_stdio_output@@V?$positional_parameter_base@_WV?$string_output_adapter@_W@__crt_stdio_output@@@2@@__crt_stdio_output@@AAE_NXZ 100536a1 f i libucrt:output.obj
 0001:000526b9       ?state_case_percent@?$output_processor@_WV?$string_output_adapter@_W@__crt_stdio_output@@V?$standard_base@_WV?$string_output_adapter@_W@__crt_stdio_output@@@2@@__crt_stdio_output@@AAE_NXZ 100536b9 f i libucrt:output.obj
 0001:000526d1       ?state_case_precision@?$output_processor@DV?$stream_output_adapter@D@__crt_stdio_output@@V?$format_validation_base@DV?$stream_output_adapter@D@__crt_stdio_output@@@2@@__crt_stdio_output@@AAE_NXZ 100536d1 f i libucrt:output.obj
 0001:000526f7       ?state_case_precision@?$output_processor@DV?$stream_output_adapter@D@__crt_stdio_output@@V?$positional_parameter_base@DV?$stream_output_adapter@D@__crt_stdio_output@@@2@@__crt_stdio_output@@AAE_NXZ 100536f7 f i libucrt:output.obj
 0001:00052731       ?state_case_precision@?$output_processor@DV?$stream_output_adapter@D@__crt_stdio_output@@V?$standard_base@DV?$stream_output_adapter@D@__crt_stdio_output@@@2@@__crt_stdio_output@@AAE_NXZ 10053731 f i libucrt:output.obj
 0001:00052757       ?state_case_precision@?$output_processor@DV?$string_output_adapter@D@__crt_stdio_output@@V?$format_validation_base@DV?$string_output_adapter@D@__crt_stdio_output@@@2@@__crt_stdio_output@@AAE_NXZ 10053757 f i libucrt:output.obj
 0001:0005277d       ?state_case_precision@?$output_processor@DV?$string_output_adapter@D@__crt_stdio_output@@V?$positional_parameter_base@DV?$string_output_adapter@D@__crt_stdio_output@@@2@@__crt_stdio_output@@AAE_NXZ 1005377d f i libucrt:output.obj
 0001:000527b7       ?state_case_precision@?$output_processor@DV?$string_output_adapter@D@__crt_stdio_output@@V?$standard_base@DV?$string_output_adapter@D@__crt_stdio_output@@@2@@__crt_stdio_output@@AAE_NXZ 100537b7 f i libucrt:output.obj
 0001:000527dd       ?state_case_precision@?$output_processor@_WV?$stream_output_adapter@_W@__crt_stdio_output@@V?$format_validation_base@_WV?$stream_output_adapter@_W@__crt_stdio_output@@@2@@__crt_stdio_output@@AAE_NXZ 100537dd f i libucrt:output.obj
 0001:00052804       ?state_case_precision@?$output_processor@_WV?$stream_output_adapter@_W@__crt_stdio_output@@V?$positional_parameter_base@_WV?$stream_output_adapter@_W@__crt_stdio_output@@@2@@__crt_stdio_output@@AAE_NXZ 10053804 f i libucrt:output.obj
 0001:0005283f       ?state_case_precision@?$output_processor@_WV?$stream_output_adapter@_W@__crt_stdio_output@@V?$standard_base@_WV?$stream_output_adapter@_W@__crt_stdio_output@@@2@@__crt_stdio_output@@AAE_NXZ 1005383f f i libucrt:output.obj
 0001:00052866       ?state_case_precision@?$output_processor@_WV?$string_output_adapter@_W@__crt_stdio_output@@V?$format_validation_base@_WV?$string_output_adapter@_W@__crt_stdio_output@@@2@@__crt_stdio_output@@AAE_NXZ 10053866 f i libucrt:output.obj
 0001:0005288d       ?state_case_precision@?$output_processor@_WV?$string_output_adapter@_W@__crt_stdio_output@@V?$positional_parameter_base@_WV?$string_output_adapter@_W@__crt_stdio_output@@@2@@__crt_stdio_output@@AAE_NXZ 1005388d f i libucrt:output.obj
 0001:000528c8       ?state_case_precision@?$output_processor@_WV?$string_output_adapter@_W@__crt_stdio_output@@V?$standard_base@_WV?$string_output_adapter@_W@__crt_stdio_output@@@2@@__crt_stdio_output@@AAE_NXZ 100538c8 f i libucrt:output.obj
 0001:000528ef       ?state_case_size@?$output_processor@DV?$stream_output_adapter@D@__crt_stdio_output@@V?$format_validation_base@DV?$stream_output_adapter@D@__crt_stdio_output@@@2@@__crt_stdio_output@@AAE_NXZ 100538ef f i libucrt:output.obj
 0001:00052a3d       ?state_case_size@?$output_processor@DV?$stream_output_adapter@D@__crt_stdio_output@@V?$positional_parameter_base@DV?$stream_output_adapter@D@__crt_stdio_output@@@2@@__crt_stdio_output@@AAE_NXZ 10053a3d f i libucrt:output.obj
 0001:00052b8b       ?state_case_size@?$output_processor@DV?$stream_output_adapter@D@__crt_stdio_output@@V?$standard_base@DV?$stream_output_adapter@D@__crt_stdio_output@@@2@@__crt_stdio_output@@AAE_NXZ 10053b8b f i libucrt:output.obj
 0001:00052cd9       ?state_case_size@?$output_processor@DV?$string_output_adapter@D@__crt_stdio_output@@V?$format_validation_base@DV?$string_output_adapter@D@__crt_stdio_output@@@2@@__crt_stdio_output@@AAE_NXZ 10053cd9 f i libucrt:output.obj
 0001:00052e27       ?state_case_size@?$output_processor@DV?$string_output_adapter@D@__crt_stdio_output@@V?$positional_parameter_base@DV?$string_output_adapter@D@__crt_stdio_output@@@2@@__crt_stdio_output@@AAE_NXZ 10053e27 f i libucrt:output.obj
 0001:00052f75       ?state_case_size@?$output_processor@DV?$string_output_adapter@D@__crt_stdio_output@@V?$standard_base@DV?$string_output_adapter@D@__crt_stdio_output@@@2@@__crt_stdio_output@@AAE_NXZ 10053f75 f i libucrt:output.obj
 0001:000530c3       ?state_case_size@?$output_processor@_WV?$stream_output_adapter@_W@__crt_stdio_output@@V?$format_validation_base@_WV?$stream_output_adapter@_W@__crt_stdio_output@@@2@@__crt_stdio_output@@AAE_NXZ 100540c3 f i libucrt:output.obj
 0001:0005323b       ?state_case_size@?$output_processor@_WV?$stream_output_adapter@_W@__crt_stdio_output@@V?$positional_parameter_base@_WV?$stream_output_adapter@_W@__crt_stdio_output@@@2@@__crt_stdio_output@@AAE_NXZ 1005423b f i libucrt:output.obj
 0001:000533b3       ?state_case_size@?$output_processor@_WV?$stream_output_adapter@_W@__crt_stdio_output@@V?$standard_base@_WV?$stream_output_adapter@_W@__crt_stdio_output@@@2@@__crt_stdio_output@@AAE_NXZ 100543b3 f i libucrt:output.obj
 0001:0005352b       ?state_case_size@?$output_processor@_WV?$string_output_adapter@_W@__crt_stdio_output@@V?$format_validation_base@_WV?$string_output_adapter@_W@__crt_stdio_output@@@2@@__crt_stdio_output@@AAE_NXZ 1005452b f i libucrt:output.obj
 0001:000536a3       ?state_case_size@?$output_processor@_WV?$string_output_adapter@_W@__crt_stdio_output@@V?$positional_parameter_base@_WV?$string_output_adapter@_W@__crt_stdio_output@@@2@@__crt_stdio_output@@AAE_NXZ 100546a3 f i libucrt:output.obj
 0001:0005381b       ?state_case_size@?$output_processor@_WV?$string_output_adapter@_W@__crt_stdio_output@@V?$standard_base@_WV?$string_output_adapter@_W@__crt_stdio_output@@@2@@__crt_stdio_output@@AAE_NXZ 1005481b f i libucrt:output.obj
 0001:00053993       ?state_case_type@?$output_processor@DV?$stream_output_adapter@D@__crt_stdio_output@@V?$format_validation_base@DV?$stream_output_adapter@D@__crt_stdio_output@@@2@@__crt_stdio_output@@AAE_NXZ 10054993 f i libucrt:output.obj
 0001:00053bc5       ?state_case_type@?$output_processor@DV?$stream_output_adapter@D@__crt_stdio_output@@V?$positional_parameter_base@DV?$stream_output_adapter@D@__crt_stdio_output@@@2@@__crt_stdio_output@@AAE_NXZ 10054bc5 f i libucrt:output.obj
 0001:00053e06       ?state_case_type@?$output_processor@DV?$stream_output_adapter@D@__crt_stdio_output@@V?$standard_base@DV?$stream_output_adapter@D@__crt_stdio_output@@@2@@__crt_stdio_output@@AAE_NXZ 10054e06 f i libucrt:output.obj
 0001:00054038       ?state_case_type@?$output_processor@DV?$string_output_adapter@D@__crt_stdio_output@@V?$format_validation_base@DV?$string_output_adapter@D@__crt_stdio_output@@@2@@__crt_stdio_output@@AAE_NXZ 10055038 f i libucrt:output.obj
 0001:0005426a       ?state_case_type@?$output_processor@DV?$string_output_adapter@D@__crt_stdio_output@@V?$positional_parameter_base@DV?$string_output_adapter@D@__crt_stdio_output@@@2@@__crt_stdio_output@@AAE_NXZ 1005526a f i libucrt:output.obj
 0001:000544ab       ?state_case_type@?$output_processor@DV?$string_output_adapter@D@__crt_stdio_output@@V?$standard_base@DV?$string_output_adapter@D@__crt_stdio_output@@@2@@__crt_stdio_output@@AAE_NXZ 100554ab f i libucrt:output.obj
 0001:000546dd       ?state_case_type@?$output_processor@_WV?$stream_output_adapter@_W@__crt_stdio_output@@V?$format_validation_base@_WV?$stream_output_adapter@_W@__crt_stdio_output@@@2@@__crt_stdio_output@@AAE_NXZ 100556dd f i libucrt:output.obj
 0001:0005493a       ?state_case_type@?$output_processor@_WV?$stream_output_adapter@_W@__crt_stdio_output@@V?$positional_parameter_base@_WV?$stream_output_adapter@_W@__crt_stdio_output@@@2@@__crt_stdio_output@@AAE_NXZ 1005593a f i libucrt:output.obj
 0001:00054ba6       ?state_case_type@?$output_processor@_WV?$stream_output_adapter@_W@__crt_stdio_output@@V?$standard_base@_WV?$stream_output_adapter@_W@__crt_stdio_output@@@2@@__crt_stdio_output@@AAE_NXZ 10055ba6 f i libucrt:output.obj
 0001:00054e03       ?state_case_type@?$output_processor@_WV?$string_output_adapter@_W@__crt_stdio_output@@V?$format_validation_base@_WV?$string_output_adapter@_W@__crt_stdio_output@@@2@@__crt_stdio_output@@AAE_NXZ 10055e03 f i libucrt:output.obj
 0001:00055060       ?state_case_type@?$output_processor@_WV?$string_output_adapter@_W@__crt_stdio_output@@V?$positional_parameter_base@_WV?$string_output_adapter@_W@__crt_stdio_output@@@2@@__crt_stdio_output@@AAE_NXZ 10056060 f i libucrt:output.obj
 0001:000552cc       ?state_case_type@?$output_processor@_WV?$string_output_adapter@_W@__crt_stdio_output@@V?$standard_base@_WV?$string_output_adapter@_W@__crt_stdio_output@@@2@@__crt_stdio_output@@AAE_NXZ 100562cc f i libucrt:output.obj
 0001:00055529       ?state_case_width@?$output_processor@DV?$stream_output_adapter@D@__crt_stdio_output@@V?$format_validation_base@DV?$stream_output_adapter@D@__crt_stdio_output@@@2@@__crt_stdio_output@@AAE_NXZ 10056529 f i libucrt:output.obj
 0001:00055554       ?state_case_width@?$output_processor@DV?$stream_output_adapter@D@__crt_stdio_output@@V?$positional_parameter_base@DV?$stream_output_adapter@D@__crt_stdio_output@@@2@@__crt_stdio_output@@AAE_NXZ 10056554 f i libucrt:output.obj
 0001:00055594       ?state_case_width@?$output_processor@DV?$stream_output_adapter@D@__crt_stdio_output@@V?$standard_base@DV?$stream_output_adapter@D@__crt_stdio_output@@@2@@__crt_stdio_output@@AAE_NXZ 10056594 f i libucrt:output.obj
 0001:000555bf       ?state_case_width@?$output_processor@DV?$string_output_adapter@D@__crt_stdio_output@@V?$format_validation_base@DV?$string_output_adapter@D@__crt_stdio_output@@@2@@__crt_stdio_output@@AAE_NXZ 100565bf f i libucrt:output.obj
 0001:000555ea       ?state_case_width@?$output_processor@DV?$string_output_adapter@D@__crt_stdio_output@@V?$positional_parameter_base@DV?$string_output_adapter@D@__crt_stdio_output@@@2@@__crt_stdio_output@@AAE_NXZ 100565ea f i libucrt:output.obj
 0001:0005562a       ?state_case_width@?$output_processor@DV?$string_output_adapter@D@__crt_stdio_output@@V?$standard_base@DV?$string_output_adapter@D@__crt_stdio_output@@@2@@__crt_stdio_output@@AAE_NXZ 1005662a f i libucrt:output.obj
 0001:00055655       ?state_case_width@?$output_processor@_WV?$stream_output_adapter@_W@__crt_stdio_output@@V?$format_validation_base@_WV?$stream_output_adapter@_W@__crt_stdio_output@@@2@@__crt_stdio_output@@AAE_NXZ 10056655 f i libucrt:output.obj
 0001:00055681       ?state_case_width@?$output_processor@_WV?$stream_output_adapter@_W@__crt_stdio_output@@V?$positional_parameter_base@_WV?$stream_output_adapter@_W@__crt_stdio_output@@@2@@__crt_stdio_output@@AAE_NXZ 10056681 f i libucrt:output.obj
 0001:000556c2       ?state_case_width@?$output_processor@_WV?$stream_output_adapter@_W@__crt_stdio_output@@V?$standard_base@_WV?$stream_output_adapter@_W@__crt_stdio_output@@@2@@__crt_stdio_output@@AAE_NXZ 100566c2 f i libucrt:output.obj
 0001:000556ee       ?state_case_width@?$output_processor@_WV?$string_output_adapter@_W@__crt_stdio_output@@V?$format_validation_base@_WV?$string_output_adapter@_W@__crt_stdio_output@@@2@@__crt_stdio_output@@AAE_NXZ 100566ee f i libucrt:output.obj
 0001:0005571a       ?state_case_width@?$output_processor@_WV?$string_output_adapter@_W@__crt_stdio_output@@V?$positional_parameter_base@_WV?$string_output_adapter@_W@__crt_stdio_output@@@2@@__crt_stdio_output@@AAE_NXZ 1005671a f i libucrt:output.obj
 0001:0005575b       ?state_case_width@?$output_processor@_WV?$string_output_adapter@_W@__crt_stdio_output@@V?$standard_base@_WV?$string_output_adapter@_W@__crt_stdio_output@@@2@@__crt_stdio_output@@AAE_NXZ 1005675b f i libucrt:output.obj
 0001:00055787       ?state_count@?$format_validation_base@DV?$stream_output_adapter@D@__crt_stdio_output@@@__crt_stdio_output@@KAIXZ 10056787 f i libucrt:output.obj
 0001:0005578b       ?state_count@?$format_validation_base@DV?$string_output_adapter@D@__crt_stdio_output@@@__crt_stdio_output@@KAIXZ 1005678b f i libucrt:output.obj
 0001:0005578f       ?state_count@?$format_validation_base@_WV?$stream_output_adapter@_W@__crt_stdio_output@@@__crt_stdio_output@@KAIXZ 1005678f f i libucrt:output.obj
 0001:00055793       ?state_count@?$format_validation_base@_WV?$string_output_adapter@_W@__crt_stdio_output@@@__crt_stdio_output@@KAIXZ 10056793 f i libucrt:output.obj
 0001:00055797       ?state_count@?$standard_base@DV?$stream_output_adapter@D@__crt_stdio_output@@@__crt_stdio_output@@KAIXZ 10056797 f i libucrt:output.obj
 0001:0005579b       ?state_count@?$standard_base@DV?$string_output_adapter@D@__crt_stdio_output@@@__crt_stdio_output@@KAIXZ 1005679b f i libucrt:output.obj
 0001:0005579f       ?state_count@?$standard_base@_WV?$stream_output_adapter@_W@__crt_stdio_output@@@__crt_stdio_output@@KAIXZ 1005679f f i libucrt:output.obj
 0001:000557a3       ?state_count@?$standard_base@_WV?$string_output_adapter@_W@__crt_stdio_output@@@__crt_stdio_output@@KAIXZ 100567a3 f i libucrt:output.obj
 0001:000557a7       ?state_transition_table@?$format_validation_base@DV?$stream_output_adapter@D@__crt_stdio_output@@@__crt_stdio_output@@KAABV?$spectre_mitigated_lookup_table@Ustate_transition_pair@__crt_stdio_output@@$0IA@@2@XZ 100567a7 f i libucrt:output.obj
 0001:000557ad       ?state_transition_table@?$format_validation_base@DV?$string_output_adapter@D@__crt_stdio_output@@@__crt_stdio_output@@KAABV?$spectre_mitigated_lookup_table@Ustate_transition_pair@__crt_stdio_output@@$0IA@@2@XZ 100567ad f i libucrt:output.obj
 0001:000557b3       ?state_transition_table@?$format_validation_base@_WV?$stream_output_adapter@_W@__crt_stdio_output@@@__crt_stdio_output@@KAABV?$spectre_mitigated_lookup_table@Ustate_transition_pair@__crt_stdio_output@@$0IA@@2@XZ 100567b3 f i libucrt:output.obj
 0001:000557b9       ?state_transition_table@?$format_validation_base@_WV?$string_output_adapter@_W@__crt_stdio_output@@@__crt_stdio_output@@KAABV?$spectre_mitigated_lookup_table@Ustate_transition_pair@__crt_stdio_output@@$0IA@@2@XZ 100567b9 f i libucrt:output.obj
 0001:000557bf       ?state_transition_table@?$standard_base@DV?$stream_output_adapter@D@__crt_stdio_output@@@__crt_stdio_output@@KAABV?$spectre_mitigated_lookup_table@Ustate_transition_pair@__crt_stdio_output@@$0IA@@2@XZ 100567bf f i libucrt:output.obj
 0001:000557c5       ?state_transition_table@?$standard_base@DV?$string_output_adapter@D@__crt_stdio_output@@@__crt_stdio_output@@KAABV?$spectre_mitigated_lookup_table@Ustate_transition_pair@__crt_stdio_output@@$0IA@@2@XZ 100567c5 f i libucrt:output.obj
 0001:000557cb       ?state_transition_table@?$standard_base@_WV?$stream_output_adapter@_W@__crt_stdio_output@@@__crt_stdio_output@@KAABV?$spectre_mitigated_lookup_table@Ustate_transition_pair@__crt_stdio_output@@$0IA@@2@XZ 100567cb f i libucrt:output.obj
 0001:000557d1       ?state_transition_table@?$standard_base@_WV?$string_output_adapter@_W@__crt_stdio_output@@@__crt_stdio_output@@KAABV?$spectre_mitigated_lookup_table@Ustate_transition_pair@__crt_stdio_output@@$0IA@@2@XZ 100567d1 f i libucrt:output.obj
 0001:000557d7       ?tchar_string@?$common_data@D@__crt_stdio_output@@IAEAAPADD@Z 100567d7 f i libucrt:output.obj
 0001:000557dd       ?tchar_string@?$common_data@D@__crt_stdio_output@@IAEAAPADXZ 100567dd f i libucrt:output.obj
 0001:000557e1       ?tchar_string@?$common_data@_W@__crt_stdio_output@@IAEAAPA_WXZ 100567e1 f i libucrt:output.obj
 0001:000557e5       ?tchar_string@?$common_data@_W@__crt_stdio_output@@IAEAAPA_W_W@Z 100567e5 f i libucrt:output.obj
 0001:000557f0       ?to_integer_size@__crt_stdio_output@@YAIW4length_modifier@1@@Z 100567f0 f i libucrt:output.obj
 0001:0005584c       ?type_case_X@?$output_processor@DV?$stream_output_adapter@D@__crt_stdio_output@@V?$format_validation_base@DV?$stream_output_adapter@D@__crt_stdio_output@@@2@@__crt_stdio_output@@AAE_NXZ 1005684c f i libucrt:output.obj
 0001:00055856       ?type_case_X@?$output_processor@DV?$stream_output_adapter@D@__crt_stdio_output@@V?$positional_parameter_base@DV?$stream_output_adapter@D@__crt_stdio_output@@@2@@__crt_stdio_output@@AAE_NXZ 10056856 f i libucrt:output.obj
 0001:00055860       ?type_case_X@?$output_processor@DV?$stream_output_adapter@D@__crt_stdio_output@@V?$standard_base@DV?$stream_output_adapter@D@__crt_stdio_output@@@2@@__crt_stdio_output@@AAE_NXZ 10056860 f i libucrt:output.obj
 0001:0005586a       ?type_case_X@?$output_processor@DV?$string_output_adapter@D@__crt_stdio_output@@V?$format_validation_base@DV?$string_output_adapter@D@__crt_stdio_output@@@2@@__crt_stdio_output@@AAE_NXZ 1005686a f i libucrt:output.obj
 0001:00055874       ?type_case_X@?$output_processor@DV?$string_output_adapter@D@__crt_stdio_output@@V?$positional_parameter_base@DV?$string_output_adapter@D@__crt_stdio_output@@@2@@__crt_stdio_output@@AAE_NXZ 10056874 f i libucrt:output.obj
 0001:0005587e       ?type_case_X@?$output_processor@DV?$string_output_adapter@D@__crt_stdio_output@@V?$standard_base@DV?$string_output_adapter@D@__crt_stdio_output@@@2@@__crt_stdio_output@@AAE_NXZ 1005687e f i libucrt:output.obj
 0001:00055888       ?type_case_X@?$output_processor@_WV?$stream_output_adapter@_W@__crt_stdio_output@@V?$format_validation_base@_WV?$stream_output_adapter@_W@__crt_stdio_output@@@2@@__crt_stdio_output@@AAE_NXZ 10056888 f i libucrt:output.obj
 0001:00055892       ?type_case_X@?$output_processor@_WV?$stream_output_adapter@_W@__crt_stdio_output@@V?$positional_parameter_base@_WV?$stream_output_adapter@_W@__crt_stdio_output@@@2@@__crt_stdio_output@@AAE_NXZ 10056892 f i libucrt:output.obj
 0001:0005589c       ?type_case_X@?$output_processor@_WV?$stream_output_adapter@_W@__crt_stdio_output@@V?$standard_base@_WV?$stream_output_adapter@_W@__crt_stdio_output@@@2@@__crt_stdio_output@@AAE_NXZ 1005689c f i libucrt:output.obj
 0001:000558a6       ?type_case_X@?$output_processor@_WV?$string_output_adapter@_W@__crt_stdio_output@@V?$format_validation_base@_WV?$string_output_adapter@_W@__crt_stdio_output@@@2@@__crt_stdio_output@@AAE_NXZ 100568a6 f i libucrt:output.obj
 0001:000558b0       ?type_case_X@?$output_processor@_WV?$string_output_adapter@_W@__crt_stdio_output@@V?$positional_parameter_base@_WV?$string_output_adapter@_W@__crt_stdio_output@@@2@@__crt_stdio_output@@AAE_NXZ 100568b0 f i libucrt:output.obj
 0001:000558ba       ?type_case_X@?$output_processor@_WV?$string_output_adapter@_W@__crt_stdio_output@@V?$standard_base@_WV?$string_output_adapter@_W@__crt_stdio_output@@@2@@__crt_stdio_output@@AAE_NXZ 100568ba f i libucrt:output.obj
 0001:000558c4       ?type_case_Z@?$output_processor@DV?$stream_output_adapter@D@__crt_stdio_output@@V?$format_validation_base@DV?$stream_output_adapter@D@__crt_stdio_output@@@2@@__crt_stdio_output@@AAE_NXZ 100568c4 f i libucrt:output.obj
 0001:0005591e       ?type_case_Z@?$output_processor@DV?$stream_output_adapter@D@__crt_stdio_output@@V?$positional_parameter_base@DV?$stream_output_adapter@D@__crt_stdio_output@@@2@@__crt_stdio_output@@AAE_NXZ 1005691e f i libucrt:output.obj
 0001:00055992       ?type_case_Z@?$output_processor@DV?$stream_output_adapter@D@__crt_stdio_output@@V?$standard_base@DV?$stream_output_adapter@D@__crt_stdio_output@@@2@@__crt_stdio_output@@AAE_NXZ 10056992 f i libucrt:output.obj
 0001:000559ec       ?type_case_Z@?$output_processor@DV?$string_output_adapter@D@__crt_stdio_output@@V?$format_validation_base@DV?$string_output_adapter@D@__crt_stdio_output@@@2@@__crt_stdio_output@@AAE_NXZ 100569ec f i libucrt:output.obj
 0001:00055a46       ?type_case_Z@?$output_processor@DV?$string_output_adapter@D@__crt_stdio_output@@V?$positional_parameter_base@DV?$string_output_adapter@D@__crt_stdio_output@@@2@@__crt_stdio_output@@AAE_NXZ 10056a46 f i libucrt:output.obj
 0001:00055aba       ?type_case_Z@?$output_processor@DV?$string_output_adapter@D@__crt_stdio_output@@V?$standard_base@DV?$string_output_adapter@D@__crt_stdio_output@@@2@@__crt_stdio_output@@AAE_NXZ 10056aba f i libucrt:output.obj
 0001:00055b14       ?type_case_Z@?$output_processor@_WV?$stream_output_adapter@_W@__crt_stdio_output@@V?$format_validation_base@_WV?$stream_output_adapter@_W@__crt_stdio_output@@@2@@__crt_stdio_output@@AAE_NXZ 10056b14 f i libucrt:output.obj
 0001:00055b6e       ?type_case_Z@?$output_processor@_WV?$stream_output_adapter@_W@__crt_stdio_output@@V?$positional_parameter_base@_WV?$stream_output_adapter@_W@__crt_stdio_output@@@2@@__crt_stdio_output@@AAE_NXZ 10056b6e f i libucrt:output.obj
 0001:00055be2       ?type_case_Z@?$output_processor@_WV?$stream_output_adapter@_W@__crt_stdio_output@@V?$standard_base@_WV?$stream_output_adapter@_W@__crt_stdio_output@@@2@@__crt_stdio_output@@AAE_NXZ 10056be2 f i libucrt:output.obj
 0001:00055c3c       ?type_case_Z@?$output_processor@_WV?$string_output_adapter@_W@__crt_stdio_output@@V?$format_validation_base@_WV?$string_output_adapter@_W@__crt_stdio_output@@@2@@__crt_stdio_output@@AAE_NXZ 10056c3c f i libucrt:output.obj
 0001:00055c96       ?type_case_Z@?$output_processor@_WV?$string_output_adapter@_W@__crt_stdio_output@@V?$positional_parameter_base@_WV?$string_output_adapter@_W@__crt_stdio_output@@@2@@__crt_stdio_output@@AAE_NXZ 10056c96 f i libucrt:output.obj
 0001:00055d0a       ?type_case_Z@?$output_processor@_WV?$string_output_adapter@_W@__crt_stdio_output@@V?$standard_base@_WV?$string_output_adapter@_W@__crt_stdio_output@@@2@@__crt_stdio_output@@AAE_NXZ 10056d0a f i libucrt:output.obj
 0001:00055d64       ?type_case_a@?$output_processor@DV?$stream_output_adapter@D@__crt_stdio_output@@V?$format_validation_base@DV?$stream_output_adapter@D@__crt_stdio_output@@@2@@__crt_stdio_output@@AAE_NXZ 10056d64 f i libucrt:output.obj
 0001:00055eb5       ?type_case_a@?$output_processor@DV?$stream_output_adapter@D@__crt_stdio_output@@V?$positional_parameter_base@DV?$stream_output_adapter@D@__crt_stdio_output@@@2@@__crt_stdio_output@@AAE_NXZ 10056eb5 f i libucrt:output.obj
 0001:00056032       ?type_case_a@?$output_processor@DV?$stream_output_adapter@D@__crt_stdio_output@@V?$standard_base@DV?$stream_output_adapter@D@__crt_stdio_output@@@2@@__crt_stdio_output@@AAE_NXZ 10057032 f i libucrt:output.obj
 0001:00056183       ?type_case_a@?$output_processor@DV?$string_output_adapter@D@__crt_stdio_output@@V?$format_validation_base@DV?$string_output_adapter@D@__crt_stdio_output@@@2@@__crt_stdio_output@@AAE_NXZ 10057183 f i libucrt:output.obj
 0001:000562d4       ?type_case_a@?$output_processor@DV?$string_output_adapter@D@__crt_stdio_output@@V?$positional_parameter_base@DV?$string_output_adapter@D@__crt_stdio_output@@@2@@__crt_stdio_output@@AAE_NXZ 100572d4 f i libucrt:output.obj
 0001:00056451       ?type_case_a@?$output_processor@DV?$string_output_adapter@D@__crt_stdio_output@@V?$standard_base@DV?$string_output_adapter@D@__crt_stdio_output@@@2@@__crt_stdio_output@@AAE_NXZ 10057451 f i libucrt:output.obj
 0001:000565a2       ?type_case_a@?$output_processor@_WV?$stream_output_adapter@_W@__crt_stdio_output@@V?$format_validation_base@_WV?$stream_output_adapter@_W@__crt_stdio_output@@@2@@__crt_stdio_output@@AAE_NXZ 100575a2 f i libucrt:output.obj
 0001:00056709       ?type_case_a@?$output_processor@_WV?$stream_output_adapter@_W@__crt_stdio_output@@V?$positional_parameter_base@_WV?$stream_output_adapter@_W@__crt_stdio_output@@@2@@__crt_stdio_output@@AAE_NXZ 10057709 f i libucrt:output.obj
 0001:0005689c       ?type_case_a@?$output_processor@_WV?$stream_output_adapter@_W@__crt_stdio_output@@V?$standard_base@_WV?$stream_output_adapter@_W@__crt_stdio_output@@@2@@__crt_stdio_output@@AAE_NXZ 1005789c f i libucrt:output.obj
 0001:00056a03       ?type_case_a@?$output_processor@_WV?$string_output_adapter@_W@__crt_stdio_output@@V?$format_validation_base@_WV?$string_output_adapter@_W@__crt_stdio_output@@@2@@__crt_stdio_output@@AAE_NXZ 10057a03 f i libucrt:output.obj
 0001:00056b6a       ?type_case_a@?$output_processor@_WV?$string_output_adapter@_W@__crt_stdio_output@@V?$positional_parameter_base@_WV?$string_output_adapter@_W@__crt_stdio_output@@@2@@__crt_stdio_output@@AAE_NXZ 10057b6a f i libucrt:output.obj
 0001:00056cfd       ?type_case_a@?$output_processor@_WV?$string_output_adapter@_W@__crt_stdio_output@@V?$standard_base@_WV?$string_output_adapter@_W@__crt_stdio_output@@@2@@__crt_stdio_output@@AAE_NXZ 10057cfd f i libucrt:output.obj
 0001:00056e64       ?type_case_c@?$output_processor@DV?$stream_output_adapter@D@__crt_stdio_output@@V?$format_validation_base@DV?$stream_output_adapter@D@__crt_stdio_output@@@2@@__crt_stdio_output@@AAE_NXZ 10057e64 f i libucrt:output.obj
 0001:00056e6c       ?type_case_c@?$output_processor@DV?$stream_output_adapter@D@__crt_stdio_output@@V?$positional_parameter_base@DV?$stream_output_adapter@D@__crt_stdio_output@@@2@@__crt_stdio_output@@AAE_NXZ 10057e6c f i libucrt:output.obj
 0001:00056e74       ?type_case_c@?$output_processor@DV?$stream_output_adapter@D@__crt_stdio_output@@V?$standard_base@DV?$stream_output_adapter@D@__crt_stdio_output@@@2@@__crt_stdio_output@@AAE_NXZ 10057e74 f i libucrt:output.obj
 0001:00056e7c       ?type_case_c@?$output_processor@DV?$string_output_adapter@D@__crt_stdio_output@@V?$format_validation_base@DV?$string_output_adapter@D@__crt_stdio_output@@@2@@__crt_stdio_output@@AAE_NXZ 10057e7c f i libucrt:output.obj
 0001:00056e84       ?type_case_c@?$output_processor@DV?$string_output_adapter@D@__crt_stdio_output@@V?$positional_parameter_base@DV?$string_output_adapter@D@__crt_stdio_output@@@2@@__crt_stdio_output@@AAE_NXZ 10057e84 f i libucrt:output.obj
 0001:00056e8c       ?type_case_c@?$output_processor@DV?$string_output_adapter@D@__crt_stdio_output@@V?$standard_base@DV?$string_output_adapter@D@__crt_stdio_output@@@2@@__crt_stdio_output@@AAE_NXZ 10057e8c f i libucrt:output.obj
 0001:00056e94       ?type_case_c@?$output_processor@_WV?$stream_output_adapter@_W@__crt_stdio_output@@V?$format_validation_base@_WV?$stream_output_adapter@_W@__crt_stdio_output@@@2@@__crt_stdio_output@@AAE_NXZ 10057e94 f i libucrt:output.obj
 0001:00056e9c       ?type_case_c@?$output_processor@_WV?$stream_output_adapter@_W@__crt_stdio_output@@V?$positional_parameter_base@_WV?$stream_output_adapter@_W@__crt_stdio_output@@@2@@__crt_stdio_output@@AAE_NXZ 10057e9c f i libucrt:output.obj
 0001:00056ea4       ?type_case_c@?$output_processor@_WV?$stream_output_adapter@_W@__crt_stdio_output@@V?$standard_base@_WV?$stream_output_adapter@_W@__crt_stdio_output@@@2@@__crt_stdio_output@@AAE_NXZ 10057ea4 f i libucrt:output.obj
 0001:00056eac       ?type_case_c@?$output_processor@_WV?$string_output_adapter@_W@__crt_stdio_output@@V?$format_validation_base@_WV?$string_output_adapter@_W@__crt_stdio_output@@@2@@__crt_stdio_output@@AAE_NXZ 10057eac f i libucrt:output.obj
 0001:00056eb4       ?type_case_c@?$output_processor@_WV?$string_output_adapter@_W@__crt_stdio_output@@V?$positional_parameter_base@_WV?$string_output_adapter@_W@__crt_stdio_output@@@2@@__crt_stdio_output@@AAE_NXZ 10057eb4 f i libucrt:output.obj
 0001:00056ebc       ?type_case_c@?$output_processor@_WV?$string_output_adapter@_W@__crt_stdio_output@@V?$standard_base@_WV?$string_output_adapter@_W@__crt_stdio_output@@@2@@__crt_stdio_output@@AAE_NXZ 10057ebc f i libucrt:output.obj
 0001:00056ec4       ?type_case_c_tchar@?$output_processor@DV?$stream_output_adapter@D@__crt_stdio_output@@V?$format_validation_base@DV?$stream_output_adapter@D@__crt_stdio_output@@@2@@__crt_stdio_output@@AAE_ND@Z 10057ec4 f i libucrt:output.obj
 0001:00056f57       ?type_case_c_tchar@?$output_processor@DV?$stream_output_adapter@D@__crt_stdio_output@@V?$positional_parameter_base@DV?$stream_output_adapter@D@__crt_stdio_output@@@2@@__crt_stdio_output@@AAE_ND@Z 10057f57 f i libucrt:output.obj
 0001:00057018       ?type_case_c_tchar@?$output_processor@DV?$stream_output_adapter@D@__crt_stdio_output@@V?$standard_base@DV?$stream_output_adapter@D@__crt_stdio_output@@@2@@__crt_stdio_output@@AAE_ND@Z 10058018 f i libucrt:output.obj
 0001:000570ab       ?type_case_c_tchar@?$output_processor@DV?$string_output_adapter@D@__crt_stdio_output@@V?$format_validation_base@DV?$string_output_adapter@D@__crt_stdio_output@@@2@@__crt_stdio_output@@AAE_ND@Z 100580ab f i libucrt:output.obj
 0001:0005713e       ?type_case_c_tchar@?$output_processor@DV?$string_output_adapter@D@__crt_stdio_output@@V?$positional_parameter_base@DV?$string_output_adapter@D@__crt_stdio_output@@@2@@__crt_stdio_output@@AAE_ND@Z 1005813e f i libucrt:output.obj
 0001:000571ff       ?type_case_c_tchar@?$output_processor@DV?$string_output_adapter@D@__crt_stdio_output@@V?$standard_base@DV?$string_output_adapter@D@__crt_stdio_output@@@2@@__crt_stdio_output@@AAE_ND@Z 100581ff f i libucrt:output.obj
 0001:00057292       ?type_case_c_tchar@?$output_processor@_WV?$stream_output_adapter@_W@__crt_stdio_output@@V?$format_validation_base@_WV?$stream_output_adapter@_W@__crt_stdio_output@@@2@@__crt_stdio_output@@AAE_N_W@Z 10058292 f i libucrt:output.obj
 0001:00057328       ?type_case_c_tchar@?$output_processor@_WV?$stream_output_adapter@_W@__crt_stdio_output@@V?$positional_parameter_base@_WV?$stream_output_adapter@_W@__crt_stdio_output@@@2@@__crt_stdio_output@@AAE_N_W@Z 10058328 f i libucrt:output.obj
 0001:000573d5       ?type_case_c_tchar@?$output_processor@_WV?$stream_output_adapter@_W@__crt_stdio_output@@V?$standard_base@_WV?$stream_output_adapter@_W@__crt_stdio_output@@@2@@__crt_stdio_output@@AAE_N_W@Z 100583d5 f i libucrt:output.obj
 0001:0005746b       ?type_case_c_tchar@?$output_processor@_WV?$string_output_adapter@_W@__crt_stdio_output@@V?$format_validation_base@_WV?$string_output_adapter@_W@__crt_stdio_output@@@2@@__crt_stdio_output@@AAE_N_W@Z 1005846b f i libucrt:output.obj
 0001:00057501       ?type_case_c_tchar@?$output_processor@_WV?$string_output_adapter@_W@__crt_stdio_output@@V?$positional_parameter_base@_WV?$string_output_adapter@_W@__crt_stdio_output@@@2@@__crt_stdio_output@@AAE_N_W@Z 10058501 f i libucrt:output.obj
 0001:000575ae       ?type_case_c_tchar@?$output_processor@_WV?$string_output_adapter@_W@__crt_stdio_output@@V?$standard_base@_WV?$string_output_adapter@_W@__crt_stdio_output@@@2@@__crt_stdio_output@@AAE_N_W@Z 100585ae f i libucrt:output.obj
 0001:00057644       ?type_case_d@?$output_processor@DV?$stream_output_adapter@D@__crt_stdio_output@@V?$format_validation_base@DV?$stream_output_adapter@D@__crt_stdio_output@@@2@@__crt_stdio_output@@AAE_NXZ 10058644 f i libucrt:output.obj
 0001:00057652       ?type_case_d@?$output_processor@DV?$stream_output_adapter@D@__crt_stdio_output@@V?$positional_parameter_base@DV?$stream_output_adapter@D@__crt_stdio_output@@@2@@__crt_stdio_output@@AAE_NXZ 10058652 f i libucrt:output.obj
 0001:00057660       ?type_case_d@?$output_processor@DV?$stream_output_adapter@D@__crt_stdio_output@@V?$standard_base@DV?$stream_output_adapter@D@__crt_stdio_output@@@2@@__crt_stdio_output@@AAE_NXZ 10058660 f i libucrt:output.obj
 0001:0005766e       ?type_case_d@?$output_processor@DV?$string_output_adapter@D@__crt_stdio_output@@V?$format_validation_base@DV?$string_output_adapter@D@__crt_stdio_output@@@2@@__crt_stdio_output@@AAE_NXZ 1005866e f i libucrt:output.obj
 0001:0005767c       ?type_case_d@?$output_processor@DV?$string_output_adapter@D@__crt_stdio_output@@V?$positional_parameter_base@DV?$string_output_adapter@D@__crt_stdio_output@@@2@@__crt_stdio_output@@AAE_NXZ 1005867c f i libucrt:output.obj
 0001:0005768a       ?type_case_d@?$output_processor@DV?$string_output_adapter@D@__crt_stdio_output@@V?$standard_base@DV?$string_output_adapter@D@__crt_stdio_output@@@2@@__crt_stdio_output@@AAE_NXZ 1005868a f i libucrt:output.obj
 0001:00057698       ?type_case_d@?$output_processor@_WV?$stream_output_adapter@_W@__crt_stdio_output@@V?$format_validation_base@_WV?$stream_output_adapter@_W@__crt_stdio_output@@@2@@__crt_stdio_output@@AAE_NXZ 10058698 f i libucrt:output.obj
 0001:000576a6       ?type_case_d@?$output_processor@_WV?$stream_output_adapter@_W@__crt_stdio_output@@V?$positional_parameter_base@_WV?$stream_output_adapter@_W@__crt_stdio_output@@@2@@__crt_stdio_output@@AAE_NXZ 100586a6 f i libucrt:output.obj
 0001:000576b4       ?type_case_d@?$output_processor@_WV?$stream_output_adapter@_W@__crt_stdio_output@@V?$standard_base@_WV?$stream_output_adapter@_W@__crt_stdio_output@@@2@@__crt_stdio_output@@AAE_NXZ 100586b4 f i libucrt:output.obj
 0001:000576c2       ?type_case_d@?$output_processor@_WV?$string_output_adapter@_W@__crt_stdio_output@@V?$format_validation_base@_WV?$string_output_adapter@_W@__crt_stdio_output@@@2@@__crt_stdio_output@@AAE_NXZ 100586c2 f i libucrt:output.obj
 0001:000576d0       ?type_case_d@?$output_processor@_WV?$string_output_adapter@_W@__crt_stdio_output@@V?$positional_parameter_base@_WV?$string_output_adapter@_W@__crt_stdio_output@@@2@@__crt_stdio_output@@AAE_NXZ 100586d0 f i libucrt:output.obj
 0001:000576de       ?type_case_d@?$output_processor@_WV?$string_output_adapter@_W@__crt_stdio_output@@V?$standard_base@_WV?$string_output_adapter@_W@__crt_stdio_output@@@2@@__crt_stdio_output@@AAE_NXZ 100586de f i libucrt:output.obj
 0001:000576ec       ?type_case_integer@?$output_processor@DV?$stream_output_adapter@D@__crt_stdio_output@@V?$format_validation_base@DV?$stream_output_adapter@D@__crt_stdio_output@@@2@@__crt_stdio_output@@AAE_NI_N@Z 100586ec f i libucrt:output.obj
 0001:0005783d       ?type_case_integer@?$output_processor@DV?$stream_output_adapter@D@__crt_stdio_output@@V?$positional_parameter_base@DV?$stream_output_adapter@D@__crt_stdio_output@@@2@@__crt_stdio_output@@AAE_NI_N@Z 1005883d f i libucrt:output.obj
 0001:000579be       ?type_case_integer@?$output_processor@DV?$stream_output_adapter@D@__crt_stdio_output@@V?$standard_base@DV?$stream_output_adapter@D@__crt_stdio_output@@@2@@__crt_stdio_output@@AAE_NI_N@Z 100589be f i libucrt:output.obj
 0001:00057b0f       ?type_case_integer@?$output_processor@DV?$string_output_adapter@D@__crt_stdio_output@@V?$format_validation_base@DV?$string_output_adapter@D@__crt_stdio_output@@@2@@__crt_stdio_output@@AAE_NI_N@Z 10058b0f f i libucrt:output.obj
 0001:00057c60       ?type_case_integer@?$output_processor@DV?$string_output_adapter@D@__crt_stdio_output@@V?$positional_parameter_base@DV?$string_output_adapter@D@__crt_stdio_output@@@2@@__crt_stdio_output@@AAE_NI_N@Z 10058c60 f i libucrt:output.obj
 0001:00057de1       ?type_case_integer@?$output_processor@DV?$string_output_adapter@D@__crt_stdio_output@@V?$standard_base@DV?$string_output_adapter@D@__crt_stdio_output@@@2@@__crt_stdio_output@@AAE_NI_N@Z 10058de1 f i libucrt:output.obj
 0001:00057f32       ?type_case_integer@?$output_processor@_WV?$stream_output_adapter@_W@__crt_stdio_output@@V?$format_validation_base@_WV?$stream_output_adapter@_W@__crt_stdio_output@@@2@@__crt_stdio_output@@AAE_NI_N@Z 10058f32 f i libucrt:output.obj
 0001:00058087       ?type_case_integer@?$output_processor@_WV?$stream_output_adapter@_W@__crt_stdio_output@@V?$positional_parameter_base@_WV?$stream_output_adapter@_W@__crt_stdio_output@@@2@@__crt_stdio_output@@AAE_NI_N@Z 10059087 f i libucrt:output.obj
 0001:0005820c       ?type_case_integer@?$output_processor@_WV?$stream_output_adapter@_W@__crt_stdio_output@@V?$standard_base@_WV?$stream_output_adapter@_W@__crt_stdio_output@@@2@@__crt_stdio_output@@AAE_NI_N@Z 1005920c f i libucrt:output.obj
 0001:00058361       ?type_case_integer@?$output_processor@_WV?$string_output_adapter@_W@__crt_stdio_output@@V?$format_validation_base@_WV?$string_output_adapter@_W@__crt_stdio_output@@@2@@__crt_stdio_output@@AAE_NI_N@Z 10059361 f i libucrt:output.obj
 0001:000584b6       ?type_case_integer@?$output_processor@_WV?$string_output_adapter@_W@__crt_stdio_output@@V?$positional_parameter_base@_WV?$string_output_adapter@_W@__crt_stdio_output@@@2@@__crt_stdio_output@@AAE_NI_N@Z 100594b6 f i libucrt:output.obj
 0001:0005863b       ?type_case_integer@?$output_processor@_WV?$string_output_adapter@_W@__crt_stdio_output@@V?$standard_base@_WV?$string_output_adapter@_W@__crt_stdio_output@@@2@@__crt_stdio_output@@AAE_NI_N@Z 1005963b f i libucrt:output.obj
 0001:00058790       ?type_case_n@?$output_processor@DV?$stream_output_adapter@D@__crt_stdio_output@@V?$format_validation_base@DV?$stream_output_adapter@D@__crt_stdio_output@@@2@@__crt_stdio_output@@AAE_NXZ 10059790 f i libucrt:output.obj
 0001:00058804       ?type_case_n@?$output_processor@DV?$stream_output_adapter@D@__crt_stdio_output@@V?$positional_parameter_base@DV?$stream_output_adapter@D@__crt_stdio_output@@@2@@__crt_stdio_output@@AAE_NXZ 10059804 f i libucrt:output.obj
 0001:0005889b       ?type_case_n@?$output_processor@DV?$stream_output_adapter@D@__crt_stdio_output@@V?$standard_base@DV?$stream_output_adapter@D@__crt_stdio_output@@@2@@__crt_stdio_output@@AAE_NXZ 1005989b f i libucrt:output.obj
 0001:0005890f       ?type_case_n@?$output_processor@DV?$string_output_adapter@D@__crt_stdio_output@@V?$format_validation_base@DV?$string_output_adapter@D@__crt_stdio_output@@@2@@__crt_stdio_output@@AAE_NXZ 1005990f f i libucrt:output.obj
 0001:00058983       ?type_case_n@?$output_processor@DV?$string_output_adapter@D@__crt_stdio_output@@V?$positional_parameter_base@DV?$string_output_adapter@D@__crt_stdio_output@@@2@@__crt_stdio_output@@AAE_NXZ 10059983 f i libucrt:output.obj
 0001:00058a1a       ?type_case_n@?$output_processor@DV?$string_output_adapter@D@__crt_stdio_output@@V?$standard_base@DV?$string_output_adapter@D@__crt_stdio_output@@@2@@__crt_stdio_output@@AAE_NXZ 10059a1a f i libucrt:output.obj
 0001:00058a8e       ?type_case_n@?$output_processor@_WV?$stream_output_adapter@_W@__crt_stdio_output@@V?$format_validation_base@_WV?$stream_output_adapter@_W@__crt_stdio_output@@@2@@__crt_stdio_output@@AAE_NXZ 10059a8e f i libucrt:output.obj
 0001:00058b02       ?type_case_n@?$output_processor@_WV?$stream_output_adapter@_W@__crt_stdio_output@@V?$positional_parameter_base@_WV?$stream_output_adapter@_W@__crt_stdio_output@@@2@@__crt_stdio_output@@AAE_NXZ 10059b02 f i libucrt:output.obj
 0001:00058b99       ?type_case_n@?$output_processor@_WV?$stream_output_adapter@_W@__crt_stdio_output@@V?$standard_base@_WV?$stream_output_adapter@_W@__crt_stdio_output@@@2@@__crt_stdio_output@@AAE_NXZ 10059b99 f i libucrt:output.obj
 0001:00058c0d       ?type_case_n@?$output_processor@_WV?$string_output_adapter@_W@__crt_stdio_output@@V?$format_validation_base@_WV?$string_output_adapter@_W@__crt_stdio_output@@@2@@__crt_stdio_output@@AAE_NXZ 10059c0d f i libucrt:output.obj
 0001:00058c81       ?type_case_n@?$output_processor@_WV?$string_output_adapter@_W@__crt_stdio_output@@V?$positional_parameter_base@_WV?$string_output_adapter@_W@__crt_stdio_output@@@2@@__crt_stdio_output@@AAE_NXZ 10059c81 f i libucrt:output.obj
 0001:00058d18       ?type_case_n@?$output_processor@_WV?$string_output_adapter@_W@__crt_stdio_output@@V?$standard_base@_WV?$string_output_adapter@_W@__crt_stdio_output@@@2@@__crt_stdio_output@@AAE_NXZ 10059d18 f i libucrt:output.obj
 0001:00058d8c       ?type_case_o@?$output_processor@DV?$stream_output_adapter@D@__crt_stdio_output@@V?$format_validation_base@DV?$stream_output_adapter@D@__crt_stdio_output@@@2@@__crt_stdio_output@@AAE_NXZ 10059d8c f i libucrt:output.obj
 0001:00058dab       ?type_case_o@?$output_processor@DV?$stream_output_adapter@D@__crt_stdio_output@@V?$positional_parameter_base@DV?$stream_output_adapter@D@__crt_stdio_output@@@2@@__crt_stdio_output@@AAE_NXZ 10059dab f i libucrt:output.obj
 0001:00058dca       ?type_case_o@?$output_processor@DV?$stream_output_adapter@D@__crt_stdio_output@@V?$standard_base@DV?$stream_output_adapter@D@__crt_stdio_output@@@2@@__crt_stdio_output@@AAE_NXZ 10059dca f i libucrt:output.obj
 0001:00058de9       ?type_case_o@?$output_processor@DV?$string_output_adapter@D@__crt_stdio_output@@V?$format_validation_base@DV?$string_output_adapter@D@__crt_stdio_output@@@2@@__crt_stdio_output@@AAE_NXZ 10059de9 f i libucrt:output.obj
 0001:00058e08       ?type_case_o@?$output_processor@DV?$string_output_adapter@D@__crt_stdio_output@@V?$positional_parameter_base@DV?$string_output_adapter@D@__crt_stdio_output@@@2@@__crt_stdio_output@@AAE_NXZ 10059e08 f i libucrt:output.obj
 0001:00058e27       ?type_case_o@?$output_processor@DV?$string_output_adapter@D@__crt_stdio_output@@V?$standard_base@DV?$string_output_adapter@D@__crt_stdio_output@@@2@@__crt_stdio_output@@AAE_NXZ 10059e27 f i libucrt:output.obj
 0001:00058e46       ?type_case_o@?$output_processor@_WV?$stream_output_adapter@_W@__crt_stdio_output@@V?$format_validation_base@_WV?$stream_output_adapter@_W@__crt_stdio_output@@@2@@__crt_stdio_output@@AAE_NXZ 10059e46 f i libucrt:output.obj
 0001:00058e65       ?type_case_o@?$output_processor@_WV?$stream_output_adapter@_W@__crt_stdio_output@@V?$positional_parameter_base@_WV?$stream_output_adapter@_W@__crt_stdio_output@@@2@@__crt_stdio_output@@AAE_NXZ 10059e65 f i libucrt:output.obj
 0001:00058e84       ?type_case_o@?$output_processor@_WV?$stream_output_adapter@_W@__crt_stdio_output@@V?$standard_base@_WV?$stream_output_adapter@_W@__crt_stdio_output@@@2@@__crt_stdio_output@@AAE_NXZ 10059e84 f i libucrt:output.obj
 0001:00058ea3       ?type_case_o@?$output_processor@_WV?$string_output_adapter@_W@__crt_stdio_output@@V?$format_validation_base@_WV?$string_output_adapter@_W@__crt_stdio_output@@@2@@__crt_stdio_output@@AAE_NXZ 10059ea3 f i libucrt:output.obj
 0001:00058ec2       ?type_case_o@?$output_processor@_WV?$string_output_adapter@_W@__crt_stdio_output@@V?$positional_parameter_base@_WV?$string_output_adapter@_W@__crt_stdio_output@@@2@@__crt_stdio_output@@AAE_NXZ 10059ec2 f i libucrt:output.obj
 0001:00058ee1       ?type_case_o@?$output_processor@_WV?$string_output_adapter@_W@__crt_stdio_output@@V?$standard_base@_WV?$string_output_adapter@_W@__crt_stdio_output@@@2@@__crt_stdio_output@@AAE_NXZ 10059ee1 f i libucrt:output.obj
 0001:00058f00       ?type_case_p@?$output_processor@DV?$stream_output_adapter@D@__crt_stdio_output@@V?$format_validation_base@DV?$stream_output_adapter@D@__crt_stdio_output@@@2@@__crt_stdio_output@@AAE_NXZ 10059f00 f i libucrt:output.obj
 0001:00058f18       ?type_case_p@?$output_processor@DV?$stream_output_adapter@D@__crt_stdio_output@@V?$positional_parameter_base@DV?$stream_output_adapter@D@__crt_stdio_output@@@2@@__crt_stdio_output@@AAE_NXZ 10059f18 f i libucrt:output.obj
 0001:00058f30       ?type_case_p@?$output_processor@DV?$stream_output_adapter@D@__crt_stdio_output@@V?$standard_base@DV?$stream_output_adapter@D@__crt_stdio_output@@@2@@__crt_stdio_output@@AAE_NXZ 10059f30 f i libucrt:output.obj
 0001:00058f48       ?type_case_p@?$output_processor@DV?$string_output_adapter@D@__crt_stdio_output@@V?$format_validation_base@DV?$string_output_adapter@D@__crt_stdio_output@@@2@@__crt_stdio_output@@AAE_NXZ 10059f48 f i libucrt:output.obj
 0001:00058f60       ?type_case_p@?$output_processor@DV?$string_output_adapter@D@__crt_stdio_output@@V?$positional_parameter_base@DV?$string_output_adapter@D@__crt_stdio_output@@@2@@__crt_stdio_output@@AAE_NXZ 10059f60 f i libucrt:output.obj
 0001:00058f78       ?type_case_p@?$output_processor@DV?$string_output_adapter@D@__crt_stdio_output@@V?$standard_base@DV?$string_output_adapter@D@__crt_stdio_output@@@2@@__crt_stdio_output@@AAE_NXZ 10059f78 f i libucrt:output.obj
 0001:00058f90       ?type_case_p@?$output_processor@_WV?$stream_output_adapter@_W@__crt_stdio_output@@V?$format_validation_base@_WV?$stream_output_adapter@_W@__crt_stdio_output@@@2@@__crt_stdio_output@@AAE_NXZ 10059f90 f i libucrt:output.obj
 0001:00058fa8       ?type_case_p@?$output_processor@_WV?$stream_output_adapter@_W@__crt_stdio_output@@V?$positional_parameter_base@_WV?$stream_output_adapter@_W@__crt_stdio_output@@@2@@__crt_stdio_output@@AAE_NXZ 10059fa8 f i libucrt:output.obj
 0001:00058fc0       ?type_case_p@?$output_processor@_WV?$stream_output_adapter@_W@__crt_stdio_output@@V?$standard_base@_WV?$stream_output_adapter@_W@__crt_stdio_output@@@2@@__crt_stdio_output@@AAE_NXZ 10059fc0 f i libucrt:output.obj
 0001:00058fd8       ?type_case_p@?$output_processor@_WV?$string_output_adapter@_W@__crt_stdio_output@@V?$format_validation_base@_WV?$string_output_adapter@_W@__crt_stdio_output@@@2@@__crt_stdio_output@@AAE_NXZ 10059fd8 f i libucrt:output.obj
 0001:00058ff0       ?type_case_p@?$output_processor@_WV?$string_output_adapter@_W@__crt_stdio_output@@V?$positional_parameter_base@_WV?$string_output_adapter@_W@__crt_stdio_output@@@2@@__crt_stdio_output@@AAE_NXZ 10059ff0 f i libucrt:output.obj
 0001:00059008       ?type_case_p@?$output_processor@_WV?$string_output_adapter@_W@__crt_stdio_output@@V?$standard_base@_WV?$string_output_adapter@_W@__crt_stdio_output@@@2@@__crt_stdio_output@@AAE_NXZ 1005a008 f i libucrt:output.obj
 0001:00059020       ?type_case_s@?$output_processor@DV?$stream_output_adapter@D@__crt_stdio_output@@V?$format_validation_base@DV?$stream_output_adapter@D@__crt_stdio_output@@@2@@__crt_stdio_output@@AAE_NXZ 1005a020 f i libucrt:output.obj
 0001:00059091       ?type_case_s@?$output_processor@DV?$stream_output_adapter@D@__crt_stdio_output@@V?$positional_parameter_base@DV?$stream_output_adapter@D@__crt_stdio_output@@@2@@__crt_stdio_output@@AAE_NXZ 1005a091 f i libucrt:output.obj
 0001:0005910f       ?type_case_s@?$output_processor@DV?$stream_output_adapter@D@__crt_stdio_output@@V?$standard_base@DV?$stream_output_adapter@D@__crt_stdio_output@@@2@@__crt_stdio_output@@AAE_NXZ 1005a10f f i libucrt:output.obj
 0001:00059180       ?type_case_s@?$output_processor@DV?$string_output_adapter@D@__crt_stdio_output@@V?$format_validation_base@DV?$string_output_adapter@D@__crt_stdio_output@@@2@@__crt_stdio_output@@AAE_NXZ 1005a180 f i libucrt:output.obj
 0001:000591f1       ?type_case_s@?$output_processor@DV?$string_output_adapter@D@__crt_stdio_output@@V?$positional_parameter_base@DV?$string_output_adapter@D@__crt_stdio_output@@@2@@__crt_stdio_output@@AAE_NXZ 1005a1f1 f i libucrt:output.obj
 0001:0005926f       ?type_case_s@?$output_processor@DV?$string_output_adapter@D@__crt_stdio_output@@V?$standard_base@DV?$string_output_adapter@D@__crt_stdio_output@@@2@@__crt_stdio_output@@AAE_NXZ 1005a26f f i libucrt:output.obj
 0001:000592e0       ?type_case_s@?$output_processor@_WV?$stream_output_adapter@_W@__crt_stdio_output@@V?$format_validation_base@_WV?$stream_output_adapter@_W@__crt_stdio_output@@@2@@__crt_stdio_output@@AAE_NXZ 1005a2e0 f i libucrt:output.obj
 0001:00059353       ?type_case_s@?$output_processor@_WV?$stream_output_adapter@_W@__crt_stdio_output@@V?$positional_parameter_base@_WV?$stream_output_adapter@_W@__crt_stdio_output@@@2@@__crt_stdio_output@@AAE_NXZ 1005a353 f i libucrt:output.obj
 0001:000593d3       ?type_case_s@?$output_processor@_WV?$stream_output_adapter@_W@__crt_stdio_output@@V?$standard_base@_WV?$stream_output_adapter@_W@__crt_stdio_output@@@2@@__crt_stdio_output@@AAE_NXZ 1005a3d3 f i libucrt:output.obj
 0001:00059446       ?type_case_s@?$output_processor@_WV?$string_output_adapter@_W@__crt_stdio_output@@V?$format_validation_base@_WV?$string_output_adapter@_W@__crt_stdio_output@@@2@@__crt_stdio_output@@AAE_NXZ 1005a446 f i libucrt:output.obj
 0001:000594b9       ?type_case_s@?$output_processor@_WV?$string_output_adapter@_W@__crt_stdio_output@@V?$positional_parameter_base@_WV?$string_output_adapter@_W@__crt_stdio_output@@@2@@__crt_stdio_output@@AAE_NXZ 1005a4b9 f i libucrt:output.obj
 0001:00059539       ?type_case_s@?$output_processor@_WV?$string_output_adapter@_W@__crt_stdio_output@@V?$standard_base@_WV?$string_output_adapter@_W@__crt_stdio_output@@@2@@__crt_stdio_output@@AAE_NXZ 1005a539 f i libucrt:output.obj
 0001:000595ac       ?type_case_s_compute_narrow_string_length@?$output_processor@DV?$stream_output_adapter@D@__crt_stdio_output@@V?$format_validation_base@DV?$stream_output_adapter@D@__crt_stdio_output@@@2@@__crt_stdio_output@@ABEHHD@Z 1005a5ac f i libucrt:output.obj
 0001:000595c2       ?type_case_s_compute_narrow_string_length@?$output_processor@DV?$stream_output_adapter@D@__crt_stdio_output@@V?$positional_parameter_base@DV?$stream_output_adapter@D@__crt_stdio_output@@@2@@__crt_stdio_output@@ABEHHD@Z 1005a5c2 f i libucrt:output.obj
 0001:000595d8       ?type_case_s_compute_narrow_string_length@?$output_processor@DV?$stream_output_adapter@D@__crt_stdio_output@@V?$standard_base@DV?$stream_output_adapter@D@__crt_stdio_output@@@2@@__crt_stdio_output@@ABEHHD@Z 1005a5d8 f i libucrt:output.obj
 0001:000595ee       ?type_case_s_compute_narrow_string_length@?$output_processor@DV?$string_output_adapter@D@__crt_stdio_output@@V?$format_validation_base@DV?$string_output_adapter@D@__crt_stdio_output@@@2@@__crt_stdio_output@@ABEHHD@Z 1005a5ee f i libucrt:output.obj
 0001:00059604       ?type_case_s_compute_narrow_string_length@?$output_processor@DV?$string_output_adapter@D@__crt_stdio_output@@V?$positional_parameter_base@DV?$string_output_adapter@D@__crt_stdio_output@@@2@@__crt_stdio_output@@ABEHHD@Z 1005a604 f i libucrt:output.obj
 0001:0005961a       ?type_case_s_compute_narrow_string_length@?$output_processor@DV?$string_output_adapter@D@__crt_stdio_output@@V?$standard_base@DV?$string_output_adapter@D@__crt_stdio_output@@@2@@__crt_stdio_output@@ABEHHD@Z 1005a61a f i libucrt:output.obj
 0001:00059630       ?type_case_s_compute_narrow_string_length@?$output_processor@_WV?$stream_output_adapter@_W@__crt_stdio_output@@V?$format_validation_base@_WV?$stream_output_adapter@_W@__crt_stdio_output@@@2@@__crt_stdio_output@@ABEHH_W@Z 1005a630 f i libucrt:output.obj
 0001:00059677       ?type_case_s_compute_narrow_string_length@?$output_processor@_WV?$stream_output_adapter@_W@__crt_stdio_output@@V?$positional_parameter_base@_WV?$stream_output_adapter@_W@__crt_stdio_output@@@2@@__crt_stdio_output@@ABEHH_W@Z 1005a677 f i libucrt:output.obj
 0001:000596be       ?type_case_s_compute_narrow_string_length@?$output_processor@_WV?$stream_output_adapter@_W@__crt_stdio_output@@V?$standard_base@_WV?$stream_output_adapter@_W@__crt_stdio_output@@@2@@__crt_stdio_output@@ABEHH_W@Z 1005a6be f i libucrt:output.obj
 0001:00059705       ?type_case_s_compute_narrow_string_length@?$output_processor@_WV?$string_output_adapter@_W@__crt_stdio_output@@V?$format_validation_base@_WV?$string_output_adapter@_W@__crt_stdio_output@@@2@@__crt_stdio_output@@ABEHH_W@Z 1005a705 f i libucrt:output.obj
 0001:0005974c       ?type_case_s_compute_narrow_string_length@?$output_processor@_WV?$string_output_adapter@_W@__crt_stdio_output@@V?$positional_parameter_base@_WV?$string_output_adapter@_W@__crt_stdio_output@@@2@@__crt_stdio_output@@ABEHH_W@Z 1005a74c f i libucrt:output.obj
 0001:00059793       ?type_case_s_compute_narrow_string_length@?$output_processor@_WV?$string_output_adapter@_W@__crt_stdio_output@@V?$standard_base@_WV?$string_output_adapter@_W@__crt_stdio_output@@@2@@__crt_stdio_output@@ABEHH_W@Z 1005a793 f i libucrt:output.obj
 0001:000597da       ?type_case_u@?$output_processor@DV?$stream_output_adapter@D@__crt_stdio_output@@V?$format_validation_base@DV?$stream_output_adapter@D@__crt_stdio_output@@@2@@__crt_stdio_output@@AAE_NXZ 1005a7da f i libucrt:output.obj
 0001:000597e4       ?type_case_u@?$output_processor@DV?$stream_output_adapter@D@__crt_stdio_output@@V?$positional_parameter_base@DV?$stream_output_adapter@D@__crt_stdio_output@@@2@@__crt_stdio_output@@AAE_NXZ 1005a7e4 f i libucrt:output.obj
 0001:000597ee       ?type_case_u@?$output_processor@DV?$stream_output_adapter@D@__crt_stdio_output@@V?$standard_base@DV?$stream_output_adapter@D@__crt_stdio_output@@@2@@__crt_stdio_output@@AAE_NXZ 1005a7ee f i libucrt:output.obj
 0001:000597f8       ?type_case_u@?$output_processor@DV?$string_output_adapter@D@__crt_stdio_output@@V?$format_validation_base@DV?$string_output_adapter@D@__crt_stdio_output@@@2@@__crt_stdio_output@@AAE_NXZ 1005a7f8 f i libucrt:output.obj
 0001:00059802       ?type_case_u@?$output_processor@DV?$string_output_adapter@D@__crt_stdio_output@@V?$positional_parameter_base@DV?$string_output_adapter@D@__crt_stdio_output@@@2@@__crt_stdio_output@@AAE_NXZ 1005a802 f i libucrt:output.obj
 0001:0005980c       ?type_case_u@?$output_processor@DV?$string_output_adapter@D@__crt_stdio_output@@V?$standard_base@DV?$string_output_adapter@D@__crt_stdio_output@@@2@@__crt_stdio_output@@AAE_NXZ 1005a80c f i libucrt:output.obj
 0001:00059816       ?type_case_u@?$output_processor@_WV?$stream_output_adapter@_W@__crt_stdio_output@@V?$format_validation_base@_WV?$stream_output_adapter@_W@__crt_stdio_output@@@2@@__crt_stdio_output@@AAE_NXZ 1005a816 f i libucrt:output.obj
 0001:00059820       ?type_case_u@?$output_processor@_WV?$stream_output_adapter@_W@__crt_stdio_output@@V?$positional_parameter_base@_WV?$stream_output_adapter@_W@__crt_stdio_output@@@2@@__crt_stdio_output@@AAE_NXZ 1005a820 f i libucrt:output.obj
 0001:0005982a       ?type_case_u@?$output_processor@_WV?$stream_output_adapter@_W@__crt_stdio_output@@V?$standard_base@_WV?$stream_output_adapter@_W@__crt_stdio_output@@@2@@__crt_stdio_output@@AAE_NXZ 1005a82a f i libucrt:output.obj
 0001:00059834       ?type_case_u@?$output_processor@_WV?$string_output_adapter@_W@__crt_stdio_output@@V?$format_validation_base@_WV?$string_output_adapter@_W@__crt_stdio_output@@@2@@__crt_stdio_output@@AAE_NXZ 1005a834 f i libucrt:output.obj
 0001:0005983e       ?type_case_u@?$output_processor@_WV?$string_output_adapter@_W@__crt_stdio_output@@V?$positional_parameter_base@_WV?$string_output_adapter@_W@__crt_stdio_output@@@2@@__crt_stdio_output@@AAE_NXZ 1005a83e f i libucrt:output.obj
 0001:00059848       ?type_case_u@?$output_processor@_WV?$string_output_adapter@_W@__crt_stdio_output@@V?$standard_base@_WV?$string_output_adapter@_W@__crt_stdio_output@@@2@@__crt_stdio_output@@AAE_NXZ 1005a848 f i libucrt:output.obj
 0001:00059852       ?type_case_x@?$output_processor@DV?$stream_output_adapter@D@__crt_stdio_output@@V?$format_validation_base@DV?$stream_output_adapter@D@__crt_stdio_output@@@2@@__crt_stdio_output@@AAE_NXZ 1005a852 f i libucrt:output.obj
 0001:0005985c       ?type_case_x@?$output_processor@DV?$stream_output_adapter@D@__crt_stdio_output@@V?$positional_parameter_base@DV?$stream_output_adapter@D@__crt_stdio_output@@@2@@__crt_stdio_output@@AAE_NXZ 1005a85c f i libucrt:output.obj
 0001:00059866       ?type_case_x@?$output_processor@DV?$stream_output_adapter@D@__crt_stdio_output@@V?$standard_base@DV?$stream_output_adapter@D@__crt_stdio_output@@@2@@__crt_stdio_output@@AAE_NXZ 1005a866 f i libucrt:output.obj
 0001:00059870       ?type_case_x@?$output_processor@DV?$string_output_adapter@D@__crt_stdio_output@@V?$format_validation_base@DV?$string_output_adapter@D@__crt_stdio_output@@@2@@__crt_stdio_output@@AAE_NXZ 1005a870 f i libucrt:output.obj
 0001:0005987a       ?type_case_x@?$output_processor@DV?$string_output_adapter@D@__crt_stdio_output@@V?$positional_parameter_base@DV?$string_output_adapter@D@__crt_stdio_output@@@2@@__crt_stdio_output@@AAE_NXZ 1005a87a f i libucrt:output.obj
 0001:00059884       ?type_case_x@?$output_processor@DV?$string_output_adapter@D@__crt_stdio_output@@V?$standard_base@DV?$string_output_adapter@D@__crt_stdio_output@@@2@@__crt_stdio_output@@AAE_NXZ 1005a884 f i libucrt:output.obj
 0001:0005988e       ?type_case_x@?$output_processor@_WV?$stream_output_adapter@_W@__crt_stdio_output@@V?$format_validation_base@_WV?$stream_output_adapter@_W@__crt_stdio_output@@@2@@__crt_stdio_output@@AAE_NXZ 1005a88e f i libucrt:output.obj
 0001:00059898       ?type_case_x@?$output_processor@_WV?$stream_output_adapter@_W@__crt_stdio_output@@V?$positional_parameter_base@_WV?$stream_output_adapter@_W@__crt_stdio_output@@@2@@__crt_stdio_output@@AAE_NXZ 1005a898 f i libucrt:output.obj
 0001:000598a2       ?type_case_x@?$output_processor@_WV?$stream_output_adapter@_W@__crt_stdio_output@@V?$standard_base@_WV?$stream_output_adapter@_W@__crt_stdio_output@@@2@@__crt_stdio_output@@AAE_NXZ 1005a8a2 f i libucrt:output.obj
 0001:000598ac       ?type_case_x@?$output_processor@_WV?$string_output_adapter@_W@__crt_stdio_output@@V?$format_validation_base@_WV?$string_output_adapter@_W@__crt_stdio_output@@@2@@__crt_stdio_output@@AAE_NXZ 1005a8ac f i libucrt:output.obj
 0001:000598b6       ?type_case_x@?$output_processor@_WV?$string_output_adapter@_W@__crt_stdio_output@@V?$positional_parameter_base@_WV?$string_output_adapter@_W@__crt_stdio_output@@@2@@__crt_stdio_output@@AAE_NXZ 1005a8b6 f i libucrt:output.obj
 0001:000598c0       ?type_case_x@?$output_processor@_WV?$string_output_adapter@_W@__crt_stdio_output@@V?$standard_base@_WV?$string_output_adapter@_W@__crt_stdio_output@@@2@@__crt_stdio_output@@AAE_NXZ 1005a8c0 f i libucrt:output.obj
 0001:000598ca       ?unset_flag@?$output_processor@DV?$stream_output_adapter@D@__crt_stdio_output@@V?$format_validation_base@DV?$stream_output_adapter@D@__crt_stdio_output@@@2@@__crt_stdio_output@@AAEXI@Z 1005a8ca f i libucrt:output.obj
 0001:000598db       ?unset_flag@?$output_processor@DV?$stream_output_adapter@D@__crt_stdio_output@@V?$positional_parameter_base@DV?$stream_output_adapter@D@__crt_stdio_output@@@2@@__crt_stdio_output@@AAEXI@Z 1005a8db f i libucrt:output.obj
 0001:000598ec       ?unset_flag@?$output_processor@DV?$stream_output_adapter@D@__crt_stdio_output@@V?$standard_base@DV?$stream_output_adapter@D@__crt_stdio_output@@@2@@__crt_stdio_output@@AAEXI@Z 1005a8ec f i libucrt:output.obj
 0001:000598fd       ?unset_flag@?$output_processor@DV?$string_output_adapter@D@__crt_stdio_output@@V?$format_validation_base@DV?$string_output_adapter@D@__crt_stdio_output@@@2@@__crt_stdio_output@@AAEXI@Z 1005a8fd f i libucrt:output.obj
 0001:0005990e       ?unset_flag@?$output_processor@DV?$string_output_adapter@D@__crt_stdio_output@@V?$positional_parameter_base@DV?$string_output_adapter@D@__crt_stdio_output@@@2@@__crt_stdio_output@@AAEXI@Z 1005a90e f i libucrt:output.obj
 0001:0005991f       ?unset_flag@?$output_processor@DV?$string_output_adapter@D@__crt_stdio_output@@V?$standard_base@DV?$string_output_adapter@D@__crt_stdio_output@@@2@@__crt_stdio_output@@AAEXI@Z 1005a91f f i libucrt:output.obj
 0001:00059930       ?unset_flag@?$output_processor@_WV?$stream_output_adapter@_W@__crt_stdio_output@@V?$format_validation_base@_WV?$stream_output_adapter@_W@__crt_stdio_output@@@2@@__crt_stdio_output@@AAEXI@Z 1005a930 f i libucrt:output.obj
 0001:00059941       ?unset_flag@?$output_processor@_WV?$stream_output_adapter@_W@__crt_stdio_output@@V?$positional_parameter_base@_WV?$stream_output_adapter@_W@__crt_stdio_output@@@2@@__crt_stdio_output@@AAEXI@Z 1005a941 f i libucrt:output.obj
 0001:00059952       ?unset_flag@?$output_processor@_WV?$stream_output_adapter@_W@__crt_stdio_output@@V?$standard_base@_WV?$stream_output_adapter@_W@__crt_stdio_output@@@2@@__crt_stdio_output@@AAEXI@Z 1005a952 f i libucrt:output.obj
 0001:00059963       ?unset_flag@?$output_processor@_WV?$string_output_adapter@_W@__crt_stdio_output@@V?$format_validation_base@_WV?$string_output_adapter@_W@__crt_stdio_output@@@2@@__crt_stdio_output@@AAEXI@Z 1005a963 f i libucrt:output.obj
 0001:00059974       ?unset_flag@?$output_processor@_WV?$string_output_adapter@_W@__crt_stdio_output@@V?$positional_parameter_base@_WV?$string_output_adapter@_W@__crt_stdio_output@@@2@@__crt_stdio_output@@AAEXI@Z 1005a974 f i libucrt:output.obj
 0001:00059985       ?unset_flag@?$output_processor@_WV?$string_output_adapter@_W@__crt_stdio_output@@V?$standard_base@_WV?$string_output_adapter@_W@__crt_stdio_output@@@2@@__crt_stdio_output@@AAEXI@Z 1005a985 f i libucrt:output.obj
 0001:00059996       ?update_field_width@?$positional_parameter_base@DV?$stream_output_adapter@D@__crt_stdio_output@@@__crt_stdio_output@@IAE_NXZ 1005a996 f i libucrt:output.obj
 0001:00059a4a       ?update_field_width@?$positional_parameter_base@DV?$string_output_adapter@D@__crt_stdio_output@@@__crt_stdio_output@@IAE_NXZ 1005aa4a f i libucrt:output.obj
 0001:00059afe       ?update_field_width@?$positional_parameter_base@_WV?$stream_output_adapter@_W@__crt_stdio_output@@@__crt_stdio_output@@IAE_NXZ 1005aafe f i libucrt:output.obj
 0001:00059bb3       ?update_field_width@?$positional_parameter_base@_WV?$string_output_adapter@_W@__crt_stdio_output@@@__crt_stdio_output@@IAE_NXZ 1005abb3 f i libucrt:output.obj
 0001:00059c68       ?update_field_width@?$standard_base@DV?$stream_output_adapter@D@__crt_stdio_output@@@__crt_stdio_output@@IAE_NXZ 1005ac68 f i libucrt:output.obj
 0001:00059c78       ?update_field_width@?$standard_base@DV?$string_output_adapter@D@__crt_stdio_output@@@__crt_stdio_output@@IAE_NXZ 1005ac78 f i libucrt:output.obj
 0001:00059c88       ?update_field_width@?$standard_base@_WV?$stream_output_adapter@_W@__crt_stdio_output@@@__crt_stdio_output@@IAE_NXZ 1005ac88 f i libucrt:output.obj
 0001:00059c98       ?update_field_width@?$standard_base@_WV?$string_output_adapter@_W@__crt_stdio_output@@@__crt_stdio_output@@IAE_NXZ 1005ac98 f i libucrt:output.obj
 0001:00059ca8       ?update_precision@?$positional_parameter_base@DV?$stream_output_adapter@D@__crt_stdio_output@@@__crt_stdio_output@@IAE_NXZ 1005aca8 f i libucrt:output.obj
 0001:00059d5c       ?update_precision@?$positional_parameter_base@DV?$string_output_adapter@D@__crt_stdio_output@@@__crt_stdio_output@@IAE_NXZ 1005ad5c f i libucrt:output.obj
 0001:00059e10       ?update_precision@?$positional_parameter_base@_WV?$stream_output_adapter@_W@__crt_stdio_output@@@__crt_stdio_output@@IAE_NXZ 1005ae10 f i libucrt:output.obj
 0001:00059ec5       ?update_precision@?$positional_parameter_base@_WV?$string_output_adapter@_W@__crt_stdio_output@@@__crt_stdio_output@@IAE_NXZ 1005aec5 f i libucrt:output.obj
 0001:00059f7a       ?update_precision@?$standard_base@DV?$stream_output_adapter@D@__crt_stdio_output@@@__crt_stdio_output@@IAE_NXZ 1005af7a f i libucrt:output.obj
 0001:00059f8a       ?update_precision@?$standard_base@DV?$string_output_adapter@D@__crt_stdio_output@@@__crt_stdio_output@@IAE_NXZ 1005af8a f i libucrt:output.obj
 0001:00059f9a       ?update_precision@?$standard_base@_WV?$stream_output_adapter@_W@__crt_stdio_output@@@__crt_stdio_output@@IAE_NXZ 1005af9a f i libucrt:output.obj
 0001:00059faa       ?update_precision@?$standard_base@_WV?$string_output_adapter@_W@__crt_stdio_output@@@__crt_stdio_output@@IAE_NXZ 1005afaa f i libucrt:output.obj
 0001:00059fba       ?valid@__crt_stdio_stream@@QBE_NXZ 1005afba f i libucrt:output.obj
 0001:00059fc1       ?validate@?$stream_output_adapter@D@__crt_stdio_output@@QBE_NXZ 1005afc1 f i libucrt:output.obj
 0001:00059fe2       ?validate@?$stream_output_adapter@_W@__crt_stdio_output@@QBE_NXZ 1005afe2 f i libucrt:output.obj
 0001:00059ffd       ?validate@?$string_output_adapter@D@__crt_stdio_output@@QBE_NXZ 1005affd f i libucrt:output.obj
 0001:0005a018       ?validate@?$string_output_adapter@_W@__crt_stdio_output@@QBE_NXZ 1005b018 f i libucrt:output.obj
 0001:0005a033       ?validate_and_store_parameter_data@?$positional_parameter_base@DV?$stream_output_adapter@D@__crt_stdio_output@@@__crt_stdio_output@@AAE_NAAUparameter_data@12@W4parameter_type@12@DW4length_modifier@2@@Z 1005b033 f i libucrt:output.obj
 0001:0005a07e       ?validate_and_store_parameter_data@?$positional_parameter_base@DV?$string_output_adapter@D@__crt_stdio_output@@@__crt_stdio_output@@AAE_NAAUparameter_data@12@W4parameter_type@12@DW4length_modifier@2@@Z 1005b07e f i libucrt:output.obj
 0001:0005a0c9       ?validate_and_store_parameter_data@?$positional_parameter_base@_WV?$stream_output_adapter@_W@__crt_stdio_output@@@__crt_stdio_output@@AAE_NAAUparameter_data@12@W4parameter_type@12@_WW4length_modifier@2@@Z 1005b0c9 f i libucrt:output.obj
 0001:0005a116       ?validate_and_store_parameter_data@?$positional_parameter_base@_WV?$string_output_adapter@_W@__crt_stdio_output@@@__crt_stdio_output@@AAE_NAAUparameter_data@12@W4parameter_type@12@_WW4length_modifier@2@@Z 1005b116 f i libucrt:output.obj
 0001:0005a163       ?validate_and_update_state_at_beginning_of_format_character@?$positional_parameter_base@DV?$stream_output_adapter@D@__crt_stdio_output@@@__crt_stdio_output@@IAE_NXZ 1005b163 f i libucrt:output.obj
 0001:0005a25b       ?validate_and_update_state_at_beginning_of_format_character@?$positional_parameter_base@DV?$string_output_adapter@D@__crt_stdio_output@@@__crt_stdio_output@@IAE_NXZ 1005b25b f i libucrt:output.obj
 0001:0005a353       ?validate_and_update_state_at_beginning_of_format_character@?$positional_parameter_base@_WV?$stream_output_adapter@_W@__crt_stdio_output@@@__crt_stdio_output@@IAE_NXZ 1005b353 f i libucrt:output.obj
 0001:0005a454       ?validate_and_update_state_at_beginning_of_format_character@?$positional_parameter_base@_WV?$string_output_adapter@_W@__crt_stdio_output@@@__crt_stdio_output@@IAE_NXZ 1005b454 f i libucrt:output.obj
 0001:0005a555       ?validate_and_update_state_at_beginning_of_format_character@?$standard_base@DV?$stream_output_adapter@D@__crt_stdio_output@@@__crt_stdio_output@@IAE_NXZ 1005b555 f i libucrt:output.obj
 0001:0005a558       ?validate_and_update_state_at_beginning_of_format_character@?$standard_base@DV?$string_output_adapter@D@__crt_stdio_output@@@__crt_stdio_output@@IAE_NXZ 1005b558 f i libucrt:output.obj
 0001:0005a55b       ?validate_and_update_state_at_beginning_of_format_character@?$standard_base@_WV?$stream_output_adapter@_W@__crt_stdio_output@@@__crt_stdio_output@@IAE_NXZ 1005b55b f i libucrt:output.obj
 0001:0005a55e       ?validate_and_update_state_at_beginning_of_format_character@?$standard_base@_WV?$string_output_adapter@_W@__crt_stdio_output@@@__crt_stdio_output@@IAE_NXZ 1005b55e f i libucrt:output.obj
 0001:0005a561       ?validate_and_update_state_at_end_of_format_string@?$format_validation_base@DV?$stream_output_adapter@D@__crt_stdio_output@@@__crt_stdio_output@@IBE_NXZ 1005b561 f i libucrt:output.obj
 0001:0005a583       ?validate_and_update_state_at_end_of_format_string@?$format_validation_base@DV?$string_output_adapter@D@__crt_stdio_output@@@__crt_stdio_output@@IBE_NXZ 1005b583 f i libucrt:output.obj
 0001:0005a5a5       ?validate_and_update_state_at_end_of_format_string@?$format_validation_base@_WV?$stream_output_adapter@_W@__crt_stdio_output@@@__crt_stdio_output@@IBE_NXZ 1005b5a5 f i libucrt:output.obj
 0001:0005a5c7       ?validate_and_update_state_at_end_of_format_string@?$format_validation_base@_WV?$string_output_adapter@_W@__crt_stdio_output@@@__crt_stdio_output@@IBE_NXZ 1005b5c7 f i libucrt:output.obj
 0001:0005a5e9       ?validate_and_update_state_at_end_of_format_string@?$positional_parameter_base@DV?$stream_output_adapter@D@__crt_stdio_output@@@__crt_stdio_output@@IAE_NXZ 1005b5e9 f i libucrt:output.obj
 0001:0005a679       ?validate_and_update_state_at_end_of_format_string@?$positional_parameter_base@DV?$string_output_adapter@D@__crt_stdio_output@@@__crt_stdio_output@@IAE_NXZ 1005b679 f i libucrt:output.obj
 0001:0005a709       ?validate_and_update_state_at_end_of_format_string@?$positional_parameter_base@_WV?$stream_output_adapter@_W@__crt_stdio_output@@@__crt_stdio_output@@IAE_NXZ 1005b709 f i libucrt:output.obj
 0001:0005a799       ?validate_and_update_state_at_end_of_format_string@?$positional_parameter_base@_WV?$string_output_adapter@_W@__crt_stdio_output@@@__crt_stdio_output@@IAE_NXZ 1005b799 f i libucrt:output.obj
 0001:0005a829       ?validate_and_update_state_at_end_of_format_string@?$standard_base@DV?$stream_output_adapter@D@__crt_stdio_output@@@__crt_stdio_output@@IBE_NXZ 1005b829 f i libucrt:output.obj
 0001:0005a82c       ?validate_and_update_state_at_end_of_format_string@?$standard_base@DV?$string_output_adapter@D@__crt_stdio_output@@@__crt_stdio_output@@IBE_NXZ 1005b82c f i libucrt:output.obj
 0001:0005a82f       ?validate_and_update_state_at_end_of_format_string@?$standard_base@_WV?$stream_output_adapter@_W@__crt_stdio_output@@@__crt_stdio_output@@IBE_NXZ 1005b82f f i libucrt:output.obj
 0001:0005a832       ?validate_and_update_state_at_end_of_format_string@?$standard_base@_WV?$string_output_adapter@_W@__crt_stdio_output@@@__crt_stdio_output@@IBE_NXZ 1005b832 f i libucrt:output.obj
 0001:0005a835       ?validate_state_for_type_case_a@?$positional_parameter_base@DV?$stream_output_adapter@D@__crt_stdio_output@@@__crt_stdio_output@@IAE_NXZ 1005b835 f i libucrt:output.obj
 0001:0005a884       ?validate_state_for_type_case_a@?$positional_parameter_base@DV?$string_output_adapter@D@__crt_stdio_output@@@__crt_stdio_output@@IAE_NXZ 1005b884 f i libucrt:output.obj
 0001:0005a8d3       ?validate_state_for_type_case_a@?$positional_parameter_base@_WV?$stream_output_adapter@_W@__crt_stdio_output@@@__crt_stdio_output@@IAE_NXZ 1005b8d3 f i libucrt:output.obj
 0001:0005a922       ?validate_state_for_type_case_a@?$positional_parameter_base@_WV?$string_output_adapter@_W@__crt_stdio_output@@@__crt_stdio_output@@IAE_NXZ 1005b922 f i libucrt:output.obj
 0001:0005a971       ?validate_state_for_type_case_a@?$standard_base@DV?$stream_output_adapter@D@__crt_stdio_output@@@__crt_stdio_output@@IBE_NXZ 1005b971 f i libucrt:output.obj
 0001:0005a974       ?validate_state_for_type_case_a@?$standard_base@DV?$string_output_adapter@D@__crt_stdio_output@@@__crt_stdio_output@@IBE_NXZ 1005b974 f i libucrt:output.obj
 0001:0005a977       ?validate_state_for_type_case_a@?$standard_base@_WV?$stream_output_adapter@_W@__crt_stdio_output@@@__crt_stdio_output@@IBE_NXZ 1005b977 f i libucrt:output.obj
 0001:0005a97a       ?validate_state_for_type_case_a@?$standard_base@_WV?$string_output_adapter@_W@__crt_stdio_output@@@__crt_stdio_output@@IBE_NXZ 1005b97a f i libucrt:output.obj
 0001:0005a97d       ?validate_stream_is_ansi_if_required@?$__acrt_stdio_char_traits@D@@SA_NQAU_iobuf@@@Z 1005b97d f i libucrt:output.obj
 0001:0005aa04       ?validate_stream_is_ansi_if_required@?$__acrt_stdio_char_traits@_W@@SA_NQAU_iobuf@@@Z 1005ba04 f i libucrt:output.obj
 0001:0005aa07       ?wide_null_string@?$output_processor@DV?$stream_output_adapter@D@__crt_stdio_output@@V?$format_validation_base@DV?$stream_output_adapter@D@__crt_stdio_output@@@2@@__crt_stdio_output@@CAPA_WXZ 1005ba07 f i libucrt:output.obj
 0001:0005aa0d       ?wide_null_string@?$output_processor@DV?$stream_output_adapter@D@__crt_stdio_output@@V?$positional_parameter_base@DV?$stream_output_adapter@D@__crt_stdio_output@@@2@@__crt_stdio_output@@CAPA_WXZ 1005ba0d f i libucrt:output.obj
 0001:0005aa13       ?wide_null_string@?$output_processor@DV?$stream_output_adapter@D@__crt_stdio_output@@V?$standard_base@DV?$stream_output_adapter@D@__crt_stdio_output@@@2@@__crt_stdio_output@@CAPA_WXZ 1005ba13 f i libucrt:output.obj
 0001:0005aa19       ?wide_null_string@?$output_processor@DV?$string_output_adapter@D@__crt_stdio_output@@V?$format_validation_base@DV?$string_output_adapter@D@__crt_stdio_output@@@2@@__crt_stdio_output@@CAPA_WXZ 1005ba19 f i libucrt:output.obj
 0001:0005aa1f       ?wide_null_string@?$output_processor@DV?$string_output_adapter@D@__crt_stdio_output@@V?$positional_parameter_base@DV?$string_output_adapter@D@__crt_stdio_output@@@2@@__crt_stdio_output@@CAPA_WXZ 1005ba1f f i libucrt:output.obj
 0001:0005aa25       ?wide_null_string@?$output_processor@DV?$string_output_adapter@D@__crt_stdio_output@@V?$standard_base@DV?$string_output_adapter@D@__crt_stdio_output@@@2@@__crt_stdio_output@@CAPA_WXZ 1005ba25 f i libucrt:output.obj
 0001:0005aa2b       ?wide_null_string@?$output_processor@_WV?$stream_output_adapter@_W@__crt_stdio_output@@V?$format_validation_base@_WV?$stream_output_adapter@_W@__crt_stdio_output@@@2@@__crt_stdio_output@@CAPA_WXZ 1005ba2b f i libucrt:output.obj
 0001:0005aa31       ?wide_null_string@?$output_processor@_WV?$stream_output_adapter@_W@__crt_stdio_output@@V?$positional_parameter_base@_WV?$stream_output_adapter@_W@__crt_stdio_output@@@2@@__crt_stdio_output@@CAPA_WXZ 1005ba31 f i libucrt:output.obj
 0001:0005aa37       ?wide_null_string@?$output_processor@_WV?$stream_output_adapter@_W@__crt_stdio_output@@V?$standard_base@_WV?$stream_output_adapter@_W@__crt_stdio_output@@@2@@__crt_stdio_output@@CAPA_WXZ 1005ba37 f i libucrt:output.obj
 0001:0005aa3d       ?wide_null_string@?$output_processor@_WV?$string_output_adapter@_W@__crt_stdio_output@@V?$format_validation_base@_WV?$string_output_adapter@_W@__crt_stdio_output@@@2@@__crt_stdio_output@@CAPA_WXZ 1005ba3d f i libucrt:output.obj
 0001:0005aa43       ?wide_null_string@?$output_processor@_WV?$string_output_adapter@_W@__crt_stdio_output@@V?$positional_parameter_base@_WV?$string_output_adapter@_W@__crt_stdio_output@@@2@@__crt_stdio_output@@CAPA_WXZ 1005ba43 f i libucrt:output.obj
 0001:0005aa49       ?wide_null_string@?$output_processor@_WV?$string_output_adapter@_W@__crt_stdio_output@@V?$standard_base@_WV?$string_output_adapter@_W@__crt_stdio_output@@@2@@__crt_stdio_output@@CAPA_WXZ 1005ba49 f i libucrt:output.obj
 0001:0005aa4f       ?write_character@?$output_adapter_common@DV?$stream_output_adapter@D@__crt_stdio_output@@@__crt_stdio_output@@QBEXDQAH@Z 1005ba4f f i libucrt:output.obj
 0001:0005aa6e       ?write_character@?$output_adapter_common@_WV?$stream_output_adapter@_W@__crt_stdio_output@@@__crt_stdio_output@@QBEX_WQAH@Z 1005ba6e f i libucrt:output.obj
 0001:0005aa8d       ?write_character@?$string_output_adapter@D@__crt_stdio_output@@QBE_NDQAH@Z 1005ba8d f i libucrt:output.obj
 0001:0005aacf       ?write_character@?$string_output_adapter@_W@__crt_stdio_output@@QBE_N_WQAH@Z 1005bacf f i libucrt:output.obj
 0001:0005ab14       ?write_character_without_count_update@?$stream_output_adapter@D@__crt_stdio_output@@QBE_ND@Z 1005bb14 f i libucrt:output.obj
 0001:0005ab4a       ?write_character_without_count_update@?$stream_output_adapter@_W@__crt_stdio_output@@QBE_N_W@Z 1005bb4a f i libucrt:output.obj
 0001:0005ab83       ?write_stored_string_tchar@?$output_processor@DV?$stream_output_adapter@D@__crt_stdio_output@@V?$format_validation_base@DV?$stream_output_adapter@D@__crt_stdio_output@@@2@@__crt_stdio_output@@AAE_ND@Z 1005bb83 f i libucrt:output.obj
 0001:0005ac28       ?write_stored_string_tchar@?$output_processor@DV?$stream_output_adapter@D@__crt_stdio_output@@V?$positional_parameter_base@DV?$stream_output_adapter@D@__crt_stdio_output@@@2@@__crt_stdio_output@@AAE_ND@Z 1005bc28 f i libucrt:output.obj
 0001:0005accd       ?write_stored_string_tchar@?$output_processor@DV?$stream_output_adapter@D@__crt_stdio_output@@V?$standard_base@DV?$stream_output_adapter@D@__crt_stdio_output@@@2@@__crt_stdio_output@@AAE_ND@Z 1005bccd f i libucrt:output.obj
 0001:0005ad72       ?write_stored_string_tchar@?$output_processor@DV?$string_output_adapter@D@__crt_stdio_output@@V?$format_validation_base@DV?$string_output_adapter@D@__crt_stdio_output@@@2@@__crt_stdio_output@@AAE_ND@Z 1005bd72 f i libucrt:output.obj
 0001:0005ae17       ?write_stored_string_tchar@?$output_processor@DV?$string_output_adapter@D@__crt_stdio_output@@V?$positional_parameter_base@DV?$string_output_adapter@D@__crt_stdio_output@@@2@@__crt_stdio_output@@AAE_ND@Z 1005be17 f i libucrt:output.obj
 0001:0005aebc       ?write_stored_string_tchar@?$output_processor@DV?$string_output_adapter@D@__crt_stdio_output@@V?$standard_base@DV?$string_output_adapter@D@__crt_stdio_output@@@2@@__crt_stdio_output@@AAE_ND@Z 1005bebc f i libucrt:output.obj
 0001:0005af61       ?write_stored_string_tchar@?$output_processor@_WV?$stream_output_adapter@_W@__crt_stdio_output@@V?$format_validation_base@_WV?$stream_output_adapter@_W@__crt_stdio_output@@@2@@__crt_stdio_output@@AAE_N_W@Z 1005bf61 f i libucrt:output.obj
 0001:0005afee       ?write_stored_string_tchar@?$output_processor@_WV?$stream_output_adapter@_W@__crt_stdio_output@@V?$positional_parameter_base@_WV?$stream_output_adapter@_W@__crt_stdio_output@@@2@@__crt_stdio_output@@AAE_N_W@Z 1005bfee f i libucrt:output.obj
 0001:0005b07b       ?write_stored_string_tchar@?$output_processor@_WV?$stream_output_adapter@_W@__crt_stdio_output@@V?$standard_base@_WV?$stream_output_adapter@_W@__crt_stdio_output@@@2@@__crt_stdio_output@@AAE_N_W@Z 1005c07b f i libucrt:output.obj
 0001:0005b108       ?write_stored_string_tchar@?$output_processor@_WV?$string_output_adapter@_W@__crt_stdio_output@@V?$format_validation_base@_WV?$string_output_adapter@_W@__crt_stdio_output@@@2@@__crt_stdio_output@@AAE_N_W@Z 1005c108 f i libucrt:output.obj
 0001:0005b195       ?write_stored_string_tchar@?$output_processor@_WV?$string_output_adapter@_W@__crt_stdio_output@@V?$positional_parameter_base@_WV?$string_output_adapter@_W@__crt_stdio_output@@@2@@__crt_stdio_output@@AAE_N_W@Z 1005c195 f i libucrt:output.obj
 0001:0005b222       ?write_stored_string_tchar@?$output_processor@_WV?$string_output_adapter@_W@__crt_stdio_output@@V?$standard_base@_WV?$string_output_adapter@_W@__crt_stdio_output@@@2@@__crt_stdio_output@@AAE_N_W@Z 1005c222 f i libucrt:output.obj
 0001:0005b2af       ?write_string@?$stream_output_adapter@D@__crt_stdio_output@@QBEXQBDHQAHAAV__crt_deferred_errno_cache@@@Z 1005c2af f i libucrt:output.obj
 0001:0005b2db       ?write_string@?$stream_output_adapter@_W@__crt_stdio_output@@QBEXQB_WHQAHAAV__crt_deferred_errno_cache@@@Z 1005c2db f i libucrt:output.obj
 0001:0005b307       ?write_string@?$string_output_adapter@D@__crt_stdio_output@@QBEXQBDHQAHAAV__crt_deferred_errno_cache@@@Z 1005c307 f i libucrt:output.obj
 0001:0005b36e       ?write_string@?$string_output_adapter@_W@__crt_stdio_output@@QBEXQB_WHQAHAAV__crt_deferred_errno_cache@@@Z 1005c36e f i libucrt:output.obj
 0001:0005b3df       ?write_string_impl@?$output_adapter_common@DV?$stream_output_adapter@D@__crt_stdio_output@@@__crt_stdio_output@@IBEXQBDHQAHAAV__crt_deferred_errno_cache@@@Z 1005c3df f i libucrt:output.obj
 0001:0005b47d       ?write_string_impl@?$output_adapter_common@_WV?$stream_output_adapter@_W@__crt_stdio_output@@@__crt_stdio_output@@IBEXQB_WHQAHAAV__crt_deferred_errno_cache@@@Z 1005c47d f i libucrt:output.obj
 0001:0005b51e       ___acrt_disable_global_locale_sync 1005c51e f i libucrt:output.obj
 0001:0005b531       ___acrt_enable_global_locale_sync 1005c531 f i libucrt:output.obj
 0001:0005b546       ___acrt_isleadbyte_l_noupdate 1005c546 f i libucrt:output.obj
 0001:0005b564       ___acrt_locale_changed     1005c564 f i libucrt:output.obj
 0001:0005b56f       ___acrt_locale_get_ctype_array_value 1005c56f f i libucrt:output.obj
 0001:0005b591       ___stdio_common_vfprintf   1005c591 f   libucrt:output.obj
 0001:0005b614       ___stdio_common_vfprintf_p 1005c614 f   libucrt:output.obj
 0001:0005b697       ___stdio_common_vfprintf_s 1005c697 f   libucrt:output.obj
 0001:0005b71a       ___stdio_common_vfwprintf  1005c71a f   libucrt:output.obj
 0001:0005b79d       ___stdio_common_vfwprintf_p 1005c79d f   libucrt:output.obj
 0001:0005b820       ___stdio_common_vfwprintf_s 1005c820 f   libucrt:output.obj
 0001:0005b8a3       ___stdio_common_vsnprintf_s 1005c8a3 f   libucrt:output.obj
 0001:0005b8ca       ___stdio_common_vsnwprintf_s 1005c8ca f   libucrt:output.obj
 0001:0005b8f1       ___stdio_common_vsprintf   1005c8f1 f   libucrt:output.obj
 0001:0005b915       ___stdio_common_vsprintf_p 1005c915 f   libucrt:output.obj
 0001:0005b939       ___stdio_common_vsprintf_s 1005c939 f   libucrt:output.obj
 0001:0005b95d       ___stdio_common_vswprintf  1005c95d f   libucrt:output.obj
 0001:0005b981       ___stdio_common_vswprintf_p 1005c981 f   libucrt:output.obj
 0001:0005b9a5       ___stdio_common_vswprintf_s 1005c9a5 f   libucrt:output.obj
 0001:0005b9c9       __ctype_fast_check_internal 1005c9c9 f i libucrt:output.obj
 0001:0005b9e3       __isdigit_fast_internal    1005c9e3 f i libucrt:output.obj
 0001:0005b9fd       __tolower_fast_internal    1005c9fd f i libucrt:output.obj
 0001:0005ba70       _strcpy_s                  1005ca70 f   libucrt:strcpy_s.obj
 0001:0005bad0       _strcmp                    1005cad0 f   libucrt:strcmp.obj
 0001:0005bb60       _strlen                    1005cb60 f   libucrt:strlen.obj
 0001:0005bbeb       ??0?$__crt_scoped_stack_ptr@D@@QAE@U?$__crt_scoped_stack_ptr_tag@D@@@Z 1005cbeb f i libucrt:strlwr.obj
 0001:0005bbfb       ??0?$__crt_scoped_stack_ptr_tag@D@@QAE@QAD@Z 1005cbfb f i libucrt:strlwr.obj
 0001:0005bc0b       ??1?$__crt_scoped_stack_ptr@D@@QAE@XZ 1005cc0b f i libucrt:strlwr.obj
 0001:0005bc14       ??B?$__crt_scoped_stack_ptr@D@@QBE_NXZ 1005cc14 f i libucrt:strlwr.obj
 0001:0005bd87       ?get@?$__crt_scoped_stack_ptr@D@@QBEPADXZ 1005cd87 f i libucrt:strlwr.obj
 0001:0005bd8a       __MallocaComputeSize       1005cd8a f i libucrt:strlwr.obj
 0001:0005bd9d       __MarkAllocaS              1005cd9d f i libucrt:strlwr.obj
 0001:0005bdb3       __freea_crt                1005cdb3 f i libucrt:strlwr.obj
 0001:0005bdd3       __strlwr                   1005cdd3 f   libucrt:strlwr.obj
 0001:0005be2f       __strlwr_l                 1005ce2f f   libucrt:strlwr.obj
 0001:0005be49       __strlwr_s                 1005ce49 f   libucrt:strlwr.obj
 0001:0005be60       __strlwr_s_l               1005ce60 f   libucrt:strlwr.obj
 0001:0005c38b       ??$gmtime_s@ABQAUtm@@ABQBJ@?$__crt_integer_traits@J@@SAHABQAUtm@@ABQBJ@Z 1005d38b f i libucrt:localtime.obj
 0001:0005c3a3       ??$gmtime_s@ABQAUtm@@ABQB_J@?$__crt_integer_traits@_J@@SAHABQAUtm@@ABQB_J@Z 1005d3a3 f i libucrt:localtime.obj
 0001:0005c3bb       ??$gmtime_s@ABQAUtm@@PAJ@?$__crt_integer_traits@J@@SAHABQAUtm@@$$QAPAJ@Z 1005d3bb f i libucrt:localtime.obj
 0001:0005c3d3       ??$gmtime_s@ABQAUtm@@PA_J@?$__crt_integer_traits@_J@@SAHABQAUtm@@$$QAPA_J@Z 1005d3d3 f i libucrt:localtime.obj
 0001:0005c3eb       ??$localtime_s@ABQAUtm@@ABQBJ@?$__crt_integer_traits@J@@SAHABQAUtm@@ABQBJ@Z 1005d3eb f i libucrt:localtime.obj
 0001:0005c404       ??$localtime_s@ABQAUtm@@ABQB_J@?$__crt_integer_traits@_J@@SAHABQAUtm@@ABQB_J@Z 1005d404 f i libucrt:localtime.obj
 0001:0005c41d       __invoke_watson_if_error   1005d41d f i libucrt:localtime.obj
 0001:0005c43f       __localtime32              1005d43f f   libucrt:localtime.obj
 0001:0005c466       __localtime32_s            1005d466 f   libucrt:localtime.obj
 0001:0005c471       __localtime64              1005d471 f   libucrt:localtime.obj
 0001:0005c498       __localtime64_s            1005d498 f   libucrt:localtime.obj
 0001:0005c4a3       ??$?R_W@__crt_internal_free_policy@@QBEXQB_W@Z 1005d4a3 f i libucrt:strftime.obj
 0001:0005c62e       ??$__acrt_mbs_to_wcs_cp@U__crt_win32_buffer_internal_dynamic_resizing@@@@YAHQBDAAV?$__crt_win32_buffer@_WU__crt_win32_buffer_internal_dynamic_resizing@@@@I@Z 1005d62e f i libucrt:strftime.obj
 0001:0005c64b       ??$__acrt_wcs_to_mbs_cp@U__crt_win32_buffer_no_resizing@@@@YAHQB_WAAV?$__crt_win32_buffer@DU__crt_win32_buffer_no_resizing@@@@I@Z 1005d64b f i libucrt:strftime.obj
 0001:0005c668       ??0?$__crt_unique_heap_ptr@_WU__crt_internal_free_policy@@@@QAE@QA_W@Z 1005d668 f i libucrt:strftime.obj
 0001:0005c678       ??0?$__crt_win32_buffer@DU__crt_win32_buffer_no_resizing@@@@QAE@QADI@Z 1005d678 f i libucrt:strftime.obj
 0001:0005c69c       ??0?$__crt_win32_buffer@_WU__crt_win32_buffer_internal_dynamic_resizing@@@@QAE@XZ 1005d69c f i libucrt:strftime.obj
 0001:0005c6b2       ??1?$__crt_unique_heap_ptr@_WU__crt_internal_free_policy@@@@QAE@XZ 1005d6b2 f i libucrt:strftime.obj
 0001:0005c6c4       ??1?$__crt_win32_buffer@DU__crt_win32_buffer_no_resizing@@@@QAE@XZ 1005d6c4 f i libucrt:strftime.obj
 0001:0005c6cf       ??1?$__crt_win32_buffer@_WU__crt_win32_buffer_internal_dynamic_resizing@@@@QAE@XZ 1005d6cf f i libucrt:strftime.obj
 0001:0005c719       ?_deallocate@?$__crt_win32_buffer@DU__crt_win32_buffer_no_resizing@@@@AAEXXZ 1005d719 f i libucrt:strftime.obj
 0001:0005c724       ?_deallocate@?$__crt_win32_buffer@_WU__crt_win32_buffer_internal_dynamic_resizing@@@@AAEXXZ 1005d724 f i libucrt:strftime.obj
 0001:0005c73e       ?allocate@?$__crt_win32_buffer@DU__crt_win32_buffer_no_resizing@@@@QAEHI@Z 1005d73e f i libucrt:strftime.obj
 0001:0005c765       ?allocate@?$__crt_win32_buffer@_WU__crt_win32_buffer_internal_dynamic_resizing@@@@QAEHI@Z 1005d765 f i libucrt:strftime.obj
 0001:0005c7a4       ?allocate@__crt_win32_buffer_internal_dynamic_resizing@@SAHQAPAXIABV__crt_win32_buffer_empty_debug_info@@@Z 1005d7a4 f i libucrt:strftime.obj
 0001:0005c7c3       ?allocate@__crt_win32_buffer_no_resizing@@SAHQAPAXIABV__crt_win32_buffer_empty_debug_info@@@Z 1005d7c3 f i libucrt:strftime.obj
 0001:0005c7d0       ?capacity@?$__crt_win32_buffer@DU__crt_win32_buffer_no_resizing@@@@QBEIXZ 1005d7d0 f i libucrt:strftime.obj
 0001:0005c7d4       ?capacity@?$__crt_win32_buffer@_WU__crt_win32_buffer_internal_dynamic_resizing@@@@QBEIXZ 1005d7d4 f i libucrt:strftime.obj
 0001:0005c7d8       ?data@?$__crt_win32_buffer@DU__crt_win32_buffer_no_resizing@@@@QAEPADXZ 1005d7d8 f i libucrt:strftime.obj
 0001:0005c7dc       ?data@?$__crt_win32_buffer@_WU__crt_win32_buffer_internal_dynamic_resizing@@@@QAEPA_WXZ 1005d7dc f i libucrt:strftime.obj
 0001:0005c7e0       ?deallocate@__crt_win32_buffer_internal_dynamic_resizing@@SAXQAXABV__crt_win32_buffer_empty_debug_info@@@Z 1005d7e0 f i libucrt:strftime.obj
 0001:0005c7f0       ?deallocate@__crt_win32_buffer_no_resizing@@SAXQAXABV__crt_win32_buffer_empty_debug_info@@@Z 1005d7f0 f i libucrt:strftime.obj
 0001:0005c7f3       ?debug_info@?$__crt_win32_buffer@DU__crt_win32_buffer_no_resizing@@@@QBEABV__crt_win32_buffer_empty_debug_info@@XZ 1005d7f3 f i libucrt:strftime.obj
 0001:0005c7f6       ?debug_info@?$__crt_win32_buffer@_WU__crt_win32_buffer_internal_dynamic_resizing@@@@QBEABV__crt_win32_buffer_empty_debug_info@@XZ 1005d7f6 f i libucrt:strftime.obj
 0001:0005c7f9       ?detach@?$__crt_unique_heap_ptr@DU__crt_internal_free_policy@@@@QAEPADXZ 1005d7f9 f i libucrt:strftime.obj
 0001:0005c7ff       ?get@?$__crt_unique_heap_ptr@_WU__crt_internal_free_policy@@@@QBEPA_WXZ 1005d7ff f i libucrt:strftime.obj
 0001:0005c802       ?release@?$__crt_unique_heap_ptr@_WU__crt_internal_free_policy@@@@QAEXXZ 1005d802 f i libucrt:strftime.obj
 0001:0005c814       ?set_to_nullptr@?$__crt_win32_buffer@DU__crt_win32_buffer_no_resizing@@@@QAEXXZ 1005d814 f i libucrt:strftime.obj
 0001:0005c828       ?set_to_nullptr@?$__crt_win32_buffer@_WU__crt_win32_buffer_internal_dynamic_resizing@@@@QAEXXZ 1005d828 f i libucrt:strftime.obj
 0001:0005c83f       ?size@?$__crt_win32_buffer@DU__crt_win32_buffer_no_resizing@@@@QAEXI@Z 1005d83f f i libucrt:strftime.obj
 0001:0005c84e       ?size@?$__crt_win32_buffer@DU__crt_win32_buffer_no_resizing@@@@QBEIXZ 1005d84e f i libucrt:strftime.obj
 0001:0005c852       ?size@?$__crt_win32_buffer@_WU__crt_win32_buffer_internal_dynamic_resizing@@@@QAEXI@Z 1005d852 f i libucrt:strftime.obj
 0001:0005c861       __Getdays                  1005d861 f   libucrt:strftime.obj
 0001:0005c86a       __Getdays_l                1005d86a f   libucrt:strftime.obj
 0001:0005c970       __Getmonths                1005d970 f   libucrt:strftime.obj
 0001:0005c979       __Getmonths_l              1005d979 f   libucrt:strftime.obj
 0001:0005ca8d       __Gettnames                1005da8d f   libucrt:strftime.obj
 0001:0005ca92       __Strftime                 1005da92 f   libucrt:strftime.obj
 0001:0005cab2       __Strftime_l               1005dab2 f   libucrt:strftime.obj
 0001:0005cbaf       __strftime_l               1005dbaf f   libucrt:strftime.obj
 0001:0005cbcf       _strftime                  1005dbcf f   libucrt:strftime.obj
 0001:0005cedd       __time32                   1005dedd f   libucrt:time.obj
 0001:0005cf36       __time64                   1005df36 f   libucrt:time.obj
 0001:0005cf94       __timespec32_get           1005df94 f   libucrt:time.obj
 0001:0005cf9f       __timespec64_get           1005df9f f   libucrt:time.obj
 0001:0005cfaa       ___acrt_errno_from_os_error 1005dfaa f   libucrt:errno.obj
 0001:0005cfed       ___acrt_errno_map_os_error 1005dfed f   libucrt:errno.obj
 0001:0005d010       ___doserrno                1005e010 f   libucrt:errno.obj
 0001:0005d023       __errno                    1005e023 f   libucrt:errno.obj
 0001:0005d036       __get_doserrno             1005e036 f   libucrt:errno.obj
 0001:0005d05b       __get_errno                1005e05b f   libucrt:errno.obj
 0001:0005d080       __set_doserrno             1005e080 f   libucrt:errno.obj
 0001:0005d0a1       __set_errno                1005e0a1 f   libucrt:errno.obj
 0001:0005d0c2       ??$is_overflow_condition@K@__crt_strtox@@YA_NIK@Z 1005e0c2 f i libucrt:atox.obj
 0001:0005d0f3       ??$is_overflow_condition@_K@__crt_strtox@@YA_NI_K@Z 1005e0f3 f i libucrt:atox.obj
 0001:0005d134       ??$make_c_string_character_source@D$$T@__crt_strtox@@YA?AV?$c_string_character_source@D@0@QBD$$T@Z 1005e134 f i libucrt:atox.obj
 0001:0005d14f       ??$make_c_string_character_source@_W$$T@__crt_strtox@@YA?AV?$c_string_character_source@_W@0@QB_W$$T@Z 1005e14f f i libucrt:atox.obj
 0001:0005d16a       ??$parse_integer@KV?$c_string_character_source@D@__crt_strtox@@@__crt_strtox@@YAKQAU__crt_locale_pointers@@V?$c_string_character_source@D@0@H_N@Z 1005e16a f i libucrt:atox.obj
 0001:0005d38d       ??$parse_integer@KV?$c_string_character_source@_W@__crt_strtox@@@__crt_strtox@@YAKQAU__crt_locale_pointers@@V?$c_string_character_source@_W@0@H_N@Z 1005e38d f i libucrt:atox.obj
 0001:0005d995       ??$parse_integer@_KV?$c_string_character_source@D@__crt_strtox@@@__crt_strtox@@YA_KQAU__crt_locale_pointers@@V?$c_string_character_source@D@0@H_N@Z 1005e995 f i libucrt:atox.obj
 0001:0005dc3b       ??$parse_integer@_KV?$c_string_character_source@_W@__crt_strtox@@@__crt_strtox@@YA_KQAU__crt_locale_pointers@@V?$c_string_character_source@_W@0@H_N@Z 1005ec3b f i libucrt:atox.obj
 0001:0005e30c       ??$parse_integer_from_string@JD$$T@__crt_strtox@@YAJQBD$$THQAU__crt_locale_pointers@@@Z 1005f30c f i libucrt:atox.obj
 0001:0005e337       ??$parse_integer_from_string@J_W$$T@__crt_strtox@@YAJQB_W$$THQAU__crt_locale_pointers@@@Z 1005f337 f i libucrt:atox.obj
 0001:0005e362       ??$parse_integer_from_string@_JD$$T@__crt_strtox@@YA_JQBD$$THQAU__crt_locale_pointers@@@Z 1005f362 f i libucrt:atox.obj
 0001:0005e38d       ??$parse_integer_from_string@_J_W$$T@__crt_strtox@@YA_JQB_W$$THQAU__crt_locale_pointers@@@Z 1005f38d f i libucrt:atox.obj
 0001:0005e3b8       ??0?$c_string_character_source@D@__crt_strtox@@QAE@QBDQAPBD@Z 1005f3b8 f i libucrt:atox.obj
 0001:0005e3d4       ??0?$c_string_character_source@_W@__crt_strtox@@QAE@QB_WQAPB_W@Z 1005f3d4 f i libucrt:atox.obj
 0001:0005e3f0       ??1?$c_string_character_source@D@__crt_strtox@@QAE@XZ 1005f3f0 f i libucrt:atox.obj
 0001:0005e3fc       ??1?$c_string_character_source@_W@__crt_strtox@@QAE@XZ 1005f3fc f i libucrt:atox.obj
 0001:0005e408       ?get@?$c_string_character_source@D@__crt_strtox@@QAEDXZ 1005f408 f i libucrt:atox.obj
 0001:0005e410       ?get@?$c_string_character_source@_W@__crt_strtox@@QAE_WXZ 1005f410 f i libucrt:atox.obj
 0001:0005e41b       ?is_space@__crt_strtox@@YA_NDQAU__crt_locale_pointers@@@Z 1005f41b f i libucrt:atox.obj
 0001:0005e439       ?is_space@__crt_strtox@@YA_N_WPAU__crt_locale_pointers@@@Z 1005f439 f i libucrt:atox.obj
 0001:0005e451       ?maximum_signed_value@__crt_strtox@@YAJK@Z 1005f451 f i libucrt:atox.obj
 0001:0005e457       ?maximum_signed_value@__crt_strtox@@YA_J_K@Z 1005f457 f i libucrt:atox.obj
 0001:0005e460       ?minimum_signed_value@__crt_strtox@@YAJK@Z 1005f460 f i libucrt:atox.obj
 0001:0005e466       ?minimum_signed_value@__crt_strtox@@YA_J_K@Z 1005f466 f i libucrt:atox.obj
 0001:0005e46e       ?parse_digit@__crt_strtox@@YAID@Z 1005f46e f i libucrt:atox.obj
 0001:0005e4a8       ?parse_digit@__crt_strtox@@YAI_W@Z 1005f4a8 f i libucrt:atox.obj
 0001:0005e687       ?restore_state@?$c_string_character_source@D@__crt_strtox@@QAE_NQBD@Z 1005f687 f i libucrt:atox.obj
 0001:0005e697       ?restore_state@?$c_string_character_source@_W@__crt_strtox@@QAE_NQB_W@Z 1005f697 f i libucrt:atox.obj
 0001:0005e6a7       ?save_state@?$c_string_character_source@D@__crt_strtox@@QBEPBDXZ 1005f6a7 f i libucrt:atox.obj
 0001:0005e6aa       ?save_state@?$c_string_character_source@_W@__crt_strtox@@QBEPB_WXZ 1005f6aa f i libucrt:atox.obj
 0001:0005e6ad       ?unget@?$c_string_character_source@D@__crt_strtox@@QAEXD@Z 1005f6ad f i libucrt:atox.obj
 0001:0005e6d6       ?unget@?$c_string_character_source@_W@__crt_strtox@@QAEX_W@Z 1005f6d6 f i libucrt:atox.obj
 0001:0005e704       ?validate@?$c_string_character_source@D@__crt_strtox@@QBE_NXZ 1005f704 f i libucrt:atox.obj
 0001:0005e71f       ?validate@?$c_string_character_source@_W@__crt_strtox@@QBE_NXZ 1005f71f f i libucrt:atox.obj
 0001:0005e73a       ?wide_character_to_digit@__crt_strtox@@YAH_W@Z 1005f73a f i libucrt:atox.obj
 0001:0005e8db       ___acrt_get_locale_data_prefix 1005f8db f i libucrt:atox.obj
 0001:0005e8e7       ___ascii_iswalpha          1005f8e7 f i libucrt:atox.obj
 0001:0005e90a       ___ascii_toupper           1005f90a f i libucrt:atox.obj
 0001:0005e921       ___ascii_towupper          1005f921 f i libucrt:atox.obj
 0001:0005e938       __atoi64                   1005f938 f   libucrt:atox.obj
 0001:0005e95b       __atoi64_l                 1005f95b f   libucrt:atox.obj
 0001:0005e97f       __atoi_l                   1005f97f f   libucrt:atox.obj
 0001:0005e9a3       __atol_l                   1005f9a3 f   libucrt:atox.obj
 0001:0005e9c7       __atoll_l                  1005f9c7 f   libucrt:atox.obj
 0001:0005e9eb       __chvalidchk_l             1005f9eb f i libucrt:atox.obj
 0001:0005ea13       __ischartype_l             1005fa13 f i libucrt:atox.obj
 0001:0005ea67       __wtoi                     1005fa67 f   libucrt:atox.obj
 0001:0005ea8a       __wtoi64                   1005fa8a f   libucrt:atox.obj
 0001:0005eaad       __wtoi64_l                 1005faad f   libucrt:atox.obj
 0001:0005ead1       __wtoi_l                   1005fad1 f   libucrt:atox.obj
 0001:0005eaf5       __wtol                     1005faf5 f   libucrt:atox.obj
 0001:0005eb18       __wtol_l                   1005fb18 f   libucrt:atox.obj
 0001:0005eb3c       __wtoll                    1005fb3c f   libucrt:atox.obj
 0001:0005eb5f       __wtoll_l                  1005fb5f f   libucrt:atox.obj
 0001:0005eb83       _atoi                      1005fb83 f   libucrt:atox.obj
 0001:0005eba6       _atol                      1005fba6 f   libucrt:atox.obj
 0001:0005ebc9       _atoll                     1005fbc9 f   libucrt:atox.obj
 0001:0005ec55       _strcat_s                  1005fc55 f   libucrt:strcat_s.obj
 0001:0005ecc0       _strncmp                   1005fcc0 f   libucrt:strncmp.obj
 0001:0005eea4       __strupr                   1005fea4 f   libucrt:strupr.obj
 0001:0005ef00       __strupr_l                 1005ff00 f   libucrt:strupr.obj
 0001:0005ef1a       __strupr_s                 1005ff1a f   libucrt:strupr.obj
 0001:0005ef31       __strupr_s_l               1005ff31 f   libucrt:strupr.obj
 0001:0005ef68       ??$make_c_string_character_source@DPAPAD@__crt_strtox@@YA?AV?$c_string_character_source@D@0@QBDQAPAD@Z 1005ff68 f i libucrt:strtox.obj
 0001:0005ef83       ??$make_c_string_character_source@_WPAPA_W@__crt_strtox@@YA?AV?$c_string_character_source@_W@0@QB_WQAPA_W@Z 1005ff83 f i libucrt:strtox.obj
 0001:0005ef9e       ??$parse_integer_from_string@JDPAPAD@__crt_strtox@@YAJQBDQAPADHQAU__crt_locale_pointers@@@Z 1005ff9e f i libucrt:strtox.obj
 0001:0005efc9       ??$parse_integer_from_string@J_WPAPA_W@__crt_strtox@@YAJQB_WQAPA_WHQAU__crt_locale_pointers@@@Z 1005ffc9 f i libucrt:strtox.obj
 0001:0005eff4       ??$parse_integer_from_string@KDPAPAD@__crt_strtox@@YAKQBDQAPADHQAU__crt_locale_pointers@@@Z 1005fff4 f i libucrt:strtox.obj
 0001:0005f01f       ??$parse_integer_from_string@K_WPAPA_W@__crt_strtox@@YAKQB_WQAPA_WHQAU__crt_locale_pointers@@@Z 1006001f f i libucrt:strtox.obj
 0001:0005f04a       ??$parse_integer_from_string@_JDPAPAD@__crt_strtox@@YA_JQBDQAPADHQAU__crt_locale_pointers@@@Z 1006004a f i libucrt:strtox.obj
 0001:0005f075       ??$parse_integer_from_string@_J_WPAPA_W@__crt_strtox@@YA_JQB_WQAPA_WHQAU__crt_locale_pointers@@@Z 10060075 f i libucrt:strtox.obj
 0001:0005f0a0       ??$parse_integer_from_string@_KDPAPAD@__crt_strtox@@YA_KQBDQAPADHQAU__crt_locale_pointers@@@Z 100600a0 f i libucrt:strtox.obj
 0001:0005f0cb       ??$parse_integer_from_string@_K_WPAPA_W@__crt_strtox@@YA_KQB_WQAPA_WHQAU__crt_locale_pointers@@@Z 100600cb f i libucrt:strtox.obj
 0001:0005f0f6       __strtoi64                 100600f6 f   libucrt:strtox.obj
 0001:0005f120       __strtoi64_l               10060120 f   libucrt:strtox.obj
 0001:0005f14b       __strtoimax_l              1006014b f   libucrt:strtox.obj
 0001:0005f176       __strtol_l                 10060176 f   libucrt:strtox.obj
 0001:0005f1a1       __strtoll_l                100601a1 f   libucrt:strtox.obj
 0001:0005f1cc       __strtoui64                100601cc f   libucrt:strtox.obj
 0001:0005f1f6       __strtoui64_l              100601f6 f   libucrt:strtox.obj
 0001:0005f221       __strtoul_l                10060221 f   libucrt:strtox.obj
 0001:0005f24c       __strtoull_l               1006024c f   libucrt:strtox.obj
 0001:0005f277       __strtoumax_l              10060277 f   libucrt:strtox.obj
 0001:0005f2a2       __wcstoi64                 100602a2 f   libucrt:strtox.obj
 0001:0005f2cc       __wcstoi64_l               100602cc f   libucrt:strtox.obj
 0001:0005f2f7       __wcstoimax_l              100602f7 f   libucrt:strtox.obj
 0001:0005f322       __wcstol_l                 10060322 f   libucrt:strtox.obj
 0001:0005f34d       __wcstoll_l                1006034d f   libucrt:strtox.obj
 0001:0005f378       __wcstoui64                10060378 f   libucrt:strtox.obj
 0001:0005f3a2       __wcstoui64_l              100603a2 f   libucrt:strtox.obj
 0001:0005f3cd       __wcstoul_l                100603cd f   libucrt:strtox.obj
 0001:0005f3f8       __wcstoull_l               100603f8 f   libucrt:strtox.obj
 0001:0005f423       __wcstoumax_l              10060423 f   libucrt:strtox.obj
 0001:0005f44e       _strtoimax                 1006044e f   libucrt:strtox.obj
 0001:0005f478       _strtol                    10060478 f   libucrt:strtox.obj
 0001:0005f4a2       _strtoll                   100604a2 f   libucrt:strtox.obj
 0001:0005f4cc       _strtoul                   100604cc f   libucrt:strtox.obj
 0001:0005f4f6       _strtoull                  100604f6 f   libucrt:strtox.obj
 0001:0005f520       _strtoumax                 10060520 f   libucrt:strtox.obj
 0001:0005f54a       _wcstoimax                 1006054a f   libucrt:strtox.obj
 0001:0005f574       _wcstol                    10060574 f   libucrt:strtox.obj
 0001:0005f59e       _wcstoll                   1006059e f   libucrt:strtox.obj
 0001:0005f5c8       _wcstoul                   100605c8 f   libucrt:strtox.obj
 0001:0005f5f2       _wcstoull                  100605f2 f   libucrt:strtox.obj
 0001:0005f61c       _wcstoumax                 1006061c f   libucrt:strtox.obj
 0001:0006005b       ??$tcsncpy_s@AAPADIAAPBDABI@?$__crt_char_traits@D@@SAHAAPAD$$QAIAAPBDABI@Z 1006105b f i libucrt:splitpath.obj
 0001:0006007e       ??$tcsncpy_s@AAPADIAAPBDH@?$__crt_char_traits@D@@SAHAAPAD$$QAIAAPBD$$QAH@Z 1006107e f i libucrt:splitpath.obj
 0001:000600a1       ??$tcsncpy_s@AAPA_WIAAPB_WABI@?$__crt_char_traits@_W@@SAHAAPA_W$$QAIAAPB_WABI@Z 100610a1 f i libucrt:splitpath.obj
 0001:000600c4       ??$tcsncpy_s@AAPA_WIAAPB_WH@?$__crt_char_traits@_W@@SAHAAPA_W$$QAIAAPB_W$$QAH@Z 100610c4 f i libucrt:splitpath.obj
 0001:00060181       __splitpath                10061181 f   libucrt:splitpath.obj
 0001:000601ea       __splitpath_s              100611ea f   libucrt:splitpath.obj
 0001:00060241       __wsplitpath               10061241 f   libucrt:splitpath.obj
 0001:000602aa       __wsplitpath_s             100612aa f   libucrt:splitpath.obj
 0001:00060afc       ??1?$__crt_simd_cleanup_guard@$00@@QAE@XZ 10061afc f i libucrt:strnlen.obj
 0001:00060b00       ??1?$__crt_simd_cleanup_guard@$0A@@@QAE@XZ 10061b00 f i libucrt:strnlen.obj
 0001:00060b03       ?compare_equals@?$__crt_simd_traits@$00E@@SA?AT__m256i@@T2@0@Z 10061b03 f i libucrt:strnlen.obj
 0001:00060b08       ?compare_equals@?$__crt_simd_traits@$00G@@SA?AT__m256i@@T2@0@Z 10061b08 f i libucrt:strnlen.obj
 0001:00060b0d       ?compare_equals@?$__crt_simd_traits@$0A@E@@SA?AT__m128i@@T2@0@Z 10061b0d f i libucrt:strnlen.obj
 0001:00060b12       ?compare_equals@?$__crt_simd_traits@$0A@G@@SA?AT__m128i@@T2@0@Z 10061b12 f i libucrt:strnlen.obj
 0001:00060b17       ?compute_byte_mask@?$__crt_simd_pack_traits@$00@@SAHT__m256i@@@Z 10061b17 f i libucrt:strnlen.obj
 0001:00060b1c       ?compute_byte_mask@?$__crt_simd_pack_traits@$0A@@@SAHT__m128i@@@Z 10061b1c f i libucrt:strnlen.obj
 0001:00060b21       ?get_zero_pack@?$__crt_simd_pack_traits@$00@@SA?AT__m256i@@XZ 10061b21 f i libucrt:strnlen.obj
 0001:00060b26       ?get_zero_pack@?$__crt_simd_pack_traits@$0A@@@SA?AT__m128i@@XZ 10061b26 f i libucrt:strnlen.obj
 0001:00060b2a       _strnlen                   10061b2a f   libucrt:strnlen.obj
 0001:00060c4c       _wcslen                    10061c4c f   libucrt:strnlen.obj
 0001:00060d74       _wcsnlen                   10061d74 f   libucrt:strnlen.obj
 0001:00060f24       __abs64                    10061f24 f   libucrt:abs.obj
 0001:00060f3e       _abs                       10061f3e f   libucrt:abs.obj
 0001:00060f50       _cos                       10061f50 f   libucrt:cos.obj
 0001:00060fa0       _sin                       10061fa0 f   libucrt:sin.obj
 0001:00060fe3       ??$?B$$A6AHI@Z@__crt_fast_encoded_nullptr_t@@QBEP6AHI@ZXZ 10061fe3 f i libucrt:new_handler.obj
 0001:00060fe9       ??$__crt_fast_decode_pointer@P6AHI@Z@@YAP6AHI@ZQ6AHI@Z@Z 10061fe9 f i libucrt:new_handler.obj
 0001:00060fff       ??$__crt_fast_encode_pointer@P6AHI@Z@@YAP6AHI@ZQ6AHI@Z@Z 10061fff f i libucrt:new_handler.obj
 0001:0006101e       ?__crt_fast_encode_pointer@@YA?AU__crt_fast_encoded_nullptr_t@@$$T@Z 1006201e f i libucrt:new_handler.obj
 0001:00061029       ?_set_new_handler@@YAP6AHI@ZH@Z 10062029 f   libucrt:new_handler.obj
 0001:00061036       ?initialize@?$dual_state_global@P6AHI@Z@__crt_state_management@@QAEXQ6AHI@Z@Z 10062036 f i libucrt:new_handler.obj
 0001:0006105c       ?value@?$dual_state_global@P6AHI@Z@__crt_state_management@@QAEAAP6AHI@ZXZ 1006205c f i libucrt:new_handler.obj
 0001:0006105f       ___acrt_initialize_new_handler 1006205f f   libucrt:new_handler.obj
 0001:0006106e       __callnewh                 1006206e f   libucrt:new_handler.obj
 0001:0006109b       __query_new_handler        1006209b f   libucrt:new_handler.obj
 0001:000610f7       __set_new_handler          100620f7 f   libucrt:new_handler.obj
 0001:00061161       ___ascii_stricmp           10062161 f   libucrt:stricmp.obj
 0001:0006119a       ___ascii_tolower           1006219a f i libucrt:stricmp.obj
 0001:000611b1       __strcmpi                  100621b1 f   libucrt:stricmp.obj
 0001:000611b1       __stricmp                  100621b1 f   libucrt:stricmp.obj
 0001:000611fa       __stricmp_l                100621fa f   libucrt:stricmp.obj
 0001:00061288       __errcode                  10062288 f   libucrt:fpexcept.obj
 0001:000612bc       __except1                  100622bc f   libucrt:fpexcept.obj
 0001:0006138a       __except2                  1006238a f   libucrt:fpexcept.obj
 0001:00061492       __handle_exc               10062492 f   libucrt:fpexcept.obj
 0001:0006167d       __handle_qnan2             1006267d f   libucrt:fpexcept.obj
 0001:0006168a       __raise_exc                1006268a f   libucrt:fpexcept.obj
 0001:000616ad       __raise_exc_ex             100626ad f   libucrt:fpexcept.obj
 0001:000619a3       __raise_excf               100629a3 f   libucrt:fpexcept.obj
 0001:000619c6       __set_errno_from_matherr   100629c6 f   libucrt:fpexcept.obj
 0001:000619f5       __umatherr                 100629f5 f   libucrt:fpexcept.obj
 0001:00061aab       __get_terminate            10062aab f   libucrt:terminate.obj
 0001:00061abd       _set_terminate             10062abd f   libucrt:terminate.obj
 0001:00061add       _terminate                 10062add f   libucrt:terminate.obj
 0001:00061b19       __initterm                 10062b19 f   libucrt:initterm.obj
 0001:00061b5e       __initterm_e               10062b5e f   libucrt:initterm.obj
 0001:00061bb0       __seh_filter_dll           10062bb0 f   libucrt:exception_filter.obj
 0001:00061bd0       __seh_filter_exe           10062bd0 f   libucrt:exception_filter.obj
 0001:00061d28       ??$?B$$A6GXPAXK0@Z@__crt_fast_encoded_nullptr_t@@QBEP6GXPAXK0@ZXZ 10062d28 f i libucrt:exit.obj
 0001:00061da1       ??$__crt_fast_decode_pointer@P6GXPAXK0@Z@@YAP6GXPAXK0@ZQ6GX0K0@Z@Z 10062da1 f i libucrt:exit.obj
 0001:00061db7       ??$__crt_fast_encode_pointer@P6GXPAXK0@Z@@YAP6GXPAXK0@ZQ6GX0K0@Z@Z 10062db7 f i libucrt:exit.obj
 0001:00061dd6       ??$__crt_get_proc_address@P6GXI@Z@@YAP6GXI@ZQAUHINSTANCE__@@QBD@Z 10062dd6 f i libucrt:exit.obj
 0001:00061e29       ??0?$__crt_unique_handle_t@U__crt_hmodule_traits@@@@QAE@QAUHINSTANCE__@@@Z 10062e29 f i libucrt:exit.obj
 0001:00061e39       ??1?$__crt_unique_handle_t@U__crt_hmodule_traits@@@@QAE@XZ 10062e39 f i libucrt:exit.obj
 0001:00061f3c       ?__acrt_select_exit_lock@@YA?AW4__acrt_lock_id@@XZ 10062f3c f i libucrt:exit.obj
 0001:00061f53       ?close@?$__crt_unique_handle_t@U__crt_hmodule_traits@@@@QAEXXZ 10062f53 f i libucrt:exit.obj
 0001:00061f6a       ?close@__crt_hmodule_traits@@SA_NPAUHINSTANCE__@@@Z 10062f6a f i libucrt:exit.obj
 0001:00062025       ?get@?$__crt_unique_handle_t@U__crt_hmodule_traits@@@@QBEPAUHINSTANCE__@@XZ 10063025 f i libucrt:exit.obj
 0001:00062028       ?get_address_of@?$__crt_unique_handle_t@U__crt_hmodule_traits@@@@QAEPAPAUHINSTANCE__@@XZ 10063028 f i libucrt:exit.obj
 0001:0006202b       ?get_invalid_value@__crt_hmodule_traits@@SAPAUHINSTANCE__@@XZ 1006302b f i libucrt:exit.obj
 0001:000620e6       __Exit                     100630e6 f   libucrt:exit.obj
 0001:000620fc       ___acrt_initialize_thread_local_exit_callback 100630fc f   libucrt:exit.obj
 0001:0006210b       __c_exit                   1006310b f   libucrt:exit.obj
 0001:0006211a       __cexit                    1006311a f   libucrt:exit.obj
 0001:00062129       __exit                     10063129 f   libucrt:exit.obj
 0001:0006213f       __is_c_termination_complete 1006313f f   libucrt:exit.obj
 0001:00062146       __register_thread_local_exe_atexit_callback 10063146 f   libucrt:exit.obj
 0001:0006216c       _exit                      1006316c f   libucrt:exit.obj
 0001:00062182       _quick_exit                10063182 f   libucrt:exit.obj
 0001:00062198       ??$?RE@__crt_internal_free_policy@@QBEXQBE@Z 10063198 f i libucrt:argv_parsing.obj
 0001:000621aa       ??$?RPAD@__crt_internal_free_policy@@QBEXQBQAD@Z 100631aa f i libucrt:argv_parsing.obj
 0001:000621bc       ??$?RPA_W@__crt_internal_free_policy@@QBEXQBQA_W@Z 100631bc f i libucrt:argv_parsing.obj
 0001:00062433       ??$get_module_file_name@$$TAAY0BAF@DH@?$__crt_char_traits@D@@SAK$$QA$$TAAY0BAF@D$$QAH@Z 10063433 f i libucrt:argv_parsing.obj
 0001:0006244f       ??$get_module_file_name@$$TAAY0BAF@_WH@?$__crt_char_traits@_W@@SAK$$QA$$TAAY0BAF@_W$$QAH@Z 1006344f f i libucrt:argv_parsing.obj
 0001:00062771       ??$set_program_name@PAD@?$__crt_char_traits@D@@SAX$$QAPAD@Z 10063771 f i libucrt:argv_parsing.obj
 0001:00062782       ??$set_program_name@PA_W@?$__crt_char_traits@_W@@SAX$$QAPA_W@Z 10063782 f i libucrt:argv_parsing.obj
 0001:000627b3       ??0?$__crt_unique_heap_ptr@EU__crt_internal_free_policy@@@@QAE@QAE@Z 100637b3 f i libucrt:argv_parsing.obj
 0001:000627c3       ??0?$__crt_unique_heap_ptr@PADU__crt_internal_free_policy@@@@QAE@QAPAD@Z 100637c3 f i libucrt:argv_parsing.obj
 0001:000627d3       ??0?$__crt_unique_heap_ptr@PA_WU__crt_internal_free_policy@@@@QAE@QAPA_W@Z 100637d3 f i libucrt:argv_parsing.obj
 0001:000627e3       ??1?$__crt_unique_heap_ptr@EU__crt_internal_free_policy@@@@QAE@XZ 100637e3 f i libucrt:argv_parsing.obj
 0001:000627f5       ??1?$__crt_unique_heap_ptr@PADU__crt_internal_free_policy@@@@QAE@XZ 100637f5 f i libucrt:argv_parsing.obj
 0001:00062807       ??1?$__crt_unique_heap_ptr@PA_WU__crt_internal_free_policy@@@@QAE@XZ 10063807 f i libucrt:argv_parsing.obj
 0001:00062819       ??B?$__crt_unique_heap_ptr@EU__crt_internal_free_policy@@@@QBE_NXZ 10063819 f i libucrt:argv_parsing.obj
 0001:0006284c       ?detach@?$__crt_unique_heap_ptr@EU__crt_internal_free_policy@@@@QAEPAEXZ 1006384c f i libucrt:argv_parsing.obj
 0001:00062852       ?detach@?$__crt_unique_heap_ptr@PADU__crt_internal_free_policy@@@@QAEPAPADXZ 10063852 f i libucrt:argv_parsing.obj
 0001:00062858       ?detach@?$__crt_unique_heap_ptr@PA_WU__crt_internal_free_policy@@@@QAEPAPA_WXZ 10063858 f i libucrt:argv_parsing.obj
 0001:0006287c       ?get@?$__crt_unique_heap_ptr@EU__crt_internal_free_policy@@@@QBEPAEXZ 1006387c f i libucrt:argv_parsing.obj
 0001:0006287f       ?get@?$__crt_unique_heap_ptr@PADU__crt_internal_free_policy@@@@QBEPAPADXZ 1006387f f i libucrt:argv_parsing.obj
 0001:00062882       ?get@?$__crt_unique_heap_ptr@PA_WU__crt_internal_free_policy@@@@QBEPAPA_WXZ 10063882 f i libucrt:argv_parsing.obj
 0001:00062885       ?get_address_of@?$__crt_unique_heap_ptr@PADU__crt_internal_free_policy@@@@QAEPAPAPADXZ 10063885 f i libucrt:argv_parsing.obj
 0001:00062888       ?get_address_of@?$__crt_unique_heap_ptr@PA_WU__crt_internal_free_policy@@@@QAEPAPAPA_WXZ 10063888 f i libucrt:argv_parsing.obj
 0001:000628a3       ?is_valid@?$__crt_unique_heap_ptr@EU__crt_internal_free_policy@@@@QBE_NXZ 100638a3 f i libucrt:argv_parsing.obj
 0001:000628aa       ?release@?$__crt_unique_heap_ptr@EU__crt_internal_free_policy@@@@QAEXXZ 100638aa f i libucrt:argv_parsing.obj
 0001:000628bc       ?release@?$__crt_unique_heap_ptr@PADU__crt_internal_free_policy@@@@QAEXXZ 100638bc f i libucrt:argv_parsing.obj
 0001:000628ce       ?release@?$__crt_unique_heap_ptr@PA_WU__crt_internal_free_policy@@@@QAEXXZ 100638ce f i libucrt:argv_parsing.obj
 0001:000628fa       ___acrt_allocate_buffer_for_argv 100638fa f   libucrt:argv_parsing.obj
 0001:00062949       __configure_narrow_argv    10063949 f   libucrt:argv_parsing.obj
 0001:00062954       __configure_wide_argv      10063954 f   libucrt:argv_parsing.obj
 0001:0006295f       __set_pgmptr               1006395f f i libucrt:argv_parsing.obj
 0001:0006296e       __set_wpgmptr              1006396e f i libucrt:argv_parsing.obj
 0001:00062d56       ??$get_environment_from_os@$$V@?$__crt_char_traits@D@@SAPADXZ 10063d56 f i libucrt:environment_initialization.obj
 0001:00062d5b       ??$get_environment_from_os@$$V@?$__crt_char_traits@_W@@SAPA_WXZ 10063d5b f i libucrt:environment_initialization.obj
 0001:00062e60       ??$set_variable_in_environment_nolock@PADH@?$__crt_char_traits@D@@SAH$$QAPAD$$QAH@Z 10063e60 f i libucrt:environment_initialization.obj
 0001:00062e78       ??$set_variable_in_environment_nolock@PA_WH@?$__crt_char_traits@_W@@SAH$$QAPA_W$$QAH@Z 10063e78 f i libucrt:environment_initialization.obj
 0001:00062e90       ??$tcscpy_s@PADABIAAPAD@?$__crt_char_traits@D@@SAH$$QAPADABIAAPAD@Z 10063e90 f i libucrt:environment_initialization.obj
 0001:00062eae       ??$tcscpy_s@PA_WABIAAPA_W@?$__crt_char_traits@_W@@SAH$$QAPA_WABIAAPA_W@Z 10063eae f i libucrt:environment_initialization.obj
 0001:00062ecc       ??$tcslen@AAPAD@?$__crt_char_traits@D@@SAIAAPAD@Z 10063ecc f i libucrt:environment_initialization.obj
 0001:00062ee4       ??$tcslen@AAPA_W@?$__crt_char_traits@_W@@SAIAAPA_W@Z 10063ee4 f i libucrt:environment_initialization.obj
 0001:00062f02       ??$uninitialize@A6AXAAPAPAD@Z@?$dual_state_global@PAPAD@__crt_state_management@@QAEXA6AXAAPAPAD@Z@Z 10063f02 f i libucrt:environment_initialization.obj
 0001:00062f2b       ??$uninitialize@A6AXAAPAPA_W@Z@?$dual_state_global@PAPA_W@__crt_state_management@@QAEXA6AXAAPAPA_W@Z@Z 10063f2b f i libucrt:environment_initialization.obj
 0001:00062f8a       ??B?$__crt_unique_heap_ptr@PADU__crt_internal_free_policy@@@@QBE_NXZ 10063f8a f i libucrt:environment_initialization.obj
 0001:00062f91       ??B?$__crt_unique_heap_ptr@PA_WU__crt_internal_free_policy@@@@QBE_NXZ 10063f91 f i libucrt:environment_initialization.obj
 0001:00062f98       ??B?$__crt_unique_heap_ptr@_WU__crt_internal_free_policy@@@@QBE_NXZ 10063f98 f i libucrt:environment_initialization.obj
 0001:00062f9f       ?__crt_compute_required_transform_buffer_count@@YAIIQBD@Z 10063f9f f i libucrt:environment_initialization.obj
 0001:00062fbb       ?__crt_compute_required_transform_buffer_count@@YAIIQB_W@Z 10063fbb f i libucrt:environment_initialization.obj
 0001:00062fd9       ?__crt_transform_string@@YAIIQBDQA_WI@Z 10063fd9 f i libucrt:environment_initialization.obj
 0001:00062ff8       ?__crt_transform_string@@YAIIQB_WQADI@Z 10063ff8 f i libucrt:environment_initialization.obj
 0001:0006301a       ?detach@?$__crt_unique_heap_ptr@_WU__crt_internal_free_policy@@@@QAEPA_WXZ 1006401a f i libucrt:environment_initialization.obj
 0001:00063044       ?initialize@?$dual_state_global@PAPAD@__crt_state_management@@QAEXQAPAD@Z 10064044 f i libucrt:environment_initialization.obj
 0001:0006306a       ?initialize@?$dual_state_global@PAPA_W@__crt_state_management@@QAEXQAPA_W@Z 1006406a f i libucrt:environment_initialization.obj
 0001:00063090       ?is_valid@?$__crt_unique_heap_ptr@PADU__crt_internal_free_policy@@@@QBE_NXZ 10064090 f i libucrt:environment_initialization.obj
 0001:00063097       ?is_valid@?$__crt_unique_heap_ptr@PA_WU__crt_internal_free_policy@@@@QBE_NXZ 10064097 f i libucrt:environment_initialization.obj
 0001:0006309e       ?is_valid@?$__crt_unique_heap_ptr@_WU__crt_internal_free_policy@@@@QBE_NXZ 1006409e f i libucrt:environment_initialization.obj
 0001:000630ad       ?value@?$dual_state_global@PAPAD@__crt_state_management@@QAEAAPAPADXZ 100640ad f i libucrt:environment_initialization.obj
 0001:000630b0       ?value@?$dual_state_global@PAPA_W@__crt_state_management@@QAEAAPAPA_WXZ 100640b0 f i libucrt:environment_initialization.obj
 0001:000630b3       ___dcrt_get_or_create_narrow_environment_nolock 100640b3 f   libucrt:environment_initialization.obj
 0001:000630b8       ___dcrt_get_or_create_wide_environment_nolock 100640b8 f   libucrt:environment_initialization.obj
 0001:000630bd       ___dcrt_uninitialize_environments_nolock 100640bd f   libucrt:environment_initialization.obj
 0001:000630f4       ___p__environ              100640f4 f   libucrt:environment_initialization.obj
 0001:000630fa       ___p__wenviron             100640fa f   libucrt:environment_initialization.obj
 0001:00063100       __get_initial_narrow_environment 10064100 f   libucrt:environment_initialization.obj
 0001:00063114       __get_initial_wide_environment 10064114 f   libucrt:environment_initialization.obj
 0001:00063128       __initialize_narrow_environment 10064128 f   libucrt:environment_initialization.obj
 0001:0006312d       __initialize_wide_environment 1006412d f   libucrt:environment_initialization.obj
 0001:00063132       ??$?B$$A6AXXZ@__crt_fast_encoded_nullptr_t@@QBEP6AXXZXZ 10064132 f i libucrt:onexit.obj
 0001:00063138       ??$?BP6AXXZ@__crt_fast_encoded_nullptr_t@@QBEPAP6AXXZXZ 10064138 f i libucrt:onexit.obj
 0001:0006313e       ??$?RP6AXXZ@__crt_internal_free_policy@@QBEXQBQ6AXXZ@Z 1006413e f i libucrt:onexit.obj
 0001:00063252       ??$__crt_fast_decode_pointer@P6AXXZ@@YAP6AXXZQ6AXXZ@Z 10064252 f i libucrt:onexit.obj
 0001:00063268       ??$__crt_fast_decode_pointer@PAP6AXXZ@@YAPAP6AXXZQAP6AXXZ@Z 10064268 f i libucrt:onexit.obj
 0001:0006327e       ??$__crt_fast_encode_pointer@P6AHXZ@@YAP6AHXZQ6AHXZ@Z 1006427e f i libucrt:onexit.obj
 0001:0006329d       ??$__crt_fast_encode_pointer@P6AXXZ@@YAP6AXXZQ6AXXZ@Z 1006429d f i libucrt:onexit.obj
 0001:000632bc       ??$__crt_fast_encode_pointer@PAP6AXXZ@@YAPAP6AXXZQAP6AXXZ@Z 100642bc f i libucrt:onexit.obj
 0001:00063349       ??0?$__crt_unique_heap_ptr@P6AXXZU__crt_internal_free_policy@@@@QAE@QAP6AXXZ@Z 10064349 f i libucrt:onexit.obj
 0001:00063359       ??1?$__crt_unique_heap_ptr@P6AXXZU__crt_internal_free_policy@@@@QAE@XZ 10064359 f i libucrt:onexit.obj
 0001:0006336b       ??1scoped_global_state_reset@__crt_state_management@@QAE@XZ 1006436b f i libucrt:onexit.obj
 0001:00063595       ?detach@?$__crt_unique_heap_ptr@P6AXXZU__crt_internal_free_policy@@@@QAEPAP6AXXZXZ 10064595 f i libucrt:onexit.obj
 0001:0006359b       ?release@?$__crt_unique_heap_ptr@P6AXXZU__crt_internal_free_policy@@@@QAEXXZ 1006459b f i libucrt:onexit.obj
 0001:000635ad       __crt_at_quick_exit        100645ad f   libucrt:onexit.obj
 0001:000635c3       __crt_atexit               100645c3 f   libucrt:onexit.obj
 0001:000635d9       __execute_onexit_table     100645d9 f   libucrt:onexit.obj
 0001:00063606       __initialize_onexit_table  10064606 f   libucrt:onexit.obj
 0001:0006362f       __register_onexit_function 1006462f f   libucrt:onexit.obj
 0001:0006373e       ??$?BX@__crt_fast_encoded_nullptr_t@@QBEPAXXZ 1006473e f i libucrt:initialization.obj
 0001:00063744       ??$__crt_fast_encode_pointer@PAX@@YAPAXQAX@Z 10064744 f i libucrt:initialization.obj
 0001:000637b5       ?__acrt_stdio_is_initialized@@YA_NXZ 100647b5 f i libucrt:initialization.obj
 0001:000637c0       ?initialize@?$dual_state_global@PAU__crt_locale_data@@@__crt_state_management@@QAEXQAU__crt_locale_data@@@Z 100647c0 f i libucrt:initialization.obj
 0001:000637e6       ___acrt_initialize         100647e6 f   libucrt:initialization.obj
 0001:000637f8       ___acrt_thread_attach      100647f8 f   libucrt:initialization.obj
 0001:00063803       ___acrt_thread_detach      10064803 f   libucrt:initialization.obj
 0001:0006380b       ___acrt_uninitialize       1006480b f   libucrt:initialization.obj
 0001:0006383b       ___acrt_uninitialize_critical 1006483b f   libucrt:initialization.obj
 0001:0006384d       __set_abort_behavior       1006484d f   libucrt:abort.obj
 0001:0006386e       _abort                     1006486e f   libucrt:abort.obj
 0001:000638b2       _calloc                    100648b2 f   libucrt:calloc.obj
 0001:000638bd       _wcsncmp                   100648bd f   libucrt:wcsncmp.obj
 0001:000638f7       __malloc_base              100648f7 f   libucrt:malloc_base.obj
 0001:00063945       ??$?RU__acrt_ptd@@@__crt_internal_free_policy@@QBEXQBU__acrt_ptd@@@Z 10064945 f i libucrt:per_thread_data.obj
 0001:00063c31       ??0?$__crt_unique_heap_ptr@U__acrt_ptd@@U__crt_internal_free_policy@@@@QAE@QAU__acrt_ptd@@@Z 10064c31 f i libucrt:per_thread_data.obj
 0001:00063c41       ??0__crt_scoped_get_last_error_reset@@QAE@XZ 10064c41 f i libucrt:per_thread_data.obj
 0001:00063c52       ??1?$__crt_unique_heap_ptr@U__acrt_ptd@@U__crt_internal_free_policy@@@@QAE@XZ 10064c52 f i libucrt:per_thread_data.obj
 0001:00063c64       ??1__crt_scoped_get_last_error_reset@@QAE@XZ 10064c64 f i libucrt:per_thread_data.obj
 0001:00063c6d       ??B?$__crt_unique_heap_ptr@U__acrt_ptd@@U__crt_internal_free_policy@@@@QBE_NXZ 10064c6d f i libucrt:per_thread_data.obj
 0001:00063dbb       ?dangerous_get_state_array@?$dual_state_global@PAU__crt_locale_data@@@__crt_state_management@@QAEPAPAU__crt_locale_data@@XZ 10064dbb f i libucrt:per_thread_data.obj
 0001:00063eb1       ?detach@?$__crt_unique_heap_ptr@U__acrt_ptd@@U__crt_internal_free_policy@@@@QAEPAU__acrt_ptd@@XZ 10064eb1 f i libucrt:per_thread_data.obj
 0001:00063eb7       ?get@?$__crt_unique_heap_ptr@U__acrt_ptd@@U__crt_internal_free_policy@@@@QBEPAU__acrt_ptd@@XZ 10064eb7 f i libucrt:per_thread_data.obj
 0001:00063eba       ?get_current_state_index@__crt_state_management@@YAIABV__crt_scoped_get_last_error_reset@@@Z 10064eba f i libucrt:per_thread_data.obj
 0001:00063fef       ?is_valid@?$__crt_unique_heap_ptr@U__acrt_ptd@@U__crt_internal_free_policy@@@@QBE_NXZ 10064fef f i libucrt:per_thread_data.obj
 0001:00063ff6       ?release@?$__crt_unique_heap_ptr@U__acrt_ptd@@U__crt_internal_free_policy@@@@QAEXXZ 10064ff6 f i libucrt:per_thread_data.obj
 0001:0006406a       ?value@?$dual_state_global@PAU__crt_locale_data@@@__crt_state_management@@QAEAAPAU__crt_locale_data@@XZ 1006506a f i libucrt:per_thread_data.obj
 0001:0006406d       ___acrt_freeptd            1006506d f   libucrt:per_thread_data.obj
 0001:00064099       ___acrt_getptd             10065099 f   libucrt:per_thread_data.obj
 0001:00064156       ___acrt_getptd_head        10065156 f   libucrt:per_thread_data.obj
 0001:000641f0       ___acrt_getptd_noexit      100651f0 f   libucrt:per_thread_data.obj
 0001:000642a5       ___acrt_initialize_ptd     100652a5 f   libucrt:per_thread_data.obj
 0001:000642d1       ___acrt_uninitialize_ptd   100652d1 f   libucrt:per_thread_data.obj
 0001:000642eb       ___threadhandle            100652eb f   libucrt:per_thread_data.obj
 0001:000642f1       ___threadid                100652f1 f   libucrt:per_thread_data.obj
 0001:000642fd       __free_base                100652fd f   libucrt:free_base.obj
 0001:00064340       __twoToTOS                 10065340 f   libucrt:common.obj
 0001:00064355       __load_CW                  10065355 f   libucrt:common.obj
 0001:0006436c       __convertTOStoQNaN         1006536c f   libucrt:common.obj
 0001:00064385       __fload_withFB             10065385 f   libucrt:common.obj
 0001:000643c8       __checkTOS_withFB          100653c8 f   libucrt:common.obj
 0001:000643de       __fast_exit                100653de f   libucrt:common.obj
 0001:000643eb       __math_exit                100653eb f   libucrt:common.obj
 0001:00064415       __check_overflow_exit      10065415 f   libucrt:common.obj
 0001:00064429       __check_range_exit         10065429 f   libucrt:common.obj
 0001:000644d0       __CIsqrt                   100654d0 f   libucrt:sqrt_impl.obj
 0001:000644e4       __sqrt_common              100654e4     libucrt:sqrt_impl.obj
 0001:00064581       __mbtowc_l                 10065581 f   libucrt:mbtowc.obj
 0001:000646c3       _mbtowc                    100656c3 f   libucrt:mbtowc.obj
 0001:000646dd       __wctomb_l                 100656dd f   libucrt:wctomb.obj
 0001:0006472e       __wctomb_s_l               1006572e f   libucrt:wctomb.obj
 0001:00064889       _wctomb                    10065889 f   libucrt:wctomb.obj
 0001:000648bb       _wctomb_s                  100658bb f   libucrt:wctomb.obj
 0001:000648d8       ?value@?$dual_state_global@PAU__crt_multibyte_data@@@__crt_state_management@@QAEAAPAU__crt_multibyte_data@@XZ 100658d8 f i libucrt:locale_update.obj
 0001:000648db       ___acrt_should_sync_with_global_locale 100658db f i libucrt:locale_update.obj
 0001:000648f7       ___acrt_update_locale_info 100658f7 f   libucrt:locale_update.obj
 0001:00064924       ___acrt_update_multibyte_info 10065924 f   libucrt:locale_update.obj
 0001:00064951       ?__acrt_fp_classify@@YA?AW4__acrt_fp_class@@ABN@Z 10065951 f i libucrt:cvt.obj
 0001:000649b3       ?__acrt_fp_is_negative@@YA_NABN@Z 100659b3 f i libucrt:cvt.obj
 0001:0006531d       ___acrt_fp_format          1006631d f   libucrt:cvt.obj
 0001:000654a9       __fputwc_nolock            100664a9 f   libucrt:fputwc.obj
 0001:000655d2       __fputwchar                100665d2 f   libucrt:fputwc.obj
 0001:000655ec       __putwc_nolock             100665ec f   libucrt:fputwc.obj
 0001:000655f7       _fputwc                    100665f7 f   libucrt:fputwc.obj
 0001:00065675       _putwc                     10066675 f   libucrt:fputwc.obj
 0001:00065680       _putwchar                  10066680 f   libucrt:fputwc.obj
 0001:0006568b       ?lowio_handle@__crt_stdio_stream@@QBEHXZ 1006668b f i libucrt:fileno.obj
 0001:00065692       __fileno                   10066692 f   libucrt:fileno.obj
 0001:000656b9       ??$?RPAU__crt_stdio_stream_data@@@__crt_internal_free_policy@@QBEXQBQAU__crt_stdio_stream_data@@@Z 100666b9 f i libucrt:_file.obj
 0001:000656cb       ??0?$__crt_unique_heap_ptr@PAU__crt_stdio_stream_data@@U__crt_internal_free_policy@@@@QAE@QAPAU__crt_stdio_stream_data@@@Z 100666cb f i libucrt:_file.obj
 0001:000656db       ??1?$__crt_unique_heap_ptr@PAU__crt_stdio_stream_data@@U__crt_internal_free_policy@@@@QAE@XZ 100666db f i libucrt:_file.obj
 0001:000656ed       ?detach@?$__crt_unique_heap_ptr@PAU__crt_stdio_stream_data@@U__crt_internal_free_policy@@@@QAEPAPAU__crt_stdio_stream_data@@XZ 100666ed f i libucrt:_file.obj
 0001:000656f3       ?release@?$__crt_unique_heap_ptr@PAU__crt_stdio_stream_data@@U__crt_internal_free_policy@@@@QAEXXZ 100666f3 f i libucrt:_file.obj
 0001:00065705       ___acrt_initialize_stdio   10066705 f   libucrt:_file.obj
 0001:000657cd       ___acrt_iob_func           100667cd f   libucrt:_file.obj
 0001:000657dd       ___acrt_uninitialize_stdio 100667dd f   libucrt:_file.obj
 0001:00065829       __get_stream_buffer_pointers 10066829 f   libucrt:_file.obj
 0001:0006586f       __lock_file                1006686f f   libucrt:_file.obj
 0001:00065883       __unlock_file              10066883 f   libucrt:_file.obj
 0001:00065897       __fputc_nolock             10066897 f   libucrt:fputc.obj
 0001:000658c0       __fputchar                 100668c0 f   libucrt:fputc.obj
 0001:000658da       __putc_nolock              100668da f   libucrt:fputc.obj
 0001:000658e5       _fputc                     100668e5 f   libucrt:fputc.obj
 0001:000659ef       _putc                      100669ef f   libucrt:fputc.obj
 0001:000659fa       _putchar                   100669fa f   libucrt:fputc.obj
 0001:00065a05       __get_printf_count_output  10066a05 f   libucrt:printf_count_output.obj
 0001:00065a1a       __set_printf_count_output  10066a1a f   libucrt:printf_count_output.obj
 0001:00065a44       ?has_any_buffer@__crt_stdio_stream@@QBE_NXZ 10066a44 f i libucrt:_sftbuf.obj
 0001:00065a53       ?has_any_of@__crt_stdio_stream@@QBE_NJ@Z 10066a53 f i libucrt:_sftbuf.obj
 0001:00065a68       ?has_temporary_buffer@__crt_stdio_stream@@QBE_NXZ 10066a68 f i libucrt:_sftbuf.obj
 0001:00065a74       ?set_flags@__crt_stdio_stream@@QBE_NJ@Z 10066a74 f i libucrt:_sftbuf.obj
 0001:00065a98       ?unset_flags@__crt_stdio_stream@@QBE_NJ@Z 10066a98 f i libucrt:_sftbuf.obj
 0001:00065ac1       ___acrt_should_use_temporary_buffer 10066ac1 f   libucrt:_sftbuf.obj
 0001:00065afc       ___acrt_stdio_begin_temporary_buffering_nolock 10066afc f   libucrt:_sftbuf.obj
 0001:00065ba8       ___acrt_stdio_end_temporary_buffering_nolock 10066ba8 f   libucrt:_sftbuf.obj
 0001:00065be5       ??$?RU__crt_locale_data@@@__crt_internal_free_policy@@QBEXQBU__crt_locale_data@@@Z 10066be5 f i libucrt:wsetlocale.obj
 0001:00065bf7       ??$?RU__crt_locale_pointers@@@__crt_internal_free_policy@@QBEXQBU__crt_locale_pointers@@@Z 10066bf7 f i libucrt:wsetlocale.obj
 0001:00065c09       ??$?RU__crt_multibyte_data@@@__crt_internal_free_policy@@QBEXQBU__crt_multibyte_data@@@Z 10066c09 f i libucrt:wsetlocale.obj
 0001:00065fb2       ??0?$__crt_unique_heap_ptr@U__crt_locale_data@@U__crt_internal_free_policy@@@@QAE@QAU__crt_locale_data@@@Z 10066fb2 f i libucrt:wsetlocale.obj
 0001:00065fc2       ??0?$__crt_unique_heap_ptr@U__crt_locale_pointers@@U__crt_internal_free_policy@@@@QAE@QAU__crt_locale_pointers@@@Z 10066fc2 f i libucrt:wsetlocale.obj
 0001:00065fd2       ??0?$__crt_unique_heap_ptr@U__crt_multibyte_data@@U__crt_internal_free_policy@@@@QAE@QAU__crt_multibyte_data@@@Z 10066fd2 f i libucrt:wsetlocale.obj
 0001:00065fe2       ??0_expandlocale_locale_name_cache@@QAE@QA_WIQAU__crt_qualified_locale_data@@@Z 10066fe2 f i libucrt:wsetlocale.obj
 0001:0006602c       ??1?$__crt_unique_heap_ptr@U__crt_locale_data@@U__crt_internal_free_policy@@@@QAE@XZ 1006702c f i libucrt:wsetlocale.obj
 0001:0006603e       ??1?$__crt_unique_heap_ptr@U__crt_locale_pointers@@U__crt_internal_free_policy@@@@QAE@XZ 1006703e f i libucrt:wsetlocale.obj
 0001:00066050       ??1?$__crt_unique_heap_ptr@U__crt_multibyte_data@@U__crt_internal_free_policy@@@@QAE@XZ 10067050 f i libucrt:wsetlocale.obj
 0001:00066062       ??1_expandlocale_locale_name_cache@@QAE@XZ 10067062 f i libucrt:wsetlocale.obj
 0001:00066092       ??B?$__crt_unique_heap_ptr@U__crt_locale_data@@U__crt_internal_free_policy@@@@QBE_NXZ 10067092 f i libucrt:wsetlocale.obj
 0001:00066099       ??B?$__crt_unique_heap_ptr@U__crt_locale_pointers@@U__crt_internal_free_policy@@@@QBE_NXZ 10067099 f i libucrt:wsetlocale.obj
 0001:000660a0       ??B?$__crt_unique_heap_ptr@U__crt_multibyte_data@@U__crt_internal_free_policy@@@@QBE_NXZ 100670a0 f i libucrt:wsetlocale.obj
 0001:000662c0       ?commit_locale_name@_expandlocale_locale_name_cache@@QAEXQB_WI@Z 100672c0 f i libucrt:wsetlocale.obj
 0001:00066304       ?commit_locale_name_cache_already_updated@_expandlocale_locale_name_cache@@QAEXQB_WI@Z 10067304 f i libucrt:wsetlocale.obj
 0001:00066339       ?detach@?$__crt_unique_heap_ptr@U__crt_locale_data@@U__crt_internal_free_policy@@@@QAEPAU__crt_locale_data@@XZ 10067339 f i libucrt:wsetlocale.obj
 0001:0006633f       ?detach@?$__crt_unique_heap_ptr@U__crt_locale_pointers@@U__crt_internal_free_policy@@@@QAEPAU__crt_locale_pointers@@XZ 1006733f f i libucrt:wsetlocale.obj
 0001:00066345       ?detach@?$__crt_unique_heap_ptr@U__crt_multibyte_data@@U__crt_internal_free_policy@@@@QAEPAU__crt_multibyte_data@@XZ 10067345 f i libucrt:wsetlocale.obj
 0001:0006634b       ?get@?$__crt_unique_heap_ptr@U__crt_locale_data@@U__crt_internal_free_policy@@@@QBEPAU__crt_locale_data@@XZ 1006734b f i libucrt:wsetlocale.obj
 0001:0006634e       ?get@?$__crt_unique_heap_ptr@U__crt_locale_pointers@@U__crt_internal_free_policy@@@@QBEPAU__crt_locale_pointers@@XZ 1006734e f i libucrt:wsetlocale.obj
 0001:00066351       ?get@?$__crt_unique_heap_ptr@U__crt_multibyte_data@@U__crt_internal_free_policy@@@@QBEPAU__crt_multibyte_data@@XZ 10067351 f i libucrt:wsetlocale.obj
 0001:00066354       ?is_valid@?$__crt_unique_heap_ptr@U__crt_locale_data@@U__crt_internal_free_policy@@@@QBE_NXZ 10067354 f i libucrt:wsetlocale.obj
 0001:0006635b       ?is_valid@?$__crt_unique_heap_ptr@U__crt_locale_pointers@@U__crt_internal_free_policy@@@@QBE_NXZ 1006735b f i libucrt:wsetlocale.obj
 0001:00066362       ?is_valid@?$__crt_unique_heap_ptr@U__crt_multibyte_data@@U__crt_internal_free_policy@@@@QBE_NXZ 10067362 f i libucrt:wsetlocale.obj
 0001:00066369       ?release@?$__crt_unique_heap_ptr@U__crt_locale_data@@U__crt_internal_free_policy@@@@QAEXXZ 10067369 f i libucrt:wsetlocale.obj
 0001:0006637b       ?release@?$__crt_unique_heap_ptr@U__crt_locale_pointers@@U__crt_internal_free_policy@@@@QAEXXZ 1006737b f i libucrt:wsetlocale.obj
 0001:0006638d       ?release@?$__crt_unique_heap_ptr@U__crt_multibyte_data@@U__crt_internal_free_policy@@@@QAEXXZ 1006738d f i libucrt:wsetlocale.obj
 0001:0006639f       ___acrt_copy_locale_name   1006739f f   libucrt:wsetlocale.obj
 0001:000663ff       ___acrt_set_locale_changed 100673ff f   libucrt:wsetlocale.obj
 0001:0006640a       ___acrt_uninitialize_locale 1006740a f   libucrt:wsetlocale.obj
 0001:00066431       ___ascii_towlower          10067431 f i libucrt:wsetlocale.obj
 0001:00066448       ___lc_lctowcs              10067448 f   libucrt:wsetlocale.obj
 0001:000664b8       ___lc_wcstolc              100674b8 f   libucrt:wsetlocale.obj
 0001:00066608       __configthreadlocale       10067608 f   libucrt:wsetlocale.obj
 0001:00066699       __create_locale            10067699 f   libucrt:wsetlocale.obj
 0001:00066ac3       __free_locale              10067ac3 f   libucrt:wsetlocale.obj
 0001:00066b85       __get_current_locale       10067b85 f   libucrt:wsetlocale.obj
 0001:00066c20       __wcreate_locale           10067c20 f   libucrt:wsetlocale.obj
 0001:00066d27       __wcscats                  10067d27 f   libucrt:wsetlocale.obj
 0001:00066d68       __wsetlocale               10067d68 f   libucrt:wsetlocale.obj
 0001:00067acd       ___p___mb_cur_max          10068acd f   libucrt:nlsdata.obj
 0001:00067c7e       ___acrt_initialize_lowio   10068c7e f   libucrt:ioinit.obj
 0001:00067cde       ___acrt_uninitialize_lowio 10068cde f   libucrt:ioinit.obj
 0001:00067d0a       ??0?$__crt_scoped_stack_ptr@_W@@QAE@U?$__crt_scoped_stack_ptr_tag@_W@@@Z 10068d0a f i libucrt:lcmapstringa.obj
 0001:00067d1a       ??0?$__crt_scoped_stack_ptr_tag@_W@@QAE@QA_W@Z 10068d1a f i libucrt:lcmapstringa.obj
 0001:00067d2a       ??1?$__crt_scoped_stack_ptr@_W@@QAE@XZ 10068d2a f i libucrt:lcmapstringa.obj
 0001:00067d33       ??B?$__crt_scoped_stack_ptr@_W@@QBE_NXZ 10068d33 f i libucrt:lcmapstringa.obj
 0001:00067f24       ?get@?$__crt_scoped_stack_ptr@_W@@QBEPA_WXZ 10068f24 f i libucrt:lcmapstringa.obj
 0001:00067f27       ___acrt_LCMapStringA       10068f27 f   libucrt:lcmapstringa.obj
 0001:00067f70       ?dangerous_get_state_array@?$dual_state_global@PAPAD@__crt_state_management@@QAEPAPAPADXZ 10068f70 f i libucrt:timeset.obj
 0001:00067f73       ?dangerous_get_state_array@?$dual_state_global@PAPA_W@__crt_state_management@@QAEPAPAPA_WXZ 10068f73 f i libucrt:timeset.obj
 0001:00067f76       ?initialize@?$dual_state_global@H@__crt_state_management@@QAEXH@Z 10068f76 f i libucrt:timeset.obj
 0001:00067f9c       ?initialize@?$dual_state_global@J@__crt_state_management@@QAEXJ@Z 10068f9c f i libucrt:timeset.obj
 0001:00067fc2       ?value@?$dual_state_global@H@__crt_state_management@@QAEAAHXZ 10068fc2 f i libucrt:timeset.obj
 0001:00067fc5       ?value@?$dual_state_global@J@__crt_state_management@@QAEAAJXZ 10068fc5 f i libucrt:timeset.obj
 0001:00067fc8       ___acrt_initialize_timeset 10068fc8 f   libucrt:timeset.obj
 0001:00067fff       ___daylight                10068fff f   libucrt:timeset.obj
 0001:00068005       ___dstbias                 10069005 f   libucrt:timeset.obj
 0001:0006800b       ___timezone                1006900b f   libucrt:timeset.obj
 0001:00068011       ___tzname                  10069011 f   libucrt:timeset.obj
 0001:00068017       ___wide_tzname             10069017 f   libucrt:timeset.obj
 0001:0006801d       __get_daylight             1006901d f   libucrt:timeset.obj
 0001:00068049       __get_dstbias              10069049 f   libucrt:timeset.obj
 0001:00068075       __get_timezone             10069075 f   libucrt:timeset.obj
 0001:000680a1       __get_tzname               100690a1 f   libucrt:timeset.obj
 0001:00068152       ??$?RUtm@@@__crt_internal_free_policy@@QBEXQBUtm@@@Z 10069152 f i libucrt:gmtime.obj
 0001:00068164       ??$__crt_time_elapsed_leap_years@H@@YAHH@Z 10069164 f i libucrt:gmtime.obj
 0001:0006819e       ??$__crt_time_is_leap_year@H@@YA_NH@Z 1006919e f i libucrt:gmtime.obj
 0001:00068480       ??0?$__crt_unique_heap_ptr@Utm@@U__crt_internal_free_policy@@@@QAE@QAUtm@@@Z 10069480 f i libucrt:gmtime.obj
 0001:00068490       ??1?$__crt_unique_heap_ptr@Utm@@U__crt_internal_free_policy@@@@QAE@XZ 10069490 f i libucrt:gmtime.obj
 0001:000685bd       ?detach@?$__crt_unique_heap_ptr@Utm@@U__crt_internal_free_policy@@@@QAEPAUtm@@XZ 100695bd f i libucrt:gmtime.obj
 0001:000685c3       ?release@?$__crt_unique_heap_ptr@Utm@@U__crt_internal_free_policy@@@@QAEXXZ 100695c3 f i libucrt:gmtime.obj
 0001:000685d5       ___getgmtimebuf            100695d5 f   libucrt:gmtime.obj
 0001:00068613       __gmtime32                 10069613 f   libucrt:gmtime.obj
 0001:0006863a       __gmtime32_s               1006963a f   libucrt:gmtime.obj
 0001:00068645       __gmtime64                 10069645 f   libucrt:gmtime.obj
 0001:0006866c       __gmtime64_s               1006966c f   libucrt:gmtime.obj
 0001:00068677       ?__acrt_get_utf8_acp_compatibility_codepage@@YAIXZ 10069677 f i libucrt:tzset.obj
 0001:000688d0       ?_set_daylight@@YAXH@Z     100698d0 f i libucrt:tzset.obj
 0001:000688e1       ?_set_dstbias@@YAXJ@Z      100698e1 f i libucrt:tzset.obj
 0001:000688f2       ?_set_timezone@@YAXJ@Z     100698f2 f i libucrt:tzset.obj
 0001:00068a43       ?dangerous_get_state_array@?$dual_state_global@J@__crt_state_management@@QAEPAJXZ 10069a43 f i libucrt:tzset.obj
 0001:00069020       ___tzset                   1006a020 f   libucrt:tzset.obj
 0001:0006907d       __isindst                  1006a07d f   libucrt:tzset.obj
 0001:000690d1       __tzset                    1006a0d1 f   libucrt:tzset.obj
 0001:0006917b       ___acrt_MultiByteToWideChar 1006a17b f   libucrt:multibytetowidechar.obj
 0001:0006925c       ___acrt_WideCharToMultiByte 1006a25c f   libucrt:widechartomultibyte.obj
 0001:00069313       ?__crt_get_2digit_year@@YAHH@Z 1006a313 f i libucrt:wcsftime.obj
 0001:0006932a       ?__crt_get_century@@YAHH@Z 1006a32a f i libucrt:wcsftime.obj
 0001:0006a3a2       __W_Getdays                1006b3a2 f   libucrt:wcsftime.obj
 0001:0006a501       __W_Getmonths              1006b501 f   libucrt:wcsftime.obj
 0001:0006a660       __W_Gettnames              1006b660 f   libucrt:wcsftime.obj
 0001:0006ad5c       __Wcsftime                 1006bd5c f   libucrt:wcsftime.obj
 0001:0006ad7c       __Wcsftime_l               1006bd7c f   libucrt:wcsftime.obj
 0001:0006aeed       __wcsftime_l               1006beed f   libucrt:wcsftime.obj
 0001:0006af0d       _wcsftime                  1006bf0d f   libucrt:wcsftime.obj
 0001:0006af39       ??$?B$$A6GHPA_WKJ@Z@__crt_fast_encoded_nullptr_t@@QBEP6GHPA_WKJ@ZXZ 1006bf39 f i libucrt:winapi_thunks.obj
 0001:0006afe1       ??$__crt_fast_decode_pointer@P6GHPA_WKJ@Z@@YAP6GHPA_WKJ@ZQ6GH0KJ@Z@Z 1006bfe1 f i libucrt:winapi_thunks.obj
 0001:0006affa       ??$__crt_fast_decode_pointer@PAX@@YAPAXQAX@Z 1006bffa f i libucrt:winapi_thunks.obj
 0001:0006b010       ??$__crt_fast_encode_pointer@P6GHPA_WKJ@Z@@YAP6GHPA_WKJ@ZQ6GH0KJ@Z@Z 1006c010 f i libucrt:winapi_thunks.obj
 0001:0006b69c       _GetCurrentThreadEffectiveToken 1006c69c f i libucrt:winapi_thunks.obj
 0001:0006b6a0       ___acrt_AppPolicyGetProcessTerminationMethodInternal@4 1006c6a0 f   libucrt:winapi_thunks.obj
 0001:0006b6e0       ___acrt_AppPolicyGetShowDeveloperDiagnosticInternal@4 1006c6e0 f   libucrt:winapi_thunks.obj
 0001:0006b720       ___acrt_AppPolicyGetThreadInitializationTypeInternal@4 1006c720 f   libucrt:winapi_thunks.obj
 0001:0006b760       ___acrt_AppPolicyGetWindowingModelInternal@4 1006c760 f   libucrt:winapi_thunks.obj
 0001:0006b7a0       ___acrt_AreFileApisANSI@0  1006c7a0 f   libucrt:winapi_thunks.obj
 0001:0006b7bf       ___acrt_CompareStringEx@36 1006c7bf f   libucrt:winapi_thunks.obj
 0001:0006b81c       ___acrt_EnumSystemLocalesEx@16 1006c81c f   libucrt:winapi_thunks.obj
 0001:0006b870       ___acrt_FlsAlloc@4         1006c870 f   libucrt:winapi_thunks.obj
 0001:0006b8af       ___acrt_FlsFree@4          1006c8af f   libucrt:winapi_thunks.obj
 0001:0006b8ee       ___acrt_FlsGetValue@4      1006c8ee f   libucrt:winapi_thunks.obj
 0001:0006b92d       ___acrt_FlsSetValue@8      1006c92d f   libucrt:winapi_thunks.obj
 0001:0006b96f       ___acrt_GetDateFormatEx@28 1006c96f f   libucrt:winapi_thunks.obj
 0001:0006b9c6       ___acrt_GetEnabledXStateFeatures@0 1006c9c6 f   libucrt:winapi_thunks.obj
 0001:0006b9fa       ___acrt_GetLocaleInfoEx@16 1006c9fa f   libucrt:winapi_thunks.obj
 0001:0006ba39       ___acrt_GetSystemTimePreciseAsFileTime@4 1006ca39 f   libucrt:winapi_thunks.obj
 0001:0006ba78       ___acrt_GetTimeFormatEx@24 1006ca78 f   libucrt:winapi_thunks.obj
 0001:0006babd       ___acrt_GetUserDefaultLocaleName@8 1006cabd f   libucrt:winapi_thunks.obj
 0001:0006baf9       ___acrt_GetXStateFeaturesMask@8 1006caf9 f   libucrt:winapi_thunks.obj
 0001:0006bb39       ___acrt_InitializeCriticalSectionEx@12 1006cb39 f   libucrt:winapi_thunks.obj
 0001:0006bb84       ___acrt_IsValidLocaleName@4 1006cb84 f   libucrt:winapi_thunks.obj
 0001:0006bbbc       ___acrt_LCIDToLocaleName@16 1006cbbc f   libucrt:winapi_thunks.obj
 0001:0006bbfb       ___acrt_LCMapStringEx@36   1006cbfb f   libucrt:winapi_thunks.obj
 0001:0006bc58       ___acrt_LocaleNameToLCID@8 1006cc58 f   libucrt:winapi_thunks.obj
 0001:0006bc89       ___acrt_LocateXStateFeature@12 1006cc89 f   libucrt:winapi_thunks.obj
 0001:0006bcb8       ___acrt_MessageBoxA@16     1006ccb8 f   libucrt:winapi_thunks.obj
 0001:0006bcea       ___acrt_MessageBoxW@16     1006ccea f   libucrt:winapi_thunks.obj
 0001:0006bd1c       ___acrt_RoInitialize@4     1006cd1c f   libucrt:winapi_thunks.obj
 0001:0006bd57       ___acrt_RoUninitialize@0   1006cd57 f   libucrt:winapi_thunks.obj
 0001:0006bd85       ___acrt_RtlGenRandom@8     1006cd85 f   libucrt:winapi_thunks.obj
 0001:0006bdc5       ___acrt_SetThreadStackGuarantee@4 1006cdc5 f   libucrt:winapi_thunks.obj
 0001:0006be00       ___acrt_can_show_message_box 1006ce00 f   libucrt:winapi_thunks.obj
 0001:0006be27       ___acrt_can_use_vista_locale_apis 1006ce27 f   libucrt:winapi_thunks.obj
 0001:0006be32       ___acrt_can_use_xstate_apis 1006ce32 f   libucrt:winapi_thunks.obj
 0001:0006be3d       ___acrt_eagerly_load_locale_apis 1006ce3d f   libucrt:winapi_thunks.obj
 0001:0006be74       ___acrt_get_parent_window  1006ce74 f   libucrt:winapi_thunks.obj
 0001:0006bedc       ___acrt_initialize_winapi_thunks 1006cedc f   libucrt:winapi_thunks.obj
 0001:0006bf07       ___acrt_is_interactive     1006cf07 f   libucrt:winapi_thunks.obj
 0001:0006bfa6       ___acrt_uninitialize_winapi_thunks 1006cfa6 f   libucrt:winapi_thunks.obj
 0001:0006bfdc       ___pctype_func             1006cfdc f   libucrt:ctype.obj
 0001:0006c000       ___pwctype_func            1006d000 f   libucrt:ctype.obj
 0001:0006c006       __iswctype_l               1006d006 f   libucrt:iswctype.obj
 0001:0006c01a       _iswctype                  1006d01a f   libucrt:iswctype.obj
 0001:0006c083       __isctype                  1006d083 f   libucrt:isctype.obj
 0001:0006c0b6       __isctype_l                1006d0b6 f   libucrt:isctype.obj
 0001:0006c181       __isleadbyte_fast_internal 1006d181 f i libucrt:isctype.obj
 0001:0006c26a       _wcsncpy_s                 1006d26a f   libucrt:wcsncpy_s.obj
 0001:0006c328       _strncpy_s                 1006d328 f   libucrt:strncpy_s.obj
 0001:0006c38a       __ismbbalnum               1006d38a f   libucrt:ismbbyte.obj
 0001:0006c3a5       __ismbbalnum_l             1006d3a5 f   libucrt:ismbbyte.obj
 0001:0006c3c1       __ismbbalpha               1006d3c1 f   libucrt:ismbbyte.obj
 0001:0006c3dc       __ismbbalpha_l             1006d3dc f   libucrt:ismbbyte.obj
 0001:0006c3f8       __ismbbblank               1006d3f8 f   libucrt:ismbbyte.obj
 0001:0006c41b       __ismbbblank_l             1006d41b f   libucrt:ismbbyte.obj
 0001:0006c43f       __ismbbgraph               1006d43f f   libucrt:ismbbyte.obj
 0001:0006c45a       __ismbbgraph_l             1006d45a f   libucrt:ismbbyte.obj
 0001:0006c476       __ismbbkalnum              1006d476 f   libucrt:ismbbyte.obj
 0001:0006c48e       __ismbbkalnum_l            1006d48e f   libucrt:ismbbyte.obj
 0001:0006c4a7       __ismbbkana                1006d4a7 f   libucrt:ismbbyte.obj
 0001:0006c4ba       __ismbbkana_l              1006d4ba f   libucrt:ismbbyte.obj
 0001:0006c509       __ismbbkprint              1006d509 f   libucrt:ismbbyte.obj
 0001:0006c521       __ismbbkprint_l            1006d521 f   libucrt:ismbbyte.obj
 0001:0006c53a       __ismbbkpunct              1006d53a f   libucrt:ismbbyte.obj
 0001:0006c552       __ismbbkpunct_l            1006d552 f   libucrt:ismbbyte.obj
 0001:0006c56b       __ismbblead                1006d56b f   libucrt:ismbbyte.obj
 0001:0006c583       __ismbblead_l              1006d583 f   libucrt:ismbbyte.obj
 0001:0006c59c       __ismbbprint               1006d59c f   libucrt:ismbbyte.obj
 0001:0006c5b7       __ismbbprint_l             1006d5b7 f   libucrt:ismbbyte.obj
 0001:0006c5d3       __ismbbpunct               1006d5d3 f   libucrt:ismbbyte.obj
 0001:0006c5eb       __ismbbpunct_l             1006d5eb f   libucrt:ismbbyte.obj
 0001:0006c604       __ismbbtrail               1006d604 f   libucrt:ismbbyte.obj
 0001:0006c61c       __ismbbtrail_l             1006d61c f   libucrt:ismbbyte.obj
 0001:0006c635       ___acrt_initialize_sse2    1006d635 f   libucrt:mathfcns.obj
 0001:0006c645       __set_SSE2_enable          1006d645 f   libucrt:mathfcns.obj
 0001:0006c670       __CIcos                    1006d670 f   libucrt:cos_impl.obj
 0001:0006c6ab       __CIcos_default            1006d6ab f   libucrt:cos_impl.obj
 0001:0006c6bf       __cos_default              1006d6bf     libucrt:cos_impl.obj
 0001:0006c760       __CIcos_pentium4           1006d760 f   libucrt:cos_pentium4.obj
 0001:0006c778       __cos_pentium4             1006d778     libucrt:cos_pentium4.obj
 0001:0006c910       __CIsin                    1006d910 f   libucrt:sin_impl.obj
 0001:0006c94b       __CIsin_default            1006d94b f   libucrt:sin_impl.obj
 0001:0006c95f       __sin_default              1006d95f     libucrt:sin_impl.obj
 0001:0006ca00       __CIsin_pentium4           1006da00 f   libucrt:sin_pentium4.obj
 0001:0006ca18       __sin_pentium4             1006da18     libucrt:sin_pentium4.obj
 0001:0006cbc8       ___acrt_initialize_locks   1006dbc8 f   libucrt:locks.obj
 0001:0006cc09       ___acrt_lock               1006dc09 f   libucrt:locks.obj
 0001:0006cc20       ___acrt_uninitialize_locks 1006dc20 f   libucrt:locks.obj
 0001:0006cc51       ___acrt_unlock             1006dc51 f   libucrt:locks.obj
 0001:0006cc68       __lock_locales             1006dc68 f   libucrt:locks.obj
 0001:0006cc76       __unlock_locales           1006dc76 f   libucrt:locks.obj
 0001:0006cc7f       ??$__crt_fast_decode_pointer@P6AHPAU_exception@@@Z@@YAP6AHPAU_exception@@@ZQ6AH0@Z@Z 1006dc7f f i libucrt:matherr.obj
 0001:0006cc95       ??$__crt_fast_encode_pointer@P6AHPAU_exception@@@Z@@YAP6AHPAU_exception@@@ZQ6AH0@Z@Z 1006dc95 f i libucrt:matherr.obj
